

Microchip MPLAB XC8 Assembler V2.40 build 20220703182018 
                                                                                               Mon Apr 03 08:33:17 2023

Microchip MPLAB XC8 C Compiler v2.40 (Free license) build 20220703182018 Og1 
     1                           	processor	18F57Q43
     2                           	fnconf	rparam,??,?,0
     3                           	pagewidth 120
     4                           	opt	flic
     5                           	psect	idataCOMRAM,global,class=CODE,delta=1,noexec
     6                           	psect	smallconst,global,reloc=2,class=SMALLCONST,delta=1,noexec
     7                           	psect	cinit,global,reloc=2,class=CODE,delta=1
     8                           	psect	bssCOMRAM,global,class=COMRAM,space=1,delta=1,lowdata,noexec
     9                           	psect	dataCOMRAM,global,class=COMRAM,space=1,delta=1,lowdata,noexec
    10                           	psect	bssBANK5,global,class=BANK5,space=1,delta=1,lowdata,noexec
    11                           	psect	cstackBANK5,global,class=BANK5,space=1,delta=1,lowdata,noexec
    12                           	psect	cstackCOMRAM,global,class=COMRAM,space=1,delta=1,lowdata,noexec
    13                           	psect	text0,global,reloc=2,class=CODE,delta=1
    14                           	psect	text1,global,reloc=2,class=CODE,delta=1
    15                           	psect	text2,global,reloc=2,class=CODE,delta=1
    16                           	psect	text3,global,reloc=2,class=CODE,delta=1,group=1
    17                           	psect	text4,global,reloc=2,class=CODE,delta=1,group=1
    18                           	psect	text5,global,reloc=2,class=CODE,delta=1,group=1
    19                           	psect	text6,global,reloc=2,class=CODE,delta=1
    20                           	psect	text7,global,reloc=2,class=CODE,delta=1
    21                           	psect	text8,global,reloc=2,class=CODE,delta=1,group=1
    22                           	psect	text9,global,reloc=2,class=CODE,delta=1,group=1
    23                           	psect	text10,global,reloc=2,class=CODE,delta=1,group=1
    24                           	psect	text11,global,reloc=2,class=CODE,delta=1,group=1
    25                           	psect	text12,global,reloc=2,class=CODE,delta=1,group=1
    26                           	psect	text13,global,reloc=2,class=CODE,delta=1
    27                           	psect	text14,global,reloc=2,class=CODE,delta=1
    28                           	psect	text15,global,reloc=2,class=CODE,delta=1
    29                           	psect	text16,global,reloc=2,class=CODE,delta=1
    30                           	psect	text17,global,reloc=4,class=CODE,delta=1
    31                           	psect	ivt0x8,global,reloc=2,class=CODE,delta=1,noexec,keep,optim=
    32                           	psect	intsave_regs,global,class=BIGRAM,space=1,delta=1,noexec
    33                           	psect	rparam,global,class=COMRAM,space=1,delta=1,noexec
    34                           	psect	idloc,global,abs,ovrld,class=IDLOC,space=5,delta=1,noexec
    35                           	psect	config,global,abs,ovrld,class=CONFIG,space=4,delta=1,noexec
    36   000000                     
    37                           ; Generated 09/02/2023 GMT
    38                           ; 
    39                           ; Copyright © 2023, Microchip Technology Inc. and its subsidiaries ("Microchip")
    40                           ; All rights reserved.
    41                           ; 
    42                           ; This software is developed by Microchip Technology Inc. and its subsidiaries ("Microch
      +                          ip").
    43                           ; 
    44                           ; Redistribution and use in source and binary forms, with or without modification, are
    45                           ; permitted provided that the following conditions are met:
    46                           ; 
    47                           ;     1. Redistributions of source code must retain the above copyright notice, this lis
      +                          t of
    48                           ;        conditions and the following disclaimer.
    49                           ; 
    50                           ;     2. Redistributions in binary form must reproduce the above copyright notice, this 
      +                          list
    51                           ;        of conditions and the following disclaimer in the documentation and/or other
    52                           ;        materials provided with the distribution. Publication is not required when
    53                           ;        this file is used in an embedded application.
    54                           ; 
    55                           ;     3. Microchip's name may not be used to endorse or promote products derived from th
      +                          is
    56                           ;        software without specific prior written permission.
    57                           ; 
    58                           ; THIS SOFTWARE IS PROVIDED BY MICROCHIP "AS IS" AND ANY EXPRESS OR IMPLIED WARRANTIES,
    59                           ; INCLUDING, BUT NOT LIMITED TO, THE IMPLIED WARRANTIES OF MERCHANTABILITY AND FITNESS F
      +                          OR
    60                           ; PURPOSE ARE DISCLAIMED.  IN NO EVENT SHALL MICROCHIP BE LIABLE FOR ANY DIRECT, INDIREC
      +                          T,
    61                           ; INCIDENTAL, SPECIAL, EXEMPLARY, OR CONSEQUENTIAL DAMAGES (INCLUDING BUT NOT LIMITED TO
    62                           ; PROCUREMENT OF SUBSTITUTE GOODS OR SERVICES; LOSS OF USE, DATA OR PROFITS; OR BUSINESS
    63                           ; INTERRUPTION) HOWSOEVER CAUSED AND ON ANY THEORY OF LIABILITY, WHETHER IN CONTRACT, ST
      +                          RICT
    64                           ; LIABILITY, OR TORT (INCLUDING NEGLIGENCE OR OTHERWISE) ARISING IN ANY WAY OUT OF THE U
      +                          SE OF
    65                           ; THIS SOFTWARE, EVEN IF ADVISED OF THE POSSIBILITY OF SUCH DAMAGE.
    66                           ; 
    67                           ; 
    68                           ; Code-generator required, PIC18F57Q43 Definitions
    69                           ; 
    70                           ; SFR Addresses
    71   000000                     
    72                           	psect	idataCOMRAM
    73   003F04                     __pidataCOMRAM:
    74                           	callstack 0
    75                           
    76                           ;initializer for _nSetRTC
    77   003F04  01                 	db	1
    78   000000                     _IOCBF4	set	8316
    79   000000                     _LATD	set	1217
    80   000000                     _T0CON0bits	set	794
    81   000000                     _ANSELBbits	set	1032
    82   000000                     _TRISBbits	set	1223
    83   000000                     _TRISD	set	1225
    84   000000                     _INTCON0bits	set	1238
    85   000000                     _PIE0bits	set	1182
    86   000000                     _WPUBbits	set	1033
    87   000000                     _IOCBN4	set	8308
    88   000000                     _LATDbits	set	1217
    89   000000                     _ANSELD	set	1048
    90   000000                     _IOCBF	set	1039
    91   000000                     _ADRESL	set	1002
    92   000000                     _ADRESH	set	1003
    93   000000                     _ADPCH	set	1004
    94   000000                     _ADCON0bits	set	1011
    95   000000                     _WPUD	set	1049
    96   000000                     _TRISAbits	set	1222
    97   000000                     _ANSELAbits	set	1024
    98                           
    99                           	psect	smallconst
   100   002600                     __psmallconst:
   101                           	callstack 0
   102   002600  00                 	db	0
   103   002601                     
   104                           ; BSR set to: 3
   105   002601  25                 	db	37
   106   002602  69                 	db	105	;'i'
   107   002603  32                 	db	50	;'2'
   108   002604  3A                 	db	58	;':'
   109   002605  25                 	db	37
   110   002606  69                 	db	105	;'i'
   111   002607  32                 	db	50	;'2'
   112   002608  3A                 	db	58	;':'
   113   002609  25                 	db	37
   114   00260A  69                 	db	105	;'i'
   115   00260B  32                 	db	50	;'2'
   116   00260C  20                 	db	32
   117   00260D  25                 	db	37
   118   00260E  63                 	db	99	;'c'
   119   00260F  6D                 	db	109	;'m'
   120   002610  00                 	db	0
   121   002611                     STR_2:
   122                           
   123                           ; BSR set to: 3
   124   002611  25                 	db	37
   125   002612  31                 	db	49	;'1'
   126   002613  66                 	db	102	;'f'
   127   002614  32                 	db	50	;'2'
   128   002615  00                 	db	0
   129   002616  00                 	db	0	; dummy byte at the end
   130   000000                     
   131                           ; #config settings
   132                           
   133                           	psect	cinit
   134   003EB0                     __pcinit:
   135                           	callstack 0
   136   003EB0                     start_initialization:
   137                           	callstack 0
   138   003EB0                     __initialization:
   139                           	callstack 0
   140                           
   141                           ; Initialize objects allocated to COMRAM (1 bytes)
   142                           ; load TBLPTR registers with __pidataCOMRAM
   143   003EB0  0E04               	movlw	low __pidataCOMRAM
   144   003EB2  6EF6               	movwf	tblptrl,c
   145   003EB4  0E3F               	movlw	high __pidataCOMRAM
   146   003EB6  6EF7               	movwf	tblptrh,c
   147   003EB8  0E00               	movlw	low (__pidataCOMRAM shr (0+16))
   148   003EBA  6EF8               	movwf	tblptru,c
   149   003EBC  0009               	tblrd		*+	;fetch initializer
   150   003EBE  C4F5 F55D          	movff	tablat,__pdataCOMRAM
   151                           
   152                           ; Clear objects allocated to BANK5 (14 bytes)
   153   003EC2  EE01  F185         	lfsr	0,__pbssBANK5
   154   003EC6  0E0E               	movlw	14
   155   003EC8                     clear_0:
   156   003EC8  6AEE               	clrf	postinc0,c
   157   003ECA  06E8               	decf	wreg,f,c
   158   003ECC  E1FD               	bnz	clear_0
   159                           
   160                           ; Clear objects allocated to COMRAM (1 bytes)
   161   003ECE  6A5C               	clrf	__pbssCOMRAM& (0+255),c
   162                           
   163                           ;
   164                           ; Setup IVTBASE
   165                           ;
   166   003ED0  0104               	movlb	4
   167   003ED2  0E08               	movlw	(ivt0x8_base shr 0)& (0+255)
   168   003ED4  6F5D               	movwf	93,b
   169   003ED6  0E00               	movlw	(ivt0x8_base shr (0+8))& (0+255)
   170   003ED8  6F5E               	movwf	94,b
   171   003EDA  0E00               	movlw	(ivt0x8_base shr (0+16))& (0+255)
   172   003EDC  6F5F               	movwf	95,b
   173   003EDE                     end_of_initialization:
   174                           	callstack 0
   175   003EDE                     __end_of__initialization:
   176                           	callstack 0
   177   003EDE  0E00               	movlw	low (__Lsmallconst shr (0+16))
   178   003EE0  6EF8               	movwf	tblptru,c
   179   003EE2  0E26               	movlw	high __Lsmallconst
   180   003EE4  6EF7               	movwf	tblptrh,c
   181   003EE6  0100               	movlb	0
   182   003EE8  EF5F  F01D         	goto	_main	;jump to C main() function
   183                           
   184                           	psect	bssCOMRAM
   185   00055C                     __pbssCOMRAM:
   186                           	callstack 0
   187   00055C                     _tick_count:
   188                           	callstack 0
   189   00055C                     	ds	1
   190                           
   191                           	psect	dataCOMRAM
   192   00055D                     __pdataCOMRAM:
   193                           	callstack 0
   194   00055D                     _nSetRTC:
   195                           	callstack 0
   196   00055D                     	ds	1
   197                           
   198                           	psect	bssBANK5
   199   000585                     __pbssBANK5:
   200                           	callstack 0
   201   000585                     	ds	8
   202   00058D                     	ds	6
   203                           
   204                           	psect	cstackBANK5
   205   000560                     __pcstackBANK5:
   206                           	callstack 0
   207   000560                     ?_LCDprintf:
   208                           	callstack 0
   209   000560                     ?_analogMap:
   210                           	callstack 0
   211   000560                     LCDprintf@shell:
   212                           	callstack 0
   213   000560                     analogMap@analog_reading:
   214                           	callstack 0
   215                           
   216                           ; 2 bytes @ 0x0
   217   000560                     	ds	2
   218   000562                     analogMap@analog_max:
   219                           	callstack 0
   220                           
   221                           ; 2 bytes @ 0x2
   222   000562                     	ds	2
   223   000564                     analogMap@analog_min:
   224                           	callstack 0
   225                           
   226                           ; 2 bytes @ 0x4
   227   000564                     	ds	2
   228   000566                     ??_LCDprintf:
   229   000566                     analogMap@sensor_max:
   230                           	callstack 0
   231                           
   232                           ; 4 bytes @ 0x6
   233   000566                     	ds	4
   234   00056A                     analogMap@sensor_min:
   235                           	callstack 0
   236                           
   237                           ; 4 bytes @ 0xA
   238   00056A                     	ds	2
   239   00056C                     LCDprintf@f_string:
   240                           	callstack 0
   241                           
   242                           ; 10 bytes @ 0xC
   243   00056C                     	ds	2
   244   00056E                     ??_analogMap:
   245                           
   246                           ; 1 bytes @ 0xE
   247   00056E                     	ds	4
   248   000572                     _analogMap$1121:
   249                           	callstack 0
   250                           
   251                           ; 4 bytes @ 0x12
   252   000572                     	ds	4
   253   000576                     _LCDprintf$339:
   254                           	callstack 0
   255                           
   256                           ; 2 bytes @ 0x16
   257   000576                     	ds	2
   258   000578                     LCDprintf@f_input:
   259                           	callstack 0
   260                           
   261                           ; 4 bytes @ 0x18
   262   000578                     	ds	4
   263   00057C                     LCDprintf@f_int:
   264                           	callstack 0
   265                           
   266                           ; 2 bytes @ 0x1C
   267   00057C                     	ds	2
   268   00057E                     LCDprintf@args:
   269                           	callstack 0
   270                           
   271                           ; 2 bytes @ 0x1E
   272   00057E                     	ds	2
   273   000580                     LCDprintf@indexer:
   274                           	callstack 0
   275                           
   276                           ; 1 bytes @ 0x20
   277   000580                     	ds	1
   278   000581                     main@pot_voltage:
   279                           	callstack 0
   280                           
   281                           ; 4 bytes @ 0x21
   282   000581                     	ds	4
   283                           
   284                           	psect	cstackCOMRAM
   285   000501                     __pcstackCOMRAM:
   286                           	callstack 0
   287   000501                     ??_setINT:
   288   000501                     
   289                           ; 1 bytes @ 0x0
   290   000501                     	ds	1
   291   000502                     ??_LCDinstruct:
   292   000502                     ??_LCDprintc:
   293   000502                     ?_analogRead:
   294                           	callstack 0
   295   000502                     ?___lwdiv:
   296                           	callstack 0
   297   000502                     ?___lwmod:
   298                           	callstack 0
   299   000502                     ?___fltol:
   300                           	callstack 0
   301   000502                     ?___xxtofl:
   302                           	callstack 0
   303   000502                     ___lwdiv@dividend:
   304                           	callstack 0
   305   000502                     ___lwmod@dividend:
   306                           	callstack 0
   307   000502                     analogRead@pin_ansel:
   308                           	callstack 0
   309   000502                     ___fltol@f1:
   310                           	callstack 0
   311   000502                     ___xxtofl@val:
   312                           	callstack 0
   313                           
   314                           ; 4 bytes @ 0x1
   315   000502                     	ds	1
   316   000503                     LCDinstruct@instr:
   317                           	callstack 0
   318   000503                     LCDprintc@c:
   319                           	callstack 0
   320                           
   321                           ; 1 bytes @ 0x2
   322   000503                     	ds	1
   323   000504                     ??_LCDinit:
   324   000504                     ___lwdiv@divisor:
   325                           	callstack 0
   326   000504                     ___lwmod@divisor:
   327                           	callstack 0
   328                           
   329                           ; 2 bytes @ 0x3
   330   000504                     	ds	2
   331   000506                     ??___fltol:
   332   000506                     ??___xxtofl:
   333   000506                     ___lwmod@counter:
   334                           	callstack 0
   335   000506                     ___lwdiv@quotient:
   336                           	callstack 0
   337   000506                     analogRead@pin_tris:
   338                           	callstack 0
   339                           
   340                           ; 4 bytes @ 0x5
   341   000506                     	ds	2
   342   000508                     ___lwdiv@counter:
   343                           	callstack 0
   344                           
   345                           ; 1 bytes @ 0x7
   346   000508                     	ds	1
   347   000509                     ?_toString:
   348                           	callstack 0
   349   000509                     toString@number:
   350                           	callstack 0
   351                           
   352                           ; 2 bytes @ 0x8
   353   000509                     	ds	1
   354   00050A                     analogRead@pin_designation:
   355                           	callstack 0
   356   00050A                     ___fltol@sign1:
   357                           	callstack 0
   358   00050A                     ___xxtofl@sign:
   359                           	callstack 0
   360                           
   361                           ; 1 bytes @ 0x9
   362   00050A                     	ds	1
   363   00050B                     ??_analogRead:
   364   00050B                     toString@length:
   365                           	callstack 0
   366   00050B                     ___fltol@exp1:
   367                           	callstack 0
   368   00050B                     ___xxtofl@exp:
   369                           	callstack 0
   370                           
   371                           ; 1 bytes @ 0xA
   372   00050B                     	ds	1
   373   00050C                     ___xxtofl@arg:
   374                           	callstack 0
   375   00050C                     toString@string:
   376                           	callstack 0
   377                           
   378                           ; 6 bytes @ 0xB
   379   00050C                     	ds	4
   380   000510                     ?___fldiv:
   381                           	callstack 0
   382   000510                     ___fldiv@b:
   383                           	callstack 0
   384                           
   385                           ; 4 bytes @ 0xF
   386   000510                     	ds	2
   387   000512                     toString@i:
   388                           	callstack 0
   389                           
   390                           ; 1 bytes @ 0x11
   391   000512                     	ds	1
   392   000513                     LCDprints@c:
   393                           	callstack 0
   394                           
   395                           ; 2 bytes @ 0x12
   396   000513                     	ds	1
   397   000514                     ___fldiv@a:
   398                           	callstack 0
   399                           
   400                           ; 4 bytes @ 0x13
   401   000514                     	ds	1
   402   000515                     
   403                           ; 1 bytes @ 0x14
   404   000515                     	ds	3
   405   000518                     ??___fldiv:
   406                           
   407                           ; 1 bytes @ 0x17
   408   000518                     	ds	4
   409   00051C                     ___fldiv@rem:
   410                           	callstack 0
   411                           
   412                           ; 4 bytes @ 0x1B
   413   00051C                     	ds	4
   414   000520                     ___fldiv@sign:
   415                           	callstack 0
   416                           
   417                           ; 1 bytes @ 0x1F
   418   000520                     	ds	1
   419   000521                     ___fldiv@new_exp:
   420                           	callstack 0
   421                           
   422                           ; 2 bytes @ 0x20
   423   000521                     	ds	2
   424   000523                     ___fldiv@grs:
   425                           	callstack 0
   426                           
   427                           ; 4 bytes @ 0x22
   428   000523                     	ds	4
   429   000527                     ___fldiv@bexp:
   430                           	callstack 0
   431                           
   432                           ; 1 bytes @ 0x26
   433   000527                     	ds	1
   434   000528                     ___fldiv@aexp:
   435                           	callstack 0
   436                           
   437                           ; 1 bytes @ 0x27
   438   000528                     	ds	1
   439   000529                     ?___fladd:
   440                           	callstack 0
   441   000529                     ___fladd@b:
   442                           	callstack 0
   443                           
   444                           ; 4 bytes @ 0x28
   445   000529                     	ds	4
   446   00052D                     ___fladd@a:
   447                           	callstack 0
   448                           
   449                           ; 4 bytes @ 0x2C
   450   00052D                     	ds	4
   451   000531                     ??___fladd:
   452                           
   453                           ; 1 bytes @ 0x30
   454   000531                     	ds	4
   455   000535                     ___fladd@signs:
   456                           	callstack 0
   457                           
   458                           ; 1 bytes @ 0x34
   459   000535                     	ds	1
   460   000536                     ___fladd@aexp:
   461                           	callstack 0
   462                           
   463                           ; 1 bytes @ 0x35
   464   000536                     	ds	1
   465   000537                     ___fladd@bexp:
   466                           	callstack 0
   467                           
   468                           ; 1 bytes @ 0x36
   469   000537                     	ds	1
   470   000538                     ___fladd@grs:
   471                           	callstack 0
   472                           
   473                           ; 1 bytes @ 0x37
   474   000538                     	ds	1
   475   000539                     ?___flsub:
   476                           	callstack 0
   477   000539                     ___flsub@b:
   478                           	callstack 0
   479                           
   480                           ; 4 bytes @ 0x38
   481   000539                     	ds	4
   482   00053D                     ___flsub@a:
   483                           	callstack 0
   484                           
   485                           ; 4 bytes @ 0x3C
   486   00053D                     	ds	4
   487   000541                     ?___flmul:
   488                           	callstack 0
   489   000541                     ___flmul@b:
   490                           	callstack 0
   491                           
   492                           ; 4 bytes @ 0x40
   493   000541                     	ds	4
   494   000545                     ___flmul@a:
   495                           	callstack 0
   496                           
   497                           ; 4 bytes @ 0x44
   498   000545                     	ds	4
   499   000549                     ??___flmul:
   500                           
   501                           ; 1 bytes @ 0x48
   502   000549                     	ds	4
   503   00054D                     ___flmul@sign:
   504                           	callstack 0
   505                           
   506                           ; 1 bytes @ 0x4C
   507   00054D                     	ds	1
   508   00054E                     ___flmul@grs:
   509                           	callstack 0
   510                           
   511                           ; 4 bytes @ 0x4D
   512   00054E                     	ds	4
   513   000552                     ___flmul@aexp:
   514                           	callstack 0
   515                           
   516                           ; 1 bytes @ 0x51
   517   000552                     	ds	1
   518   000553                     ___flmul@bexp:
   519                           	callstack 0
   520                           
   521                           ; 1 bytes @ 0x52
   522   000553                     	ds	1
   523   000554                     ___flmul@prod:
   524                           	callstack 0
   525                           
   526                           ; 4 bytes @ 0x53
   527   000554                     	ds	4
   528   000558                     ___flmul@temp:
   529                           	callstack 0
   530                           
   531                           ; 2 bytes @ 0x57
   532   000558                     	ds	2
   533   00055A                     ??_main:
   534                           
   535                           ; 1 bytes @ 0x59
   536   00055A                     	ds	2
   537                           
   538 ;;
   539 ;;Main: autosize = 0, tempsize = 2, incstack = 0, save=0
   540 ;;
   541 ;; *************** function _main *****************
   542 ;; Defined at:
   543 ;;		line 24 in file "C:/Users/a_hui/OneDrive - Camosun College/term2/ecet165_embedded_mc/labs/ecet165-labs/lab11/analogT
      +est.c"
   544 ;; Parameters:    Size  Location     Type
   545 ;;		None
   546 ;; Auto vars:     Size  Location     Type
   547 ;;  pot_voltage     4   33[BANK5 ] PTR unsigned char [4]
   548 ;; Return value:  Size  Location     Type
   549 ;;                  1    wreg      void 
   550 ;; Registers used:
   551 ;;		wreg, fsr2l, fsr2h, status,2, status,0, tblptrl, tblptrh, tblptru, prodl, prodh, cstack
   552 ;; Tracked objects:
   553 ;;		On entry : 0/0
   554 ;;		On exit  : 0/0
   555 ;;		Unchanged: 0/0
   556 ;; Data sizes:     COMRAM   BANK5   BANK6   BANK7   BANK8   BANK9  BANK10  BANK11  BANK12  BANK13  BANK14  BANK15  BANK1
      +6  BANK17  BANK18  BANK19  BANK20  BANK21  BANK22  BANK23  BANK24  BANK25  BANK26  BANK27  BANK28  BANK29  BANK30  BANK3
      +1  BANK32  BANK33  BANK34  BANK35  BANK36
   557 ;;      Params:         0       0       0       0       0       0       0       0       0       0       0       0       
      +0       0       0       0       0       0       0       0       0       0       0       0       0       0       0       
      +0       0       0       0       0       0
   558 ;;      Locals:         0       4       0       0       0       0       0       0       0       0       0       0       
      +0       0       0       0       0       0       0       0       0       0       0       0       0       0       0       
      +0       0       0       0       0       0
   559 ;;      Temps:          2       0       0       0       0       0       0       0       0       0       0       0       
      +0       0       0       0       0       0       0       0       0       0       0       0       0       0       0       
      +0       0       0       0       0       0
   560 ;;      Totals:         2       4       0       0       0       0       0       0       0       0       0       0       
      +0       0       0       0       0       0       0       0       0       0       0       0       0       0       0       
      +0       0       0       0       0       0
   561 ;;Total ram usage:        6 bytes
   562 ;; Hardware stack levels required when called: 4
   563 ;; This function calls:
   564 ;;		_LCDinit
   565 ;;		_LCDinstruct
   566 ;;		_LCDprintf
   567 ;;		_analogMap
   568 ;;		_analogRead
   569 ;; This function is called by:
   570 ;;		Startup code after reset
   571 ;; This function uses a non-reentrant model
   572 ;;
   573                           
   574                           	psect	text0
   575   003ABE                     __ptext0:
   576                           	callstack 0
   577   003ABE                     _main:
   578                           	callstack 123
   579   003ABE                     
   580                           ;C:/Users/a_hui/OneDrive - Camosun College/term2/ecet165_embedded_mc/labs/ecet165-labs/l
      +                          ab11/analogTest.c: 27:     LCDinit();
   581   003ABE  ECEA  F01C         	call	_LCDinit	;wreg free
   582   003AC2                     l161:
   583                           
   584                           ;C:/Users/a_hui/OneDrive - Camosun College/term2/ecet165_embedded_mc/labs/ecet165-labs/l
      +                          ab11/analogTest.c: 34:         LCDinstruct(0x02);
   585   003AC2  0E02               	movlw	2
   586   003AC4  EC7D  F01E         	call	_LCDinstruct
   587   003AC8                     
   588                           ;C:/Users/a_hui/OneDrive - Camosun College/term2/ecet165_embedded_mc/labs/ecet165-labs/l
      +                          ab11/analogTest.c: 35:         pot_voltage = analogMap(analogRead(ANSELAbits.ANSELA3, TR
      +                          ISAbits.TRISA3, 0x03), 4000, 0, 5.00, 0.00);
   589   003AC8  0104               	movlb	4	; () banked
   590   003ACA  B700               	btfsc	0,3,b	;volatile
   591   003ACC  EF6A  F01D         	goto	u2591
   592   003AD0  EF6E  F01D         	goto	u2590
   593   003AD4                     u2591:
   594   003AD4  6A5A               	clrf	??_main^(0+1280),c
   595   003AD6  2A5A               	incf	??_main^(0+1280),f,c
   596   003AD8  EF6F  F01D         	goto	u2598
   597   003ADC                     u2590:
   598   003ADC  6A5A               	clrf	??_main^(0+1280),c
   599   003ADE                     u2598:
   600   003ADE  505A               	movf	??_main^(0+1280),w,c
   601   003AE0  6E02               	movwf	analogRead@pin_ansel^(0+1280),c
   602   003AE2  6A03               	clrf	(analogRead@pin_ansel+1)^(0+1280),c
   603   003AE4  6A04               	clrf	(analogRead@pin_ansel+2)^(0+1280),c
   604   003AE6  6A05               	clrf	(analogRead@pin_ansel+3)^(0+1280),c
   605   003AE8  B6C6               	btfsc	198,3,c	;volatile
   606   003AEA  EF79  F01D         	goto	u2601
   607   003AEE  EF7D  F01D         	goto	u2600
   608   003AF2                     u2601:
   609   003AF2  6A5B               	clrf	(??_main+1)^(0+1280),c
   610   003AF4  2A5B               	incf	(??_main+1)^(0+1280),f,c
   611   003AF6  EF7E  F01D         	goto	u2608
   612   003AFA                     u2600:
   613   003AFA  6A5B               	clrf	(??_main+1)^(0+1280),c
   614   003AFC                     u2608:
   615   003AFC  505B               	movf	(??_main+1)^(0+1280),w,c
   616   003AFE  6E06               	movwf	analogRead@pin_tris^(0+1280),c
   617   003B00  6A07               	clrf	(analogRead@pin_tris+1)^(0+1280),c
   618   003B02  6A08               	clrf	(analogRead@pin_tris+2)^(0+1280),c
   619   003B04  6A09               	clrf	(analogRead@pin_tris+3)^(0+1280),c
   620   003B06  0E03               	movlw	3
   621   003B08  6E0A               	movwf	analogRead@pin_designation^(0+1280),c
   622   003B0A  EC12  F01F         	call	_analogRead	;wreg free
   623   003B0E  C502  F560         	movff	?_analogRead,analogMap@analog_reading
   624   003B12  C503  F561         	movff	?_analogRead+1,analogMap@analog_reading+1
   625   003B16  0E0F               	movlw	15
   626   003B18  0105               	movlb	5	; () banked
   627   003B1A  6F63               	movwf	(analogMap@analog_max+1)& (0+255),b
   628   003B1C  0EA0               	movlw	160
   629   003B1E  6F62               	movwf	analogMap@analog_max& (0+255),b
   630   003B20  0E00               	movlw	0
   631   003B22  6F65               	movwf	(analogMap@analog_min+1)& (0+255),b
   632   003B24  0E00               	movlw	0
   633   003B26  6F64               	movwf	analogMap@analog_min& (0+255),b
   634   003B28  0E00               	movlw	0
   635   003B2A  6F66               	movwf	analogMap@sensor_max& (0+255),b
   636   003B2C  0E00               	movlw	0
   637   003B2E  6F67               	movwf	(analogMap@sensor_max+1)& (0+255),b
   638   003B30  0EA0               	movlw	160
   639   003B32  6F68               	movwf	(analogMap@sensor_max+2)& (0+255),b
   640   003B34  0E40               	movlw	64
   641   003B36  6F69               	movwf	(analogMap@sensor_max+3)& (0+255),b
   642   003B38  0E00               	movlw	0
   643   003B3A  6F6A               	movwf	analogMap@sensor_min& (0+255),b
   644   003B3C  0E00               	movlw	0
   645   003B3E  6F6B               	movwf	(analogMap@sensor_min+1)& (0+255),b
   646   003B40  0E00               	movlw	0
   647   003B42  6F6C               	movwf	(analogMap@sensor_min+2)& (0+255),b
   648   003B44  0E00               	movlw	0
   649   003B46  6F6D               	movwf	(analogMap@sensor_min+3)& (0+255),b
   650   003B48  EC71  F01C         	call	_analogMap	;wreg free
   651   003B4C  C560  F581         	movff	?_analogMap,main@pot_voltage
   652   003B50  C561  F582         	movff	?_analogMap+1,main@pot_voltage+1
   653   003B54  C562  F583         	movff	?_analogMap+2,main@pot_voltage+2
   654   003B58  C563  F584         	movff	?_analogMap+3,main@pot_voltage+3
   655   003B5C                     
   656                           ;C:/Users/a_hui/OneDrive - Camosun College/term2/ecet165_embedded_mc/labs/ecet165-labs/l
      +                          ab11/analogTest.c: 36:         LCDprintf("%1f2", pot_voltage);
   657   003B5C  0E11               	movlw	low STR_2
   658   003B5E  0105               	movlb	5	; () banked
   659   003B60  6F60               	movwf	LCDprintf@shell& (0+255),b
   660   003B62  0E26               	movlw	high STR_2
   661   003B64  6F61               	movwf	(LCDprintf@shell+1)& (0+255),b
   662   003B66  C581  F562         	movff	main@pot_voltage,?_LCDprintf+2
   663   003B6A  C582  F563         	movff	main@pot_voltage+1,?_LCDprintf+3
   664   003B6E  C583  F564         	movff	main@pot_voltage+2,?_LCDprintf+4
   665   003B72  C584  F565         	movff	main@pot_voltage+3,?_LCDprintf+5
   666   003B76  EC4E  F019         	call	_LCDprintf	;wreg free
   667   003B7A                     
   668                           ;C:/Users/a_hui/OneDrive - Camosun College/term2/ecet165_embedded_mc/labs/ecet165-labs/l
      +                          ab11/analogTest.c: 37:         _delay((unsigned long)((1000)*(64000000/4000.0)));
   669   003B7A  0E52               	movlw	82
   670   003B7C  6E5B               	movwf	(??_main+1)^(0+1280),c
   671   003B7E  0E2B               	movlw	43
   672   003B80  6E5A               	movwf	??_main^(0+1280),c
   673   003B82  0E00               	movlw	0
   674   003B84                     u2617:
   675   003B84  2EE8               	decfsz	wreg,f,c
   676   003B86  D7FE               	bra	u2617
   677   003B88  2E5A               	decfsz	??_main^(0+1280),f,c
   678   003B8A  D7FC               	bra	u2617
   679   003B8C  2E5B               	decfsz	(??_main+1)^(0+1280),f,c
   680   003B8E  D7FA               	bra	u2617
   681   003B90  D000               	nop2	
   682   003B92  EF61  F01D         	goto	l161
   683   003B96  EF81  F000         	goto	start
   684   003B9A                     __end_of_main:
   685                           	callstack 0
   686                           
   687 ;; *************** function _analogRead *****************
   688 ;; Defined at:
   689 ;;		line 30 in file "C:/Users/a_hui/OneDrive - Camosun College/term2/ecet165_embedded_mc/labs/ecet165-labs/lab11/analog1
      +8f.c"
   690 ;; Parameters:    Size  Location     Type
   691 ;;  pin_ansel       4    1[COMRAM] unsigned long 
   692 ;;  pin_tris        4    5[COMRAM] unsigned long 
   693 ;;  pin_designat    1    9[COMRAM] unsigned char 
   694 ;; Auto vars:     Size  Location     Type
   695 ;;		None
   696 ;; Return value:  Size  Location     Type
   697 ;;                  2    1[COMRAM] unsigned int 
   698 ;; Registers used:
   699 ;;		wreg, status,2, status,0
   700 ;; Tracked objects:
   701 ;;		On entry : 0/0
   702 ;;		On exit  : 0/0
   703 ;;		Unchanged: 0/0
   704 ;; Data sizes:     COMRAM   BANK5   BANK6   BANK7   BANK8   BANK9  BANK10  BANK11  BANK12  BANK13  BANK14  BANK15  BANK1
      +6  BANK17  BANK18  BANK19  BANK20  BANK21  BANK22  BANK23  BANK24  BANK25  BANK26  BANK27  BANK28  BANK29  BANK30  BANK3
      +1  BANK32  BANK33  BANK34  BANK35  BANK36
   705 ;;      Params:         9       0       0       0       0       0       0       0       0       0       0       0       
      +0       0       0       0       0       0       0       0       0       0       0       0       0       0       0       
      +0       0       0       0       0       0
   706 ;;      Locals:         0       0       0       0       0       0       0       0       0       0       0       0       
      +0       0       0       0       0       0       0       0       0       0       0       0       0       0       0       
      +0       0       0       0       0       0
   707 ;;      Temps:          2       0       0       0       0       0       0       0       0       0       0       0       
      +0       0       0       0       0       0       0       0       0       0       0       0       0       0       0       
      +0       0       0       0       0       0
   708 ;;      Totals:        11       0       0       0       0       0       0       0       0       0       0       0       
      +0       0       0       0       0       0       0       0       0       0       0       0       0       0       0       
      +0       0       0       0       0       0
   709 ;;Total ram usage:       11 bytes
   710 ;; Hardware stack levels used: 1
   711 ;; Hardware stack levels required when called: 1
   712 ;; This function calls:
   713 ;;		Nothing
   714 ;; This function is called by:
   715 ;;		_main
   716 ;; This function uses a non-reentrant model
   717 ;;
   718                           
   719                           	psect	text1
   720   003E24                     __ptext1:
   721                           	callstack 0
   722   003E24                     _analogRead:
   723                           	callstack 125
   724   003E24                     
   725                           ;C:/Users/a_hui/OneDrive - Camosun College/term2/ecet165_embedded_mc/labs/ecet165-labs/l
      +                          ab11/analog18f.c: 32:      ADCON0bits.FM = 1;
   726   003E24  0103               	movlb	3	; () banked
   727   003E26  51F3               	movf	243,w,b	;volatile
   728   003E28  0BF3               	andlw	-13
   729   003E2A  0904               	iorlw	4
   730   003E2C  6FF3               	movwf	243,b	;volatile
   731   003E2E                     
   732                           ; BSR set to: 3
   733                           ;C:/Users/a_hui/OneDrive - Camosun College/term2/ecet165_embedded_mc/labs/ecet165-labs/l
      +                          ab11/analog18f.c: 33:      ADCON0bits.CS = 1;
   734   003E2E  89F3               	bsf	243,4,b	;volatile
   735   003E30                     
   736                           ; BSR set to: 3
   737                           ;C:/Users/a_hui/OneDrive - Camosun College/term2/ecet165_embedded_mc/labs/ecet165-labs/l
      +                          ab11/analog18f.c: 34:      ADPCH = pin_designation;
   738   003E30  C50A  F3EC         	movff	analogRead@pin_designation,1004	;volatile
   739                           
   740                           ;C:/Users/a_hui/OneDrive - Camosun College/term2/ecet165_embedded_mc/labs/ecet165-labs/l
      +                          ab11/analog18f.c: 36:      pin_ansel = 1;
   741   003E34  0E01               	movlw	1
   742   003E36  6E02               	movwf	analogRead@pin_ansel^(0+1280),c
   743   003E38  0E00               	movlw	0
   744   003E3A  6E03               	movwf	(analogRead@pin_ansel+1)^(0+1280),c
   745   003E3C  0E00               	movlw	0
   746   003E3E  6E04               	movwf	(analogRead@pin_ansel+2)^(0+1280),c
   747   003E40  0E00               	movlw	0
   748   003E42  6E05               	movwf	(analogRead@pin_ansel+3)^(0+1280),c
   749   003E44                     
   750                           ; BSR set to: 3
   751                           ;C:/Users/a_hui/OneDrive - Camosun College/term2/ecet165_embedded_mc/labs/ecet165-labs/l
      +                          ab11/analog18f.c: 37:      ADCON0bits.ON = 1;
   752   003E44  8FF3               	bsf	243,7,b	;volatile
   753   003E46                     
   754                           ; BSR set to: 3
   755                           ;C:/Users/a_hui/OneDrive - Camosun College/term2/ecet165_embedded_mc/labs/ecet165-labs/l
      +                          ab11/analog18f.c: 39:      ADCON0bits.GO = 1;
   756   003E46  81F3               	bsf	243,0,b	;volatile
   757   003E48                     l134:
   758                           
   759                           ; BSR set to: 3
   760                           ;C:/Users/a_hui/OneDrive - Camosun College/term2/ecet165_embedded_mc/labs/ecet165-labs/l
      +                          ab11/analog18f.c: 40:      while(ADCON0bits.GO)
   761   003E48  B1F3               	btfsc	243,0,b	;volatile
   762   003E4A  EF29  F01F         	goto	u2461
   763   003E4E  EF2B  F01F         	goto	u2460
   764   003E52                     u2461:
   765   003E52  EF24  F01F         	goto	l134
   766   003E56                     u2460:
   767   003E56                     
   768                           ; BSR set to: 3
   769                           ;C:/Users/a_hui/OneDrive - Camosun College/term2/ecet165_embedded_mc/labs/ecet165-labs/l
      +                          ab11/analog18f.c: 42:      return ((ADRESH<<8)+ADRESL);
   770   003E56  51EB               	movf	235,w,b	;volatile
   771   003E58  6E0C               	movwf	(??_analogRead+1)^(0+1280),c
   772   003E5A  6A0B               	clrf	??_analogRead^(0+1280),c
   773   003E5C  51EA               	movf	234,w,b	;volatile
   774   003E5E  240B               	addwf	??_analogRead^(0+1280),w,c
   775   003E60  6E02               	movwf	?_analogRead^(0+1280),c
   776   003E62  0E00               	movlw	0
   777   003E64  200C               	addwfc	(??_analogRead+1)^(0+1280),w,c
   778   003E66  6E03               	movwf	(?_analogRead+1)^(0+1280),c
   779   003E68                     
   780                           ; BSR set to: 3
   781   003E68  0012               	return		;funcret
   782   003E6A                     __end_of_analogRead:
   783                           	callstack 0
   784                           
   785 ;; *************** function _analogMap *****************
   786 ;; Defined at:
   787 ;;		line 57 in file "C:/Users/a_hui/OneDrive - Camosun College/term2/ecet165_embedded_mc/labs/ecet165-labs/lab11/analog1
      +8f.c"
   788 ;; Parameters:    Size  Location     Type
   789 ;;  analog_readi    2    0[BANK5 ] unsigned int 
   790 ;;  analog_max      2    2[BANK5 ] unsigned int 
   791 ;;  analog_min      2    4[BANK5 ] unsigned int 
   792 ;;  sensor_max      4    6[BANK5 ] unsigned int 
   793 ;;  sensor_min      4   10[BANK5 ] unsigned int 
   794 ;; Auto vars:     Size  Location     Type
   795 ;;		None
   796 ;; Return value:  Size  Location     Type
   797 ;;                  4    0[BANK5 ] unsigned int 
   798 ;; Registers used:
   799 ;;		wreg, status,2, status,0, prodl, prodh, cstack
   800 ;; Tracked objects:
   801 ;;		On entry : 0/0
   802 ;;		On exit  : 0/0
   803 ;;		Unchanged: 0/0
   804 ;; Data sizes:     COMRAM   BANK5   BANK6   BANK7   BANK8   BANK9  BANK10  BANK11  BANK12  BANK13  BANK14  BANK15  BANK1
      +6  BANK17  BANK18  BANK19  BANK20  BANK21  BANK22  BANK23  BANK24  BANK25  BANK26  BANK27  BANK28  BANK29  BANK30  BANK3
      +1  BANK32  BANK33  BANK34  BANK35  BANK36
   805 ;;      Params:         0      14       0       0       0       0       0       0       0       0       0       0       
      +0       0       0       0       0       0       0       0       0       0       0       0       0       0       0       
      +0       0       0       0       0       0
   806 ;;      Locals:         0       4       0       0       0       0       0       0       0       0       0       0       
      +0       0       0       0       0       0       0       0       0       0       0       0       0       0       0       
      +0       0       0       0       0       0
   807 ;;      Temps:          0       4       0       0       0       0       0       0       0       0       0       0       
      +0       0       0       0       0       0       0       0       0       0       0       0       0       0       0       
      +0       0       0       0       0       0
   808 ;;      Totals:         0      22       0       0       0       0       0       0       0       0       0       0       
      +0       0       0       0       0       0       0       0       0       0       0       0       0       0       0       
      +0       0       0       0       0       0
   809 ;;Total ram usage:       22 bytes
   810 ;; Hardware stack levels used: 1
   811 ;; Hardware stack levels required when called: 3
   812 ;; This function calls:
   813 ;;		___fladd
   814 ;;		___fldiv
   815 ;;		___flmul
   816 ;;		___flsub
   817 ;;		___xxtofl
   818 ;; This function is called by:
   819 ;;		_main
   820 ;; This function uses a non-reentrant model
   821 ;;
   822                           
   823                           	psect	text2
   824   0038E2                     __ptext2:
   825                           	callstack 0
   826   0038E2                     _analogMap:
   827                           	callstack 123
   828   0038E2                     
   829                           ;C:/Users/a_hui/OneDrive - Camosun College/term2/ecet165_embedded_mc/labs/ecet165-labs/l
      +                          ab11/analog18f.c: 58:             unsigned int analog_reading,;C:/Users/a_hui/OneDrive -
      +                           Camosun College/term2/ecet165_embedded_mc/labs/ecet165-labs/lab11/analog18f.c: 59:     
      +                                  unsigned int analog_max,;C:/Users/a_hui/OneDrive - Camosun College/term2/ecet165
      +                          _embedded_mc/labs/ecet165-labs/lab11/analog18f.c: 60:             unsigned int analog_mi
      +                          n,;C:/Users/a_hui/OneDrive - Camosun College/term2/ecet165_embedded_mc/labs/ecet165-labs
      +                          /lab11/analog18f.c: 61:             double sensor_max,
   830   0038E2  C56A  F53D         	movff	analogMap@sensor_min,___flsub@a
   831   0038E6  C56B  F53E         	movff	analogMap@sensor_min+1,___flsub@a+1
   832   0038EA  C56C  F53F         	movff	analogMap@sensor_min+2,___flsub@a+2
   833   0038EE  C56D  F540         	movff	analogMap@sensor_min+3,___flsub@a+3
   834   0038F2  C566  F539         	movff	analogMap@sensor_max,___flsub@b
   835   0038F6  C567  F53A         	movff	analogMap@sensor_max+1,___flsub@b+1
   836   0038FA  C568  F53B         	movff	analogMap@sensor_max+2,___flsub@b+2
   837   0038FE  C569  F53C         	movff	analogMap@sensor_max+3,___flsub@b+3
   838   003902  EC35  F01F         	call	___flsub	;wreg free
   839   003906  C539  F545         	movff	?___flsub,___flmul@a
   840   00390A  C53A  F546         	movff	?___flsub+1,___flmul@a+1
   841   00390E  C53B  F547         	movff	?___flsub+2,___flmul@a+2
   842   003912  C53C  F548         	movff	?___flsub+3,___flmul@a+3
   843   003916  0105               	movlb	5	; () banked
   844   003918  5164               	movf	analogMap@analog_min& (0+255),w,b
   845   00391A  5D62               	subwf	analogMap@analog_max& (0+255),w,b
   846   00391C  6F6E               	movwf	??_analogMap& (0+255),b
   847   00391E  5165               	movf	(analogMap@analog_min+1)& (0+255),w,b
   848   003920  5963               	subwfb	(analogMap@analog_max+1)& (0+255),w,b
   849   003922  6F6F               	movwf	(??_analogMap+1)& (0+255),b
   850   003924  C56E  F502         	movff	??_analogMap,___xxtofl@val
   851   003928  C56F  F503         	movff	??_analogMap+1,___xxtofl@val+1
   852   00392C  6A04               	clrf	(___xxtofl@val+2)^(0+1280),c
   853   00392E  6A05               	clrf	(___xxtofl@val+3)^(0+1280),c
   854   003930  0E00               	movlw	0
   855   003932  EC14  F01B         	call	___xxtofl
   856   003936  C502  F514         	movff	?___xxtofl,___fldiv@a
   857   00393A  C503  F515         	movff	?___xxtofl+1,___fldiv@a+1
   858   00393E  C504  F516         	movff	?___xxtofl+2,___fldiv@a+2
   859   003942  C505  F517         	movff	?___xxtofl+3,___fldiv@a+3
   860   003946  0105               	movlb	5	; () banked
   861   003948  5164               	movf	analogMap@analog_min& (0+255),w,b
   862   00394A  5D60               	subwf	analogMap@analog_reading& (0+255),w,b
   863   00394C  6F70               	movwf	(??_analogMap+2)& (0+255),b
   864   00394E  5165               	movf	(analogMap@analog_min+1)& (0+255),w,b
   865   003950  5961               	subwfb	(analogMap@analog_reading+1)& (0+255),w,b
   866   003952  6F71               	movwf	(??_analogMap+3)& (0+255),b
   867   003954  C570  F502         	movff	??_analogMap+2,___xxtofl@val
   868   003958  C571  F503         	movff	??_analogMap+3,___xxtofl@val+1
   869   00395C  6A04               	clrf	(___xxtofl@val+2)^(0+1280),c
   870   00395E  6A05               	clrf	(___xxtofl@val+3)^(0+1280),c
   871   003960  0E00               	movlw	0
   872   003962  EC14  F01B         	call	___xxtofl
   873   003966  C502  F510         	movff	?___xxtofl,___fldiv@b
   874   00396A  C503  F511         	movff	?___xxtofl+1,___fldiv@b+1
   875   00396E  C504  F512         	movff	?___xxtofl+2,___fldiv@b+2
   876   003972  C505  F513         	movff	?___xxtofl+3,___fldiv@b+3
   877   003976  EC81  F017         	call	___fldiv	;wreg free
   878   00397A  C510  F541         	movff	?___fldiv,___flmul@b
   879   00397E  C511  F542         	movff	?___fldiv+1,___flmul@b+1
   880   003982  C512  F543         	movff	?___fldiv+2,___flmul@b+2
   881   003986  C513  F544         	movff	?___fldiv+3,___flmul@b+3
   882   00398A  EC6C  F015         	call	___flmul	;wreg free
   883   00398E  C541  F572         	movff	?___flmul,_analogMap$1121
   884   003992  C542  F573         	movff	?___flmul+1,_analogMap$1121+1
   885   003996  C543  F574         	movff	?___flmul+2,_analogMap$1121+2
   886   00399A  C544  F575         	movff	?___flmul+3,_analogMap$1121+3
   887   00399E                     
   888                           ;C:/Users/a_hui/OneDrive - Camosun College/term2/ecet165_embedded_mc/labs/ecet165-labs/l
      +                          ab11/analog18f.c: 58:             unsigned int analog_reading,;C:/Users/a_hui/OneDrive -
      +                           Camosun College/term2/ecet165_embedded_mc/labs/ecet165-labs/lab11/analog18f.c: 59:     
      +                                  unsigned int analog_max,;C:/Users/a_hui/OneDrive - Camosun College/term2/ecet165
      +                          _embedded_mc/labs/ecet165-labs/lab11/analog18f.c: 60:             unsigned int analog_mi
      +                          n,;C:/Users/a_hui/OneDrive - Camosun College/term2/ecet165_embedded_mc/labs/ecet165-labs
      +                          /lab11/analog18f.c: 61:             double sensor_max,
   889   00399E  C572  F529         	movff	_analogMap$1121,___fladd@b
   890   0039A2  C573  F52A         	movff	_analogMap$1121+1,___fladd@b+1
   891   0039A6  C574  F52B         	movff	_analogMap$1121+2,___fladd@b+2
   892   0039AA  C575  F52C         	movff	_analogMap$1121+3,___fladd@b+3
   893   0039AE  C56A  F52D         	movff	analogMap@sensor_min,___fladd@a
   894   0039B2  C56B  F52E         	movff	analogMap@sensor_min+1,___fladd@a+1
   895   0039B6  C56C  F52F         	movff	analogMap@sensor_min+2,___fladd@a+2
   896   0039BA  C56D  F530         	movff	analogMap@sensor_min+3,___fladd@a+3
   897   0039BE  EC0C  F013         	call	___fladd	;wreg free
   898   0039C2  C529  F560         	movff	?___fladd,?_analogMap
   899   0039C6  C52A  F561         	movff	?___fladd+1,?_analogMap+1
   900   0039CA  C52B  F562         	movff	?___fladd+2,?_analogMap+2
   901   0039CE  C52C  F563         	movff	?___fladd+3,?_analogMap+3
   902   0039D2  0012               	return		;funcret
   903   0039D4                     __end_of_analogMap:
   904                           	callstack 0
   905                           
   906 ;; *************** function ___flsub *****************
   907 ;; Defined at:
   908 ;;		line 245 in file "C:\Program Files\Microchip\xc8\v2.40\pic\sources\c99\common\sprcadd.c"
   909 ;; Parameters:    Size  Location     Type
   910 ;;  b               4   56[COMRAM] unsigned int 
   911 ;;  a               4   60[COMRAM] unsigned int 
   912 ;; Auto vars:     Size  Location     Type
   913 ;;		None
   914 ;; Return value:  Size  Location     Type
   915 ;;                  4   56[COMRAM] unsigned int 
   916 ;; Registers used:
   917 ;;		wreg, status,2, status,0, cstack
   918 ;; Tracked objects:
   919 ;;		On entry : 0/0
   920 ;;		On exit  : 0/0
   921 ;;		Unchanged: 0/0
   922 ;; Data sizes:     COMRAM   BANK5   BANK6   BANK7   BANK8   BANK9  BANK10  BANK11  BANK12  BANK13  BANK14  BANK15  BANK1
      +6  BANK17  BANK18  BANK19  BANK20  BANK21  BANK22  BANK23  BANK24  BANK25  BANK26  BANK27  BANK28  BANK29  BANK30  BANK3
      +1  BANK32  BANK33  BANK34  BANK35  BANK36
   923 ;;      Params:         8       0       0       0       0       0       0       0       0       0       0       0       
      +0       0       0       0       0       0       0       0       0       0       0       0       0       0       0       
      +0       0       0       0       0       0
   924 ;;      Locals:         0       0       0       0       0       0       0       0       0       0       0       0       
      +0       0       0       0       0       0       0       0       0       0       0       0       0       0       0       
      +0       0       0       0       0       0
   925 ;;      Temps:          0       0       0       0       0       0       0       0       0       0       0       0       
      +0       0       0       0       0       0       0       0       0       0       0       0       0       0       0       
      +0       0       0       0       0       0
   926 ;;      Totals:         8       0       0       0       0       0       0       0       0       0       0       0       
      +0       0       0       0       0       0       0       0       0       0       0       0       0       0       0       
      +0       0       0       0       0       0
   927 ;;Total ram usage:        8 bytes
   928 ;; Hardware stack levels used: 1
   929 ;; Hardware stack levels required when called: 2
   930 ;; This function calls:
   931 ;;		___fladd
   932 ;; This function is called by:
   933 ;;		_analogMap
   934 ;; This function uses a non-reentrant model
   935 ;;
   936                           
   937                           	psect	text3
   938   003E6A                     __ptext3:
   939                           	callstack 0
   940   003E6A                     ___flsub:
   941                           	callstack 123
   942   003E6A  0E00               	movlw	0
   943   003E6C  1A3D               	xorwf	___flsub@a^(0+1280),f,c
   944   003E6E  0E00               	movlw	0
   945   003E70  1A3E               	xorwf	(___flsub@a+1)^(0+1280),f,c
   946   003E72  0E00               	movlw	0
   947   003E74  1A3F               	xorwf	(___flsub@a+2)^(0+1280),f,c
   948   003E76  0E80               	movlw	128
   949   003E78  1A40               	xorwf	(___flsub@a+3)^(0+1280),f,c
   950   003E7A  C539  F529         	movff	___flsub@b,___fladd@b
   951   003E7E  C53A  F52A         	movff	___flsub@b+1,___fladd@b+1
   952   003E82  C53B  F52B         	movff	___flsub@b+2,___fladd@b+2
   953   003E86  C53C  F52C         	movff	___flsub@b+3,___fladd@b+3
   954   003E8A  C53D  F52D         	movff	___flsub@a,___fladd@a
   955   003E8E  C53E  F52E         	movff	___flsub@a+1,___fladd@a+1
   956   003E92  C53F  F52F         	movff	___flsub@a+2,___fladd@a+2
   957   003E96  C540  F530         	movff	___flsub@a+3,___fladd@a+3
   958   003E9A  EC0C  F013         	call	___fladd	;wreg free
   959   003E9E  C529  F539         	movff	?___fladd,?___flsub
   960   003EA2  C52A  F53A         	movff	?___fladd+1,?___flsub+1
   961   003EA6  C52B  F53B         	movff	?___fladd+2,?___flsub+2
   962   003EAA  C52C  F53C         	movff	?___fladd+3,?___flsub+3
   963   003EAE  0012               	return		;funcret
   964   003EB0                     __end_of___flsub:
   965                           	callstack 0
   966                           
   967 ;; *************** function ___fladd *****************
   968 ;; Defined at:
   969 ;;		line 10 in file "C:\Program Files\Microchip\xc8\v2.40\pic\sources\c99\common\sprcadd.c"
   970 ;; Parameters:    Size  Location     Type
   971 ;;  b               4   40[COMRAM] unsigned int 
   972 ;;  a               4   44[COMRAM] unsigned int 
   973 ;; Auto vars:     Size  Location     Type
   974 ;;  grs             1   55[COMRAM] unsigned char 
   975 ;;  bexp            1   54[COMRAM] unsigned char 
   976 ;;  aexp            1   53[COMRAM] unsigned char 
   977 ;;  signs           1   52[COMRAM] unsigned char 
   978 ;; Return value:  Size  Location     Type
   979 ;;                  4   40[COMRAM] unsigned char 
   980 ;; Registers used:
   981 ;;		wreg, status,2, status,0
   982 ;; Tracked objects:
   983 ;;		On entry : 0/0
   984 ;;		On exit  : 0/0
   985 ;;		Unchanged: 0/0
   986 ;; Data sizes:     COMRAM   BANK5   BANK6   BANK7   BANK8   BANK9  BANK10  BANK11  BANK12  BANK13  BANK14  BANK15  BANK1
      +6  BANK17  BANK18  BANK19  BANK20  BANK21  BANK22  BANK23  BANK24  BANK25  BANK26  BANK27  BANK28  BANK29  BANK30  BANK3
      +1  BANK32  BANK33  BANK34  BANK35  BANK36
   987 ;;      Params:         8       0       0       0       0       0       0       0       0       0       0       0       
      +0       0       0       0       0       0       0       0       0       0       0       0       0       0       0       
      +0       0       0       0       0       0
   988 ;;      Locals:         4       0       0       0       0       0       0       0       0       0       0       0       
      +0       0       0       0       0       0       0       0       0       0       0       0       0       0       0       
      +0       0       0       0       0       0
   989 ;;      Temps:          4       0       0       0       0       0       0       0       0       0       0       0       
      +0       0       0       0       0       0       0       0       0       0       0       0       0       0       0       
      +0       0       0       0       0       0
   990 ;;      Totals:        16       0       0       0       0       0       0       0       0       0       0       0       
      +0       0       0       0       0       0       0       0       0       0       0       0       0       0       0       
      +0       0       0       0       0       0
   991 ;;Total ram usage:       16 bytes
   992 ;; Hardware stack levels used: 1
   993 ;; Hardware stack levels required when called: 1
   994 ;; This function calls:
   995 ;;		Nothing
   996 ;; This function is called by:
   997 ;;		_analogMap
   998 ;;		___flsub
   999 ;; This function uses a non-reentrant model
  1000 ;;
  1001                           
  1002                           	psect	text4
  1003   002618                     __ptext4:
  1004                           	callstack 0
  1005   002618                     ___fladd:
  1006                           	callstack 123
  1007   002618  502C               	movf	(___fladd@b+3)^(0+1280),w,c
  1008   00261A  0B80               	andlw	128
  1009   00261C  6E35               	movwf	___fladd@signs^(0+1280),c
  1010   00261E  502C               	movf	(___fladd@b+3)^(0+1280),w,c
  1011   002620  242C               	addwf	(___fladd@b+3)^(0+1280),w,c
  1012   002622  6E37               	movwf	___fladd@bexp^(0+1280),c
  1013   002624  AE2B               	btfss	(___fladd@b+2)^(0+1280),7,c
  1014   002626  EF17  F013         	goto	u1301
  1015   00262A  EF19  F013         	goto	u1300
  1016   00262E                     u1301:
  1017   00262E  EF1A  F013         	goto	l1850
  1018   002632                     u1300:
  1019   002632  8037               	bsf	___fladd@bexp^(0+1280),0,c
  1020   002634                     l1850:
  1021   002634  5037               	movf	___fladd@bexp^(0+1280),w,c
  1022   002636  B4D8               	btfsc	status,2,c
  1023   002638  EF20  F013         	goto	u1311
  1024   00263C  EF22  F013         	goto	u1310
  1025   002640                     u1311:
  1026   002640  EF37  F013         	goto	l1860
  1027   002644                     u1310:
  1028   002644  2837               	incf	___fladd@bexp^(0+1280),w,c
  1029   002646  A4D8               	btfss	status,2,c
  1030   002648  EF28  F013         	goto	u1321
  1031   00264C  EF2A  F013         	goto	u1320
  1032   002650                     u1321:
  1033   002650  EF32  F013         	goto	l1856
  1034   002654                     u1320:
  1035   002654  0E00               	movlw	0
  1036   002656  6E29               	movwf	___fladd@b^(0+1280),c
  1037   002658  0E00               	movlw	0
  1038   00265A  6E2A               	movwf	(___fladd@b+1)^(0+1280),c
  1039   00265C  0E00               	movlw	0
  1040   00265E  6E2B               	movwf	(___fladd@b+2)^(0+1280),c
  1041   002660  0E00               	movlw	0
  1042   002662  6E2C               	movwf	(___fladd@b+3)^(0+1280),c
  1043   002664                     l1856:
  1044   002664  8E2B               	bsf	(___fladd@b+2)^(0+1280),7,c
  1045   002666  0E00               	movlw	0
  1046   002668  6E2C               	movwf	(___fladd@b+3)^(0+1280),c
  1047   00266A  EF3F  F013         	goto	l1862
  1048   00266E                     l1860:
  1049   00266E  0E00               	movlw	0
  1050   002670  6E29               	movwf	___fladd@b^(0+1280),c
  1051   002672  0E00               	movlw	0
  1052   002674  6E2A               	movwf	(___fladd@b+1)^(0+1280),c
  1053   002676  0E00               	movlw	0
  1054   002678  6E2B               	movwf	(___fladd@b+2)^(0+1280),c
  1055   00267A  0E00               	movlw	0
  1056   00267C  6E2C               	movwf	(___fladd@b+3)^(0+1280),c
  1057   00267E                     l1862:
  1058   00267E  5030               	movf	(___fladd@a+3)^(0+1280),w,c
  1059   002680  0B80               	andlw	128
  1060   002682  6E36               	movwf	___fladd@aexp^(0+1280),c
  1061   002684  5035               	movf	___fladd@signs^(0+1280),w,c
  1062   002686  1836               	xorwf	___fladd@aexp^(0+1280),w,c
  1063   002688  B4D8               	btfsc	status,2,c
  1064   00268A  EF49  F013         	goto	u1331
  1065   00268E  EF4B  F013         	goto	u1330
  1066   002692                     u1331:
  1067   002692  EF4C  F013         	goto	l1868
  1068   002696                     u1330:
  1069   002696  8C35               	bsf	___fladd@signs^(0+1280),6,c
  1070   002698                     l1868:
  1071   002698  5030               	movf	(___fladd@a+3)^(0+1280),w,c
  1072   00269A  2430               	addwf	(___fladd@a+3)^(0+1280),w,c
  1073   00269C  6E36               	movwf	___fladd@aexp^(0+1280),c
  1074   00269E  AE2F               	btfss	(___fladd@a+2)^(0+1280),7,c
  1075   0026A0  EF54  F013         	goto	u1341
  1076   0026A4  EF56  F013         	goto	u1340
  1077   0026A8                     u1341:
  1078   0026A8  EF57  F013         	goto	l1874
  1079   0026AC                     u1340:
  1080   0026AC  8036               	bsf	___fladd@aexp^(0+1280),0,c
  1081   0026AE                     l1874:
  1082   0026AE  5036               	movf	___fladd@aexp^(0+1280),w,c
  1083   0026B0  B4D8               	btfsc	status,2,c
  1084   0026B2  EF5D  F013         	goto	u1351
  1085   0026B6  EF5F  F013         	goto	u1350
  1086   0026BA                     u1351:
  1087   0026BA  EF74  F013         	goto	l1884
  1088   0026BE                     u1350:
  1089   0026BE  2836               	incf	___fladd@aexp^(0+1280),w,c
  1090   0026C0  A4D8               	btfss	status,2,c
  1091   0026C2  EF65  F013         	goto	u1361
  1092   0026C6  EF67  F013         	goto	u1360
  1093   0026CA                     u1361:
  1094   0026CA  EF6F  F013         	goto	l1880
  1095   0026CE                     u1360:
  1096   0026CE  0E00               	movlw	0
  1097   0026D0  6E2D               	movwf	___fladd@a^(0+1280),c
  1098   0026D2  0E00               	movlw	0
  1099   0026D4  6E2E               	movwf	(___fladd@a+1)^(0+1280),c
  1100   0026D6  0E00               	movlw	0
  1101   0026D8  6E2F               	movwf	(___fladd@a+2)^(0+1280),c
  1102   0026DA  0E00               	movlw	0
  1103   0026DC  6E30               	movwf	(___fladd@a+3)^(0+1280),c
  1104   0026DE                     l1880:
  1105   0026DE  8E2F               	bsf	(___fladd@a+2)^(0+1280),7,c
  1106   0026E0  0E00               	movlw	0
  1107   0026E2  6E30               	movwf	(___fladd@a+3)^(0+1280),c
  1108   0026E4  EF7C  F013         	goto	l1886
  1109   0026E8                     l1884:
  1110   0026E8  0E00               	movlw	0
  1111   0026EA  6E2D               	movwf	___fladd@a^(0+1280),c
  1112   0026EC  0E00               	movlw	0
  1113   0026EE  6E2E               	movwf	(___fladd@a+1)^(0+1280),c
  1114   0026F0  0E00               	movlw	0
  1115   0026F2  6E2F               	movwf	(___fladd@a+2)^(0+1280),c
  1116   0026F4  0E00               	movlw	0
  1117   0026F6  6E30               	movwf	(___fladd@a+3)^(0+1280),c
  1118   0026F8                     l1886:
  1119   0026F8  5037               	movf	___fladd@bexp^(0+1280),w,c
  1120   0026FA  5C36               	subwf	___fladd@aexp^(0+1280),w,c
  1121   0026FC  B0D8               	btfsc	status,0,c
  1122   0026FE  EF83  F013         	goto	u1371
  1123   002702  EF85  F013         	goto	u1370
  1124   002706                     u1371:
  1125   002706  EFAC  F013         	goto	l1922
  1126   00270A                     u1370:
  1127   00270A  AC35               	btfss	___fladd@signs^(0+1280),6,c
  1128   00270C  EF8A  F013         	goto	u1381
  1129   002710  EF8C  F013         	goto	u1380
  1130   002714                     u1381:
  1131   002714  EF8E  F013         	goto	l1892
  1132   002718                     u1380:
  1133   002718  0E80               	movlw	128
  1134   00271A  1A35               	xorwf	___fladd@signs^(0+1280),f,c
  1135   00271C                     l1892:
  1136   00271C  C537  F538         	movff	___fladd@bexp,___fladd@grs
  1137   002720  C536  F537         	movff	___fladd@aexp,___fladd@bexp
  1138   002724  C538  F536         	movff	___fladd@grs,___fladd@aexp
  1139   002728  C529  F538         	movff	___fladd@b,___fladd@grs
  1140   00272C  C52D  F529         	movff	___fladd@a,___fladd@b
  1141   002730  C538  F52D         	movff	___fladd@grs,___fladd@a
  1142   002734  C52A  F538         	movff	___fladd@b+1,___fladd@grs
  1143   002738  C52E  F52A         	movff	___fladd@a+1,___fladd@b+1
  1144   00273C  C538  F52E         	movff	___fladd@grs,___fladd@a+1
  1145   002740  C52B  F538         	movff	___fladd@b+2,___fladd@grs
  1146   002744  C52F  F52B         	movff	___fladd@a+2,___fladd@b+2
  1147   002748  C538  F52F         	movff	___fladd@grs,___fladd@a+2
  1148   00274C  C52C  F538         	movff	___fladd@b+3,___fladd@grs
  1149   002750  C530  F52C         	movff	___fladd@a+3,___fladd@b+3
  1150   002754  C538  F530         	movff	___fladd@grs,___fladd@a+3
  1151   002758                     l1922:
  1152   002758  0E00               	movlw	0
  1153   00275A  6E38               	movwf	___fladd@grs^(0+1280),c
  1154   00275C  5037               	movf	___fladd@bexp^(0+1280),w,c
  1155   00275E  C536  F531         	movff	___fladd@aexp,??___fladd
  1156   002762  6A32               	clrf	(??___fladd+1)^(0+1280),c
  1157   002764  5E31               	subwf	??___fladd^(0+1280),f,c
  1158   002766  0E00               	movlw	0
  1159   002768  5A32               	subwfb	(??___fladd+1)^(0+1280),f,c
  1160   00276A  BE32               	btfsc	(??___fladd+1)^(0+1280),7,c
  1161   00276C  EFC1  F013         	goto	u1391
  1162   002770  5032               	movf	(??___fladd+1)^(0+1280),w,c
  1163   002772  E109               	bnz	u1390
  1164   002774  0E1A               	movlw	26
  1165   002776  5C31               	subwf	??___fladd^(0+1280),w,c
  1166   002778  A0D8               	btfss	status,0,c
  1167   00277A  EFC1  F013         	goto	u1391
  1168   00277E  EFC3  F013         	goto	u1390
  1169   002782                     u1391:
  1170   002782  EFFA  F013         	goto	l696
  1171   002786                     u1390:
  1172   002786  5029               	movf	___fladd@b^(0+1280),w,c
  1173   002788  102A               	iorwf	(___fladd@b+1)^(0+1280),w,c
  1174   00278A  102B               	iorwf	(___fladd@b+2)^(0+1280),w,c
  1175   00278C  102C               	iorwf	(___fladd@b+3)^(0+1280),w,c
  1176   00278E  A4D8               	btfss	status,2,c
  1177   002790  EFCC  F013         	goto	u1401
  1178   002794  EFCF  F013         	goto	u1400
  1179   002798                     u1401:
  1180   002798  0E01               	movlw	1
  1181   00279A  EFD0  F013         	goto	u1410
  1182   00279E                     u1400:
  1183   00279E  0E00               	movlw	0
  1184   0027A0                     u1410:
  1185   0027A0  6E38               	movwf	___fladd@grs^(0+1280),c
  1186   0027A2  0E00               	movlw	0
  1187   0027A4  6E29               	movwf	___fladd@b^(0+1280),c
  1188   0027A6  0E00               	movlw	0
  1189   0027A8  6E2A               	movwf	(___fladd@b+1)^(0+1280),c
  1190   0027AA  0E00               	movlw	0
  1191   0027AC  6E2B               	movwf	(___fladd@b+2)^(0+1280),c
  1192   0027AE  0E00               	movlw	0
  1193   0027B0  6E2C               	movwf	(___fladd@b+3)^(0+1280),c
  1194   0027B2  C536  F537         	movff	___fladd@aexp,___fladd@bexp
  1195   0027B6  EF03  F014         	goto	l695
  1196   0027BA                     l697:
  1197   0027BA  A038               	btfss	___fladd@grs^(0+1280),0,c
  1198   0027BC  EFE2  F013         	goto	u1421
  1199   0027C0  EFE4  F013         	goto	u1420
  1200   0027C4                     u1421:
  1201   0027C4  EFEA  F013         	goto	l1934
  1202   0027C8                     u1420:
  1203   0027C8  90D8               	bcf	status,0,c
  1204   0027CA  3038               	rrcf	___fladd@grs^(0+1280),w,c
  1205   0027CC  0901               	iorlw	1
  1206   0027CE  6E38               	movwf	___fladd@grs^(0+1280),c
  1207   0027D0  EFEC  F013         	goto	l1936
  1208   0027D4                     l1934:
  1209   0027D4  90D8               	bcf	status,0,c
  1210   0027D6  3238               	rrcf	___fladd@grs^(0+1280),f,c
  1211   0027D8                     l1936:
  1212   0027D8  A029               	btfss	___fladd@b^(0+1280),0,c
  1213   0027DA  EFF1  F013         	goto	u1431
  1214   0027DE  EFF3  F013         	goto	u1430
  1215   0027E2                     u1431:
  1216   0027E2  EFF4  F013         	goto	l1940
  1217   0027E6                     u1430:
  1218   0027E6  8E38               	bsf	___fladd@grs^(0+1280),7,c
  1219   0027E8                     l1940:
  1220   0027E8  342C               	rlcf	(___fladd@b+3)^(0+1280),w,c
  1221   0027EA  322C               	rrcf	(___fladd@b+3)^(0+1280),f,c
  1222   0027EC  322B               	rrcf	(___fladd@b+2)^(0+1280),f,c
  1223   0027EE  322A               	rrcf	(___fladd@b+1)^(0+1280),f,c
  1224   0027F0  3229               	rrcf	___fladd@b^(0+1280),f,c
  1225   0027F2  2A37               	incf	___fladd@bexp^(0+1280),f,c
  1226   0027F4                     l696:
  1227   0027F4  5036               	movf	___fladd@aexp^(0+1280),w,c
  1228   0027F6  5C37               	subwf	___fladd@bexp^(0+1280),w,c
  1229   0027F8  A0D8               	btfss	status,0,c
  1230   0027FA  EF01  F014         	goto	u1441
  1231   0027FE  EF03  F014         	goto	u1440
  1232   002802                     u1441:
  1233   002802  EFDD  F013         	goto	l697
  1234   002806                     u1440:
  1235   002806                     l695:
  1236   002806  BC35               	btfsc	___fladd@signs^(0+1280),6,c
  1237   002808  EF08  F014         	goto	u1451
  1238   00280C  EF0A  F014         	goto	u1450
  1239   002810                     u1451:
  1240   002810  EF4A  F014         	goto	l1968
  1241   002814                     u1450:
  1242   002814  5037               	movf	___fladd@bexp^(0+1280),w,c
  1243   002816  A4D8               	btfss	status,2,c
  1244   002818  EF10  F014         	goto	u1461
  1245   00281C  EF12  F014         	goto	u1460
  1246   002820                     u1461:
  1247   002820  EF1C  F014         	goto	l1950
  1248   002824                     u1460:
  1249   002824  0E00               	movlw	0
  1250   002826  6E29               	movwf	?___fladd^(0+1280),c
  1251   002828  0E00               	movlw	0
  1252   00282A  6E2A               	movwf	(?___fladd+1)^(0+1280),c
  1253   00282C  0E00               	movlw	0
  1254   00282E  6E2B               	movwf	(?___fladd+2)^(0+1280),c
  1255   002830  0E00               	movlw	0
  1256   002832  6E2C               	movwf	(?___fladd+3)^(0+1280),c
  1257   002834  EF6B  F015         	goto	l704
  1258   002838                     l1950:
  1259   002838  502D               	movf	___fladd@a^(0+1280),w,c
  1260   00283A  2629               	addwf	___fladd@b^(0+1280),f,c
  1261   00283C  502E               	movf	(___fladd@a+1)^(0+1280),w,c
  1262   00283E  222A               	addwfc	(___fladd@b+1)^(0+1280),f,c
  1263   002840  502F               	movf	(___fladd@a+2)^(0+1280),w,c
  1264   002842  222B               	addwfc	(___fladd@b+2)^(0+1280),f,c
  1265   002844  5030               	movf	(___fladd@a+3)^(0+1280),w,c
  1266   002846  222C               	addwfc	(___fladd@b+3)^(0+1280),f,c
  1267   002848  A02C               	btfss	(___fladd@b+3)^(0+1280),0,c
  1268   00284A  EF29  F014         	goto	u1471
  1269   00284E  EF2B  F014         	goto	u1470
  1270   002852                     u1471:
  1271   002852  EFD7  F014         	goto	l2004
  1272   002856                     u1470:
  1273   002856  A038               	btfss	___fladd@grs^(0+1280),0,c
  1274   002858  EF30  F014         	goto	u1481
  1275   00285C  EF32  F014         	goto	u1480
  1276   002860                     u1481:
  1277   002860  EF38  F014         	goto	l1958
  1278   002864                     u1480:
  1279   002864  90D8               	bcf	status,0,c
  1280   002866  3038               	rrcf	___fladd@grs^(0+1280),w,c
  1281   002868  0901               	iorlw	1
  1282   00286A  6E38               	movwf	___fladd@grs^(0+1280),c
  1283   00286C  EF3A  F014         	goto	l1960
  1284   002870                     l1958:
  1285   002870  90D8               	bcf	status,0,c
  1286   002872  3238               	rrcf	___fladd@grs^(0+1280),f,c
  1287   002874                     l1960:
  1288   002874  A029               	btfss	___fladd@b^(0+1280),0,c
  1289   002876  EF3F  F014         	goto	u1491
  1290   00287A  EF41  F014         	goto	u1490
  1291   00287E                     u1491:
  1292   00287E  EF42  F014         	goto	l1964
  1293   002882                     u1490:
  1294   002882  8E38               	bsf	___fladd@grs^(0+1280),7,c
  1295   002884                     l1964:
  1296   002884  342C               	rlcf	(___fladd@b+3)^(0+1280),w,c
  1297   002886  322C               	rrcf	(___fladd@b+3)^(0+1280),f,c
  1298   002888  322B               	rrcf	(___fladd@b+2)^(0+1280),f,c
  1299   00288A  322A               	rrcf	(___fladd@b+1)^(0+1280),f,c
  1300   00288C  3229               	rrcf	___fladd@b^(0+1280),f,c
  1301   00288E  2A37               	incf	___fladd@bexp^(0+1280),f,c
  1302   002890  EFD7  F014         	goto	l2004
  1303   002894                     l1968:
  1304   002894  502D               	movf	___fladd@a^(0+1280),w,c
  1305   002896  5C29               	subwf	___fladd@b^(0+1280),w,c
  1306   002898  502E               	movf	(___fladd@a+1)^(0+1280),w,c
  1307   00289A  582A               	subwfb	(___fladd@b+1)^(0+1280),w,c
  1308   00289C  502F               	movf	(___fladd@a+2)^(0+1280),w,c
  1309   00289E  582B               	subwfb	(___fladd@b+2)^(0+1280),w,c
  1310   0028A0  502C               	movf	(___fladd@b+3)^(0+1280),w,c
  1311   0028A2  0A80               	xorlw	128
  1312   0028A4  6E31               	movwf	??___fladd^(0+1280),c
  1313   0028A6  5030               	movf	(___fladd@a+3)^(0+1280),w,c
  1314   0028A8  0A80               	xorlw	128
  1315   0028AA  5831               	subwfb	??___fladd^(0+1280),w,c
  1316   0028AC  B0D8               	btfsc	status,0,c
  1317   0028AE  EF5B  F014         	goto	u1501
  1318   0028B2  EF5D  F014         	goto	u1500
  1319   0028B6                     u1501:
  1320   0028B6  EF88  F014         	goto	l1978
  1321   0028BA                     u1500:
  1322   0028BA  5029               	movf	___fladd@b^(0+1280),w,c
  1323   0028BC  5C2D               	subwf	___fladd@a^(0+1280),w,c
  1324   0028BE  6E31               	movwf	??___fladd^(0+1280),c
  1325   0028C0  502A               	movf	(___fladd@b+1)^(0+1280),w,c
  1326   0028C2  582E               	subwfb	(___fladd@a+1)^(0+1280),w,c
  1327   0028C4  6E32               	movwf	(??___fladd+1)^(0+1280),c
  1328   0028C6  502B               	movf	(___fladd@b+2)^(0+1280),w,c
  1329   0028C8  582F               	subwfb	(___fladd@a+2)^(0+1280),w,c
  1330   0028CA  6E33               	movwf	(??___fladd+2)^(0+1280),c
  1331   0028CC  502C               	movf	(___fladd@b+3)^(0+1280),w,c
  1332   0028CE  5830               	subwfb	(___fladd@a+3)^(0+1280),w,c
  1333   0028D0  6E34               	movwf	(??___fladd+3)^(0+1280),c
  1334   0028D2  0EFF               	movlw	255
  1335   0028D4  2431               	addwf	??___fladd^(0+1280),w,c
  1336   0028D6  6E29               	movwf	___fladd@b^(0+1280),c
  1337   0028D8  0EFF               	movlw	255
  1338   0028DA  2032               	addwfc	(??___fladd+1)^(0+1280),w,c
  1339   0028DC  6E2A               	movwf	(___fladd@b+1)^(0+1280),c
  1340   0028DE  0EFF               	movlw	255
  1341   0028E0  2033               	addwfc	(??___fladd+2)^(0+1280),w,c
  1342   0028E2  6E2B               	movwf	(___fladd@b+2)^(0+1280),c
  1343   0028E4  0EFF               	movlw	255
  1344   0028E6  2034               	addwfc	(??___fladd+3)^(0+1280),w,c
  1345   0028E8  6E2C               	movwf	(___fladd@b+3)^(0+1280),c
  1346   0028EA  0E80               	movlw	128
  1347   0028EC  1A35               	xorwf	___fladd@signs^(0+1280),f,c
  1348   0028EE  6C38               	negf	___fladd@grs^(0+1280),c
  1349   0028F0  5038               	movf	___fladd@grs^(0+1280),w,c
  1350   0028F2  A4D8               	btfss	status,2,c
  1351   0028F4  EF7E  F014         	goto	u1511
  1352   0028F8  EF80  F014         	goto	u1510
  1353   0028FC                     u1511:
  1354   0028FC  EF90  F014         	goto	l712
  1355   002900                     u1510:
  1356   002900  0E01               	movlw	1
  1357   002902  2629               	addwf	___fladd@b^(0+1280),f,c
  1358   002904  0E00               	movlw	0
  1359   002906  222A               	addwfc	(___fladd@b+1)^(0+1280),f,c
  1360   002908  222B               	addwfc	(___fladd@b+2)^(0+1280),f,c
  1361   00290A  222C               	addwfc	(___fladd@b+3)^(0+1280),f,c
  1362   00290C  EF90  F014         	goto	l712
  1363   002910                     l1978:
  1364   002910  502D               	movf	___fladd@a^(0+1280),w,c
  1365   002912  5E29               	subwf	___fladd@b^(0+1280),f,c
  1366   002914  502E               	movf	(___fladd@a+1)^(0+1280),w,c
  1367   002916  5A2A               	subwfb	(___fladd@b+1)^(0+1280),f,c
  1368   002918  502F               	movf	(___fladd@a+2)^(0+1280),w,c
  1369   00291A  5A2B               	subwfb	(___fladd@b+2)^(0+1280),f,c
  1370   00291C  5030               	movf	(___fladd@a+3)^(0+1280),w,c
  1371   00291E  5A2C               	subwfb	(___fladd@b+3)^(0+1280),f,c
  1372   002920                     l712:
  1373   002920  5029               	movf	___fladd@b^(0+1280),w,c
  1374   002922  102A               	iorwf	(___fladd@b+1)^(0+1280),w,c
  1375   002924  102B               	iorwf	(___fladd@b+2)^(0+1280),w,c
  1376   002926  102C               	iorwf	(___fladd@b+3)^(0+1280),w,c
  1377   002928  A4D8               	btfss	status,2,c
  1378   00292A  EF99  F014         	goto	u1521
  1379   00292E  EF9B  F014         	goto	u1520
  1380   002932                     u1521:
  1381   002932  EFD0  F014         	goto	l2002
  1382   002936                     u1520:
  1383   002936  5038               	movf	___fladd@grs^(0+1280),w,c
  1384   002938  A4D8               	btfss	status,2,c
  1385   00293A  EFA1  F014         	goto	u1531
  1386   00293E  EFA3  F014         	goto	u1530
  1387   002942                     u1531:
  1388   002942  EFD0  F014         	goto	l2002
  1389   002946                     u1530:
  1390   002946  0E00               	movlw	0
  1391   002948  6E29               	movwf	?___fladd^(0+1280),c
  1392   00294A  0E00               	movlw	0
  1393   00294C  6E2A               	movwf	(?___fladd+1)^(0+1280),c
  1394   00294E  0E00               	movlw	0
  1395   002950  6E2B               	movwf	(?___fladd+2)^(0+1280),c
  1396   002952  0E00               	movlw	0
  1397   002954  6E2C               	movwf	(?___fladd+3)^(0+1280),c
  1398   002956  EF6B  F015         	goto	l704
  1399   00295A                     l1986:
  1400   00295A  90D8               	bcf	status,0,c
  1401   00295C  3629               	rlcf	___fladd@b^(0+1280),f,c
  1402   00295E  362A               	rlcf	(___fladd@b+1)^(0+1280),f,c
  1403   002960  362B               	rlcf	(___fladd@b+2)^(0+1280),f,c
  1404   002962  362C               	rlcf	(___fladd@b+3)^(0+1280),f,c
  1405   002964  AE38               	btfss	___fladd@grs^(0+1280),7,c
  1406   002966  EFB7  F014         	goto	u1541
  1407   00296A  EFB9  F014         	goto	u1540
  1408   00296E                     u1541:
  1409   00296E  EFBA  F014         	goto	l1992
  1410   002972                     u1540:
  1411   002972  8029               	bsf	___fladd@b^(0+1280),0,c
  1412   002974                     l1992:
  1413   002974  A038               	btfss	___fladd@grs^(0+1280),0,c
  1414   002976  EFBF  F014         	goto	u1551
  1415   00297A  EFC1  F014         	goto	u1550
  1416   00297E                     u1551:
  1417   00297E  EFC5  F014         	goto	l1996
  1418   002982                     u1550:
  1419   002982  80D8               	bsf	status,0,c
  1420   002984  3638               	rlcf	___fladd@grs^(0+1280),f,c
  1421   002986  EFC7  F014         	goto	l1998
  1422   00298A                     l1996:
  1423   00298A  90D8               	bcf	status,0,c
  1424   00298C  3638               	rlcf	___fladd@grs^(0+1280),f,c
  1425   00298E                     l1998:
  1426   00298E  5037               	movf	___fladd@bexp^(0+1280),w,c
  1427   002990  B4D8               	btfsc	status,2,c
  1428   002992  EFCD  F014         	goto	u1561
  1429   002996  EFCF  F014         	goto	u1560
  1430   00299A                     u1561:
  1431   00299A  EFD0  F014         	goto	l2002
  1432   00299E                     u1560:
  1433   00299E  0637               	decf	___fladd@bexp^(0+1280),f,c
  1434   0029A0                     l2002:
  1435   0029A0  AE2B               	btfss	(___fladd@b+2)^(0+1280),7,c
  1436   0029A2  EFD5  F014         	goto	u1571
  1437   0029A6  EFD7  F014         	goto	u1570
  1438   0029AA                     u1571:
  1439   0029AA  EFAD  F014         	goto	l1986
  1440   0029AE                     u1570:
  1441   0029AE                     l2004:
  1442   0029AE  0E00               	movlw	0
  1443   0029B0  6E36               	movwf	___fladd@aexp^(0+1280),c
  1444   0029B2  AE38               	btfss	___fladd@grs^(0+1280),7,c
  1445   0029B4  EFDE  F014         	goto	u1581
  1446   0029B8  EFE0  F014         	goto	u1580
  1447   0029BC                     u1581:
  1448   0029BC  EFF8  F014         	goto	l721
  1449   0029C0                     u1580:
  1450   0029C0  C538  F531         	movff	___fladd@grs,??___fladd
  1451   0029C4  0E7F               	movlw	127
  1452   0029C6  1631               	andwf	??___fladd^(0+1280),f,c
  1453   0029C8  B4D8               	btfsc	status,2,c
  1454   0029CA  EFE9  F014         	goto	u1591
  1455   0029CE  EFEB  F014         	goto	u1590
  1456   0029D2                     u1591:
  1457   0029D2  EFEF  F014         	goto	l722
  1458   0029D6                     u1590:
  1459   0029D6                     l2010:
  1460   0029D6  0E01               	movlw	1
  1461   0029D8  6E36               	movwf	___fladd@aexp^(0+1280),c
  1462   0029DA  EFF8  F014         	goto	l721
  1463   0029DE                     l722:
  1464   0029DE  A029               	btfss	___fladd@b^(0+1280),0,c
  1465   0029E0  EFF4  F014         	goto	u1601
  1466   0029E4  EFF6  F014         	goto	u1600
  1467   0029E8                     u1601:
  1468   0029E8  EFF8  F014         	goto	l721
  1469   0029EC                     u1600:
  1470   0029EC  EFEB  F014         	goto	l2010
  1471   0029F0                     l721:
  1472   0029F0  5036               	movf	___fladd@aexp^(0+1280),w,c
  1473   0029F2  B4D8               	btfsc	status,2,c
  1474   0029F4  EFFE  F014         	goto	u1611
  1475   0029F8  EF00  F015         	goto	u1610
  1476   0029FC                     u1611:
  1477   0029FC  EF2B  F015         	goto	l2022
  1478   002A00                     u1610:
  1479   002A00  0E01               	movlw	1
  1480   002A02  2629               	addwf	___fladd@b^(0+1280),f,c
  1481   002A04  0E00               	movlw	0
  1482   002A06  222A               	addwfc	(___fladd@b+1)^(0+1280),f,c
  1483   002A08  222B               	addwfc	(___fladd@b+2)^(0+1280),f,c
  1484   002A0A  222C               	addwfc	(___fladd@b+3)^(0+1280),f,c
  1485   002A0C  A02C               	btfss	(___fladd@b+3)^(0+1280),0,c
  1486   002A0E  EF0B  F015         	goto	u1621
  1487   002A12  EF0D  F015         	goto	u1620
  1488   002A16                     u1621:
  1489   002A16  EF2B  F015         	goto	l2022
  1490   002A1A                     u1620:
  1491   002A1A  C529  F531         	movff	___fladd@b,??___fladd
  1492   002A1E  C52A  F532         	movff	___fladd@b+1,??___fladd+1
  1493   002A22  C52B  F533         	movff	___fladd@b+2,??___fladd+2
  1494   002A26  C52C  F534         	movff	___fladd@b+3,??___fladd+3
  1495   002A2A  3434               	rlcf	(??___fladd+3)^(0+1280),w,c
  1496   002A2C  3234               	rrcf	(??___fladd+3)^(0+1280),f,c
  1497   002A2E  3233               	rrcf	(??___fladd+2)^(0+1280),f,c
  1498   002A30  3232               	rrcf	(??___fladd+1)^(0+1280),f,c
  1499   002A32  3231               	rrcf	??___fladd^(0+1280),f,c
  1500   002A34  C531  F529         	movff	??___fladd,___fladd@b
  1501   002A38  C532  F52A         	movff	??___fladd+1,___fladd@b+1
  1502   002A3C  C533  F52B         	movff	??___fladd+2,___fladd@b+2
  1503   002A40  C534  F52C         	movff	??___fladd+3,___fladd@b+3
  1504   002A44  2837               	incf	___fladd@bexp^(0+1280),w,c
  1505   002A46  B4D8               	btfsc	status,2,c
  1506   002A48  EF28  F015         	goto	u1631
  1507   002A4C  EF2A  F015         	goto	u1630
  1508   002A50                     u1631:
  1509   002A50  EF2B  F015         	goto	l2022
  1510   002A54                     u1630:
  1511   002A54  2A37               	incf	___fladd@bexp^(0+1280),f,c
  1512   002A56                     l2022:
  1513   002A56  2837               	incf	___fladd@bexp^(0+1280),w,c
  1514   002A58  B4D8               	btfsc	status,2,c
  1515   002A5A  EF31  F015         	goto	u1641
  1516   002A5E  EF33  F015         	goto	u1640
  1517   002A62                     u1641:
  1518   002A62  EF3B  F015         	goto	l2026
  1519   002A66                     u1640:
  1520   002A66  5037               	movf	___fladd@bexp^(0+1280),w,c
  1521   002A68  A4D8               	btfss	status,2,c
  1522   002A6A  EF39  F015         	goto	u1651
  1523   002A6E  EF3B  F015         	goto	u1650
  1524   002A72                     u1651:
  1525   002A72  EF4D  F015         	goto	l2030
  1526   002A76                     u1650:
  1527   002A76                     l2026:
  1528   002A76  0E00               	movlw	0
  1529   002A78  6E29               	movwf	___fladd@b^(0+1280),c
  1530   002A7A  0E00               	movlw	0
  1531   002A7C  6E2A               	movwf	(___fladd@b+1)^(0+1280),c
  1532   002A7E  0E00               	movlw	0
  1533   002A80  6E2B               	movwf	(___fladd@b+2)^(0+1280),c
  1534   002A82  0E00               	movlw	0
  1535   002A84  6E2C               	movwf	(___fladd@b+3)^(0+1280),c
  1536   002A86  5037               	movf	___fladd@bexp^(0+1280),w,c
  1537   002A88  A4D8               	btfss	status,2,c
  1538   002A8A  EF49  F015         	goto	u1661
  1539   002A8E  EF4B  F015         	goto	u1660
  1540   002A92                     u1661:
  1541   002A92  EF4D  F015         	goto	l2030
  1542   002A96                     u1660:
  1543   002A96  0E00               	movlw	0
  1544   002A98  6E35               	movwf	___fladd@signs^(0+1280),c
  1545   002A9A                     l2030:
  1546   002A9A  A037               	btfss	___fladd@bexp^(0+1280),0,c
  1547   002A9C  EF52  F015         	goto	u1671
  1548   002AA0  EF54  F015         	goto	u1670
  1549   002AA4                     u1671:
  1550   002AA4  EF57  F015         	goto	l2034
  1551   002AA8                     u1670:
  1552   002AA8  8E2B               	bsf	(___fladd@b+2)^(0+1280),7,c
  1553   002AAA  EF58  F015         	goto	l2036
  1554   002AAE                     l2034:
  1555   002AAE  9E2B               	bcf	(___fladd@b+2)^(0+1280),7,c
  1556   002AB0                     l2036:
  1557   002AB0  90D8               	bcf	status,0,c
  1558   002AB2  3037               	rrcf	___fladd@bexp^(0+1280),w,c
  1559   002AB4  6E2C               	movwf	(___fladd@b+3)^(0+1280),c
  1560   002AB6  AE35               	btfss	___fladd@signs^(0+1280),7,c
  1561   002AB8  EF60  F015         	goto	u1681
  1562   002ABC  EF62  F015         	goto	u1680
  1563   002AC0                     u1681:
  1564   002AC0  EF63  F015         	goto	l2042
  1565   002AC4                     u1680:
  1566   002AC4  8E2C               	bsf	(___fladd@b+3)^(0+1280),7,c
  1567   002AC6                     l2042:
  1568   002AC6  C529  F529         	movff	___fladd@b,?___fladd
  1569   002ACA  C52A  F52A         	movff	___fladd@b+1,?___fladd+1
  1570   002ACE  C52B  F52B         	movff	___fladd@b+2,?___fladd+2
  1571   002AD2  C52C  F52C         	movff	___fladd@b+3,?___fladd+3
  1572   002AD6                     l704:
  1573   002AD6  0012               	return		;funcret
  1574   002AD8                     __end_of___fladd:
  1575                           	callstack 0
  1576                           
  1577 ;; *************** function ___fldiv *****************
  1578 ;; Defined at:
  1579 ;;		line 11 in file "C:\Program Files\Microchip\xc8\v2.40\pic\sources\c99\common\sprcdiv.c"
  1580 ;; Parameters:    Size  Location     Type
  1581 ;;  b               4   15[COMRAM] unsigned char 
  1582 ;;  a               4   19[COMRAM] unsigned char 
  1583 ;; Auto vars:     Size  Location     Type
  1584 ;;  grs             4   34[COMRAM] unsigned long 
  1585 ;;  rem             4   27[COMRAM] unsigned long 
  1586 ;;  new_exp         2   32[COMRAM] short 
  1587 ;;  aexp            1   39[COMRAM] unsigned char 
  1588 ;;  bexp            1   38[COMRAM] unsigned char 
  1589 ;;  sign            1   31[COMRAM] unsigned char 
  1590 ;; Return value:  Size  Location     Type
  1591 ;;                  4   15[COMRAM] unsigned char 
  1592 ;; Registers used:
  1593 ;;		wreg, status,2, status,0
  1594 ;; Tracked objects:
  1595 ;;		On entry : 0/0
  1596 ;;		On exit  : 0/0
  1597 ;;		Unchanged: 0/0
  1598 ;; Data sizes:     COMRAM   BANK5   BANK6   BANK7   BANK8   BANK9  BANK10  BANK11  BANK12  BANK13  BANK14  BANK15  BANK1
      +6  BANK17  BANK18  BANK19  BANK20  BANK21  BANK22  BANK23  BANK24  BANK25  BANK26  BANK27  BANK28  BANK29  BANK30  BANK3
      +1  BANK32  BANK33  BANK34  BANK35  BANK36
  1599 ;;      Params:         8       0       0       0       0       0       0       0       0       0       0       0       
      +0       0       0       0       0       0       0       0       0       0       0       0       0       0       0       
      +0       0       0       0       0       0
  1600 ;;      Locals:        13       0       0       0       0       0       0       0       0       0       0       0       
      +0       0       0       0       0       0       0       0       0       0       0       0       0       0       0       
      +0       0       0       0       0       0
  1601 ;;      Temps:          4       0       0       0       0       0       0       0       0       0       0       0       
      +0       0       0       0       0       0       0       0       0       0       0       0       0       0       0       
      +0       0       0       0       0       0
  1602 ;;      Totals:        25       0       0       0       0       0       0       0       0       0       0       0       
      +0       0       0       0       0       0       0       0       0       0       0       0       0       0       0       
      +0       0       0       0       0       0
  1603 ;;Total ram usage:       25 bytes
  1604 ;; Hardware stack levels used: 1
  1605 ;; Hardware stack levels required when called: 1
  1606 ;; This function calls:
  1607 ;;		Nothing
  1608 ;; This function is called by:
  1609 ;;		_analogMap
  1610 ;; This function uses a non-reentrant model
  1611 ;;
  1612                           
  1613                           	psect	text5
  1614   002F02                     __ptext5:
  1615                           	callstack 0
  1616   002F02                     ___fldiv:
  1617                           	callstack 124
  1618   002F02  5013               	movf	(___fldiv@b+3)^(0+1280),w,c
  1619   002F04  0B80               	andlw	128
  1620   002F06  6E20               	movwf	___fldiv@sign^(0+1280),c
  1621   002F08  5013               	movf	(___fldiv@b+3)^(0+1280),w,c
  1622   002F0A  2413               	addwf	(___fldiv@b+3)^(0+1280),w,c
  1623   002F0C  6E27               	movwf	___fldiv@bexp^(0+1280),c
  1624   002F0E  AE12               	btfss	(___fldiv@b+2)^(0+1280),7,c
  1625   002F10  EF8C  F017         	goto	u1781
  1626   002F14  EF8E  F017         	goto	u1780
  1627   002F18                     u1781:
  1628   002F18  EF8F  F017         	goto	l2164
  1629   002F1C                     u1780:
  1630   002F1C  8027               	bsf	___fldiv@bexp^(0+1280),0,c
  1631   002F1E                     l2164:
  1632   002F1E  5027               	movf	___fldiv@bexp^(0+1280),w,c
  1633   002F20  B4D8               	btfsc	status,2,c
  1634   002F22  EF95  F017         	goto	u1791
  1635   002F26  EF97  F017         	goto	u1790
  1636   002F2A                     u1791:
  1637   002F2A  EFAC  F017         	goto	l2174
  1638   002F2E                     u1790:
  1639   002F2E  2827               	incf	___fldiv@bexp^(0+1280),w,c
  1640   002F30  A4D8               	btfss	status,2,c
  1641   002F32  EF9D  F017         	goto	u1801
  1642   002F36  EF9F  F017         	goto	u1800
  1643   002F3A                     u1801:
  1644   002F3A  EFA7  F017         	goto	l2170
  1645   002F3E                     u1800:
  1646   002F3E  0E00               	movlw	0
  1647   002F40  6E10               	movwf	___fldiv@b^(0+1280),c
  1648   002F42  0E00               	movlw	0
  1649   002F44  6E11               	movwf	(___fldiv@b+1)^(0+1280),c
  1650   002F46  0E00               	movlw	0
  1651   002F48  6E12               	movwf	(___fldiv@b+2)^(0+1280),c
  1652   002F4A  0E00               	movlw	0
  1653   002F4C  6E13               	movwf	(___fldiv@b+3)^(0+1280),c
  1654   002F4E                     l2170:
  1655   002F4E  8E12               	bsf	(___fldiv@b+2)^(0+1280),7,c
  1656   002F50  0E00               	movlw	0
  1657   002F52  6E13               	movwf	(___fldiv@b+3)^(0+1280),c
  1658   002F54  EFB4  F017         	goto	l2176
  1659   002F58                     l2174:
  1660   002F58  0E00               	movlw	0
  1661   002F5A  6E10               	movwf	___fldiv@b^(0+1280),c
  1662   002F5C  0E00               	movlw	0
  1663   002F5E  6E11               	movwf	(___fldiv@b+1)^(0+1280),c
  1664   002F60  0E00               	movlw	0
  1665   002F62  6E12               	movwf	(___fldiv@b+2)^(0+1280),c
  1666   002F64  0E00               	movlw	0
  1667   002F66  6E13               	movwf	(___fldiv@b+3)^(0+1280),c
  1668   002F68                     l2176:
  1669   002F68  5017               	movf	(___fldiv@a+3)^(0+1280),w,c
  1670   002F6A  0B80               	andlw	128
  1671   002F6C  1A20               	xorwf	___fldiv@sign^(0+1280),f,c
  1672   002F6E  5017               	movf	(___fldiv@a+3)^(0+1280),w,c
  1673   002F70  2417               	addwf	(___fldiv@a+3)^(0+1280),w,c
  1674   002F72  6E28               	movwf	___fldiv@aexp^(0+1280),c
  1675   002F74  AE16               	btfss	(___fldiv@a+2)^(0+1280),7,c
  1676   002F76  EFBF  F017         	goto	u1811
  1677   002F7A  EFC1  F017         	goto	u1810
  1678   002F7E                     u1811:
  1679   002F7E  EFC2  F017         	goto	l2184
  1680   002F82                     u1810:
  1681   002F82  8028               	bsf	___fldiv@aexp^(0+1280),0,c
  1682   002F84                     l2184:
  1683   002F84  5028               	movf	___fldiv@aexp^(0+1280),w,c
  1684   002F86  B4D8               	btfsc	status,2,c
  1685   002F88  EFC8  F017         	goto	u1821
  1686   002F8C  EFCA  F017         	goto	u1820
  1687   002F90                     u1821:
  1688   002F90  EFDF  F017         	goto	l2194
  1689   002F94                     u1820:
  1690   002F94  2828               	incf	___fldiv@aexp^(0+1280),w,c
  1691   002F96  A4D8               	btfss	status,2,c
  1692   002F98  EFD0  F017         	goto	u1831
  1693   002F9C  EFD2  F017         	goto	u1830
  1694   002FA0                     u1831:
  1695   002FA0  EFDA  F017         	goto	l2190
  1696   002FA4                     u1830:
  1697   002FA4  0E00               	movlw	0
  1698   002FA6  6E14               	movwf	___fldiv@a^(0+1280),c
  1699   002FA8  0E00               	movlw	0
  1700   002FAA  6E15               	movwf	(___fldiv@a+1)^(0+1280),c
  1701   002FAC  0E00               	movlw	0
  1702   002FAE  6E16               	movwf	(___fldiv@a+2)^(0+1280),c
  1703   002FB0  0E00               	movlw	0
  1704   002FB2  6E17               	movwf	(___fldiv@a+3)^(0+1280),c
  1705   002FB4                     l2190:
  1706   002FB4  8E16               	bsf	(___fldiv@a+2)^(0+1280),7,c
  1707   002FB6  0E00               	movlw	0
  1708   002FB8  6E17               	movwf	(___fldiv@a+3)^(0+1280),c
  1709   002FBA  EFE7  F017         	goto	l2196
  1710   002FBE                     l2194:
  1711   002FBE  0E00               	movlw	0
  1712   002FC0  6E14               	movwf	___fldiv@a^(0+1280),c
  1713   002FC2  0E00               	movlw	0
  1714   002FC4  6E15               	movwf	(___fldiv@a+1)^(0+1280),c
  1715   002FC6  0E00               	movlw	0
  1716   002FC8  6E16               	movwf	(___fldiv@a+2)^(0+1280),c
  1717   002FCA  0E00               	movlw	0
  1718   002FCC  6E17               	movwf	(___fldiv@a+3)^(0+1280),c
  1719   002FCE                     l2196:
  1720   002FCE  5014               	movf	___fldiv@a^(0+1280),w,c
  1721   002FD0  1015               	iorwf	(___fldiv@a+1)^(0+1280),w,c
  1722   002FD2  1016               	iorwf	(___fldiv@a+2)^(0+1280),w,c
  1723   002FD4  1017               	iorwf	(___fldiv@a+3)^(0+1280),w,c
  1724   002FD6  A4D8               	btfss	status,2,c
  1725   002FD8  EFF0  F017         	goto	u1841
  1726   002FDC  EFF2  F017         	goto	u1840
  1727   002FE0                     u1841:
  1728   002FE0  EF0A  F018         	goto	l2208
  1729   002FE4                     u1840:
  1730   002FE4  0E00               	movlw	0
  1731   002FE6  6E10               	movwf	___fldiv@b^(0+1280),c
  1732   002FE8  0E00               	movlw	0
  1733   002FEA  6E11               	movwf	(___fldiv@b+1)^(0+1280),c
  1734   002FEC  0E00               	movlw	0
  1735   002FEE  6E12               	movwf	(___fldiv@b+2)^(0+1280),c
  1736   002FF0  0E00               	movlw	0
  1737   002FF2  6E13               	movwf	(___fldiv@b+3)^(0+1280),c
  1738   002FF4  0E80               	movlw	128
  1739   002FF6  1212               	iorwf	(___fldiv@b+2)^(0+1280),f,c
  1740   002FF8  0E7F               	movlw	127
  1741   002FFA  1213               	iorwf	(___fldiv@b+3)^(0+1280),f,c
  1742   002FFC                     l2202:
  1743   002FFC  5020               	movf	___fldiv@sign^(0+1280),w,c
  1744   002FFE  1213               	iorwf	(___fldiv@b+3)^(0+1280),f,c
  1745   003000  C510  F510         	movff	___fldiv@b,?___fldiv
  1746   003004  C511  F511         	movff	___fldiv@b+1,?___fldiv+1
  1747   003008  C512  F512         	movff	___fldiv@b+2,?___fldiv+2
  1748   00300C  C513  F513         	movff	___fldiv@b+3,?___fldiv+3
  1749   003010  EF4D  F019         	goto	l749
  1750   003014                     l2208:
  1751   003014  5027               	movf	___fldiv@bexp^(0+1280),w,c
  1752   003016  A4D8               	btfss	status,2,c
  1753   003018  EF10  F018         	goto	u1851
  1754   00301C  EF12  F018         	goto	u1850
  1755   003020                     u1851:
  1756   003020  EF1C  F018         	goto	l2216
  1757   003024                     u1850:
  1758   003024  0E00               	movlw	0
  1759   003026  6E10               	movwf	?___fldiv^(0+1280),c
  1760   003028  0E00               	movlw	0
  1761   00302A  6E11               	movwf	(?___fldiv+1)^(0+1280),c
  1762   00302C  0E00               	movlw	0
  1763   00302E  6E12               	movwf	(?___fldiv+2)^(0+1280),c
  1764   003030  0E00               	movlw	0
  1765   003032  6E13               	movwf	(?___fldiv+3)^(0+1280),c
  1766   003034  EF4D  F019         	goto	l749
  1767   003038                     l2216:
  1768   003038  5028               	movf	___fldiv@aexp^(0+1280),w,c
  1769   00303A  C527  F518         	movff	___fldiv@bexp,??___fldiv
  1770   00303E  6A19               	clrf	(??___fldiv+1)^(0+1280),c
  1771   003040  5E18               	subwf	??___fldiv^(0+1280),f,c
  1772   003042  0E00               	movlw	0
  1773   003044  5A19               	subwfb	(??___fldiv+1)^(0+1280),f,c
  1774   003046  0E7F               	movlw	127
  1775   003048  2418               	addwf	??___fldiv^(0+1280),w,c
  1776   00304A  6E21               	movwf	___fldiv@new_exp^(0+1280),c
  1777   00304C  0E00               	movlw	0
  1778   00304E  2019               	addwfc	(??___fldiv+1)^(0+1280),w,c
  1779   003050  6E22               	movwf	(___fldiv@new_exp+1)^(0+1280),c
  1780   003052  C510  F51C         	movff	___fldiv@b,___fldiv@rem
  1781   003056  C511  F51D         	movff	___fldiv@b+1,___fldiv@rem+1
  1782   00305A  C512  F51E         	movff	___fldiv@b+2,___fldiv@rem+2
  1783   00305E  C513  F51F         	movff	___fldiv@b+3,___fldiv@rem+3
  1784   003062  0E00               	movlw	0
  1785   003064  6E10               	movwf	___fldiv@b^(0+1280),c
  1786   003066  0E00               	movlw	0
  1787   003068  6E11               	movwf	(___fldiv@b+1)^(0+1280),c
  1788   00306A  0E00               	movlw	0
  1789   00306C  6E12               	movwf	(___fldiv@b+2)^(0+1280),c
  1790   00306E  0E00               	movlw	0
  1791   003070  6E13               	movwf	(___fldiv@b+3)^(0+1280),c
  1792   003072  0E00               	movlw	0
  1793   003074  6E23               	movwf	___fldiv@grs^(0+1280),c
  1794   003076  0E00               	movlw	0
  1795   003078  6E24               	movwf	(___fldiv@grs+1)^(0+1280),c
  1796   00307A  0E00               	movlw	0
  1797   00307C  6E25               	movwf	(___fldiv@grs+2)^(0+1280),c
  1798   00307E  0E00               	movlw	0
  1799   003080  6E26               	movwf	(___fldiv@grs+3)^(0+1280),c
  1800   003082  0E00               	movlw	0
  1801   003084  6E28               	movwf	___fldiv@aexp^(0+1280),c
  1802   003086  EF7D  F018         	goto	l751
  1803   00308A                     l2226:
  1804   00308A  5028               	movf	___fldiv@aexp^(0+1280),w,c
  1805   00308C  B4D8               	btfsc	status,2,c
  1806   00308E  EF4B  F018         	goto	u1861
  1807   003092  EF4D  F018         	goto	u1860
  1808   003096                     u1861:
  1809   003096  EF64  F018         	goto	l2234
  1810   00309A                     u1860:
  1811   00309A  90D8               	bcf	status,0,c
  1812   00309C  361C               	rlcf	___fldiv@rem^(0+1280),f,c
  1813   00309E  361D               	rlcf	(___fldiv@rem+1)^(0+1280),f,c
  1814   0030A0  361E               	rlcf	(___fldiv@rem+2)^(0+1280),f,c
  1815   0030A2  361F               	rlcf	(___fldiv@rem+3)^(0+1280),f,c
  1816   0030A4  90D8               	bcf	status,0,c
  1817   0030A6  3610               	rlcf	___fldiv@b^(0+1280),f,c
  1818   0030A8  3611               	rlcf	(___fldiv@b+1)^(0+1280),f,c
  1819   0030AA  3612               	rlcf	(___fldiv@b+2)^(0+1280),f,c
  1820   0030AC  3613               	rlcf	(___fldiv@b+3)^(0+1280),f,c
  1821   0030AE  AE26               	btfss	(___fldiv@grs+3)^(0+1280),7,c
  1822   0030B0  EF5C  F018         	goto	u1871
  1823   0030B4  EF5E  F018         	goto	u1870
  1824   0030B8                     u1871:
  1825   0030B8  EF5F  F018         	goto	l754
  1826   0030BC                     u1870:
  1827   0030BC  8010               	bsf	___fldiv@b^(0+1280),0,c
  1828   0030BE                     l754:
  1829   0030BE  90D8               	bcf	status,0,c
  1830   0030C0  3623               	rlcf	___fldiv@grs^(0+1280),f,c
  1831   0030C2  3624               	rlcf	(___fldiv@grs+1)^(0+1280),f,c
  1832   0030C4  3625               	rlcf	(___fldiv@grs+2)^(0+1280),f,c
  1833   0030C6  3626               	rlcf	(___fldiv@grs+3)^(0+1280),f,c
  1834   0030C8                     l2234:
  1835   0030C8  5014               	movf	___fldiv@a^(0+1280),w,c
  1836   0030CA  5C1C               	subwf	___fldiv@rem^(0+1280),w,c
  1837   0030CC  5015               	movf	(___fldiv@a+1)^(0+1280),w,c
  1838   0030CE  581D               	subwfb	(___fldiv@rem+1)^(0+1280),w,c
  1839   0030D0  5016               	movf	(___fldiv@a+2)^(0+1280),w,c
  1840   0030D2  581E               	subwfb	(___fldiv@rem+2)^(0+1280),w,c
  1841   0030D4  5017               	movf	(___fldiv@a+3)^(0+1280),w,c
  1842   0030D6  581F               	subwfb	(___fldiv@rem+3)^(0+1280),w,c
  1843   0030D8  A0D8               	btfss	status,0,c
  1844   0030DA  EF71  F018         	goto	u1881
  1845   0030DE  EF73  F018         	goto	u1880
  1846   0030E2                     u1881:
  1847   0030E2  EF7C  F018         	goto	l2240
  1848   0030E6                     u1880:
  1849   0030E6  8C26               	bsf	(___fldiv@grs+3)^(0+1280),6,c
  1850   0030E8  5014               	movf	___fldiv@a^(0+1280),w,c
  1851   0030EA  5E1C               	subwf	___fldiv@rem^(0+1280),f,c
  1852   0030EC  5015               	movf	(___fldiv@a+1)^(0+1280),w,c
  1853   0030EE  5A1D               	subwfb	(___fldiv@rem+1)^(0+1280),f,c
  1854   0030F0  5016               	movf	(___fldiv@a+2)^(0+1280),w,c
  1855   0030F2  5A1E               	subwfb	(___fldiv@rem+2)^(0+1280),f,c
  1856   0030F4  5017               	movf	(___fldiv@a+3)^(0+1280),w,c
  1857   0030F6  5A1F               	subwfb	(___fldiv@rem+3)^(0+1280),f,c
  1858   0030F8                     l2240:
  1859   0030F8  2A28               	incf	___fldiv@aexp^(0+1280),f,c
  1860   0030FA                     l751:
  1861   0030FA  0E19               	movlw	25
  1862   0030FC  6428               	cpfsgt	___fldiv@aexp^(0+1280),c
  1863   0030FE  EF83  F018         	goto	u1891
  1864   003102  EF85  F018         	goto	u1890
  1865   003106                     u1891:
  1866   003106  EF45  F018         	goto	l2226
  1867   00310A                     u1890:
  1868   00310A  501C               	movf	___fldiv@rem^(0+1280),w,c
  1869   00310C  101D               	iorwf	(___fldiv@rem+1)^(0+1280),w,c
  1870   00310E  101E               	iorwf	(___fldiv@rem+2)^(0+1280),w,c
  1871   003110  101F               	iorwf	(___fldiv@rem+3)^(0+1280),w,c
  1872   003112  B4D8               	btfsc	status,2,c
  1873   003114  EF8E  F018         	goto	u1901
  1874   003118  EF90  F018         	goto	u1900
  1875   00311C                     u1901:
  1876   00311C  EFA8  F018         	goto	l2252
  1877   003120                     u1900:
  1878   003120  8023               	bsf	___fldiv@grs^(0+1280),0,c
  1879   003122  EFA8  F018         	goto	l2252
  1880   003126                     l2246:
  1881   003126  90D8               	bcf	status,0,c
  1882   003128  3610               	rlcf	___fldiv@b^(0+1280),f,c
  1883   00312A  3611               	rlcf	(___fldiv@b+1)^(0+1280),f,c
  1884   00312C  3612               	rlcf	(___fldiv@b+2)^(0+1280),f,c
  1885   00312E  3613               	rlcf	(___fldiv@b+3)^(0+1280),f,c
  1886   003130  AE26               	btfss	(___fldiv@grs+3)^(0+1280),7,c
  1887   003132  EF9D  F018         	goto	u1911
  1888   003136  EF9F  F018         	goto	u1910
  1889   00313A                     u1911:
  1890   00313A  EFA0  F018         	goto	l760
  1891   00313E                     u1910:
  1892   00313E  8010               	bsf	___fldiv@b^(0+1280),0,c
  1893   003140                     l760:
  1894   003140  90D8               	bcf	status,0,c
  1895   003142  3623               	rlcf	___fldiv@grs^(0+1280),f,c
  1896   003144  3624               	rlcf	(___fldiv@grs+1)^(0+1280),f,c
  1897   003146  3625               	rlcf	(___fldiv@grs+2)^(0+1280),f,c
  1898   003148  3626               	rlcf	(___fldiv@grs+3)^(0+1280),f,c
  1899   00314A  0621               	decf	___fldiv@new_exp^(0+1280),f,c
  1900   00314C  A0D8               	btfss	status,0,c
  1901   00314E  0622               	decf	(___fldiv@new_exp+1)^(0+1280),f,c
  1902   003150                     l2252:
  1903   003150  AE12               	btfss	(___fldiv@b+2)^(0+1280),7,c
  1904   003152  EFAD  F018         	goto	u1921
  1905   003156  EFAF  F018         	goto	u1920
  1906   00315A                     u1921:
  1907   00315A  EF93  F018         	goto	l2246
  1908   00315E                     u1920:
  1909   00315E  0E00               	movlw	0
  1910   003160  6E28               	movwf	___fldiv@aexp^(0+1280),c
  1911   003162  AE26               	btfss	(___fldiv@grs+3)^(0+1280),7,c
  1912   003164  EFB6  F018         	goto	u1931
  1913   003168  EFB8  F018         	goto	u1930
  1914   00316C                     u1931:
  1915   00316C  EFDC  F018         	goto	l762
  1916   003170                     u1930:
  1917   003170  0EFF               	movlw	255
  1918   003172  1423               	andwf	___fldiv@grs^(0+1280),w,c
  1919   003174  6E18               	movwf	??___fldiv^(0+1280),c
  1920   003176  0EFF               	movlw	255
  1921   003178  1424               	andwf	(___fldiv@grs+1)^(0+1280),w,c
  1922   00317A  6E19               	movwf	(??___fldiv+1)^(0+1280),c
  1923   00317C  0EFF               	movlw	255
  1924   00317E  1425               	andwf	(___fldiv@grs+2)^(0+1280),w,c
  1925   003180  6E1A               	movwf	(??___fldiv+2)^(0+1280),c
  1926   003182  0E7F               	movlw	127
  1927   003184  1426               	andwf	(___fldiv@grs+3)^(0+1280),w,c
  1928   003186  6E1B               	movwf	(??___fldiv+3)^(0+1280),c
  1929   003188  5018               	movf	??___fldiv^(0+1280),w,c
  1930   00318A  1019               	iorwf	(??___fldiv+1)^(0+1280),w,c
  1931   00318C  101A               	iorwf	(??___fldiv+2)^(0+1280),w,c
  1932   00318E  101B               	iorwf	(??___fldiv+3)^(0+1280),w,c
  1933   003190  B4D8               	btfsc	status,2,c
  1934   003192  EFCD  F018         	goto	u1941
  1935   003196  EFCF  F018         	goto	u1940
  1936   00319A                     u1941:
  1937   00319A  EFD3  F018         	goto	l763
  1938   00319E                     u1940:
  1939   00319E                     l2260:
  1940   00319E  0E01               	movlw	1
  1941   0031A0  6E28               	movwf	___fldiv@aexp^(0+1280),c
  1942   0031A2  EFDC  F018         	goto	l762
  1943   0031A6                     l763:
  1944   0031A6  A010               	btfss	___fldiv@b^(0+1280),0,c
  1945   0031A8  EFD8  F018         	goto	u1951
  1946   0031AC  EFDA  F018         	goto	u1950
  1947   0031B0                     u1951:
  1948   0031B0  EFDC  F018         	goto	l762
  1949   0031B4                     u1950:
  1950   0031B4  EFCF  F018         	goto	l2260
  1951   0031B8                     l762:
  1952   0031B8  5028               	movf	___fldiv@aexp^(0+1280),w,c
  1953   0031BA  B4D8               	btfsc	status,2,c
  1954   0031BC  EFE2  F018         	goto	u1961
  1955   0031C0  EFE4  F018         	goto	u1960
  1956   0031C4                     u1961:
  1957   0031C4  EF08  F019         	goto	l2272
  1958   0031C8                     u1960:
  1959   0031C8  0E01               	movlw	1
  1960   0031CA  2610               	addwf	___fldiv@b^(0+1280),f,c
  1961   0031CC  0E00               	movlw	0
  1962   0031CE  2211               	addwfc	(___fldiv@b+1)^(0+1280),f,c
  1963   0031D0  2212               	addwfc	(___fldiv@b+2)^(0+1280),f,c
  1964   0031D2  2213               	addwfc	(___fldiv@b+3)^(0+1280),f,c
  1965   0031D4  A013               	btfss	(___fldiv@b+3)^(0+1280),0,c
  1966   0031D6  EFEF  F018         	goto	u1971
  1967   0031DA  EFF1  F018         	goto	u1970
  1968   0031DE                     u1971:
  1969   0031DE  EF08  F019         	goto	l2272
  1970   0031E2                     u1970:
  1971   0031E2  C510  F518         	movff	___fldiv@b,??___fldiv
  1972   0031E6  C511  F519         	movff	___fldiv@b+1,??___fldiv+1
  1973   0031EA  C512  F51A         	movff	___fldiv@b+2,??___fldiv+2
  1974   0031EE  C513  F51B         	movff	___fldiv@b+3,??___fldiv+3
  1975   0031F2  341B               	rlcf	(??___fldiv+3)^(0+1280),w,c
  1976   0031F4  321B               	rrcf	(??___fldiv+3)^(0+1280),f,c
  1977   0031F6  321A               	rrcf	(??___fldiv+2)^(0+1280),f,c
  1978   0031F8  3219               	rrcf	(??___fldiv+1)^(0+1280),f,c
  1979   0031FA  3218               	rrcf	??___fldiv^(0+1280),f,c
  1980   0031FC  C518  F510         	movff	??___fldiv,___fldiv@b
  1981   003200  C519  F511         	movff	??___fldiv+1,___fldiv@b+1
  1982   003204  C51A  F512         	movff	??___fldiv+2,___fldiv@b+2
  1983   003208  C51B  F513         	movff	??___fldiv+3,___fldiv@b+3
  1984   00320C  4A21               	infsnz	___fldiv@new_exp^(0+1280),f,c
  1985   00320E  2A22               	incf	(___fldiv@new_exp+1)^(0+1280),f,c
  1986   003210                     l2272:
  1987   003210  BE22               	btfsc	(___fldiv@new_exp+1)^(0+1280),7,c
  1988   003212  EF13  F019         	goto	u1981
  1989   003216  5022               	movf	(___fldiv@new_exp+1)^(0+1280),w,c
  1990   003218  E108               	bnz	u1980
  1991   00321A  2821               	incf	___fldiv@new_exp^(0+1280),w,c
  1992   00321C  A0D8               	btfss	status,0,c
  1993   00321E  EF13  F019         	goto	u1981
  1994   003222  EF15  F019         	goto	u1980
  1995   003226                     u1981:
  1996   003226  EF20  F019         	goto	l2276
  1997   00322A                     u1980:
  1998   00322A  0E00               	movlw	0
  1999   00322C  6E22               	movwf	(___fldiv@new_exp+1)^(0+1280),c
  2000   00322E  6821               	setf	___fldiv@new_exp^(0+1280),c
  2001   003230  0E00               	movlw	0
  2002   003232  6E10               	movwf	___fldiv@b^(0+1280),c
  2003   003234  0E00               	movlw	0
  2004   003236  6E11               	movwf	(___fldiv@b+1)^(0+1280),c
  2005   003238  0E00               	movlw	0
  2006   00323A  6E12               	movwf	(___fldiv@b+2)^(0+1280),c
  2007   00323C  0E00               	movlw	0
  2008   00323E  6E13               	movwf	(___fldiv@b+3)^(0+1280),c
  2009   003240                     l2276:
  2010   003240  BE22               	btfsc	(___fldiv@new_exp+1)^(0+1280),7,c
  2011   003242  EF2D  F019         	goto	u1990
  2012   003246  5022               	movf	(___fldiv@new_exp+1)^(0+1280),w,c
  2013   003248  E106               	bnz	u1991
  2014   00324A  0421               	decf	___fldiv@new_exp^(0+1280),w,c
  2015   00324C  B0D8               	btfsc	status,0,c
  2016   00324E  EF2B  F019         	goto	u1991
  2017   003252  EF2D  F019         	goto	u1990
  2018   003256                     u1991:
  2019   003256  EF3B  F019         	goto	l2280
  2020   00325A                     u1990:
  2021   00325A  0E00               	movlw	0
  2022   00325C  6E22               	movwf	(___fldiv@new_exp+1)^(0+1280),c
  2023   00325E  0E00               	movlw	0
  2024   003260  6E21               	movwf	___fldiv@new_exp^(0+1280),c
  2025   003262  0E00               	movlw	0
  2026   003264  6E10               	movwf	___fldiv@b^(0+1280),c
  2027   003266  0E00               	movlw	0
  2028   003268  6E11               	movwf	(___fldiv@b+1)^(0+1280),c
  2029   00326A  0E00               	movlw	0
  2030   00326C  6E12               	movwf	(___fldiv@b+2)^(0+1280),c
  2031   00326E  0E00               	movlw	0
  2032   003270  6E13               	movwf	(___fldiv@b+3)^(0+1280),c
  2033   003272  0E00               	movlw	0
  2034   003274  6E20               	movwf	___fldiv@sign^(0+1280),c
  2035   003276                     l2280:
  2036   003276  C521  F527         	movff	___fldiv@new_exp,___fldiv@bexp
  2037   00327A  A027               	btfss	___fldiv@bexp^(0+1280),0,c
  2038   00327C  EF42  F019         	goto	u2001
  2039   003280  EF44  F019         	goto	u2000
  2040   003284                     u2001:
  2041   003284  EF47  F019         	goto	l2286
  2042   003288                     u2000:
  2043   003288  8E12               	bsf	(___fldiv@b+2)^(0+1280),7,c
  2044   00328A  EF48  F019         	goto	l2288
  2045   00328E                     l2286:
  2046   00328E  9E12               	bcf	(___fldiv@b+2)^(0+1280),7,c
  2047   003290                     l2288:
  2048   003290  90D8               	bcf	status,0,c
  2049   003292  3027               	rrcf	___fldiv@bexp^(0+1280),w,c
  2050   003294  6E13               	movwf	(___fldiv@b+3)^(0+1280),c
  2051   003296  EFFE  F017         	goto	l2202
  2052   00329A                     l749:
  2053   00329A  0012               	return		;funcret
  2054   00329C                     __end_of___fldiv:
  2055                           	callstack 0
  2056                           
  2057 ;; *************** function _LCDprintf *****************
  2058 ;; Defined at:
  2059 ;;		line 143 in file "C:/Users/a_hui/OneDrive - Camosun College/term2/ecet165_embedded_mc/labs/ecet165-labs/lab6/lcd18f.
      +c"
  2060 ;; Parameters:    Size  Location     Type
  2061 ;;  shell           2    0[BANK5 ] PTR unsigned char 
  2062 ;;		 -> STR_2(5), STR_1(16), 
  2063 ;; Auto vars:     Size  Location     Type
  2064 ;;  f_string       10   12[BANK5 ] unsigned char [10]
  2065 ;;  f_input         4   24[BANK5 ] unsigned char [10]
  2066 ;;  args            2   30[BANK5 ] PTR void [1]
  2067 ;;		 -> ?_LCDprintf(1), 
  2068 ;;  f_int           2   28[BANK5 ] unsigned int 
  2069 ;;  indexer         1   32[BANK5 ] char 
  2070 ;; Return value:  Size  Location     Type
  2071 ;;                  1    wreg      void 
  2072 ;; Registers used:
  2073 ;;		wreg, fsr2l, fsr2h, status,2, status,0, tblptrl, tblptrh, tblptru, prodl, prodh, cstack
  2074 ;; Tracked objects:
  2075 ;;		On entry : 0/0
  2076 ;;		On exit  : 0/0
  2077 ;;		Unchanged: 0/0
  2078 ;; Data sizes:     COMRAM   BANK5   BANK6   BANK7   BANK8   BANK9  BANK10  BANK11  BANK12  BANK13  BANK14  BANK15  BANK1
      +6  BANK17  BANK18  BANK19  BANK20  BANK21  BANK22  BANK23  BANK24  BANK25  BANK26  BANK27  BANK28  BANK29  BANK30  BANK3
      +1  BANK32  BANK33  BANK34  BANK35  BANK36
  2079 ;;      Params:         0       6       0       0       0       0       0       0       0       0       0       0       
      +0       0       0       0       0       0       0       0       0       0       0       0       0       0       0       
      +0       0       0       0       0       0
  2080 ;;      Locals:         0      21       0       0       0       0       0       0       0       0       0       0       
      +0       0       0       0       0       0       0       0       0       0       0       0       0       0       0       
      +0       0       0       0       0       0
  2081 ;;      Temps:          0       6       0       0       0       0       0       0       0       0       0       0       
      +0       0       0       0       0       0       0       0       0       0       0       0       0       0       0       
      +0       0       0       0       0       0
  2082 ;;      Totals:         0      33       0       0       0       0       0       0       0       0       0       0       
      +0       0       0       0       0       0       0       0       0       0       0       0       0       0       0       
      +0       0       0       0       0       0
  2083 ;;Total ram usage:       33 bytes
  2084 ;; Hardware stack levels used: 1
  2085 ;; Hardware stack levels required when called: 3
  2086 ;; This function calls:
  2087 ;;		_LCDprintc
  2088 ;;		_LCDprints
  2089 ;;		___flmul
  2090 ;;		___fltol
  2091 ;;		___lwdiv
  2092 ;;		___lwmod
  2093 ;;		___xxtofl
  2094 ;;		_toString
  2095 ;; This function is called by:
  2096 ;;		_main
  2097 ;;		_RTCrun
  2098 ;; This function uses a non-reentrant model
  2099 ;;
  2100                           
  2101                           	psect	text6
  2102   00329C                     __ptext6:
  2103                           	callstack 0
  2104   00329C                     _LCDprintf:
  2105                           	callstack 123
  2106   00329C                     
  2107                           ;C:/Users/a_hui/OneDrive - Camosun College/term2/ecet165_embedded_mc/labs/ecet165-labs/l
      +                          ab6/lcd18f.c: 145:     double f_input;;C:/Users/a_hui/OneDrive - Camosun College/term2/e
      +                          cet165_embedded_mc/labs/ecet165-labs/lab6/lcd18f.c: 146:     char f_string[10];;C:/Users
      +                          /a_hui/OneDrive - Camosun College/term2/ecet165_embedded_mc/labs/ecet165-labs/lab6/lcd18
      +                          f.c: 147:     unsigned int f_int;;C:/Users/a_hui/OneDrive - Camosun College/term2/ecet16
      +                          5_embedded_mc/labs/ecet165-labs/lab6/lcd18f.c: 148:     signed char indexer;
  2108   00329C  0E62               	movlw	low (?_LCDprintf+2)
  2109   00329E  0105               	movlb	5	; () banked
  2110   0032A0  6F7E               	movwf	LCDprintf@args& (0+255),b
  2111   0032A2  0E05               	movlw	high (?_LCDprintf+2)
  2112   0032A4  6F7F               	movwf	(LCDprintf@args+1)& (0+255),b
  2113                           
  2114                           ;C:/Users/a_hui/OneDrive - Camosun College/term2/ecet165_embedded_mc/labs/ecet165-labs/l
      +                          ab6/lcd18f.c: 153:     while(*shell != 0x0){
  2115   0032A6  EF05  F01B         	goto	l2594
  2116   0032AA                     l2524:
  2117                           
  2118                           ; BSR set to: 5
  2119                           ;C:/Users/a_hui/OneDrive - Camosun College/term2/ecet165_embedded_mc/labs/ecet165-labs/l
      +                          ab6/lcd18f.c: 155:         if(*shell != '%'){
  2120   0032AA  C560  F4F6         	movff	LCDprintf@shell,tblptrl
  2121   0032AE  C561  F4F7         	movff	LCDprintf@shell+1,tblptrh
  2122   0032B2                     	if	0	;tblptru may be non-zero
  2123   0032B2                     	endif
  2124   0032B2                     	if	0	;tblptru may be non-zero
  2125   0032B2                     	endif
  2126   0032B2  0008               	tblrd		*
  2127   0032B4  50F5               	movf	tablat,w,c
  2128   0032B6  0A25               	xorlw	37
  2129   0032B8  B4D8               	btfsc	status,2,c
  2130   0032BA  EF61  F019         	goto	u2371
  2131   0032BE  EF63  F019         	goto	u2370
  2132   0032C2                     u2371:
  2133   0032C2  EF70  F019         	goto	l2530
  2134   0032C6                     u2370:
  2135   0032C6                     
  2136                           ; BSR set to: 5
  2137                           ;C:/Users/a_hui/OneDrive - Camosun College/term2/ecet165_embedded_mc/labs/ecet165-labs/l
      +                          ab6/lcd18f.c: 156:             LCDprintc(*shell++);
  2138   0032C6  C560  F4F6         	movff	LCDprintf@shell,tblptrl
  2139   0032CA  C561  F4F7         	movff	LCDprintf@shell+1,tblptrh
  2140   0032CE                     	if	0	;tblptru may be non-zero
  2141   0032CE                     	endif
  2142   0032CE                     	if	0	;tblptru may be non-zero
  2143   0032CE                     	endif
  2144   0032CE  0008               	tblrd		*
  2145   0032D0  50F5               	movf	tablat,w,c
  2146   0032D2  ECCD  F01D         	call	_LCDprintc
  2147   0032D6                     l2528:
  2148   0032D6  0105               	movlb	5	; () banked
  2149   0032D8  4B60               	infsnz	LCDprintf@shell& (0+255),f,b
  2150   0032DA  2B61               	incf	(LCDprintf@shell+1)& (0+255),f,b
  2151                           
  2152                           ;C:/Users/a_hui/OneDrive - Camosun College/term2/ecet165_embedded_mc/labs/ecet165-labs/l
      +                          ab6/lcd18f.c: 158:         }else if(*(shell+1) == 's'){
  2153   0032DC  EF05  F01B         	goto	l2594
  2154   0032E0                     l2530:
  2155                           
  2156                           ; BSR set to: 5
  2157   0032E0  0E01               	movlw	1
  2158   0032E2  2560               	addwf	LCDprintf@shell& (0+255),w,b
  2159   0032E4  6F66               	movwf	??_LCDprintf& (0+255),b
  2160   0032E6  0E00               	movlw	0
  2161   0032E8  2161               	addwfc	(LCDprintf@shell+1)& (0+255),w,b
  2162   0032EA  6F67               	movwf	(??_LCDprintf+1)& (0+255),b
  2163   0032EC  C566  F4F6         	movff	??_LCDprintf,tblptrl
  2164   0032F0  C567  F4F7         	movff	??_LCDprintf+1,tblptrh
  2165   0032F4                     	if	0	;tblptru may be non-zero
  2166   0032F4                     	endif
  2167   0032F4                     	if	0	;tblptru may be non-zero
  2168   0032F4                     	endif
  2169   0032F4  0008               	tblrd		*
  2170   0032F6  50F5               	movf	tablat,w,c
  2171   0032F8  0A73               	xorlw	115
  2172   0032FA  A4D8               	btfss	status,2,c
  2173   0032FC  EF82  F019         	goto	u2381
  2174   003300  EF84  F019         	goto	u2380
  2175   003304                     u2381:
  2176   003304  EF99  F019         	goto	l2538
  2177   003308                     u2380:
  2178   003308                     
  2179                           ; BSR set to: 5
  2180                           ;C:/Users/a_hui/OneDrive - Camosun College/term2/ecet165_embedded_mc/labs/ecet165-labs/l
      +                          ab6/lcd18f.c: 160:             LCDprints((*(char* *)__va_arg(*(char* **)args, (char*)0))
      +                          );
  2181   003308  C57E  F4D9         	movff	LCDprintf@args,fsr2l
  2182   00330C  C57F  F4DA         	movff	LCDprintf@args+1,fsr2h
  2183   003310  C4DE F513          	movff	postinc2,LCDprints@c
  2184   003314  C4DD F514          	movff	postdec2,LCDprints@c+1
  2185   003318  ECE9  F01E         	call	_LCDprints	;wreg free
  2186   00331C  0E02               	movlw	2
  2187   00331E  0105               	movlb	5	; () banked
  2188   003320  277E               	addwf	LCDprintf@args& (0+255),f,b
  2189   003322  0E00               	movlw	0
  2190   003324  237F               	addwfc	(LCDprintf@args+1)& (0+255),f,b
  2191   003326                     l2536:
  2192                           
  2193                           ; BSR set to: 5
  2194                           ;C:/Users/a_hui/OneDrive - Camosun College/term2/ecet165_embedded_mc/labs/ecet165-labs/l
      +                          ab6/lcd18f.c: 161:             shell+=2;
  2195   003326  0E02               	movlw	2
  2196   003328  2760               	addwf	LCDprintf@shell& (0+255),f,b
  2197   00332A  0E00               	movlw	0
  2198   00332C  2361               	addwfc	(LCDprintf@shell+1)& (0+255),f,b
  2199                           
  2200                           ;C:/Users/a_hui/OneDrive - Camosun College/term2/ecet165_embedded_mc/labs/ecet165-labs/l
      +                          ab6/lcd18f.c: 162:         }
  2201   00332E  EF05  F01B         	goto	l2594
  2202   003332                     l2538:
  2203                           
  2204                           ; BSR set to: 5
  2205   003332  0E01               	movlw	1
  2206   003334  2560               	addwf	LCDprintf@shell& (0+255),w,b
  2207   003336  6F66               	movwf	??_LCDprintf& (0+255),b
  2208   003338  0E00               	movlw	0
  2209   00333A  2161               	addwfc	(LCDprintf@shell+1)& (0+255),w,b
  2210   00333C  6F67               	movwf	(??_LCDprintf+1)& (0+255),b
  2211   00333E  C566  F4F6         	movff	??_LCDprintf,tblptrl
  2212   003342  C567  F4F7         	movff	??_LCDprintf+1,tblptrh
  2213   003346                     	if	0	;tblptru may be non-zero
  2214   003346                     	endif
  2215   003346                     	if	0	;tblptru may be non-zero
  2216   003346                     	endif
  2217   003346  0008               	tblrd		*
  2218   003348  50F5               	movf	tablat,w,c
  2219   00334A  0A69               	xorlw	105
  2220   00334C  A4D8               	btfss	status,2,c
  2221   00334E  EFAB  F019         	goto	u2391
  2222   003352  EFAD  F019         	goto	u2390
  2223   003356                     u2391:
  2224   003356  EFD6  F019         	goto	l2546
  2225   00335A                     u2390:
  2226   00335A                     
  2227                           ; BSR set to: 5
  2228                           ;C:/Users/a_hui/OneDrive - Camosun College/term2/ecet165_embedded_mc/labs/ecet165-labs/l
      +                          ab6/lcd18f.c: 166:             LCDprints(toString((*(unsigned int *)__va_arg(*(unsigned 
      +                          int **)args, (unsigned int)0)), (*(shell+2)-'0')));
  2229   00335A  C57E  F4D9         	movff	LCDprintf@args,fsr2l
  2230   00335E  C57F  F4DA         	movff	LCDprintf@args+1,fsr2h
  2231   003362  C4DE F509          	movff	postinc2,toString@number
  2232   003366  C4DD F50A          	movff	postdec2,toString@number+1
  2233   00336A  0E02               	movlw	2
  2234   00336C  2560               	addwf	LCDprintf@shell& (0+255),w,b
  2235   00336E  6F66               	movwf	??_LCDprintf& (0+255),b
  2236   003370  0E00               	movlw	0
  2237   003372  2161               	addwfc	(LCDprintf@shell+1)& (0+255),w,b
  2238   003374  6F67               	movwf	(??_LCDprintf+1)& (0+255),b
  2239   003376  C566  F4F6         	movff	??_LCDprintf,tblptrl
  2240   00337A  C567  F4F7         	movff	??_LCDprintf+1,tblptrh
  2241   00337E                     	if	0	;tblptru may be non-zero
  2242   00337E                     	endif
  2243   00337E                     	if	0	;tblptru may be non-zero
  2244   00337E                     	endif
  2245   00337E  0008               	tblrd		*
  2246   003380  50F5               	movf	tablat,w,c
  2247   003382  0FD0               	addlw	208
  2248   003384  6E0B               	movwf	toString@length^(0+1280),c
  2249   003386  EC09  F01E         	call	_toString	;wreg free
  2250   00338A  C509  F513         	movff	?_toString,LCDprints@c
  2251   00338E  C50A  F514         	movff	?_toString+1,LCDprints@c+1
  2252   003392  ECE9  F01E         	call	_LCDprints	;wreg free
  2253   003396  0E02               	movlw	2
  2254   003398  0105               	movlb	5	; () banked
  2255   00339A  277E               	addwf	LCDprintf@args& (0+255),f,b
  2256   00339C  0E00               	movlw	0
  2257   00339E  237F               	addwfc	(LCDprintf@args+1)& (0+255),f,b
  2258   0033A0                     
  2259                           ; BSR set to: 5
  2260                           ;C:/Users/a_hui/OneDrive - Camosun College/term2/ecet165_embedded_mc/labs/ecet165-labs/l
      +                          ab6/lcd18f.c: 167:             shell+=3;
  2261   0033A0  0E03               	movlw	3
  2262   0033A2  2760               	addwf	LCDprintf@shell& (0+255),f,b
  2263   0033A4  0E00               	movlw	0
  2264   0033A6  2361               	addwfc	(LCDprintf@shell+1)& (0+255),f,b
  2265                           
  2266                           ;C:/Users/a_hui/OneDrive - Camosun College/term2/ecet165_embedded_mc/labs/ecet165-labs/l
      +                          ab6/lcd18f.c: 169:         }else if(*(shell+1) == 'c'){
  2267   0033A8  EF05  F01B         	goto	l2594
  2268   0033AC                     l2546:
  2269                           
  2270                           ; BSR set to: 5
  2271   0033AC  0E01               	movlw	1
  2272   0033AE  2560               	addwf	LCDprintf@shell& (0+255),w,b
  2273   0033B0  6F66               	movwf	??_LCDprintf& (0+255),b
  2274   0033B2  0E00               	movlw	0
  2275   0033B4  2161               	addwfc	(LCDprintf@shell+1)& (0+255),w,b
  2276   0033B6  6F67               	movwf	(??_LCDprintf+1)& (0+255),b
  2277   0033B8  C566  F4F6         	movff	??_LCDprintf,tblptrl
  2278   0033BC  C567  F4F7         	movff	??_LCDprintf+1,tblptrh
  2279   0033C0                     	if	0	;tblptru may be non-zero
  2280   0033C0                     	endif
  2281   0033C0                     	if	0	;tblptru may be non-zero
  2282   0033C0                     	endif
  2283   0033C0  0008               	tblrd		*
  2284   0033C2  50F5               	movf	tablat,w,c
  2285   0033C4  0A63               	xorlw	99
  2286   0033C6  A4D8               	btfss	status,2,c
  2287   0033C8  EFE8  F019         	goto	u2401
  2288   0033CC  EFEA  F019         	goto	u2400
  2289   0033D0                     u2401:
  2290   0033D0  EFF8  F019         	goto	l2554
  2291   0033D4                     u2400:
  2292   0033D4                     
  2293                           ; BSR set to: 5
  2294                           ;C:/Users/a_hui/OneDrive - Camosun College/term2/ecet165_embedded_mc/labs/ecet165-labs/l
      +                          ab6/lcd18f.c: 171:             LCDprintc((*(char *)__va_arg(*(char **)args, (char)0)));
  2295   0033D4  C57E  F4D9         	movff	LCDprintf@args,fsr2l
  2296   0033D8  C57F  F4DA         	movff	LCDprintf@args+1,fsr2h
  2297   0033DC  50DF               	movf	indf2,w,c
  2298   0033DE  ECCD  F01D         	call	_LCDprintc
  2299   0033E2  0E02               	movlw	2
  2300   0033E4  0105               	movlb	5	; () banked
  2301   0033E6  277E               	addwf	LCDprintf@args& (0+255),f,b
  2302   0033E8  0E00               	movlw	0
  2303   0033EA  237F               	addwfc	(LCDprintf@args+1)& (0+255),f,b
  2304   0033EC  EF93  F019         	goto	l2536
  2305   0033F0                     l2554:
  2306                           
  2307                           ; BSR set to: 5
  2308   0033F0  0E02               	movlw	2
  2309   0033F2  2560               	addwf	LCDprintf@shell& (0+255),w,b
  2310   0033F4  6F66               	movwf	??_LCDprintf& (0+255),b
  2311   0033F6  0E00               	movlw	0
  2312   0033F8  2161               	addwfc	(LCDprintf@shell+1)& (0+255),w,b
  2313   0033FA  6F67               	movwf	(??_LCDprintf+1)& (0+255),b
  2314   0033FC  C566  F4F6         	movff	??_LCDprintf,tblptrl
  2315   003400  C567  F4F7         	movff	??_LCDprintf+1,tblptrh
  2316   003404                     	if	0	;tblptru may be non-zero
  2317   003404                     	endif
  2318   003404                     	if	0	;tblptru may be non-zero
  2319   003404                     	endif
  2320   003404  0008               	tblrd		*
  2321   003406  50F5               	movf	tablat,w,c
  2322   003408  0A66               	xorlw	102
  2323   00340A  A4D8               	btfss	status,2,c
  2324   00340C  EF0A  F01A         	goto	u2411
  2325   003410  EF0C  F01A         	goto	u2410
  2326   003414                     u2411:
  2327   003414  EFFB  F01A         	goto	l2590
  2328   003418                     u2410:
  2329   003418                     
  2330                           ; BSR set to: 5
  2331                           ;C:/Users/a_hui/OneDrive - Camosun College/term2/ecet165_embedded_mc/labs/ecet165-labs/l
      +                          ab6/lcd18f.c: 177:             f_input = (*(double *)__va_arg(*(double **)args, (double)
      +                          0));
  2332   003418  C57E  F4D9         	movff	LCDprintf@args,fsr2l
  2333   00341C  C57F  F4DA         	movff	LCDprintf@args+1,fsr2h
  2334   003420  C4DE F578          	movff	postinc2,LCDprintf@f_input
  2335   003424  C4DE F579          	movff	postinc2,LCDprintf@f_input+1
  2336   003428  C4DE F57A          	movff	postinc2,LCDprintf@f_input+2
  2337   00342C  C4DE F57B          	movff	postinc2,LCDprintf@f_input+3
  2338   003430                     
  2339                           ; BSR set to: 5
  2340   003430  0E04               	movlw	4
  2341   003432  277E               	addwf	LCDprintf@args& (0+255),f,b
  2342   003434  0E00               	movlw	0
  2343   003436  237F               	addwfc	(LCDprintf@args+1)& (0+255),f,b
  2344   003438                     
  2345                           ; BSR set to: 5
  2346                           ;C:/Users/a_hui/OneDrive - Camosun College/term2/ecet165_embedded_mc/labs/ecet165-labs/l
      +                          ab6/lcd18f.c: 178:             f_input *= 10*(*(shell+3));
  2347   003438  C578  F541         	movff	LCDprintf@f_input,___flmul@b
  2348   00343C  C579  F542         	movff	LCDprintf@f_input+1,___flmul@b+1
  2349   003440  C57A  F543         	movff	LCDprintf@f_input+2,___flmul@b+2
  2350   003444  C57B  F544         	movff	LCDprintf@f_input+3,___flmul@b+3
  2351   003448  0E03               	movlw	3
  2352   00344A  2560               	addwf	LCDprintf@shell& (0+255),w,b
  2353   00344C  6F66               	movwf	??_LCDprintf& (0+255),b
  2354   00344E  0E00               	movlw	0
  2355   003450  2161               	addwfc	(LCDprintf@shell+1)& (0+255),w,b
  2356   003452  6F67               	movwf	(??_LCDprintf+1)& (0+255),b
  2357   003454  C566  F4F6         	movff	??_LCDprintf,tblptrl
  2358   003458  C567  F4F7         	movff	??_LCDprintf+1,tblptrh
  2359   00345C                     	if	0	;tblptru may be non-zero
  2360   00345C                     	endif
  2361   00345C                     	if	0	;tblptru may be non-zero
  2362   00345C                     	endif
  2363   00345C  0008               	tblrd		*
  2364   00345E  50F5               	movf	tablat,w,c
  2365   003460  0D0A               	mullw	10
  2366   003462  C4F3 F568          	movff	prodl,??_LCDprintf+2
  2367   003466  C4F4 F569          	movff	prodh,??_LCDprintf+3
  2368   00346A  C568  F502         	movff	??_LCDprintf+2,___xxtofl@val
  2369   00346E  C569  F503         	movff	??_LCDprintf+3,___xxtofl@val+1
  2370   003472  0E00               	movlw	0
  2371   003474  BE03               	btfsc	(___xxtofl@val+1)^(0+1280),7,c
  2372   003476  0EFF               	movlw	-1
  2373   003478  6E04               	movwf	(___xxtofl@val+2)^(0+1280),c
  2374   00347A  6E05               	movwf	(___xxtofl@val+3)^(0+1280),c
  2375   00347C  0E01               	movlw	1
  2376   00347E  EC14  F01B         	call	___xxtofl
  2377   003482  C502  F545         	movff	?___xxtofl,___flmul@a
  2378   003486  C503  F546         	movff	?___xxtofl+1,___flmul@a+1
  2379   00348A  C504  F547         	movff	?___xxtofl+2,___flmul@a+2
  2380   00348E  C505  F548         	movff	?___xxtofl+3,___flmul@a+3
  2381   003492  EC6C  F015         	call	___flmul	;wreg free
  2382   003496  C541  F578         	movff	?___flmul,LCDprintf@f_input
  2383   00349A  C542  F579         	movff	?___flmul+1,LCDprintf@f_input+1
  2384   00349E  C543  F57A         	movff	?___flmul+2,LCDprintf@f_input+2
  2385   0034A2  C544  F57B         	movff	?___flmul+3,LCDprintf@f_input+3
  2386   0034A6                     
  2387                           ;C:/Users/a_hui/OneDrive - Camosun College/term2/ecet165_embedded_mc/labs/ecet165-labs/l
      +                          ab6/lcd18f.c: 179:             f_int = (unsigned int)f_input;
  2388   0034A6  C578  F502         	movff	LCDprintf@f_input,___fltol@f1
  2389   0034AA  C579  F503         	movff	LCDprintf@f_input+1,___fltol@f1+1
  2390   0034AE  C57A  F504         	movff	LCDprintf@f_input+2,___fltol@f1+2
  2391   0034B2  C57B  F505         	movff	LCDprintf@f_input+3,___fltol@f1+3
  2392   0034B6  ECEE  F01B         	call	___fltol	;wreg free
  2393   0034BA  C502  F57C         	movff	?___fltol,LCDprintf@f_int
  2394   0034BE  C503  F57D         	movff	?___fltol+1,LCDprintf@f_int+1
  2395   0034C2                     
  2396                           ;C:/Users/a_hui/OneDrive - Camosun College/term2/ecet165_embedded_mc/labs/ecet165-labs/l
      +                          ab6/lcd18f.c: 183:             indexer = (*(shell+1)-'0')+(*(shell+3)-'0');
  2397   0034C2  0E01               	movlw	1
  2398   0034C4  0105               	movlb	5	; () banked
  2399   0034C6  2560               	addwf	LCDprintf@shell& (0+255),w,b
  2400   0034C8  6F66               	movwf	??_LCDprintf& (0+255),b
  2401   0034CA  0E00               	movlw	0
  2402   0034CC  2161               	addwfc	(LCDprintf@shell+1)& (0+255),w,b
  2403   0034CE  6F67               	movwf	(??_LCDprintf+1)& (0+255),b
  2404   0034D0  C566  F4F6         	movff	??_LCDprintf,tblptrl
  2405   0034D4  C567  F4F7         	movff	??_LCDprintf+1,tblptrh
  2406   0034D8                     	if	0	;tblptru may be non-zero
  2407   0034D8                     	endif
  2408   0034D8                     	if	0	;tblptru may be non-zero
  2409   0034D8                     	endif
  2410   0034D8  0008               	tblrd		*
  2411   0034DA  C4F5 F568          	movff	tablat,??_LCDprintf+2
  2412   0034DE  0E03               	movlw	3
  2413   0034E0  2560               	addwf	LCDprintf@shell& (0+255),w,b
  2414   0034E2  6F69               	movwf	(??_LCDprintf+3)& (0+255),b
  2415   0034E4  0E00               	movlw	0
  2416   0034E6  2161               	addwfc	(LCDprintf@shell+1)& (0+255),w,b
  2417   0034E8  6F6A               	movwf	(??_LCDprintf+4)& (0+255),b
  2418   0034EA  C569  F4F6         	movff	??_LCDprintf+3,tblptrl
  2419   0034EE  C56A  F4F7         	movff	??_LCDprintf+4,tblptrh
  2420   0034F2                     	if	0	;tblptru may be non-zero
  2421   0034F2                     	endif
  2422   0034F2                     	if	0	;tblptru may be non-zero
  2423   0034F2                     	endif
  2424   0034F2  0008               	tblrd		*
  2425   0034F4  50F5               	movf	tablat,w,c
  2426   0034F6  2568               	addwf	(??_LCDprintf+2)& (0+255),w,b
  2427   0034F8  0FA0               	addlw	160
  2428   0034FA  6F80               	movwf	LCDprintf@indexer& (0+255),b
  2429   0034FC                     
  2430                           ; BSR set to: 5
  2431                           ;C:/Users/a_hui/OneDrive - Camosun College/term2/ecet165_embedded_mc/labs/ecet165-labs/l
      +                          ab6/lcd18f.c: 184:             indexer = (indexer > 8)? 8 : indexer;
  2432   0034FC  5180               	movf	LCDprintf@indexer& (0+255),w,b
  2433   0034FE  0A80               	xorlw	128
  2434   003500  0F77               	addlw	-137
  2435   003502  B0D8               	btfsc	status,0,c
  2436   003504  EF86  F01A         	goto	u2421
  2437   003508  EF88  F01A         	goto	u2420
  2438   00350C                     u2421:
  2439   00350C  EF8F  F01A         	goto	l2570
  2440   003510                     u2420:
  2441   003510                     
  2442                           ; BSR set to: 5
  2443   003510  5180               	movf	LCDprintf@indexer& (0+255),w,b
  2444   003512  6F76               	movwf	_LCDprintf$339& (0+255),b
  2445   003514  6B77               	clrf	(_LCDprintf$339+1)& (0+255),b
  2446   003516  BF76               	btfsc	_LCDprintf$339& (0+255),7,b
  2447   003518  0777               	decf	(_LCDprintf$339+1)& (0+255),f,b
  2448   00351A  EF93  F01A         	goto	l2572
  2449   00351E                     l2570:
  2450                           
  2451                           ; BSR set to: 5
  2452   00351E  0E00               	movlw	0
  2453   003520  6F77               	movwf	(_LCDprintf$339+1)& (0+255),b
  2454   003522  0E08               	movlw	8
  2455   003524  6F76               	movwf	_LCDprintf$339& (0+255),b
  2456   003526                     l2572:
  2457                           
  2458                           ; BSR set to: 5
  2459   003526  C576  F580         	movff	_LCDprintf$339,LCDprintf@indexer
  2460                           
  2461                           ;C:/Users/a_hui/OneDrive - Camosun College/term2/ecet165_embedded_mc/labs/ecet165-labs/l
      +                          ab6/lcd18f.c: 185:             while(indexer > -1){
  2462   00352A  EFE7  F01A         	goto	l2584
  2463   00352E                     l2574:
  2464                           
  2465                           ; BSR set to: 5
  2466                           ;C:/Users/a_hui/OneDrive - Camosun College/term2/ecet165_embedded_mc/labs/ecet165-labs/l
      +                          ab6/lcd18f.c: 187:                 if(indexer == (8-(*(shell+3)-'0'))){
  2467   00352E  0E38               	movlw	56
  2468   003530  6F66               	movwf	??_LCDprintf& (0+255),b
  2469   003532  0E00               	movlw	0
  2470   003534  6F67               	movwf	(??_LCDprintf+1)& (0+255),b
  2471   003536  0E03               	movlw	3
  2472   003538  2560               	addwf	LCDprintf@shell& (0+255),w,b
  2473   00353A  6F68               	movwf	(??_LCDprintf+2)& (0+255),b
  2474   00353C  0E00               	movlw	0
  2475   00353E  2161               	addwfc	(LCDprintf@shell+1)& (0+255),w,b
  2476   003540  6F69               	movwf	(??_LCDprintf+3)& (0+255),b
  2477   003542  C568  F4F6         	movff	??_LCDprintf+2,tblptrl
  2478   003546  C569  F4F7         	movff	??_LCDprintf+3,tblptrh
  2479   00354A                     	if	0	;tblptru may be non-zero
  2480   00354A                     	endif
  2481   00354A                     	if	0	;tblptru may be non-zero
  2482   00354A                     	endif
  2483   00354A  0008               	tblrd		*
  2484   00354C  50F5               	movf	tablat,w,c
  2485   00354E  5F66               	subwf	??_LCDprintf& (0+255),f,b
  2486   003550  0E00               	movlw	0
  2487   003552  5B67               	subwfb	(??_LCDprintf+1)& (0+255),f,b
  2488   003554  C580  F56A         	movff	LCDprintf@indexer,??_LCDprintf+4
  2489   003558  6B6B               	clrf	(??_LCDprintf+5)& (0+255),b
  2490   00355A  BF6A               	btfsc	(??_LCDprintf+4)& (0+255),7,b
  2491   00355C  076B               	decf	(??_LCDprintf+5)& (0+255),f,b
  2492   00355E  5166               	movf	??_LCDprintf& (0+255),w,b
  2493   003560  196A               	xorwf	(??_LCDprintf+4)& (0+255),w,b
  2494   003562  E107               	bnz	u2431
  2495   003564  5167               	movf	(??_LCDprintf+1)& (0+255),w,b
  2496   003566  196B               	xorwf	(??_LCDprintf+5)& (0+255),w,b
  2497   003568  A4D8               	btfss	status,2,c
  2498   00356A  EFB9  F01A         	goto	u2431
  2499   00356E  EFBB  F01A         	goto	u2430
  2500   003572                     u2431:
  2501   003572  EFC5  F01A         	goto	l2578
  2502   003576                     u2430:
  2503   003576                     
  2504                           ; BSR set to: 5
  2505                           ;C:/Users/a_hui/OneDrive - Camosun College/term2/ecet165_embedded_mc/labs/ecet165-labs/l
      +                          ab6/lcd18f.c: 188:                     f_string[indexer] = '.';
  2506   003576  0E6C               	movlw	low LCDprintf@f_string
  2507   003578  2580               	addwf	LCDprintf@indexer& (0+255),w,b
  2508   00357A  6ED9               	movwf	fsr2l,c
  2509   00357C  6ADA               	clrf	fsr2h,c
  2510   00357E  0E05               	movlw	high LCDprintf@f_string
  2511   003580  22DA               	addwfc	fsr2h,f,c
  2512   003582  0E2E               	movlw	46
  2513   003584  6EDF               	movwf	indf2,c
  2514                           
  2515                           ;C:/Users/a_hui/OneDrive - Camosun College/term2/ecet165_embedded_mc/labs/ecet165-labs/l
      +                          ab6/lcd18f.c: 190:                 }else{
  2516   003586  EFE5  F01A         	goto	l2582
  2517   00358A                     l2578:
  2518                           
  2519                           ; BSR set to: 5
  2520                           ;C:/Users/a_hui/OneDrive - Camosun College/term2/ecet165_embedded_mc/labs/ecet165-labs/l
      +                          ab6/lcd18f.c: 191:                     f_string[indexer] = f_int % 10;
  2521   00358A  0E6C               	movlw	low LCDprintf@f_string
  2522   00358C  2580               	addwf	LCDprintf@indexer& (0+255),w,b
  2523   00358E  6ED9               	movwf	fsr2l,c
  2524   003590  6ADA               	clrf	fsr2h,c
  2525   003592  0E05               	movlw	high LCDprintf@f_string
  2526   003594  22DA               	addwfc	fsr2h,f,c
  2527   003596  C57C  F502         	movff	LCDprintf@f_int,___lwmod@dividend
  2528   00359A  C57D  F503         	movff	LCDprintf@f_int+1,___lwmod@dividend+1
  2529   00359E  0E00               	movlw	0
  2530   0035A0  6E05               	movwf	(___lwmod@divisor+1)^(0+1280),c
  2531   0035A2  0E0A               	movlw	10
  2532   0035A4  6E04               	movwf	___lwmod@divisor^(0+1280),c
  2533   0035A6  ECB7  F01E         	call	___lwmod	;wreg free
  2534   0035AA  5002               	movf	?___lwmod^(0+1280),w,c
  2535   0035AC  6EDF               	movwf	indf2,c
  2536   0035AE                     
  2537                           ;C:/Users/a_hui/OneDrive - Camosun College/term2/ecet165_embedded_mc/labs/ecet165-labs/l
      +                          ab6/lcd18f.c: 192:                     f_int /= 10;
  2538   0035AE  C57C  F502         	movff	LCDprintf@f_int,___lwdiv@dividend
  2539   0035B2  C57D  F503         	movff	LCDprintf@f_int+1,___lwdiv@dividend+1
  2540   0035B6  0E00               	movlw	0
  2541   0035B8  6E05               	movwf	(___lwdiv@divisor+1)^(0+1280),c
  2542   0035BA  0E0A               	movlw	10
  2543   0035BC  6E04               	movwf	___lwdiv@divisor^(0+1280),c
  2544   0035BE  EC43  F01E         	call	___lwdiv	;wreg free
  2545   0035C2  C502  F57C         	movff	?___lwdiv,LCDprintf@f_int
  2546   0035C6  C503  F57D         	movff	?___lwdiv+1,LCDprintf@f_int+1
  2547   0035CA                     l2582:
  2548                           
  2549                           ;C:/Users/a_hui/OneDrive - Camosun College/term2/ecet165_embedded_mc/labs/ecet165-labs/l
      +                          ab6/lcd18f.c: 194:                 indexer--;
  2550   0035CA  0105               	movlb	5	; () banked
  2551   0035CC  0780               	decf	LCDprintf@indexer& (0+255),f,b
  2552   0035CE                     l2584:
  2553                           
  2554                           ; BSR set to: 5
  2555                           ;C:/Users/a_hui/OneDrive - Camosun College/term2/ecet165_embedded_mc/labs/ecet165-labs/l
      +                          ab6/lcd18f.c: 185:             while(indexer > -1){
  2556   0035CE  BF80               	btfsc	LCDprintf@indexer& (0+255),7,b
  2557   0035D0  EFEE  F01A         	goto	u2440
  2558   0035D4  EFEC  F01A         	goto	u2441
  2559   0035D8                     u2441:
  2560   0035D8  EF97  F01A         	goto	l2574
  2561   0035DC                     u2440:
  2562   0035DC                     
  2563                           ; BSR set to: 5
  2564                           ;C:/Users/a_hui/OneDrive - Camosun College/term2/ecet165_embedded_mc/labs/ecet165-labs/l
      +                          ab6/lcd18f.c: 197:             LCDprints(f_string);
  2565   0035DC  0E6C               	movlw	low LCDprintf@f_string
  2566   0035DE  6E13               	movwf	LCDprints@c^(0+1280),c
  2567   0035E0  0E05               	movlw	high LCDprintf@f_string
  2568   0035E2  6E14               	movwf	(LCDprints@c+1)^(0+1280),c
  2569   0035E4  ECE9  F01E         	call	_LCDprints	;wreg free
  2570   0035E8                     
  2571                           ;C:/Users/a_hui/OneDrive - Camosun College/term2/ecet165_embedded_mc/labs/ecet165-labs/l
      +                          ab6/lcd18f.c: 199:             shell +=4;
  2572   0035E8  0E04               	movlw	4
  2573   0035EA  0105               	movlb	5	; () banked
  2574   0035EC  2760               	addwf	LCDprintf@shell& (0+255),f,b
  2575   0035EE  0E00               	movlw	0
  2576   0035F0  2361               	addwfc	(LCDprintf@shell+1)& (0+255),f,b
  2577                           
  2578                           ;C:/Users/a_hui/OneDrive - Camosun College/term2/ecet165_embedded_mc/labs/ecet165-labs/l
      +                          ab6/lcd18f.c: 200:         }else{
  2579   0035F2  EF05  F01B         	goto	l2594
  2580   0035F6                     l2590:
  2581                           
  2582                           ; BSR set to: 5
  2583                           ;C:/Users/a_hui/OneDrive - Camosun College/term2/ecet165_embedded_mc/labs/ecet165-labs/l
      +                          ab6/lcd18f.c: 202:             LCDprintc(*shell++);
  2584   0035F6  C560  F4F6         	movff	LCDprintf@shell,tblptrl
  2585   0035FA  C561  F4F7         	movff	LCDprintf@shell+1,tblptrh
  2586   0035FE                     	if	0	;tblptru may be non-zero
  2587   0035FE                     	endif
  2588   0035FE                     	if	0	;tblptru may be non-zero
  2589   0035FE                     	endif
  2590   0035FE  0008               	tblrd		*
  2591   003600  50F5               	movf	tablat,w,c
  2592   003602  ECCD  F01D         	call	_LCDprintc
  2593   003606  EF6B  F019         	goto	l2528
  2594   00360A                     l2594:
  2595                           
  2596                           ; BSR set to: 5
  2597                           ;C:/Users/a_hui/OneDrive - Camosun College/term2/ecet165_embedded_mc/labs/ecet165-labs/l
      +                          ab6/lcd18f.c: 153:     while(*shell != 0x0){
  2598   00360A  C560  F4F6         	movff	LCDprintf@shell,tblptrl
  2599   00360E  C561  F4F7         	movff	LCDprintf@shell+1,tblptrh
  2600   003612                     	if	0	;tblptru may be non-zero
  2601   003612                     	endif
  2602   003612                     	if	0	;tblptru may be non-zero
  2603   003612                     	endif
  2604   003612  0008               	tblrd		*
  2605   003614  50F5               	movf	tablat,w,c
  2606   003616  0900               	iorlw	0
  2607   003618  A4D8               	btfss	status,2,c
  2608   00361A  EF11  F01B         	goto	u2451
  2609   00361E  EF13  F01B         	goto	u2450
  2610   003622                     u2451:
  2611   003622  EF55  F019         	goto	l2524
  2612   003626                     u2450:
  2613   003626                     
  2614                           ; BSR set to: 5
  2615   003626  0012               	return		;funcret
  2616   003628                     __end_of_LCDprintf:
  2617                           	callstack 0
  2618                           
  2619 ;; *************** function _toString *****************
  2620 ;; Defined at:
  2621 ;;		line 133 in file "C:/Users/a_hui/OneDrive - Camosun College/term2/ecet165_embedded_mc/labs/ecet165-labs/lab6/lcd18f.
      +c"
  2622 ;; Parameters:    Size  Location     Type
  2623 ;;  number          2    8[COMRAM] unsigned int 
  2624 ;;  length          1   10[COMRAM] unsigned char 
  2625 ;; Auto vars:     Size  Location     Type
  2626 ;;  i               1   17[COMRAM] char 
  2627 ;;  string          6   11[COMRAM] unsigned char [6]
  2628 ;; Return value:  Size  Location     Type
  2629 ;;                  2    8[COMRAM] PTR unsigned char 
  2630 ;; Registers used:
  2631 ;;		wreg, fsr2l, fsr2h, status,2, status,0, cstack
  2632 ;; Tracked objects:
  2633 ;;		On entry : 0/0
  2634 ;;		On exit  : 0/0
  2635 ;;		Unchanged: 0/0
  2636 ;; Data sizes:     COMRAM   BANK5   BANK6   BANK7   BANK8   BANK9  BANK10  BANK11  BANK12  BANK13  BANK14  BANK15  BANK1
      +6  BANK17  BANK18  BANK19  BANK20  BANK21  BANK22  BANK23  BANK24  BANK25  BANK26  BANK27  BANK28  BANK29  BANK30  BANK3
      +1  BANK32  BANK33  BANK34  BANK35  BANK36
  2637 ;;      Params:         3       0       0       0       0       0       0       0       0       0       0       0       
      +0       0       0       0       0       0       0       0       0       0       0       0       0       0       0       
      +0       0       0       0       0       0
  2638 ;;      Locals:         7       0       0       0       0       0       0       0       0       0       0       0       
      +0       0       0       0       0       0       0       0       0       0       0       0       0       0       0       
      +0       0       0       0       0       0
  2639 ;;      Temps:          0       0       0       0       0       0       0       0       0       0       0       0       
      +0       0       0       0       0       0       0       0       0       0       0       0       0       0       0       
      +0       0       0       0       0       0
  2640 ;;      Totals:        10       0       0       0       0       0       0       0       0       0       0       0       
      +0       0       0       0       0       0       0       0       0       0       0       0       0       0       0       
      +0       0       0       0       0       0
  2641 ;;Total ram usage:       10 bytes
  2642 ;; Hardware stack levels used: 1
  2643 ;; Hardware stack levels required when called: 2
  2644 ;; This function calls:
  2645 ;;		___lwdiv
  2646 ;;		___lwmod
  2647 ;; This function is called by:
  2648 ;;		_LCDprintf
  2649 ;; This function uses a non-reentrant model
  2650 ;;
  2651                           
  2652                           	psect	text7
  2653   003C12                     __ptext7:
  2654                           	callstack 0
  2655   003C12                     _toString:
  2656                           	callstack 123
  2657   003C12                     
  2658                           ;C:/Users/a_hui/OneDrive - Camosun College/term2/ecet165_embedded_mc/labs/ecet165-labs/l
      +                          ab6/lcd18f.c: 134:     char string[6] = "";
  2659   003C12  EE21  F10C         	lfsr	2,toString@string
  2660   003C16  0E05               	movlw	5
  2661   003C18                     u1761:
  2662   003C18  6ADE               	clrf	postinc2,c
  2663   003C1A  06E8               	decf	wreg,f,c
  2664   003C1C  E2FD               	bc	u1761
  2665   003C1E                     
  2666                           ;C:/Users/a_hui/OneDrive - Camosun College/term2/ecet165_embedded_mc/labs/ecet165-labs/l
      +                          ab6/lcd18f.c: 136:     for(signed char i = length-1; i > -1; i--){
  2667   003C1E  040B               	decf	toString@length^(0+1280),w,c
  2668   003C20  6E12               	movwf	toString@i^(0+1280),c
  2669   003C22                     l2142:
  2670   003C22  BE12               	btfsc	toString@i^(0+1280),7,c
  2671   003C24  EF18  F01E         	goto	u1770
  2672   003C28  EF16  F01E         	goto	u1771
  2673   003C2C                     u1771:
  2674   003C2C  EF1A  F01E         	goto	l2146
  2675   003C30                     u1770:
  2676   003C30  EF3E  F01E         	goto	l2154
  2677   003C34                     l2146:
  2678                           
  2679                           ;C:/Users/a_hui/OneDrive - Camosun College/term2/ecet165_embedded_mc/labs/ecet165-labs/l
      +                          ab6/lcd18f.c: 137:         string[i] = (number % 10) + '0';
  2680   003C34  0E0C               	movlw	low toString@string
  2681   003C36  2412               	addwf	toString@i^(0+1280),w,c
  2682   003C38  6ED9               	movwf	fsr2l,c
  2683   003C3A  6ADA               	clrf	fsr2h,c
  2684   003C3C  0E05               	movlw	high toString@string
  2685   003C3E  22DA               	addwfc	fsr2h,f,c
  2686   003C40  C509  F502         	movff	toString@number,___lwmod@dividend
  2687   003C44  C50A  F503         	movff	toString@number+1,___lwmod@dividend+1
  2688   003C48  0E00               	movlw	0
  2689   003C4A  6E05               	movwf	(___lwmod@divisor+1)^(0+1280),c
  2690   003C4C  0E0A               	movlw	10
  2691   003C4E  6E04               	movwf	___lwmod@divisor^(0+1280),c
  2692   003C50  ECB7  F01E         	call	___lwmod	;wreg free
  2693   003C54  5002               	movf	?___lwmod^(0+1280),w,c
  2694   003C56  0F30               	addlw	48
  2695   003C58  6EDF               	movwf	indf2,c
  2696   003C5A                     
  2697                           ;C:/Users/a_hui/OneDrive - Camosun College/term2/ecet165_embedded_mc/labs/ecet165-labs/l
      +                          ab6/lcd18f.c: 138:         number /= 10;
  2698   003C5A  C509  F502         	movff	toString@number,___lwdiv@dividend
  2699   003C5E  C50A  F503         	movff	toString@number+1,___lwdiv@dividend+1
  2700   003C62  0E00               	movlw	0
  2701   003C64  6E05               	movwf	(___lwdiv@divisor+1)^(0+1280),c
  2702   003C66  0E0A               	movlw	10
  2703   003C68  6E04               	movwf	___lwdiv@divisor^(0+1280),c
  2704   003C6A  EC43  F01E         	call	___lwdiv	;wreg free
  2705   003C6E  C502  F509         	movff	?___lwdiv,toString@number
  2706   003C72  C503  F50A         	movff	?___lwdiv+1,toString@number+1
  2707   003C76                     
  2708                           ;C:/Users/a_hui/OneDrive - Camosun College/term2/ecet165_embedded_mc/labs/ecet165-labs/l
      +                          ab6/lcd18f.c: 139:     };
  2709   003C76  0612               	decf	toString@i^(0+1280),f,c
  2710   003C78  EF11  F01E         	goto	l2142
  2711   003C7C                     l2154:
  2712                           
  2713                           ;C:/Users/a_hui/OneDrive - Camosun College/term2/ecet165_embedded_mc/labs/ecet165-labs/l
      +                          ab6/lcd18f.c: 140:     return &string;
  2714   003C7C  0E0C               	movlw	low toString@string
  2715   003C7E  6E09               	movwf	?_toString^(0+1280),c
  2716   003C80  0E05               	movlw	high toString@string
  2717   003C82  6E0A               	movwf	(?_toString+1)^(0+1280),c
  2718   003C84  0012               	return		;funcret
  2719   003C86                     __end_of_toString:
  2720                           	callstack 0
  2721                           
  2722 ;; *************** function ___lwmod *****************
  2723 ;; Defined at:
  2724 ;;		line 7 in file "C:\Program Files\Microchip\xc8\v2.40\pic\sources\c99\common\lwmod.c"
  2725 ;; Parameters:    Size  Location     Type
  2726 ;;  dividend        2    1[COMRAM] unsigned int 
  2727 ;;  divisor         2    3[COMRAM] unsigned int 
  2728 ;; Auto vars:     Size  Location     Type
  2729 ;;  counter         1    5[COMRAM] unsigned char 
  2730 ;; Return value:  Size  Location     Type
  2731 ;;                  2    1[COMRAM] unsigned int 
  2732 ;; Registers used:
  2733 ;;		wreg, status,2, status,0
  2734 ;; Tracked objects:
  2735 ;;		On entry : 0/0
  2736 ;;		On exit  : 0/0
  2737 ;;		Unchanged: 0/0
  2738 ;; Data sizes:     COMRAM   BANK5   BANK6   BANK7   BANK8   BANK9  BANK10  BANK11  BANK12  BANK13  BANK14  BANK15  BANK1
      +6  BANK17  BANK18  BANK19  BANK20  BANK21  BANK22  BANK23  BANK24  BANK25  BANK26  BANK27  BANK28  BANK29  BANK30  BANK3
      +1  BANK32  BANK33  BANK34  BANK35  BANK36
  2739 ;;      Params:         4       0       0       0       0       0       0       0       0       0       0       0       
      +0       0       0       0       0       0       0       0       0       0       0       0       0       0       0       
      +0       0       0       0       0       0
  2740 ;;      Locals:         1       0       0       0       0       0       0       0       0       0       0       0       
      +0       0       0       0       0       0       0       0       0       0       0       0       0       0       0       
      +0       0       0       0       0       0
  2741 ;;      Temps:          0       0       0       0       0       0       0       0       0       0       0       0       
      +0       0       0       0       0       0       0       0       0       0       0       0       0       0       0       
      +0       0       0       0       0       0
  2742 ;;      Totals:         5       0       0       0       0       0       0       0       0       0       0       0       
      +0       0       0       0       0       0       0       0       0       0       0       0       0       0       0       
      +0       0       0       0       0       0
  2743 ;;Total ram usage:        5 bytes
  2744 ;; Hardware stack levels used: 1
  2745 ;; Hardware stack levels required when called: 1
  2746 ;; This function calls:
  2747 ;;		Nothing
  2748 ;; This function is called by:
  2749 ;;		_toString
  2750 ;;		_LCDprintf
  2751 ;; This function uses a non-reentrant model
  2752 ;;
  2753                           
  2754                           	psect	text8
  2755   003D6E                     __ptext8:
  2756                           	callstack 0
  2757   003D6E                     ___lwmod:
  2758                           	callstack 123
  2759   003D6E  5004               	movf	___lwmod@divisor^(0+1280),w,c
  2760   003D70  1005               	iorwf	(___lwmod@divisor+1)^(0+1280),w,c
  2761   003D72  B4D8               	btfsc	status,2,c
  2762   003D74  EFBE  F01E         	goto	u1721
  2763   003D78  EFC0  F01E         	goto	u1720
  2764   003D7C                     u1721:
  2765   003D7C  EFE4  F01E         	goto	l668
  2766   003D80                     u1720:
  2767   003D80  0E01               	movlw	1
  2768   003D82  6E06               	movwf	___lwmod@counter^(0+1280),c
  2769   003D84  EFC8  F01E         	goto	l2074
  2770   003D88                     l2072:
  2771   003D88  90D8               	bcf	status,0,c
  2772   003D8A  3604               	rlcf	___lwmod@divisor^(0+1280),f,c
  2773   003D8C  3605               	rlcf	(___lwmod@divisor+1)^(0+1280),f,c
  2774   003D8E  2A06               	incf	___lwmod@counter^(0+1280),f,c
  2775   003D90                     l2074:
  2776   003D90  AE05               	btfss	(___lwmod@divisor+1)^(0+1280),7,c
  2777   003D92  EFCD  F01E         	goto	u1731
  2778   003D96  EFCF  F01E         	goto	u1730
  2779   003D9A                     u1731:
  2780   003D9A  EFC4  F01E         	goto	l2072
  2781   003D9E                     u1730:
  2782   003D9E                     l2076:
  2783   003D9E  5004               	movf	___lwmod@divisor^(0+1280),w,c
  2784   003DA0  5C02               	subwf	___lwmod@dividend^(0+1280),w,c
  2785   003DA2  5005               	movf	(___lwmod@divisor+1)^(0+1280),w,c
  2786   003DA4  5803               	subwfb	(___lwmod@dividend+1)^(0+1280),w,c
  2787   003DA6  A0D8               	btfss	status,0,c
  2788   003DA8  EFD8  F01E         	goto	u1741
  2789   003DAC  EFDA  F01E         	goto	u1740
  2790   003DB0                     u1741:
  2791   003DB0  EFDE  F01E         	goto	l2080
  2792   003DB4                     u1740:
  2793   003DB4  5004               	movf	___lwmod@divisor^(0+1280),w,c
  2794   003DB6  5E02               	subwf	___lwmod@dividend^(0+1280),f,c
  2795   003DB8  5005               	movf	(___lwmod@divisor+1)^(0+1280),w,c
  2796   003DBA  5A03               	subwfb	(___lwmod@dividend+1)^(0+1280),f,c
  2797   003DBC                     l2080:
  2798   003DBC  90D8               	bcf	status,0,c
  2799   003DBE  3205               	rrcf	(___lwmod@divisor+1)^(0+1280),f,c
  2800   003DC0  3204               	rrcf	___lwmod@divisor^(0+1280),f,c
  2801   003DC2  2E06               	decfsz	___lwmod@counter^(0+1280),f,c
  2802   003DC4  EFCF  F01E         	goto	l2076
  2803   003DC8                     l668:
  2804   003DC8  C502  F502         	movff	___lwmod@dividend,?___lwmod
  2805   003DCC  C503  F503         	movff	___lwmod@dividend+1,?___lwmod+1
  2806   003DD0  0012               	return		;funcret
  2807   003DD2                     __end_of___lwmod:
  2808                           	callstack 0
  2809                           
  2810 ;; *************** function ___lwdiv *****************
  2811 ;; Defined at:
  2812 ;;		line 7 in file "C:\Program Files\Microchip\xc8\v2.40\pic\sources\c99\common\lwdiv.c"
  2813 ;; Parameters:    Size  Location     Type
  2814 ;;  dividend        2    1[COMRAM] unsigned int 
  2815 ;;  divisor         2    3[COMRAM] unsigned int 
  2816 ;; Auto vars:     Size  Location     Type
  2817 ;;  quotient        2    5[COMRAM] unsigned int 
  2818 ;;  counter         1    7[COMRAM] unsigned char 
  2819 ;; Return value:  Size  Location     Type
  2820 ;;                  2    1[COMRAM] unsigned int 
  2821 ;; Registers used:
  2822 ;;		wreg, status,2, status,0
  2823 ;; Tracked objects:
  2824 ;;		On entry : 0/0
  2825 ;;		On exit  : 0/0
  2826 ;;		Unchanged: 0/0
  2827 ;; Data sizes:     COMRAM   BANK5   BANK6   BANK7   BANK8   BANK9  BANK10  BANK11  BANK12  BANK13  BANK14  BANK15  BANK1
      +6  BANK17  BANK18  BANK19  BANK20  BANK21  BANK22  BANK23  BANK24  BANK25  BANK26  BANK27  BANK28  BANK29  BANK30  BANK3
      +1  BANK32  BANK33  BANK34  BANK35  BANK36
  2828 ;;      Params:         4       0       0       0       0       0       0       0       0       0       0       0       
      +0       0       0       0       0       0       0       0       0       0       0       0       0       0       0       
      +0       0       0       0       0       0
  2829 ;;      Locals:         3       0       0       0       0       0       0       0       0       0       0       0       
      +0       0       0       0       0       0       0       0       0       0       0       0       0       0       0       
      +0       0       0       0       0       0
  2830 ;;      Temps:          0       0       0       0       0       0       0       0       0       0       0       0       
      +0       0       0       0       0       0       0       0       0       0       0       0       0       0       0       
      +0       0       0       0       0       0
  2831 ;;      Totals:         7       0       0       0       0       0       0       0       0       0       0       0       
      +0       0       0       0       0       0       0       0       0       0       0       0       0       0       0       
      +0       0       0       0       0       0
  2832 ;;Total ram usage:        7 bytes
  2833 ;; Hardware stack levels used: 1
  2834 ;; Hardware stack levels required when called: 1
  2835 ;; This function calls:
  2836 ;;		Nothing
  2837 ;; This function is called by:
  2838 ;;		_toString
  2839 ;;		_LCDprintf
  2840 ;; This function uses a non-reentrant model
  2841 ;;
  2842                           
  2843                           	psect	text9
  2844   003C86                     __ptext9:
  2845                           	callstack 0
  2846   003C86                     ___lwdiv:
  2847                           	callstack 123
  2848   003C86  0E00               	movlw	0
  2849   003C88  6E07               	movwf	(___lwdiv@quotient+1)^(0+1280),c
  2850   003C8A  0E00               	movlw	0
  2851   003C8C  6E06               	movwf	___lwdiv@quotient^(0+1280),c
  2852   003C8E  5004               	movf	___lwdiv@divisor^(0+1280),w,c
  2853   003C90  1005               	iorwf	(___lwdiv@divisor+1)^(0+1280),w,c
  2854   003C92  B4D8               	btfsc	status,2,c
  2855   003C94  EF4E  F01E         	goto	u1691
  2856   003C98  EF50  F01E         	goto	u1690
  2857   003C9C                     u1691:
  2858   003C9C  EF78  F01E         	goto	l658
  2859   003CA0                     u1690:
  2860   003CA0  0E01               	movlw	1
  2861   003CA2  6E08               	movwf	___lwdiv@counter^(0+1280),c
  2862   003CA4  EF58  F01E         	goto	l2054
  2863   003CA8                     l2052:
  2864   003CA8  90D8               	bcf	status,0,c
  2865   003CAA  3604               	rlcf	___lwdiv@divisor^(0+1280),f,c
  2866   003CAC  3605               	rlcf	(___lwdiv@divisor+1)^(0+1280),f,c
  2867   003CAE  2A08               	incf	___lwdiv@counter^(0+1280),f,c
  2868   003CB0                     l2054:
  2869   003CB0  AE05               	btfss	(___lwdiv@divisor+1)^(0+1280),7,c
  2870   003CB2  EF5D  F01E         	goto	u1701
  2871   003CB6  EF5F  F01E         	goto	u1700
  2872   003CBA                     u1701:
  2873   003CBA  EF54  F01E         	goto	l2052
  2874   003CBE                     u1700:
  2875   003CBE                     l2056:
  2876   003CBE  90D8               	bcf	status,0,c
  2877   003CC0  3606               	rlcf	___lwdiv@quotient^(0+1280),f,c
  2878   003CC2  3607               	rlcf	(___lwdiv@quotient+1)^(0+1280),f,c
  2879   003CC4  5004               	movf	___lwdiv@divisor^(0+1280),w,c
  2880   003CC6  5C02               	subwf	___lwdiv@dividend^(0+1280),w,c
  2881   003CC8  5005               	movf	(___lwdiv@divisor+1)^(0+1280),w,c
  2882   003CCA  5803               	subwfb	(___lwdiv@dividend+1)^(0+1280),w,c
  2883   003CCC  A0D8               	btfss	status,0,c
  2884   003CCE  EF6B  F01E         	goto	u1711
  2885   003CD2  EF6D  F01E         	goto	u1710
  2886   003CD6                     u1711:
  2887   003CD6  EF72  F01E         	goto	l2064
  2888   003CDA                     u1710:
  2889   003CDA  5004               	movf	___lwdiv@divisor^(0+1280),w,c
  2890   003CDC  5E02               	subwf	___lwdiv@dividend^(0+1280),f,c
  2891   003CDE  5005               	movf	(___lwdiv@divisor+1)^(0+1280),w,c
  2892   003CE0  5A03               	subwfb	(___lwdiv@dividend+1)^(0+1280),f,c
  2893   003CE2  8006               	bsf	___lwdiv@quotient^(0+1280),0,c
  2894   003CE4                     l2064:
  2895   003CE4  90D8               	bcf	status,0,c
  2896   003CE6  3205               	rrcf	(___lwdiv@divisor+1)^(0+1280),f,c
  2897   003CE8  3204               	rrcf	___lwdiv@divisor^(0+1280),f,c
  2898   003CEA  2E08               	decfsz	___lwdiv@counter^(0+1280),f,c
  2899   003CEC  EF5F  F01E         	goto	l2056
  2900   003CF0                     l658:
  2901   003CF0  C506  F502         	movff	___lwdiv@quotient,?___lwdiv
  2902   003CF4  C507  F503         	movff	___lwdiv@quotient+1,?___lwdiv+1
  2903   003CF8  0012               	return		;funcret
  2904   003CFA                     __end_of___lwdiv:
  2905                           	callstack 0
  2906                           
  2907 ;; *************** function ___xxtofl *****************
  2908 ;; Defined at:
  2909 ;;		line 10 in file "C:\Program Files\Microchip\xc8\v2.40\pic\sources\c99\common\xxtofl.c"
  2910 ;; Parameters:    Size  Location     Type
  2911 ;;  sign            1    wreg     unsigned char 
  2912 ;;  val             4    1[COMRAM] long 
  2913 ;; Auto vars:     Size  Location     Type
  2914 ;;  sign            1    9[COMRAM] unsigned char 
  2915 ;;  arg             4   11[COMRAM] unsigned long 
  2916 ;;  exp             1   10[COMRAM] unsigned char 
  2917 ;; Return value:  Size  Location     Type
  2918 ;;                  4    1[COMRAM] unsigned char 
  2919 ;; Registers used:
  2920 ;;		wreg, status,2, status,0
  2921 ;; Tracked objects:
  2922 ;;		On entry : 0/0
  2923 ;;		On exit  : 0/0
  2924 ;;		Unchanged: 0/0
  2925 ;; Data sizes:     COMRAM   BANK5   BANK6   BANK7   BANK8   BANK9  BANK10  BANK11  BANK12  BANK13  BANK14  BANK15  BANK1
      +6  BANK17  BANK18  BANK19  BANK20  BANK21  BANK22  BANK23  BANK24  BANK25  BANK26  BANK27  BANK28  BANK29  BANK30  BANK3
      +1  BANK32  BANK33  BANK34  BANK35  BANK36
  2926 ;;      Params:         4       0       0       0       0       0       0       0       0       0       0       0       
      +0       0       0       0       0       0       0       0       0       0       0       0       0       0       0       
      +0       0       0       0       0       0
  2927 ;;      Locals:         6       0       0       0       0       0       0       0       0       0       0       0       
      +0       0       0       0       0       0       0       0       0       0       0       0       0       0       0       
      +0       0       0       0       0       0
  2928 ;;      Temps:          4       0       0       0       0       0       0       0       0       0       0       0       
      +0       0       0       0       0       0       0       0       0       0       0       0       0       0       0       
      +0       0       0       0       0       0
  2929 ;;      Totals:        14       0       0       0       0       0       0       0       0       0       0       0       
      +0       0       0       0       0       0       0       0       0       0       0       0       0       0       0       
      +0       0       0       0       0       0
  2930 ;;Total ram usage:       14 bytes
  2931 ;; Hardware stack levels used: 1
  2932 ;; Hardware stack levels required when called: 1
  2933 ;; This function calls:
  2934 ;;		Nothing
  2935 ;; This function is called by:
  2936 ;;		_LCDprintf
  2937 ;;		_analogMap
  2938 ;; This function uses a non-reentrant model
  2939 ;;
  2940                           
  2941                           	psect	text10
  2942   003628                     __ptext10:
  2943                           	callstack 0
  2944   003628                     ___xxtofl:
  2945                           	callstack 124
  2946                           
  2947                           ;incstack = 0
  2948                           ;___xxtofl@sign stored from wreg
  2949   003628  6E0A               	movwf	___xxtofl@sign^(0+1280),c
  2950   00362A  500A               	movf	___xxtofl@sign^(0+1280),w,c
  2951   00362C  B4D8               	btfsc	status,2,c
  2952   00362E  EF1B  F01B         	goto	u2271
  2953   003632  EF1D  F01B         	goto	u2270
  2954   003636                     u2271:
  2955   003636  EF3F  F01B         	goto	l822
  2956   00363A                     u2270:
  2957   00363A  BE05               	btfsc	(___xxtofl@val+3)^(0+1280),7,c
  2958   00363C  EF24  F01B         	goto	u2280
  2959   003640  EF22  F01B         	goto	u2281
  2960   003644                     u2281:
  2961   003644  EF3F  F01B         	goto	l822
  2962   003648                     u2280:
  2963   003648  C502  F506         	movff	___xxtofl@val,??___xxtofl
  2964   00364C  C503  F507         	movff	___xxtofl@val+1,??___xxtofl+1
  2965   003650  C504  F508         	movff	___xxtofl@val+2,??___xxtofl+2
  2966   003654  C505  F509         	movff	___xxtofl@val+3,??___xxtofl+3
  2967   003658  1E06               	comf	??___xxtofl^(0+1280),f,c
  2968   00365A  1E07               	comf	(??___xxtofl+1)^(0+1280),f,c
  2969   00365C  1E08               	comf	(??___xxtofl+2)^(0+1280),f,c
  2970   00365E  1E09               	comf	(??___xxtofl+3)^(0+1280),f,c
  2971   003660  2A06               	incf	??___xxtofl^(0+1280),f,c
  2972   003662  0E00               	movlw	0
  2973   003664  2207               	addwfc	(??___xxtofl+1)^(0+1280),f,c
  2974   003666  2208               	addwfc	(??___xxtofl+2)^(0+1280),f,c
  2975   003668  2209               	addwfc	(??___xxtofl+3)^(0+1280),f,c
  2976   00366A  C506  F50C         	movff	??___xxtofl,___xxtofl@arg
  2977   00366E  C507  F50D         	movff	??___xxtofl+1,___xxtofl@arg+1
  2978   003672  C508  F50E         	movff	??___xxtofl+2,___xxtofl@arg+2
  2979   003676  C509  F50F         	movff	??___xxtofl+3,___xxtofl@arg+3
  2980   00367A  EF47  F01B         	goto	l2482
  2981   00367E                     l822:
  2982   00367E  C502  F50C         	movff	___xxtofl@val,___xxtofl@arg
  2983   003682  C503  F50D         	movff	___xxtofl@val+1,___xxtofl@arg+1
  2984   003686  C504  F50E         	movff	___xxtofl@val+2,___xxtofl@arg+2
  2985   00368A  C505  F50F         	movff	___xxtofl@val+3,___xxtofl@arg+3
  2986   00368E                     l2482:
  2987   00368E  5002               	movf	___xxtofl@val^(0+1280),w,c
  2988   003690  1003               	iorwf	(___xxtofl@val+1)^(0+1280),w,c
  2989   003692  1004               	iorwf	(___xxtofl@val+2)^(0+1280),w,c
  2990   003694  1005               	iorwf	(___xxtofl@val+3)^(0+1280),w,c
  2991   003696  A4D8               	btfss	status,2,c
  2992   003698  EF50  F01B         	goto	u2291
  2993   00369C  EF52  F01B         	goto	u2290
  2994   0036A0                     u2291:
  2995   0036A0  EF5C  F01B         	goto	l2488
  2996   0036A4                     u2290:
  2997   0036A4  0E00               	movlw	0
  2998   0036A6  6E02               	movwf	?___xxtofl^(0+1280),c
  2999   0036A8  0E00               	movlw	0
  3000   0036AA  6E03               	movwf	(?___xxtofl+1)^(0+1280),c
  3001   0036AC  0E00               	movlw	0
  3002   0036AE  6E04               	movwf	(?___xxtofl+2)^(0+1280),c
  3003   0036B0  0E00               	movlw	0
  3004   0036B2  6E05               	movwf	(?___xxtofl+3)^(0+1280),c
  3005   0036B4  EFED  F01B         	goto	l825
  3006   0036B8                     l2488:
  3007   0036B8  0E96               	movlw	150
  3008   0036BA  6E0B               	movwf	___xxtofl@exp^(0+1280),c
  3009   0036BC  EF66  F01B         	goto	l2492
  3010   0036C0                     l2490:
  3011   0036C0  2A0B               	incf	___xxtofl@exp^(0+1280),f,c
  3012   0036C2  90D8               	bcf	status,0,c
  3013   0036C4  320F               	rrcf	(___xxtofl@arg+3)^(0+1280),f,c
  3014   0036C6  320E               	rrcf	(___xxtofl@arg+2)^(0+1280),f,c
  3015   0036C8  320D               	rrcf	(___xxtofl@arg+1)^(0+1280),f,c
  3016   0036CA  320C               	rrcf	___xxtofl@arg^(0+1280),f,c
  3017   0036CC                     l2492:
  3018   0036CC  0E00               	movlw	0
  3019   0036CE  140C               	andwf	___xxtofl@arg^(0+1280),w,c
  3020   0036D0  6E06               	movwf	??___xxtofl^(0+1280),c
  3021   0036D2  0E00               	movlw	0
  3022   0036D4  140D               	andwf	(___xxtofl@arg+1)^(0+1280),w,c
  3023   0036D6  6E07               	movwf	(??___xxtofl+1)^(0+1280),c
  3024   0036D8  0E00               	movlw	0
  3025   0036DA  140E               	andwf	(___xxtofl@arg+2)^(0+1280),w,c
  3026   0036DC  6E08               	movwf	(??___xxtofl+2)^(0+1280),c
  3027   0036DE  0EFE               	movlw	254
  3028   0036E0  140F               	andwf	(___xxtofl@arg+3)^(0+1280),w,c
  3029   0036E2  6E09               	movwf	(??___xxtofl+3)^(0+1280),c
  3030   0036E4  5006               	movf	??___xxtofl^(0+1280),w,c
  3031   0036E6  1007               	iorwf	(??___xxtofl+1)^(0+1280),w,c
  3032   0036E8  1008               	iorwf	(??___xxtofl+2)^(0+1280),w,c
  3033   0036EA  1009               	iorwf	(??___xxtofl+3)^(0+1280),w,c
  3034   0036EC  A4D8               	btfss	status,2,c
  3035   0036EE  EF7B  F01B         	goto	u2301
  3036   0036F2  EF7D  F01B         	goto	u2300
  3037   0036F6                     u2301:
  3038   0036F6  EF60  F01B         	goto	l2490
  3039   0036FA                     u2300:
  3040   0036FA  EF8B  F01B         	goto	l829
  3041   0036FE                     l2494:
  3042   0036FE  2A0B               	incf	___xxtofl@exp^(0+1280),f,c
  3043   003700  0E01               	movlw	1
  3044   003702  260C               	addwf	___xxtofl@arg^(0+1280),f,c
  3045   003704  0E00               	movlw	0
  3046   003706  220D               	addwfc	(___xxtofl@arg+1)^(0+1280),f,c
  3047   003708  220E               	addwfc	(___xxtofl@arg+2)^(0+1280),f,c
  3048   00370A  220F               	addwfc	(___xxtofl@arg+3)^(0+1280),f,c
  3049   00370C  90D8               	bcf	status,0,c
  3050   00370E  320F               	rrcf	(___xxtofl@arg+3)^(0+1280),f,c
  3051   003710  320E               	rrcf	(___xxtofl@arg+2)^(0+1280),f,c
  3052   003712  320D               	rrcf	(___xxtofl@arg+1)^(0+1280),f,c
  3053   003714  320C               	rrcf	___xxtofl@arg^(0+1280),f,c
  3054   003716                     l829:
  3055   003716  0E00               	movlw	0
  3056   003718  140C               	andwf	___xxtofl@arg^(0+1280),w,c
  3057   00371A  6E06               	movwf	??___xxtofl^(0+1280),c
  3058   00371C  0E00               	movlw	0
  3059   00371E  140D               	andwf	(___xxtofl@arg+1)^(0+1280),w,c
  3060   003720  6E07               	movwf	(??___xxtofl+1)^(0+1280),c
  3061   003722  0E00               	movlw	0
  3062   003724  140E               	andwf	(___xxtofl@arg+2)^(0+1280),w,c
  3063   003726  6E08               	movwf	(??___xxtofl+2)^(0+1280),c
  3064   003728  0EFF               	movlw	255
  3065   00372A  140F               	andwf	(___xxtofl@arg+3)^(0+1280),w,c
  3066   00372C  6E09               	movwf	(??___xxtofl+3)^(0+1280),c
  3067   00372E  5006               	movf	??___xxtofl^(0+1280),w,c
  3068   003730  1007               	iorwf	(??___xxtofl+1)^(0+1280),w,c
  3069   003732  1008               	iorwf	(??___xxtofl+2)^(0+1280),w,c
  3070   003734  1009               	iorwf	(??___xxtofl+3)^(0+1280),w,c
  3071   003736  A4D8               	btfss	status,2,c
  3072   003738  EFA0  F01B         	goto	u2311
  3073   00373C  EFA2  F01B         	goto	u2310
  3074   003740                     u2311:
  3075   003740  EF7F  F01B         	goto	l2494
  3076   003744                     u2310:
  3077   003744  EFAA  F01B         	goto	l2502
  3078   003748                     l2500:
  3079   003748  060B               	decf	___xxtofl@exp^(0+1280),f,c
  3080   00374A  90D8               	bcf	status,0,c
  3081   00374C  360C               	rlcf	___xxtofl@arg^(0+1280),f,c
  3082   00374E  360D               	rlcf	(___xxtofl@arg+1)^(0+1280),f,c
  3083   003750  360E               	rlcf	(___xxtofl@arg+2)^(0+1280),f,c
  3084   003752  360F               	rlcf	(___xxtofl@arg+3)^(0+1280),f,c
  3085   003754                     l2502:
  3086   003754  BE0E               	btfsc	(___xxtofl@arg+2)^(0+1280),7,c
  3087   003756  EFAF  F01B         	goto	u2321
  3088   00375A  EFB1  F01B         	goto	u2320
  3089   00375E                     u2321:
  3090   00375E  EFB9  F01B         	goto	l836
  3091   003762                     u2320:
  3092   003762  0E02               	movlw	2
  3093   003764  600B               	cpfslt	___xxtofl@exp^(0+1280),c
  3094   003766  EFB7  F01B         	goto	u2331
  3095   00376A  EFB9  F01B         	goto	u2330
  3096   00376E                     u2331:
  3097   00376E  EFA4  F01B         	goto	l2500
  3098   003772                     u2330:
  3099   003772                     l836:
  3100   003772  B00B               	btfsc	___xxtofl@exp^(0+1280),0,c
  3101   003774  EFBE  F01B         	goto	u2341
  3102   003778  EFC0  F01B         	goto	u2340
  3103   00377C                     u2341:
  3104   00377C  EFC1  F01B         	goto	l2508
  3105   003780                     u2340:
  3106   003780  9E0E               	bcf	(___xxtofl@arg+2)^(0+1280),7,c
  3107   003782                     l2508:
  3108   003782  90D8               	bcf	status,0,c
  3109   003784  320B               	rrcf	___xxtofl@exp^(0+1280),f,c
  3110   003786  C50B  F506         	movff	___xxtofl@exp,??___xxtofl
  3111   00378A  6A07               	clrf	(??___xxtofl+1)^(0+1280),c
  3112   00378C  6A08               	clrf	(??___xxtofl+2)^(0+1280),c
  3113   00378E  6A09               	clrf	(??___xxtofl+3)^(0+1280),c
  3114   003790  C506  F509         	movff	??___xxtofl,??___xxtofl+3
  3115   003794  6A08               	clrf	(??___xxtofl+2)^(0+1280),c
  3116   003796  6A07               	clrf	(??___xxtofl+1)^(0+1280),c
  3117   003798  6A06               	clrf	??___xxtofl^(0+1280),c
  3118   00379A  5006               	movf	??___xxtofl^(0+1280),w,c
  3119   00379C  120C               	iorwf	___xxtofl@arg^(0+1280),f,c
  3120   00379E  5007               	movf	(??___xxtofl+1)^(0+1280),w,c
  3121   0037A0  120D               	iorwf	(___xxtofl@arg+1)^(0+1280),f,c
  3122   0037A2  5008               	movf	(??___xxtofl+2)^(0+1280),w,c
  3123   0037A4  120E               	iorwf	(___xxtofl@arg+2)^(0+1280),f,c
  3124   0037A6  5009               	movf	(??___xxtofl+3)^(0+1280),w,c
  3125   0037A8  120F               	iorwf	(___xxtofl@arg+3)^(0+1280),f,c
  3126   0037AA  500A               	movf	___xxtofl@sign^(0+1280),w,c
  3127   0037AC  B4D8               	btfsc	status,2,c
  3128   0037AE  EFDB  F01B         	goto	u2351
  3129   0037B2  EFDD  F01B         	goto	u2350
  3130   0037B6                     u2351:
  3131   0037B6  EFE5  F01B         	goto	l2518
  3132   0037BA                     u2350:
  3133   0037BA  BE05               	btfsc	(___xxtofl@val+3)^(0+1280),7,c
  3134   0037BC  EFE4  F01B         	goto	u2360
  3135   0037C0  EFE2  F01B         	goto	u2361
  3136   0037C4                     u2361:
  3137   0037C4  EFE5  F01B         	goto	l2518
  3138   0037C8                     u2360:
  3139   0037C8  8E0F               	bsf	(___xxtofl@arg+3)^(0+1280),7,c
  3140   0037CA                     l2518:
  3141   0037CA  C50C  F502         	movff	___xxtofl@arg,?___xxtofl
  3142   0037CE  C50D  F503         	movff	___xxtofl@arg+1,?___xxtofl+1
  3143   0037D2  C50E  F504         	movff	___xxtofl@arg+2,?___xxtofl+2
  3144   0037D6  C50F  F505         	movff	___xxtofl@arg+3,?___xxtofl+3
  3145   0037DA                     l825:
  3146   0037DA  0012               	return		;funcret
  3147   0037DC                     __end_of___xxtofl:
  3148                           	callstack 0
  3149                           
  3150 ;; *************** function ___fltol *****************
  3151 ;; Defined at:
  3152 ;;		line 43 in file "C:\Program Files\Microchip\xc8\v2.40\pic\sources\c99\common\fltol.c"
  3153 ;; Parameters:    Size  Location     Type
  3154 ;;  f1              4    1[COMRAM] unsigned char 
  3155 ;; Auto vars:     Size  Location     Type
  3156 ;;  exp1            1   10[COMRAM] unsigned char 
  3157 ;;  sign1           1    9[COMRAM] unsigned char 
  3158 ;; Return value:  Size  Location     Type
  3159 ;;                  4    1[COMRAM] long 
  3160 ;; Registers used:
  3161 ;;		wreg, status,2, status,0
  3162 ;; Tracked objects:
  3163 ;;		On entry : 0/0
  3164 ;;		On exit  : 0/0
  3165 ;;		Unchanged: 0/0
  3166 ;; Data sizes:     COMRAM   BANK5   BANK6   BANK7   BANK8   BANK9  BANK10  BANK11  BANK12  BANK13  BANK14  BANK15  BANK1
      +6  BANK17  BANK18  BANK19  BANK20  BANK21  BANK22  BANK23  BANK24  BANK25  BANK26  BANK27  BANK28  BANK29  BANK30  BANK3
      +1  BANK32  BANK33  BANK34  BANK35  BANK36
  3167 ;;      Params:         4       0       0       0       0       0       0       0       0       0       0       0       
      +0       0       0       0       0       0       0       0       0       0       0       0       0       0       0       
      +0       0       0       0       0       0
  3168 ;;      Locals:         2       0       0       0       0       0       0       0       0       0       0       0       
      +0       0       0       0       0       0       0       0       0       0       0       0       0       0       0       
      +0       0       0       0       0       0
  3169 ;;      Temps:          4       0       0       0       0       0       0       0       0       0       0       0       
      +0       0       0       0       0       0       0       0       0       0       0       0       0       0       0       
      +0       0       0       0       0       0
  3170 ;;      Totals:        10       0       0       0       0       0       0       0       0       0       0       0       
      +0       0       0       0       0       0       0       0       0       0       0       0       0       0       0       
      +0       0       0       0       0       0
  3171 ;;Total ram usage:       10 bytes
  3172 ;; Hardware stack levels used: 1
  3173 ;; Hardware stack levels required when called: 1
  3174 ;; This function calls:
  3175 ;;		Nothing
  3176 ;; This function is called by:
  3177 ;;		_LCDprintf
  3178 ;; This function uses a non-reentrant model
  3179 ;;
  3180                           
  3181                           	psect	text11
  3182   0037DC                     __ptext11:
  3183                           	callstack 0
  3184   0037DC                     ___fltol:
  3185                           	callstack 124
  3186   0037DC  3404               	rlcf	(___fltol@f1+2)^(0+1280),w,c
  3187   0037DE  3405               	rlcf	(___fltol@f1+3)^(0+1280),w,c
  3188   0037E0  6E0B               	movwf	___fltol@exp1^(0+1280),c
  3189   0037E2  500B               	movf	___fltol@exp1^(0+1280),w,c
  3190   0037E4  A4D8               	btfss	status,2,c
  3191   0037E6  EFF7  F01B         	goto	u2201
  3192   0037EA  EFF9  F01B         	goto	u2200
  3193   0037EE                     u2201:
  3194   0037EE  EF03  F01C         	goto	l2438
  3195   0037F2                     u2200:
  3196   0037F2                     l2434:
  3197   0037F2  0E00               	movlw	0
  3198   0037F4  6E02               	movwf	?___fltol^(0+1280),c
  3199   0037F6  0E00               	movlw	0
  3200   0037F8  6E03               	movwf	(?___fltol+1)^(0+1280),c
  3201   0037FA  0E00               	movlw	0
  3202   0037FC  6E04               	movwf	(?___fltol+2)^(0+1280),c
  3203   0037FE  0E00               	movlw	0
  3204   003800  6E05               	movwf	(?___fltol+3)^(0+1280),c
  3205   003802  EF70  F01C         	goto	l464
  3206   003806                     l2438:
  3207   003806  C502  F506         	movff	___fltol@f1,??___fltol
  3208   00380A  C503  F507         	movff	___fltol@f1+1,??___fltol+1
  3209   00380E  C504  F508         	movff	___fltol@f1+2,??___fltol+2
  3210   003812  C505  F509         	movff	___fltol@f1+3,??___fltol+3
  3211   003816  0E20               	movlw	32
  3212   003818  EF13  F01C         	goto	u2210
  3213   00381C                     u2215:
  3214   00381C  90D8               	bcf	status,0,c
  3215   00381E  3209               	rrcf	(??___fltol+3)^(0+1280),f,c
  3216   003820  3208               	rrcf	(??___fltol+2)^(0+1280),f,c
  3217   003822  3207               	rrcf	(??___fltol+1)^(0+1280),f,c
  3218   003824  3206               	rrcf	??___fltol^(0+1280),f,c
  3219   003826                     u2210:
  3220   003826  2EE8               	decfsz	wreg,f,c
  3221   003828  EF0E  F01C         	goto	u2215
  3222   00382C  5006               	movf	??___fltol^(0+1280),w,c
  3223   00382E  6E0A               	movwf	___fltol@sign1^(0+1280),c
  3224   003830  8E04               	bsf	(___fltol@f1+2)^(0+1280),7,c
  3225   003832  0EFF               	movlw	255
  3226   003834  1602               	andwf	___fltol@f1^(0+1280),f,c
  3227   003836  0EFF               	movlw	255
  3228   003838  1603               	andwf	(___fltol@f1+1)^(0+1280),f,c
  3229   00383A  0EFF               	movlw	255
  3230   00383C  1604               	andwf	(___fltol@f1+2)^(0+1280),f,c
  3231   00383E  0E00               	movlw	0
  3232   003840  1605               	andwf	(___fltol@f1+3)^(0+1280),f,c
  3233   003842  0E96               	movlw	150
  3234   003844  5E0B               	subwf	___fltol@exp1^(0+1280),f,c
  3235   003846  BE0B               	btfsc	___fltol@exp1^(0+1280),7,c
  3236   003848  EF2A  F01C         	goto	u2220
  3237   00384C  EF28  F01C         	goto	u2221
  3238   003850                     u2221:
  3239   003850  EF40  F01C         	goto	l2458
  3240   003854                     u2220:
  3241   003854  500B               	movf	___fltol@exp1^(0+1280),w,c
  3242   003856  0A80               	xorlw	128
  3243   003858  0F97               	addlw	151
  3244   00385A  B0D8               	btfsc	status,0,c
  3245   00385C  EF32  F01C         	goto	u2231
  3246   003860  EF34  F01C         	goto	u2230
  3247   003864                     u2231:
  3248   003864  EF36  F01C         	goto	l2454
  3249   003868                     u2230:
  3250   003868  EFF9  F01B         	goto	l2434
  3251   00386C                     l2454:
  3252   00386C  90D8               	bcf	status,0,c
  3253   00386E  3205               	rrcf	(___fltol@f1+3)^(0+1280),f,c
  3254   003870  3204               	rrcf	(___fltol@f1+2)^(0+1280),f,c
  3255   003872  3203               	rrcf	(___fltol@f1+1)^(0+1280),f,c
  3256   003874  3202               	rrcf	___fltol@f1^(0+1280),f,c
  3257   003876  3E0B               	incfsz	___fltol@exp1^(0+1280),f,c
  3258   003878  EF36  F01C         	goto	l2454
  3259   00387C  EF58  F01C         	goto	l2468
  3260   003880                     l2458:
  3261   003880  0E1F               	movlw	31
  3262   003882  640B               	cpfsgt	___fltol@exp1^(0+1280),c
  3263   003884  EF46  F01C         	goto	u2241
  3264   003888  EF48  F01C         	goto	u2240
  3265   00388C                     u2241:
  3266   00388C  EF50  F01C         	goto	l2466
  3267   003890                     u2240:
  3268   003890  EFF9  F01B         	goto	l2434
  3269   003894                     l2464:
  3270   003894  90D8               	bcf	status,0,c
  3271   003896  3602               	rlcf	___fltol@f1^(0+1280),f,c
  3272   003898  3603               	rlcf	(___fltol@f1+1)^(0+1280),f,c
  3273   00389A  3604               	rlcf	(___fltol@f1+2)^(0+1280),f,c
  3274   00389C  3605               	rlcf	(___fltol@f1+3)^(0+1280),f,c
  3275   00389E  060B               	decf	___fltol@exp1^(0+1280),f,c
  3276   0038A0                     l2466:
  3277   0038A0  500B               	movf	___fltol@exp1^(0+1280),w,c
  3278   0038A2  A4D8               	btfss	status,2,c
  3279   0038A4  EF56  F01C         	goto	u2251
  3280   0038A8  EF58  F01C         	goto	u2250
  3281   0038AC                     u2251:
  3282   0038AC  EF4A  F01C         	goto	l2464
  3283   0038B0                     u2250:
  3284   0038B0                     l2468:
  3285   0038B0  500A               	movf	___fltol@sign1^(0+1280),w,c
  3286   0038B2  B4D8               	btfsc	status,2,c
  3287   0038B4  EF5E  F01C         	goto	u2261
  3288   0038B8  EF60  F01C         	goto	u2260
  3289   0038BC                     u2261:
  3290   0038BC  EF68  F01C         	goto	l2472
  3291   0038C0                     u2260:
  3292   0038C0  1E05               	comf	(___fltol@f1+3)^(0+1280),f,c
  3293   0038C2  1E04               	comf	(___fltol@f1+2)^(0+1280),f,c
  3294   0038C4  1E03               	comf	(___fltol@f1+1)^(0+1280),f,c
  3295   0038C6  6C02               	negf	___fltol@f1^(0+1280),c
  3296   0038C8  0E00               	movlw	0
  3297   0038CA  2203               	addwfc	(___fltol@f1+1)^(0+1280),f,c
  3298   0038CC  2204               	addwfc	(___fltol@f1+2)^(0+1280),f,c
  3299   0038CE  2205               	addwfc	(___fltol@f1+3)^(0+1280),f,c
  3300   0038D0                     l2472:
  3301   0038D0  C502  F502         	movff	___fltol@f1,?___fltol
  3302   0038D4  C503  F503         	movff	___fltol@f1+1,?___fltol+1
  3303   0038D8  C504  F504         	movff	___fltol@f1+2,?___fltol+2
  3304   0038DC  C505  F505         	movff	___fltol@f1+3,?___fltol+3
  3305   0038E0                     l464:
  3306   0038E0  0012               	return		;funcret
  3307   0038E2                     __end_of___fltol:
  3308                           	callstack 0
  3309                           
  3310 ;; *************** function ___flmul *****************
  3311 ;; Defined at:
  3312 ;;		line 8 in file "C:\Program Files\Microchip\xc8\v2.40\pic\sources\c99\common\sprcmul.c"
  3313 ;; Parameters:    Size  Location     Type
  3314 ;;  b               4   64[COMRAM] long 
  3315 ;;  a               4   68[COMRAM] long 
  3316 ;; Auto vars:     Size  Location     Type
  3317 ;;  prod            4   83[COMRAM] struct .
  3318 ;;  grs             4   77[COMRAM] unsigned long 
  3319 ;;  temp            2   87[COMRAM] struct .
  3320 ;;  bexp            1   82[COMRAM] unsigned char 
  3321 ;;  aexp            1   81[COMRAM] unsigned char 
  3322 ;;  sign            1   76[COMRAM] unsigned char 
  3323 ;; Return value:  Size  Location     Type
  3324 ;;                  4   64[COMRAM] unsigned char 
  3325 ;; Registers used:
  3326 ;;		wreg, status,2, status,0, prodl, prodh
  3327 ;; Tracked objects:
  3328 ;;		On entry : 0/0
  3329 ;;		On exit  : 0/0
  3330 ;;		Unchanged: 0/0
  3331 ;; Data sizes:     COMRAM   BANK5   BANK6   BANK7   BANK8   BANK9  BANK10  BANK11  BANK12  BANK13  BANK14  BANK15  BANK1
      +6  BANK17  BANK18  BANK19  BANK20  BANK21  BANK22  BANK23  BANK24  BANK25  BANK26  BANK27  BANK28  BANK29  BANK30  BANK3
      +1  BANK32  BANK33  BANK34  BANK35  BANK36
  3332 ;;      Params:         8       0       0       0       0       0       0       0       0       0       0       0       
      +0       0       0       0       0       0       0       0       0       0       0       0       0       0       0       
      +0       0       0       0       0       0
  3333 ;;      Locals:        13       0       0       0       0       0       0       0       0       0       0       0       
      +0       0       0       0       0       0       0       0       0       0       0       0       0       0       0       
      +0       0       0       0       0       0
  3334 ;;      Temps:          4       0       0       0       0       0       0       0       0       0       0       0       
      +0       0       0       0       0       0       0       0       0       0       0       0       0       0       0       
      +0       0       0       0       0       0
  3335 ;;      Totals:        25       0       0       0       0       0       0       0       0       0       0       0       
      +0       0       0       0       0       0       0       0       0       0       0       0       0       0       0       
      +0       0       0       0       0       0
  3336 ;;Total ram usage:       25 bytes
  3337 ;; Hardware stack levels used: 1
  3338 ;; Hardware stack levels required when called: 1
  3339 ;; This function calls:
  3340 ;;		Nothing
  3341 ;; This function is called by:
  3342 ;;		_LCDprintf
  3343 ;;		_analogMap
  3344 ;; This function uses a non-reentrant model
  3345 ;;
  3346                           
  3347                           	psect	text12
  3348   002AD8                     __ptext12:
  3349                           	callstack 0
  3350   002AD8                     ___flmul:
  3351                           	callstack 124
  3352   002AD8  5044               	movf	(___flmul@b+3)^(0+1280),w,c
  3353   002ADA  0B80               	andlw	128
  3354   002ADC  6E4D               	movwf	___flmul@sign^(0+1280),c
  3355   002ADE  5044               	movf	(___flmul@b+3)^(0+1280),w,c
  3356   002AE0  2444               	addwf	(___flmul@b+3)^(0+1280),w,c
  3357   002AE2  6E53               	movwf	___flmul@bexp^(0+1280),c
  3358   002AE4  AE43               	btfss	(___flmul@b+2)^(0+1280),7,c
  3359   002AE6  EF77  F015         	goto	u2011
  3360   002AEA  EF79  F015         	goto	u2010
  3361   002AEE                     u2011:
  3362   002AEE  EF7A  F015         	goto	l2302
  3363   002AF2                     u2010:
  3364   002AF2  8053               	bsf	___flmul@bexp^(0+1280),0,c
  3365   002AF4                     l2302:
  3366   002AF4  5053               	movf	___flmul@bexp^(0+1280),w,c
  3367   002AF6  B4D8               	btfsc	status,2,c
  3368   002AF8  EF80  F015         	goto	u2021
  3369   002AFC  EF82  F015         	goto	u2020
  3370   002B00                     u2021:
  3371   002B00  EF95  F015         	goto	l2310
  3372   002B04                     u2020:
  3373   002B04  2853               	incf	___flmul@bexp^(0+1280),w,c
  3374   002B06  A4D8               	btfss	status,2,c
  3375   002B08  EF88  F015         	goto	u2031
  3376   002B0C  EF8A  F015         	goto	u2030
  3377   002B10                     u2031:
  3378   002B10  EF92  F015         	goto	l2308
  3379   002B14                     u2030:
  3380   002B14  0E00               	movlw	0
  3381   002B16  6E41               	movwf	___flmul@b^(0+1280),c
  3382   002B18  0E00               	movlw	0
  3383   002B1A  6E42               	movwf	(___flmul@b+1)^(0+1280),c
  3384   002B1C  0E00               	movlw	0
  3385   002B1E  6E43               	movwf	(___flmul@b+2)^(0+1280),c
  3386   002B20  0E00               	movlw	0
  3387   002B22  6E44               	movwf	(___flmul@b+3)^(0+1280),c
  3388   002B24                     l2308:
  3389   002B24  8E43               	bsf	(___flmul@b+2)^(0+1280),7,c
  3390   002B26  EF9D  F015         	goto	l2312
  3391   002B2A                     l2310:
  3392   002B2A  0E00               	movlw	0
  3393   002B2C  6E41               	movwf	___flmul@b^(0+1280),c
  3394   002B2E  0E00               	movlw	0
  3395   002B30  6E42               	movwf	(___flmul@b+1)^(0+1280),c
  3396   002B32  0E00               	movlw	0
  3397   002B34  6E43               	movwf	(___flmul@b+2)^(0+1280),c
  3398   002B36  0E00               	movlw	0
  3399   002B38  6E44               	movwf	(___flmul@b+3)^(0+1280),c
  3400   002B3A                     l2312:
  3401   002B3A  5048               	movf	(___flmul@a+3)^(0+1280),w,c
  3402   002B3C  0B80               	andlw	128
  3403   002B3E  1A4D               	xorwf	___flmul@sign^(0+1280),f,c
  3404   002B40  5048               	movf	(___flmul@a+3)^(0+1280),w,c
  3405   002B42  2448               	addwf	(___flmul@a+3)^(0+1280),w,c
  3406   002B44  6E52               	movwf	___flmul@aexp^(0+1280),c
  3407   002B46  AE47               	btfss	(___flmul@a+2)^(0+1280),7,c
  3408   002B48  EFA8  F015         	goto	u2041
  3409   002B4C  EFAA  F015         	goto	u2040
  3410   002B50                     u2041:
  3411   002B50  EFAB  F015         	goto	l2320
  3412   002B54                     u2040:
  3413   002B54  8052               	bsf	___flmul@aexp^(0+1280),0,c
  3414   002B56                     l2320:
  3415   002B56  5052               	movf	___flmul@aexp^(0+1280),w,c
  3416   002B58  B4D8               	btfsc	status,2,c
  3417   002B5A  EFB1  F015         	goto	u2051
  3418   002B5E  EFB3  F015         	goto	u2050
  3419   002B62                     u2051:
  3420   002B62  EFC6  F015         	goto	l2328
  3421   002B66                     u2050:
  3422   002B66  2852               	incf	___flmul@aexp^(0+1280),w,c
  3423   002B68  A4D8               	btfss	status,2,c
  3424   002B6A  EFB9  F015         	goto	u2061
  3425   002B6E  EFBB  F015         	goto	u2060
  3426   002B72                     u2061:
  3427   002B72  EFC3  F015         	goto	l2326
  3428   002B76                     u2060:
  3429   002B76  0E00               	movlw	0
  3430   002B78  6E45               	movwf	___flmul@a^(0+1280),c
  3431   002B7A  0E00               	movlw	0
  3432   002B7C  6E46               	movwf	(___flmul@a+1)^(0+1280),c
  3433   002B7E  0E00               	movlw	0
  3434   002B80  6E47               	movwf	(___flmul@a+2)^(0+1280),c
  3435   002B82  0E00               	movlw	0
  3436   002B84  6E48               	movwf	(___flmul@a+3)^(0+1280),c
  3437   002B86                     l2326:
  3438   002B86  8E47               	bsf	(___flmul@a+2)^(0+1280),7,c
  3439   002B88  EFCE  F015         	goto	l781
  3440   002B8C                     l2328:
  3441   002B8C  0E00               	movlw	0
  3442   002B8E  6E45               	movwf	___flmul@a^(0+1280),c
  3443   002B90  0E00               	movlw	0
  3444   002B92  6E46               	movwf	(___flmul@a+1)^(0+1280),c
  3445   002B94  0E00               	movlw	0
  3446   002B96  6E47               	movwf	(___flmul@a+2)^(0+1280),c
  3447   002B98  0E00               	movlw	0
  3448   002B9A  6E48               	movwf	(___flmul@a+3)^(0+1280),c
  3449   002B9C                     l781:
  3450   002B9C  5052               	movf	___flmul@aexp^(0+1280),w,c
  3451   002B9E  B4D8               	btfsc	status,2,c
  3452   002BA0  EFD4  F015         	goto	u2071
  3453   002BA4  EFD6  F015         	goto	u2070
  3454   002BA8                     u2071:
  3455   002BA8  EFDE  F015         	goto	l2332
  3456   002BAC                     u2070:
  3457   002BAC  5053               	movf	___flmul@bexp^(0+1280),w,c
  3458   002BAE  A4D8               	btfss	status,2,c
  3459   002BB0  EFDC  F015         	goto	u2081
  3460   002BB4  EFDE  F015         	goto	u2080
  3461   002BB8                     u2081:
  3462   002BB8  EFE8  F015         	goto	l2336
  3463   002BBC                     u2080:
  3464   002BBC                     l2332:
  3465   002BBC  0E00               	movlw	0
  3466   002BBE  6E41               	movwf	?___flmul^(0+1280),c
  3467   002BC0  0E00               	movlw	0
  3468   002BC2  6E42               	movwf	(?___flmul+1)^(0+1280),c
  3469   002BC4  0E00               	movlw	0
  3470   002BC6  6E43               	movwf	(?___flmul+2)^(0+1280),c
  3471   002BC8  0E00               	movlw	0
  3472   002BCA  6E44               	movwf	(?___flmul+3)^(0+1280),c
  3473   002BCC  EF80  F017         	goto	l785
  3474   002BD0                     l2336:
  3475   002BD0  5047               	movf	(___flmul@a+2)^(0+1280),w,c
  3476   002BD2  0241               	mulwf	___flmul@b^(0+1280),c
  3477   002BD4  C4F3 F558          	movff	prodl,___flmul@temp
  3478   002BD8  C4F4 F559          	movff	prodh,___flmul@temp+1
  3479   002BDC  5058               	movf	___flmul@temp^(0+1280),w,c
  3480   002BDE  6E4E               	movwf	___flmul@grs^(0+1280),c
  3481   002BE0  6A4F               	clrf	(___flmul@grs+1)^(0+1280),c
  3482   002BE2  6A50               	clrf	(___flmul@grs+2)^(0+1280),c
  3483   002BE4  6A51               	clrf	(___flmul@grs+3)^(0+1280),c
  3484   002BE6  5059               	movf	(___flmul@temp+1)^(0+1280),w,c
  3485   002BE8  6E54               	movwf	___flmul@prod^(0+1280),c
  3486   002BEA  6A55               	clrf	(___flmul@prod+1)^(0+1280),c
  3487   002BEC  6A56               	clrf	(___flmul@prod+2)^(0+1280),c
  3488   002BEE  6A57               	clrf	(___flmul@prod+3)^(0+1280),c
  3489   002BF0  5046               	movf	(___flmul@a+1)^(0+1280),w,c
  3490   002BF2  0242               	mulwf	(___flmul@b+1)^(0+1280),c
  3491   002BF4  C4F3 F558          	movff	prodl,___flmul@temp
  3492   002BF8  C4F4 F559          	movff	prodh,___flmul@temp+1
  3493   002BFC  5058               	movf	___flmul@temp^(0+1280),w,c
  3494   002BFE  264E               	addwf	___flmul@grs^(0+1280),f,c
  3495   002C00  0E00               	movlw	0
  3496   002C02  224F               	addwfc	(___flmul@grs+1)^(0+1280),f,c
  3497   002C04  2250               	addwfc	(___flmul@grs+2)^(0+1280),f,c
  3498   002C06  2251               	addwfc	(___flmul@grs+3)^(0+1280),f,c
  3499   002C08  5059               	movf	(___flmul@temp+1)^(0+1280),w,c
  3500   002C0A  2654               	addwf	___flmul@prod^(0+1280),f,c
  3501   002C0C  0E00               	movlw	0
  3502   002C0E  2255               	addwfc	(___flmul@prod+1)^(0+1280),f,c
  3503   002C10  2256               	addwfc	(___flmul@prod+2)^(0+1280),f,c
  3504   002C12  2257               	addwfc	(___flmul@prod+3)^(0+1280),f,c
  3505   002C14  5045               	movf	___flmul@a^(0+1280),w,c
  3506   002C16  0243               	mulwf	(___flmul@b+2)^(0+1280),c
  3507   002C18  C4F3 F558          	movff	prodl,___flmul@temp
  3508   002C1C  C4F4 F559          	movff	prodh,___flmul@temp+1
  3509   002C20  5058               	movf	___flmul@temp^(0+1280),w,c
  3510   002C22  264E               	addwf	___flmul@grs^(0+1280),f,c
  3511   002C24  0E00               	movlw	0
  3512   002C26  224F               	addwfc	(___flmul@grs+1)^(0+1280),f,c
  3513   002C28  2250               	addwfc	(___flmul@grs+2)^(0+1280),f,c
  3514   002C2A  2251               	addwfc	(___flmul@grs+3)^(0+1280),f,c
  3515   002C2C  5059               	movf	(___flmul@temp+1)^(0+1280),w,c
  3516   002C2E  2654               	addwf	___flmul@prod^(0+1280),f,c
  3517   002C30  0E00               	movlw	0
  3518   002C32  2255               	addwfc	(___flmul@prod+1)^(0+1280),f,c
  3519   002C34  2256               	addwfc	(___flmul@prod+2)^(0+1280),f,c
  3520   002C36  2257               	addwfc	(___flmul@prod+3)^(0+1280),f,c
  3521   002C38  C550  F551         	movff	___flmul@grs+2,___flmul@grs+3
  3522   002C3C  C54F  F550         	movff	___flmul@grs+1,___flmul@grs+2
  3523   002C40  C54E  F54F         	movff	___flmul@grs,___flmul@grs+1
  3524   002C44  6A4E               	clrf	___flmul@grs^(0+1280),c
  3525   002C46  5045               	movf	___flmul@a^(0+1280),w,c
  3526   002C48  0242               	mulwf	(___flmul@b+1)^(0+1280),c
  3527   002C4A  C4F3 F558          	movff	prodl,___flmul@temp
  3528   002C4E  C4F4 F559          	movff	prodh,___flmul@temp+1
  3529   002C52  5058               	movf	___flmul@temp^(0+1280),w,c
  3530   002C54  264E               	addwf	___flmul@grs^(0+1280),f,c
  3531   002C56  5059               	movf	(___flmul@temp+1)^(0+1280),w,c
  3532   002C58  224F               	addwfc	(___flmul@grs+1)^(0+1280),f,c
  3533   002C5A  0E00               	movlw	0
  3534   002C5C  2250               	addwfc	(___flmul@grs+2)^(0+1280),f,c
  3535   002C5E  0E00               	movlw	0
  3536   002C60  2251               	addwfc	(___flmul@grs+3)^(0+1280),f,c
  3537   002C62  5046               	movf	(___flmul@a+1)^(0+1280),w,c
  3538   002C64  0241               	mulwf	___flmul@b^(0+1280),c
  3539   002C66  C4F3 F558          	movff	prodl,___flmul@temp
  3540   002C6A  C4F4 F559          	movff	prodh,___flmul@temp+1
  3541   002C6E  5058               	movf	___flmul@temp^(0+1280),w,c
  3542   002C70  264E               	addwf	___flmul@grs^(0+1280),f,c
  3543   002C72  5059               	movf	(___flmul@temp+1)^(0+1280),w,c
  3544   002C74  224F               	addwfc	(___flmul@grs+1)^(0+1280),f,c
  3545   002C76  0E00               	movlw	0
  3546   002C78  2250               	addwfc	(___flmul@grs+2)^(0+1280),f,c
  3547   002C7A  0E00               	movlw	0
  3548   002C7C  2251               	addwfc	(___flmul@grs+3)^(0+1280),f,c
  3549   002C7E  C550  F551         	movff	___flmul@grs+2,___flmul@grs+3
  3550   002C82  C54F  F550         	movff	___flmul@grs+1,___flmul@grs+2
  3551   002C86  C54E  F54F         	movff	___flmul@grs,___flmul@grs+1
  3552   002C8A  6A4E               	clrf	___flmul@grs^(0+1280),c
  3553   002C8C  5045               	movf	___flmul@a^(0+1280),w,c
  3554   002C8E  0241               	mulwf	___flmul@b^(0+1280),c
  3555   002C90  C4F3 F558          	movff	prodl,___flmul@temp
  3556   002C94  C4F4 F559          	movff	prodh,___flmul@temp+1
  3557   002C98  5058               	movf	___flmul@temp^(0+1280),w,c
  3558   002C9A  264E               	addwf	___flmul@grs^(0+1280),f,c
  3559   002C9C  5059               	movf	(___flmul@temp+1)^(0+1280),w,c
  3560   002C9E  224F               	addwfc	(___flmul@grs+1)^(0+1280),f,c
  3561   002CA0  0E00               	movlw	0
  3562   002CA2  2250               	addwfc	(___flmul@grs+2)^(0+1280),f,c
  3563   002CA4  0E00               	movlw	0
  3564   002CA6  2251               	addwfc	(___flmul@grs+3)^(0+1280),f,c
  3565   002CA8  5047               	movf	(___flmul@a+2)^(0+1280),w,c
  3566   002CAA  0242               	mulwf	(___flmul@b+1)^(0+1280),c
  3567   002CAC  C4F3 F558          	movff	prodl,___flmul@temp
  3568   002CB0  C4F4 F559          	movff	prodh,___flmul@temp+1
  3569   002CB4  5058               	movf	___flmul@temp^(0+1280),w,c
  3570   002CB6  2654               	addwf	___flmul@prod^(0+1280),f,c
  3571   002CB8  5059               	movf	(___flmul@temp+1)^(0+1280),w,c
  3572   002CBA  2255               	addwfc	(___flmul@prod+1)^(0+1280),f,c
  3573   002CBC  0E00               	movlw	0
  3574   002CBE  2256               	addwfc	(___flmul@prod+2)^(0+1280),f,c
  3575   002CC0  0E00               	movlw	0
  3576   002CC2  2257               	addwfc	(___flmul@prod+3)^(0+1280),f,c
  3577   002CC4  5046               	movf	(___flmul@a+1)^(0+1280),w,c
  3578   002CC6  0243               	mulwf	(___flmul@b+2)^(0+1280),c
  3579   002CC8  C4F3 F558          	movff	prodl,___flmul@temp
  3580   002CCC  C4F4 F559          	movff	prodh,___flmul@temp+1
  3581   002CD0  5058               	movf	___flmul@temp^(0+1280),w,c
  3582   002CD2  2654               	addwf	___flmul@prod^(0+1280),f,c
  3583   002CD4  5059               	movf	(___flmul@temp+1)^(0+1280),w,c
  3584   002CD6  2255               	addwfc	(___flmul@prod+1)^(0+1280),f,c
  3585   002CD8  0E00               	movlw	0
  3586   002CDA  2256               	addwfc	(___flmul@prod+2)^(0+1280),f,c
  3587   002CDC  0E00               	movlw	0
  3588   002CDE  2257               	addwfc	(___flmul@prod+3)^(0+1280),f,c
  3589   002CE0  5047               	movf	(___flmul@a+2)^(0+1280),w,c
  3590   002CE2  0243               	mulwf	(___flmul@b+2)^(0+1280),c
  3591   002CE4  C4F3 F558          	movff	prodl,___flmul@temp
  3592   002CE8  C4F4 F559          	movff	prodh,___flmul@temp+1
  3593   002CEC  5058               	movf	___flmul@temp^(0+1280),w,c
  3594   002CEE  6E49               	movwf	??___flmul^(0+1280),c
  3595   002CF0  5059               	movf	(___flmul@temp+1)^(0+1280),w,c
  3596   002CF2  6E4A               	movwf	(??___flmul+1)^(0+1280),c
  3597   002CF4  6A4B               	clrf	(??___flmul+2)^(0+1280),c
  3598   002CF6  6A4C               	clrf	(??___flmul+3)^(0+1280),c
  3599   002CF8  C54B  F54C         	movff	??___flmul+2,??___flmul+3
  3600   002CFC  C54A  F54B         	movff	??___flmul+1,??___flmul+2
  3601   002D00  C549  F54A         	movff	??___flmul,??___flmul+1
  3602   002D04  6A49               	clrf	??___flmul^(0+1280),c
  3603   002D06  5049               	movf	??___flmul^(0+1280),w,c
  3604   002D08  2654               	addwf	___flmul@prod^(0+1280),f,c
  3605   002D0A  504A               	movf	(??___flmul+1)^(0+1280),w,c
  3606   002D0C  2255               	addwfc	(___flmul@prod+1)^(0+1280),f,c
  3607   002D0E  504B               	movf	(??___flmul+2)^(0+1280),w,c
  3608   002D10  2256               	addwfc	(___flmul@prod+2)^(0+1280),f,c
  3609   002D12  504C               	movf	(??___flmul+3)^(0+1280),w,c
  3610   002D14  2257               	addwfc	(___flmul@prod+3)^(0+1280),f,c
  3611   002D16  C54E  F549         	movff	___flmul@grs,??___flmul
  3612   002D1A  C54F  F54A         	movff	___flmul@grs+1,??___flmul+1
  3613   002D1E  C550  F54B         	movff	___flmul@grs+2,??___flmul+2
  3614   002D22  C551  F54C         	movff	___flmul@grs+3,??___flmul+3
  3615   002D26  0E19               	movlw	25
  3616   002D28  EF9B  F016         	goto	u2090
  3617   002D2C                     u2095:
  3618   002D2C  90D8               	bcf	status,0,c
  3619   002D2E  324C               	rrcf	(??___flmul+3)^(0+1280),f,c
  3620   002D30  324B               	rrcf	(??___flmul+2)^(0+1280),f,c
  3621   002D32  324A               	rrcf	(??___flmul+1)^(0+1280),f,c
  3622   002D34  3249               	rrcf	??___flmul^(0+1280),f,c
  3623   002D36                     u2090:
  3624   002D36  2EE8               	decfsz	wreg,f,c
  3625   002D38  EF96  F016         	goto	u2095
  3626   002D3C  5049               	movf	??___flmul^(0+1280),w,c
  3627   002D3E  2654               	addwf	___flmul@prod^(0+1280),f,c
  3628   002D40  504A               	movf	(??___flmul+1)^(0+1280),w,c
  3629   002D42  2255               	addwfc	(___flmul@prod+1)^(0+1280),f,c
  3630   002D44  504B               	movf	(??___flmul+2)^(0+1280),w,c
  3631   002D46  2256               	addwfc	(___flmul@prod+2)^(0+1280),f,c
  3632   002D48  504C               	movf	(??___flmul+3)^(0+1280),w,c
  3633   002D4A  2257               	addwfc	(___flmul@prod+3)^(0+1280),f,c
  3634   002D4C  C550  F551         	movff	___flmul@grs+2,___flmul@grs+3
  3635   002D50  C54F  F550         	movff	___flmul@grs+1,___flmul@grs+2
  3636   002D54  C54E  F54F         	movff	___flmul@grs,___flmul@grs+1
  3637   002D58  6A4E               	clrf	___flmul@grs^(0+1280),c
  3638   002D5A  5052               	movf	___flmul@aexp^(0+1280),w,c
  3639   002D5C  C553  F549         	movff	___flmul@bexp,??___flmul
  3640   002D60  6A4A               	clrf	(??___flmul+1)^(0+1280),c
  3641   002D62  2649               	addwf	??___flmul^(0+1280),f,c
  3642   002D64  0E00               	movlw	0
  3643   002D66  224A               	addwfc	(??___flmul+1)^(0+1280),f,c
  3644   002D68  0E82               	movlw	130
  3645   002D6A  2449               	addwf	??___flmul^(0+1280),w,c
  3646   002D6C  6E58               	movwf	___flmul@temp^(0+1280),c
  3647   002D6E  0EFF               	movlw	255
  3648   002D70  204A               	addwfc	(??___flmul+1)^(0+1280),w,c
  3649   002D72  6E59               	movwf	(___flmul@temp+1)^(0+1280),c
  3650   002D74  EFD1  F016         	goto	l2384
  3651   002D78                     l2378:
  3652   002D78  90D8               	bcf	status,0,c
  3653   002D7A  3654               	rlcf	___flmul@prod^(0+1280),f,c
  3654   002D7C  3655               	rlcf	(___flmul@prod+1)^(0+1280),f,c
  3655   002D7E  3656               	rlcf	(___flmul@prod+2)^(0+1280),f,c
  3656   002D80  3657               	rlcf	(___flmul@prod+3)^(0+1280),f,c
  3657   002D82  AE51               	btfss	(___flmul@grs+3)^(0+1280),7,c
  3658   002D84  EFC6  F016         	goto	u2101
  3659   002D88  EFC8  F016         	goto	u2100
  3660   002D8C                     u2101:
  3661   002D8C  EFC9  F016         	goto	l788
  3662   002D90                     u2100:
  3663   002D90  8054               	bsf	___flmul@prod^(0+1280),0,c
  3664   002D92                     l788:
  3665   002D92  90D8               	bcf	status,0,c
  3666   002D94  364E               	rlcf	___flmul@grs^(0+1280),f,c
  3667   002D96  364F               	rlcf	(___flmul@grs+1)^(0+1280),f,c
  3668   002D98  3650               	rlcf	(___flmul@grs+2)^(0+1280),f,c
  3669   002D9A  3651               	rlcf	(___flmul@grs+3)^(0+1280),f,c
  3670   002D9C  0658               	decf	___flmul@temp^(0+1280),f,c
  3671   002D9E  A0D8               	btfss	status,0,c
  3672   002DA0  0659               	decf	(___flmul@temp+1)^(0+1280),f,c
  3673   002DA2                     l2384:
  3674   002DA2  AE56               	btfss	(___flmul@prod+2)^(0+1280),7,c
  3675   002DA4  EFD6  F016         	goto	u2111
  3676   002DA8  EFD8  F016         	goto	u2110
  3677   002DAC                     u2111:
  3678   002DAC  EFBC  F016         	goto	l2378
  3679   002DB0                     u2110:
  3680   002DB0  0E00               	movlw	0
  3681   002DB2  6E52               	movwf	___flmul@aexp^(0+1280),c
  3682   002DB4  AE51               	btfss	(___flmul@grs+3)^(0+1280),7,c
  3683   002DB6  EFDF  F016         	goto	u2121
  3684   002DBA  EFE1  F016         	goto	u2120
  3685   002DBE                     u2121:
  3686   002DBE  EF05  F017         	goto	l790
  3687   002DC2                     u2120:
  3688   002DC2  0EFF               	movlw	255
  3689   002DC4  144E               	andwf	___flmul@grs^(0+1280),w,c
  3690   002DC6  6E49               	movwf	??___flmul^(0+1280),c
  3691   002DC8  0EFF               	movlw	255
  3692   002DCA  144F               	andwf	(___flmul@grs+1)^(0+1280),w,c
  3693   002DCC  6E4A               	movwf	(??___flmul+1)^(0+1280),c
  3694   002DCE  0EFF               	movlw	255
  3695   002DD0  1450               	andwf	(___flmul@grs+2)^(0+1280),w,c
  3696   002DD2  6E4B               	movwf	(??___flmul+2)^(0+1280),c
  3697   002DD4  0E7F               	movlw	127
  3698   002DD6  1451               	andwf	(___flmul@grs+3)^(0+1280),w,c
  3699   002DD8  6E4C               	movwf	(??___flmul+3)^(0+1280),c
  3700   002DDA  5049               	movf	??___flmul^(0+1280),w,c
  3701   002DDC  104A               	iorwf	(??___flmul+1)^(0+1280),w,c
  3702   002DDE  104B               	iorwf	(??___flmul+2)^(0+1280),w,c
  3703   002DE0  104C               	iorwf	(??___flmul+3)^(0+1280),w,c
  3704   002DE2  B4D8               	btfsc	status,2,c
  3705   002DE4  EFF6  F016         	goto	u2131
  3706   002DE8  EFF8  F016         	goto	u2130
  3707   002DEC                     u2131:
  3708   002DEC  EFFC  F016         	goto	l791
  3709   002DF0                     u2130:
  3710   002DF0                     l2392:
  3711   002DF0  0E01               	movlw	1
  3712   002DF2  6E52               	movwf	___flmul@aexp^(0+1280),c
  3713   002DF4  EF05  F017         	goto	l790
  3714   002DF8                     l791:
  3715   002DF8  A054               	btfss	___flmul@prod^(0+1280),0,c
  3716   002DFA  EF01  F017         	goto	u2141
  3717   002DFE  EF03  F017         	goto	u2140
  3718   002E02                     u2141:
  3719   002E02  EF05  F017         	goto	l790
  3720   002E06                     u2140:
  3721   002E06  EFF8  F016         	goto	l2392
  3722   002E0A                     l790:
  3723   002E0A  5052               	movf	___flmul@aexp^(0+1280),w,c
  3724   002E0C  B4D8               	btfsc	status,2,c
  3725   002E0E  EF0B  F017         	goto	u2151
  3726   002E12  EF0D  F017         	goto	u2150
  3727   002E16                     u2151:
  3728   002E16  EF31  F017         	goto	l2404
  3729   002E1A                     u2150:
  3730   002E1A  0E01               	movlw	1
  3731   002E1C  2654               	addwf	___flmul@prod^(0+1280),f,c
  3732   002E1E  0E00               	movlw	0
  3733   002E20  2255               	addwfc	(___flmul@prod+1)^(0+1280),f,c
  3734   002E22  2256               	addwfc	(___flmul@prod+2)^(0+1280),f,c
  3735   002E24  2257               	addwfc	(___flmul@prod+3)^(0+1280),f,c
  3736   002E26  A057               	btfss	(___flmul@prod+3)^(0+1280),0,c
  3737   002E28  EF18  F017         	goto	u2161
  3738   002E2C  EF1A  F017         	goto	u2160
  3739   002E30                     u2161:
  3740   002E30  EF31  F017         	goto	l2404
  3741   002E34                     u2160:
  3742   002E34  C554  F549         	movff	___flmul@prod,??___flmul
  3743   002E38  C555  F54A         	movff	___flmul@prod+1,??___flmul+1
  3744   002E3C  C556  F54B         	movff	___flmul@prod+2,??___flmul+2
  3745   002E40  C557  F54C         	movff	___flmul@prod+3,??___flmul+3
  3746   002E44  344C               	rlcf	(??___flmul+3)^(0+1280),w,c
  3747   002E46  324C               	rrcf	(??___flmul+3)^(0+1280),f,c
  3748   002E48  324B               	rrcf	(??___flmul+2)^(0+1280),f,c
  3749   002E4A  324A               	rrcf	(??___flmul+1)^(0+1280),f,c
  3750   002E4C  3249               	rrcf	??___flmul^(0+1280),f,c
  3751   002E4E  C549  F554         	movff	??___flmul,___flmul@prod
  3752   002E52  C54A  F555         	movff	??___flmul+1,___flmul@prod+1
  3753   002E56  C54B  F556         	movff	??___flmul+2,___flmul@prod+2
  3754   002E5A  C54C  F557         	movff	??___flmul+3,___flmul@prod+3
  3755   002E5E  4A58               	infsnz	___flmul@temp^(0+1280),f,c
  3756   002E60  2A59               	incf	(___flmul@temp+1)^(0+1280),f,c
  3757   002E62                     l2404:
  3758   002E62  BE59               	btfsc	(___flmul@temp+1)^(0+1280),7,c
  3759   002E64  EF3C  F017         	goto	u2171
  3760   002E68  5059               	movf	(___flmul@temp+1)^(0+1280),w,c
  3761   002E6A  E108               	bnz	u2170
  3762   002E6C  2858               	incf	___flmul@temp^(0+1280),w,c
  3763   002E6E  A0D8               	btfss	status,0,c
  3764   002E70  EF3C  F017         	goto	u2171
  3765   002E74  EF3E  F017         	goto	u2170
  3766   002E78                     u2171:
  3767   002E78  EF48  F017         	goto	l2408
  3768   002E7C                     u2170:
  3769   002E7C  0E00               	movlw	0
  3770   002E7E  6E54               	movwf	___flmul@prod^(0+1280),c
  3771   002E80  0E00               	movlw	0
  3772   002E82  6E55               	movwf	(___flmul@prod+1)^(0+1280),c
  3773   002E84  0E80               	movlw	128
  3774   002E86  6E56               	movwf	(___flmul@prod+2)^(0+1280),c
  3775   002E88  0E7F               	movlw	127
  3776   002E8A  6E57               	movwf	(___flmul@prod+3)^(0+1280),c
  3777   002E8C  EF76  F017         	goto	l2420
  3778   002E90                     l2408:
  3779   002E90  BE59               	btfsc	(___flmul@temp+1)^(0+1280),7,c
  3780   002E92  EF55  F017         	goto	u2180
  3781   002E96  5059               	movf	(___flmul@temp+1)^(0+1280),w,c
  3782   002E98  E106               	bnz	u2181
  3783   002E9A  0458               	decf	___flmul@temp^(0+1280),w,c
  3784   002E9C  B0D8               	btfsc	status,0,c
  3785   002E9E  EF53  F017         	goto	u2181
  3786   002EA2  EF55  F017         	goto	u2180
  3787   002EA6                     u2181:
  3788   002EA6  EF61  F017         	goto	l798
  3789   002EAA                     u2180:
  3790   002EAA  0E00               	movlw	0
  3791   002EAC  6E54               	movwf	___flmul@prod^(0+1280),c
  3792   002EAE  0E00               	movlw	0
  3793   002EB0  6E55               	movwf	(___flmul@prod+1)^(0+1280),c
  3794   002EB2  0E00               	movlw	0
  3795   002EB4  6E56               	movwf	(___flmul@prod+2)^(0+1280),c
  3796   002EB6  0E00               	movlw	0
  3797   002EB8  6E57               	movwf	(___flmul@prod+3)^(0+1280),c
  3798   002EBA  0E00               	movlw	0
  3799   002EBC  6E4D               	movwf	___flmul@sign^(0+1280),c
  3800   002EBE  EF76  F017         	goto	l2420
  3801   002EC2                     l798:
  3802   002EC2  C558  F553         	movff	___flmul@temp,___flmul@bexp
  3803   002EC6  0EFF               	movlw	255
  3804   002EC8  1654               	andwf	___flmul@prod^(0+1280),f,c
  3805   002ECA  0EFF               	movlw	255
  3806   002ECC  1655               	andwf	(___flmul@prod+1)^(0+1280),f,c
  3807   002ECE  0E7F               	movlw	127
  3808   002ED0  1656               	andwf	(___flmul@prod+2)^(0+1280),f,c
  3809   002ED2  0E00               	movlw	0
  3810   002ED4  1657               	andwf	(___flmul@prod+3)^(0+1280),f,c
  3811   002ED6  A053               	btfss	___flmul@bexp^(0+1280),0,c
  3812   002ED8  EF70  F017         	goto	u2191
  3813   002EDC  EF72  F017         	goto	u2190
  3814   002EE0                     u2191:
  3815   002EE0  EF73  F017         	goto	l2418
  3816   002EE4                     u2190:
  3817   002EE4  8E56               	bsf	(___flmul@prod+2)^(0+1280),7,c
  3818   002EE6                     l2418:
  3819   002EE6  90D8               	bcf	status,0,c
  3820   002EE8  3053               	rrcf	___flmul@bexp^(0+1280),w,c
  3821   002EEA  6E57               	movwf	(___flmul@prod+3)^(0+1280),c
  3822   002EEC                     l2420:
  3823   002EEC  504D               	movf	___flmul@sign^(0+1280),w,c
  3824   002EEE  1257               	iorwf	(___flmul@prod+3)^(0+1280),f,c
  3825   002EF0  C554  F541         	movff	___flmul@prod,?___flmul
  3826   002EF4  C555  F542         	movff	___flmul@prod+1,?___flmul+1
  3827   002EF8  C556  F543         	movff	___flmul@prod+2,?___flmul+2
  3828   002EFC  C557  F544         	movff	___flmul@prod+3,?___flmul+3
  3829   002F00                     l785:
  3830   002F00  0012               	return		;funcret
  3831   002F02                     __end_of___flmul:
  3832                           	callstack 0
  3833                           
  3834 ;; *************** function _LCDprints *****************
  3835 ;; Defined at:
  3836 ;;		line 86 in file "C:/Users/a_hui/OneDrive - Camosun College/term2/ecet165_embedded_mc/labs/ecet165-labs/lab6/lcd18f.c
      +"
  3837 ;; Parameters:    Size  Location     Type
  3838 ;;  c               2   18[COMRAM] PTR unsigned char 
  3839 ;;		 -> LCDprintf@f_string(10), ?_LCDprintf(1), toString@string(6), RTCrun@current_time(8), 
  3840 ;; Auto vars:     Size  Location     Type
  3841 ;;		None
  3842 ;; Return value:  Size  Location     Type
  3843 ;;                  1    wreg      void 
  3844 ;; Registers used:
  3845 ;;		wreg, fsr2l, fsr2h, status,2, status,0, cstack
  3846 ;; Tracked objects:
  3847 ;;		On entry : 0/0
  3848 ;;		On exit  : 0/0
  3849 ;;		Unchanged: 0/0
  3850 ;; Data sizes:     COMRAM   BANK5   BANK6   BANK7   BANK8   BANK9  BANK10  BANK11  BANK12  BANK13  BANK14  BANK15  BANK1
      +6  BANK17  BANK18  BANK19  BANK20  BANK21  BANK22  BANK23  BANK24  BANK25  BANK26  BANK27  BANK28  BANK29  BANK30  BANK3
      +1  BANK32  BANK33  BANK34  BANK35  BANK36
  3851 ;;      Params:         2       0       0       0       0       0       0       0       0       0       0       0       
      +0       0       0       0       0       0       0       0       0       0       0       0       0       0       0       
      +0       0       0       0       0       0
  3852 ;;      Locals:         0       0       0       0       0       0       0       0       0       0       0       0       
      +0       0       0       0       0       0       0       0       0       0       0       0       0       0       0       
      +0       0       0       0       0       0
  3853 ;;      Temps:          0       0       0       0       0       0       0       0       0       0       0       0       
      +0       0       0       0       0       0       0       0       0       0       0       0       0       0       0       
      +0       0       0       0       0       0
  3854 ;;      Totals:         2       0       0       0       0       0       0       0       0       0       0       0       
      +0       0       0       0       0       0       0       0       0       0       0       0       0       0       0       
      +0       0       0       0       0       0
  3855 ;;Total ram usage:        2 bytes
  3856 ;; Hardware stack levels used: 1
  3857 ;; Hardware stack levels required when called: 2
  3858 ;; This function calls:
  3859 ;;		_LCDprintc
  3860 ;; This function is called by:
  3861 ;;		_LCDprintf
  3862 ;; This function uses a non-reentrant model
  3863 ;;
  3864                           
  3865                           	psect	text13
  3866   003DD2                     __ptext13:
  3867                           	callstack 0
  3868   003DD2                     _LCDprints:
  3869                           	callstack 123
  3870   003DD2                     
  3871                           ;C:/Users/a_hui/OneDrive - Camosun College/term2/ecet165_embedded_mc/labs/ecet165-labs/l
      +                          ab6/lcd18f.c: 88:     ANSELD = 0x0; TRISD = 0x0; WPUD = 0xFF; LATDbits.LATD7 = 1; _delay
      +                          ((unsigned long)((1)*(64000000/4000000.0)));
  3872   003DD2  0E00               	movlw	0
  3873   003DD4  0104               	movlb	4	; () banked
  3874   003DD6  6F18               	movwf	24,b	;volatile
  3875   003DD8  0E00               	movlw	0
  3876   003DDA  6EC9               	movwf	201,c	;volatile
  3877   003DDC                     
  3878                           ; BSR set to: 4
  3879   003DDC  6919               	setf	25,b	;volatile
  3880   003DDE                     
  3881                           ; BSR set to: 4
  3882   003DDE  8EC1               	bsf	193,7,c	;volatile
  3883   003DE0                     
  3884                           ; BSR set to: 4
  3885   003DE0  0E05               	movlw	5
  3886   003DE2                     u2627:
  3887   003DE2  2EE8               	decfsz	wreg,f,c
  3888   003DE4  D7FE               	bra	u2627
  3889   003DE6  F000               	nop	
  3890   003DE8                     
  3891                           ;C:/Users/a_hui/OneDrive - Camosun College/term2/ecet165_embedded_mc/labs/ecet165-labs/l
      +                          ab6/lcd18f.c: 91:     LATDbits.LATD4 = 1;
  3892   003DE8  88C1               	bsf	193,4,c	;volatile
  3893   003DEA                     
  3894                           ;C:/Users/a_hui/OneDrive - Camosun College/term2/ecet165_embedded_mc/labs/ecet165-labs/l
      +                          ab6/lcd18f.c: 92:     LATDbits.LATD5 = 0;
  3895   003DEA  9AC1               	bcf	193,5,c	;volatile
  3896   003DEC                     
  3897                           ;C:/Users/a_hui/OneDrive - Camosun College/term2/ecet165_embedded_mc/labs/ecet165-labs/l
      +                          ab6/lcd18f.c: 94:     _delay((unsigned long)((1)*(64000000/4000000.0)));
  3898   003DEC  0E05               	movlw	5
  3899   003DEE                     u2637:
  3900   003DEE  2EE8               	decfsz	wreg,f,c
  3901   003DF0  D7FE               	bra	u2637
  3902   003DF2  F000               	nop	
  3903                           
  3904                           ;C:/Users/a_hui/OneDrive - Camosun College/term2/ecet165_embedded_mc/labs/ecet165-labs/l
      +                          ab6/lcd18f.c: 98:     while(*c != 0x0){
  3905   003DF4  EF05  F01F         	goto	l2136
  3906   003DF8                     l2132:
  3907                           
  3908                           ;C:/Users/a_hui/OneDrive - Camosun College/term2/ecet165_embedded_mc/labs/ecet165-labs/l
      +                          ab6/lcd18f.c: 100:         LCDprintc(*c++);
  3909   003DF8  C513  F4D9         	movff	LCDprints@c,fsr2l
  3910   003DFC  C514  F4DA         	movff	LCDprints@c+1,fsr2h
  3911   003E00  50DF               	movf	indf2,w,c
  3912   003E02  ECCD  F01D         	call	_LCDprintc
  3913   003E06  4A13               	infsnz	LCDprints@c^(0+1280),f,c
  3914   003E08  2A14               	incf	(LCDprints@c+1)^(0+1280),f,c
  3915   003E0A                     l2136:
  3916                           
  3917                           ;C:/Users/a_hui/OneDrive - Camosun College/term2/ecet165_embedded_mc/labs/ecet165-labs/l
      +                          ab6/lcd18f.c: 98:     while(*c != 0x0){
  3918   003E0A  C513  F4D9         	movff	LCDprints@c,fsr2l
  3919   003E0E  C514  F4DA         	movff	LCDprints@c+1,fsr2h
  3920   003E12  50DF               	movf	indf2,w,c
  3921   003E14  A4D8               	btfss	status,2,c
  3922   003E16  EF0F  F01F         	goto	u1751
  3923   003E1A  EF11  F01F         	goto	u1750
  3924   003E1E                     u1751:
  3925   003E1E  EFFC  F01E         	goto	l2132
  3926   003E22                     u1750:
  3927   003E22  0012               	return		;funcret
  3928   003E24                     __end_of_LCDprints:
  3929                           	callstack 0
  3930                           
  3931 ;; *************** function _LCDprintc *****************
  3932 ;; Defined at:
  3933 ;;		line 71 in file "C:/Users/a_hui/OneDrive - Camosun College/term2/ecet165_embedded_mc/labs/ecet165-labs/lab6/lcd18f.c
      +"
  3934 ;; Parameters:    Size  Location     Type
  3935 ;;  c               1    wreg     unsigned char 
  3936 ;; Auto vars:     Size  Location     Type
  3937 ;;  c               1    2[COMRAM] unsigned char 
  3938 ;; Return value:  Size  Location     Type
  3939 ;;                  1    wreg      void 
  3940 ;; Registers used:
  3941 ;;		wreg, status,2, status,0
  3942 ;; Tracked objects:
  3943 ;;		On entry : 0/0
  3944 ;;		On exit  : 0/0
  3945 ;;		Unchanged: 0/0
  3946 ;; Data sizes:     COMRAM   BANK5   BANK6   BANK7   BANK8   BANK9  BANK10  BANK11  BANK12  BANK13  BANK14  BANK15  BANK1
      +6  BANK17  BANK18  BANK19  BANK20  BANK21  BANK22  BANK23  BANK24  BANK25  BANK26  BANK27  BANK28  BANK29  BANK30  BANK3
      +1  BANK32  BANK33  BANK34  BANK35  BANK36
  3947 ;;      Params:         0       0       0       0       0       0       0       0       0       0       0       0       
      +0       0       0       0       0       0       0       0       0       0       0       0       0       0       0       
      +0       0       0       0       0       0
  3948 ;;      Locals:         1       0       0       0       0       0       0       0       0       0       0       0       
      +0       0       0       0       0       0       0       0       0       0       0       0       0       0       0       
      +0       0       0       0       0       0
  3949 ;;      Temps:          1       0       0       0       0       0       0       0       0       0       0       0       
      +0       0       0       0       0       0       0       0       0       0       0       0       0       0       0       
      +0       0       0       0       0       0
  3950 ;;      Totals:         2       0       0       0       0       0       0       0       0       0       0       0       
      +0       0       0       0       0       0       0       0       0       0       0       0       0       0       0       
      +0       0       0       0       0       0
  3951 ;;Total ram usage:        2 bytes
  3952 ;; Hardware stack levels used: 1
  3953 ;; Hardware stack levels required when called: 1
  3954 ;; This function calls:
  3955 ;;		Nothing
  3956 ;; This function is called by:
  3957 ;;		_LCDprints
  3958 ;;		_LCDprintf
  3959 ;;		_LCDreturn
  3960 ;; This function uses a non-reentrant model
  3961 ;;
  3962                           
  3963                           	psect	text14
  3964   003B9A                     __ptext14:
  3965                           	callstack 0
  3966   003B9A                     _LCDprintc:
  3967                           	callstack 123
  3968                           
  3969                           ;incstack = 0
  3970                           ;LCDprintc@c stored from wreg
  3971   003B9A  6E03               	movwf	LCDprintc@c^(0+1280),c
  3972   003B9C                     
  3973                           ;C:/Users/a_hui/OneDrive - Camosun College/term2/ecet165_embedded_mc/labs/ecet165-labs/l
      +                          ab6/lcd18f.c: 72:     ANSELD = 0x0; TRISD = 0x0; WPUD = 0xFF; LATDbits.LATD7 = 1; _delay
      +                          ((unsigned long)((1)*(64000000/4000000.0)));
  3974   003B9C  0E00               	movlw	0
  3975   003B9E  0104               	movlb	4	; () banked
  3976   003BA0  6F18               	movwf	24,b	;volatile
  3977   003BA2  0E00               	movlw	0
  3978   003BA4  6EC9               	movwf	201,c	;volatile
  3979   003BA6                     
  3980                           ; BSR set to: 4
  3981   003BA6  6919               	setf	25,b	;volatile
  3982   003BA8                     
  3983                           ; BSR set to: 4
  3984   003BA8  8EC1               	bsf	193,7,c	;volatile
  3985   003BAA                     
  3986                           ; BSR set to: 4
  3987   003BAA  0E05               	movlw	5
  3988   003BAC                     u2647:
  3989   003BAC  2EE8               	decfsz	wreg,f,c
  3990   003BAE  D7FE               	bra	u2647
  3991   003BB0  F000               	nop	
  3992   003BB2                     
  3993                           ;C:/Users/a_hui/OneDrive - Camosun College/term2/ecet165_embedded_mc/labs/ecet165-labs/l
      +                          ab6/lcd18f.c: 73:     LATDbits.LATD4 = 1;
  3994   003BB2  88C1               	bsf	193,4,c	;volatile
  3995   003BB4                     
  3996                           ;C:/Users/a_hui/OneDrive - Camosun College/term2/ecet165_embedded_mc/labs/ecet165-labs/l
      +                          ab6/lcd18f.c: 74:     LATDbits.LATD5 = 0;
  3997   003BB4  9AC1               	bcf	193,5,c	;volatile
  3998   003BB6                     
  3999                           ;C:/Users/a_hui/OneDrive - Camosun College/term2/ecet165_embedded_mc/labs/ecet165-labs/l
      +                          ab6/lcd18f.c: 77:     LATD = (LATD & 0xF0)|(c>>4);
  4000   003BB6  C503  F502         	movff	LCDprintc@c,??_LCDprintc
  4001   003BBA  3A02               	swapf	??_LCDprintc^(0+1280),f,c
  4002   003BBC  0E0F               	movlw	15
  4003   003BBE  1602               	andwf	??_LCDprintc^(0+1280),f,c
  4004   003BC0  50C1               	movf	193,w,c	;volatile
  4005   003BC2  0BF0               	andlw	240
  4006   003BC4  1002               	iorwf	??_LCDprintc^(0+1280),w,c
  4007   003BC6  6EC1               	movwf	193,c	;volatile
  4008   003BC8                     
  4009                           ;C:/Users/a_hui/OneDrive - Camosun College/term2/ecet165_embedded_mc/labs/ecet165-labs/l
      +                          ab6/lcd18f.c: 78:     _delay((unsigned long)((1)*(64000000/4000000.0)));
  4010   003BC8  0E05               	movlw	5
  4011   003BCA                     u2657:
  4012   003BCA  2EE8               	decfsz	wreg,f,c
  4013   003BCC  D7FE               	bra	u2657
  4014   003BCE  F000               	nop	
  4015   003BD0                     
  4016                           ;C:/Users/a_hui/OneDrive - Camosun College/term2/ecet165_embedded_mc/labs/ecet165-labs/l
      +                          ab6/lcd18f.c: 79:     LATDbits.LATD6 = 1; _delay((unsigned long)((1)*(64000000/4000000.0
      +                          ))); LATDbits.LATD6 = 0;
  4017   003BD0  8CC1               	bsf	193,6,c	;volatile
  4018   003BD2  0E05               	movlw	5
  4019   003BD4                     u2667:
  4020   003BD4  2EE8               	decfsz	wreg,f,c
  4021   003BD6  D7FE               	bra	u2667
  4022   003BD8  F000               	nop	
  4023   003BDA  9CC1               	bcf	193,6,c	;volatile
  4024   003BDC                     
  4025                           ;C:/Users/a_hui/OneDrive - Camosun College/term2/ecet165_embedded_mc/labs/ecet165-labs/l
      +                          ab6/lcd18f.c: 80:     LATD = (LATD & 0xF0)|(c & 0x0F);
  4026   003BDC  C503  F502         	movff	LCDprintc@c,??_LCDprintc
  4027   003BE0  0E0F               	movlw	15
  4028   003BE2  1602               	andwf	??_LCDprintc^(0+1280),f,c
  4029   003BE4  50C1               	movf	193,w,c	;volatile
  4030   003BE6  0BF0               	andlw	240
  4031   003BE8  1002               	iorwf	??_LCDprintc^(0+1280),w,c
  4032   003BEA  6EC1               	movwf	193,c	;volatile
  4033   003BEC                     
  4034                           ;C:/Users/a_hui/OneDrive - Camosun College/term2/ecet165_embedded_mc/labs/ecet165-labs/l
      +                          ab6/lcd18f.c: 81:     _delay((unsigned long)((1)*(64000000/4000000.0)));
  4035   003BEC  0E05               	movlw	5
  4036   003BEE                     u2677:
  4037   003BEE  2EE8               	decfsz	wreg,f,c
  4038   003BF0  D7FE               	bra	u2677
  4039   003BF2  F000               	nop	
  4040   003BF4                     
  4041                           ;C:/Users/a_hui/OneDrive - Camosun College/term2/ecet165_embedded_mc/labs/ecet165-labs/l
      +                          ab6/lcd18f.c: 82:     LATDbits.LATD6 = 1; _delay((unsigned long)((1)*(64000000/4000000.0
      +                          ))); LATDbits.LATD6 = 0;
  4042   003BF4  8CC1               	bsf	193,6,c	;volatile
  4043   003BF6  0E05               	movlw	5
  4044   003BF8                     u2687:
  4045   003BF8  2EE8               	decfsz	wreg,f,c
  4046   003BFA  D7FE               	bra	u2687
  4047   003BFC  F000               	nop	
  4048   003BFE  9CC1               	bcf	193,6,c	;volatile
  4049   003C00                     
  4050                           ;C:/Users/a_hui/OneDrive - Camosun College/term2/ecet165_embedded_mc/labs/ecet165-labs/l
      +                          ab6/lcd18f.c: 83:     _delay((unsigned long)((5)*(64000000/4000.0)));
  4051   003C00  0E68               	movlw	104
  4052   003C02  6E02               	movwf	??_LCDprintc^(0+1280),c
  4053   003C04  0EE4               	movlw	228
  4054   003C06                     u2697:
  4055   003C06  2EE8               	decfsz	wreg,f,c
  4056   003C08  D7FE               	bra	u2697
  4057   003C0A  2E02               	decfsz	??_LCDprintc^(0+1280),f,c
  4058   003C0C  D7FC               	bra	u2697
  4059   003C0E  D000               	nop2	
  4060   003C10  0012               	return		;funcret
  4061   003C12                     __end_of_LCDprintc:
  4062                           	callstack 0
  4063                           
  4064 ;; *************** function _LCDinit *****************
  4065 ;; Defined at:
  4066 ;;		line 34 in file "C:/Users/a_hui/OneDrive - Camosun College/term2/ecet165_embedded_mc/labs/ecet165-labs/lab6/lcd18f.c
      +"
  4067 ;; Parameters:    Size  Location     Type
  4068 ;;		None
  4069 ;; Auto vars:     Size  Location     Type
  4070 ;;		None
  4071 ;; Return value:  Size  Location     Type
  4072 ;;                  1    wreg      void 
  4073 ;; Registers used:
  4074 ;;		wreg, status,2, status,0, cstack
  4075 ;; Tracked objects:
  4076 ;;		On entry : 0/0
  4077 ;;		On exit  : 0/0
  4078 ;;		Unchanged: 0/0
  4079 ;; Data sizes:     COMRAM   BANK5   BANK6   BANK7   BANK8   BANK9  BANK10  BANK11  BANK12  BANK13  BANK14  BANK15  BANK1
      +6  BANK17  BANK18  BANK19  BANK20  BANK21  BANK22  BANK23  BANK24  BANK25  BANK26  BANK27  BANK28  BANK29  BANK30  BANK3
      +1  BANK32  BANK33  BANK34  BANK35  BANK36
  4080 ;;      Params:         0       0       0       0       0       0       0       0       0       0       0       0       
      +0       0       0       0       0       0       0       0       0       0       0       0       0       0       0       
      +0       0       0       0       0       0
  4081 ;;      Locals:         0       0       0       0       0       0       0       0       0       0       0       0       
      +0       0       0       0       0       0       0       0       0       0       0       0       0       0       0       
      +0       0       0       0       0       0
  4082 ;;      Temps:          2       0       0       0       0       0       0       0       0       0       0       0       
      +0       0       0       0       0       0       0       0       0       0       0       0       0       0       0       
      +0       0       0       0       0       0
  4083 ;;      Totals:         2       0       0       0       0       0       0       0       0       0       0       0       
      +0       0       0       0       0       0       0       0       0       0       0       0       0       0       0       
      +0       0       0       0       0       0
  4084 ;;Total ram usage:        2 bytes
  4085 ;; Hardware stack levels used: 1
  4086 ;; Hardware stack levels required when called: 2
  4087 ;; This function calls:
  4088 ;;		_LCDinstruct
  4089 ;; This function is called by:
  4090 ;;		_main
  4091 ;; This function uses a non-reentrant model
  4092 ;;
  4093                           
  4094                           	psect	text15
  4095   0039D4                     __ptext15:
  4096                           	callstack 0
  4097   0039D4                     _LCDinit:
  4098                           	callstack 124
  4099   0039D4                     
  4100                           ;C:/Users/a_hui/OneDrive - Camosun College/term2/ecet165_embedded_mc/labs/ecet165-labs/l
      +                          ab6/lcd18f.c: 35:     _delay((unsigned long)((50)*(64000000/4000.0)));
  4101   0039D4  0E05               	movlw	5
  4102   0039D6  6E05               	movwf	(??_LCDinit+1)^(0+1280),c
  4103   0039D8  0E0F               	movlw	15
  4104   0039DA  6E04               	movwf	??_LCDinit^(0+1280),c
  4105   0039DC  0EF1               	movlw	241
  4106   0039DE                     u2707:
  4107   0039DE  2EE8               	decfsz	wreg,f,c
  4108   0039E0  D7FE               	bra	u2707
  4109   0039E2  2E04               	decfsz	??_LCDinit^(0+1280),f,c
  4110   0039E4  D7FC               	bra	u2707
  4111   0039E6  2E05               	decfsz	(??_LCDinit+1)^(0+1280),f,c
  4112   0039E8  D7FA               	bra	u2707
  4113   0039EA  F000               	nop	
  4114   0039EC                     
  4115                           ;C:/Users/a_hui/OneDrive - Camosun College/term2/ecet165_embedded_mc/labs/ecet165-labs/l
      +                          ab6/lcd18f.c: 37:     ANSELD = 0x0; TRISD = 0x0; WPUD = 0xFF; LATDbits.LATD7 = 1; _delay
      +                          ((unsigned long)((1)*(64000000/4000000.0)));
  4116   0039EC  0E00               	movlw	0
  4117   0039EE  0104               	movlb	4	; () banked
  4118   0039F0  6F18               	movwf	24,b	;volatile
  4119   0039F2                     
  4120                           ; BSR set to: 4
  4121   0039F2  0E00               	movlw	0
  4122   0039F4  6EC9               	movwf	201,c	;volatile
  4123   0039F6                     
  4124                           ; BSR set to: 4
  4125   0039F6  6919               	setf	25,b	;volatile
  4126   0039F8                     
  4127                           ; BSR set to: 4
  4128   0039F8  8EC1               	bsf	193,7,c	;volatile
  4129   0039FA  0E05               	movlw	5
  4130   0039FC                     u2717:
  4131   0039FC  2EE8               	decfsz	wreg,f,c
  4132   0039FE  D7FE               	bra	u2717
  4133   003A00  F000               	nop	
  4134   003A02                     
  4135                           ;C:/Users/a_hui/OneDrive - Camosun College/term2/ecet165_embedded_mc/labs/ecet165-labs/l
      +                          ab6/lcd18f.c: 39:     LATDbits.LATD4 = 0;
  4136   003A02  98C1               	bcf	193,4,c	;volatile
  4137   003A04                     
  4138                           ;C:/Users/a_hui/OneDrive - Camosun College/term2/ecet165_embedded_mc/labs/ecet165-labs/l
      +                          ab6/lcd18f.c: 40:     LATDbits.LATD5 = 0;
  4139   003A04  9AC1               	bcf	193,5,c	;volatile
  4140                           
  4141                           ;C:/Users/a_hui/OneDrive - Camosun College/term2/ecet165_embedded_mc/labs/ecet165-labs/l
      +                          ab6/lcd18f.c: 42:     _delay((unsigned long)((1)*(64000000/4000000.0)));
  4142   003A06  0E05               	movlw	5
  4143   003A08                     u2727:
  4144   003A08  2EE8               	decfsz	wreg,f,c
  4145   003A0A  D7FE               	bra	u2727
  4146   003A0C  F000               	nop	
  4147   003A0E                     
  4148                           ;C:/Users/a_hui/OneDrive - Camosun College/term2/ecet165_embedded_mc/labs/ecet165-labs/l
      +                          ab6/lcd18f.c: 45:     LATD = (LATD & 0xF0) | 0x03;
  4149   003A0E  50C1               	movf	193,w,c	;volatile
  4150   003A10  0BF0               	andlw	240
  4151   003A12  0903               	iorlw	3
  4152   003A14  6EC1               	movwf	193,c	;volatile
  4153   003A16                     
  4154                           ;C:/Users/a_hui/OneDrive - Camosun College/term2/ecet165_embedded_mc/labs/ecet165-labs/l
      +                          ab6/lcd18f.c: 46:     LATDbits.LATD6 = 1; _delay((unsigned long)((1)*(64000000/4000000.0
      +                          ))); LATDbits.LATD6 = 0;
  4155   003A16  8CC1               	bsf	193,6,c	;volatile
  4156   003A18  0E05               	movlw	5
  4157   003A1A                     u2737:
  4158   003A1A  2EE8               	decfsz	wreg,f,c
  4159   003A1C  D7FE               	bra	u2737
  4160   003A1E  F000               	nop	
  4161   003A20  9CC1               	bcf	193,6,c	;volatile
  4162   003A22                     
  4163                           ;C:/Users/a_hui/OneDrive - Camosun College/term2/ecet165_embedded_mc/labs/ecet165-labs/l
      +                          ab6/lcd18f.c: 47:     _delay((unsigned long)((5)*(64000000/4000.0)));
  4164   003A22  0E68               	movlw	104
  4165   003A24  6E04               	movwf	??_LCDinit^(0+1280),c
  4166   003A26  0EE4               	movlw	228
  4167   003A28                     u2747:
  4168   003A28  2EE8               	decfsz	wreg,f,c
  4169   003A2A  D7FE               	bra	u2747
  4170   003A2C  2E04               	decfsz	??_LCDinit^(0+1280),f,c
  4171   003A2E  D7FC               	bra	u2747
  4172   003A30  D000               	nop2	
  4173   003A32                     
  4174                           ;C:/Users/a_hui/OneDrive - Camosun College/term2/ecet165_embedded_mc/labs/ecet165-labs/l
      +                          ab6/lcd18f.c: 49:     LATD = (LATD & 0xF0) | 0x03;
  4175   003A32  50C1               	movf	193,w,c	;volatile
  4176   003A34  0BF0               	andlw	240
  4177   003A36  0903               	iorlw	3
  4178   003A38  6EC1               	movwf	193,c	;volatile
  4179   003A3A                     
  4180                           ;C:/Users/a_hui/OneDrive - Camosun College/term2/ecet165_embedded_mc/labs/ecet165-labs/l
      +                          ab6/lcd18f.c: 50:     LATDbits.LATD6 = 1; _delay((unsigned long)((1)*(64000000/4000000.0
      +                          ))); LATDbits.LATD6 = 0;
  4181   003A3A  8CC1               	bsf	193,6,c	;volatile
  4182   003A3C  0E05               	movlw	5
  4183   003A3E                     u2757:
  4184   003A3E  2EE8               	decfsz	wreg,f,c
  4185   003A40  D7FE               	bra	u2757
  4186   003A42  F000               	nop	
  4187   003A44  9CC1               	bcf	193,6,c	;volatile
  4188                           
  4189                           ;C:/Users/a_hui/OneDrive - Camosun College/term2/ecet165_embedded_mc/labs/ecet165-labs/l
      +                          ab6/lcd18f.c: 51:     _delay((unsigned long)((5)*(64000000/4000.0)));
  4190   003A46  0E68               	movlw	104
  4191   003A48  6E04               	movwf	??_LCDinit^(0+1280),c
  4192   003A4A  0EE4               	movlw	228
  4193   003A4C                     u2767:
  4194   003A4C  2EE8               	decfsz	wreg,f,c
  4195   003A4E  D7FE               	bra	u2767
  4196   003A50  2E04               	decfsz	??_LCDinit^(0+1280),f,c
  4197   003A52  D7FC               	bra	u2767
  4198   003A54  D000               	nop2	
  4199   003A56                     
  4200                           ;C:/Users/a_hui/OneDrive - Camosun College/term2/ecet165_embedded_mc/labs/ecet165-labs/l
      +                          ab6/lcd18f.c: 53:     LATD = (LATD & 0xF0) | 0x03;
  4201   003A56  50C1               	movf	193,w,c	;volatile
  4202   003A58  0BF0               	andlw	240
  4203   003A5A  0903               	iorlw	3
  4204   003A5C  6EC1               	movwf	193,c	;volatile
  4205   003A5E                     
  4206                           ;C:/Users/a_hui/OneDrive - Camosun College/term2/ecet165_embedded_mc/labs/ecet165-labs/l
      +                          ab6/lcd18f.c: 54:     LATDbits.LATD6 = 1; _delay((unsigned long)((1)*(64000000/4000000.0
      +                          ))); LATDbits.LATD6 = 0;
  4207   003A5E  8CC1               	bsf	193,6,c	;volatile
  4208   003A60  0E05               	movlw	5
  4209   003A62                     u2777:
  4210   003A62  2EE8               	decfsz	wreg,f,c
  4211   003A64  D7FE               	bra	u2777
  4212   003A66  F000               	nop	
  4213   003A68  9CC1               	bcf	193,6,c	;volatile
  4214   003A6A                     
  4215                           ;C:/Users/a_hui/OneDrive - Camosun College/term2/ecet165_embedded_mc/labs/ecet165-labs/l
      +                          ab6/lcd18f.c: 55:     _delay((unsigned long)((5)*(64000000/4000.0)));
  4216   003A6A  0E68               	movlw	104
  4217   003A6C  6E04               	movwf	??_LCDinit^(0+1280),c
  4218   003A6E  0EE4               	movlw	228
  4219   003A70                     u2787:
  4220   003A70  2EE8               	decfsz	wreg,f,c
  4221   003A72  D7FE               	bra	u2787
  4222   003A74  2E04               	decfsz	??_LCDinit^(0+1280),f,c
  4223   003A76  D7FC               	bra	u2787
  4224   003A78  D000               	nop2	
  4225   003A7A                     
  4226                           ;C:/Users/a_hui/OneDrive - Camosun College/term2/ecet165_embedded_mc/labs/ecet165-labs/l
      +                          ab6/lcd18f.c: 58:     LATD = (LATD & 0xF0) | 0x02;
  4227   003A7A  50C1               	movf	193,w,c	;volatile
  4228   003A7C  0BF0               	andlw	240
  4229   003A7E  0902               	iorlw	2
  4230   003A80  6EC1               	movwf	193,c	;volatile
  4231   003A82                     
  4232                           ;C:/Users/a_hui/OneDrive - Camosun College/term2/ecet165_embedded_mc/labs/ecet165-labs/l
      +                          ab6/lcd18f.c: 59:     LATDbits.LATD6 = 1; _delay((unsigned long)((1)*(64000000/4000000.0
      +                          ))); LATDbits.LATD6 = 0;
  4233   003A82  8CC1               	bsf	193,6,c	;volatile
  4234   003A84  0E05               	movlw	5
  4235   003A86                     u2797:
  4236   003A86  2EE8               	decfsz	wreg,f,c
  4237   003A88  D7FE               	bra	u2797
  4238   003A8A  F000               	nop	
  4239   003A8C  9CC1               	bcf	193,6,c	;volatile
  4240                           
  4241                           ;C:/Users/a_hui/OneDrive - Camosun College/term2/ecet165_embedded_mc/labs/ecet165-labs/l
      +                          ab6/lcd18f.c: 60:     _delay((unsigned long)((5)*(64000000/4000.0)));
  4242   003A8E  0E68               	movlw	104
  4243   003A90  6E04               	movwf	??_LCDinit^(0+1280),c
  4244   003A92  0EE4               	movlw	228
  4245   003A94                     u2807:
  4246   003A94  2EE8               	decfsz	wreg,f,c
  4247   003A96  D7FE               	bra	u2807
  4248   003A98  2E04               	decfsz	??_LCDinit^(0+1280),f,c
  4249   003A9A  D7FC               	bra	u2807
  4250   003A9C  D000               	nop2	
  4251   003A9E                     
  4252                           ;C:/Users/a_hui/OneDrive - Camosun College/term2/ecet165_embedded_mc/labs/ecet165-labs/l
      +                          ab6/lcd18f.c: 63:     LCDinstruct(0x28);
  4253   003A9E  0E28               	movlw	40
  4254   003AA0  EC7D  F01E         	call	_LCDinstruct
  4255   003AA4                     
  4256                           ;C:/Users/a_hui/OneDrive - Camosun College/term2/ecet165_embedded_mc/labs/ecet165-labs/l
      +                          ab6/lcd18f.c: 64:     LCDinstruct(0x08);
  4257   003AA4  0E08               	movlw	8
  4258   003AA6  EC7D  F01E         	call	_LCDinstruct
  4259   003AAA                     
  4260                           ;C:/Users/a_hui/OneDrive - Camosun College/term2/ecet165_embedded_mc/labs/ecet165-labs/l
      +                          ab6/lcd18f.c: 65:     LCDinstruct(0x0F);
  4261   003AAA  0E0F               	movlw	15
  4262   003AAC  EC7D  F01E         	call	_LCDinstruct
  4263   003AB0                     
  4264                           ;C:/Users/a_hui/OneDrive - Camosun College/term2/ecet165_embedded_mc/labs/ecet165-labs/l
      +                          ab6/lcd18f.c: 66:     LCDinstruct(0x01);
  4265   003AB0  0E01               	movlw	1
  4266   003AB2  EC7D  F01E         	call	_LCDinstruct
  4267   003AB6                     
  4268                           ;C:/Users/a_hui/OneDrive - Camosun College/term2/ecet165_embedded_mc/labs/ecet165-labs/l
      +                          ab6/lcd18f.c: 67:     LCDinstruct(0x06);
  4269   003AB6  0E06               	movlw	6
  4270   003AB8  EC7D  F01E         	call	_LCDinstruct
  4271   003ABC  0012               	return		;funcret
  4272   003ABE                     __end_of_LCDinit:
  4273                           	callstack 0
  4274                           
  4275 ;; *************** function _LCDinstruct *****************
  4276 ;; Defined at:
  4277 ;;		line 15 in file "C:/Users/a_hui/OneDrive - Camosun College/term2/ecet165_embedded_mc/labs/ecet165-labs/lab6/lcd18f.c
      +"
  4278 ;; Parameters:    Size  Location     Type
  4279 ;;  instr           1    wreg     unsigned char 
  4280 ;; Auto vars:     Size  Location     Type
  4281 ;;  instr           1    2[COMRAM] unsigned char 
  4282 ;; Return value:  Size  Location     Type
  4283 ;;                  1    wreg      void 
  4284 ;; Registers used:
  4285 ;;		wreg, status,2, status,0
  4286 ;; Tracked objects:
  4287 ;;		On entry : 0/0
  4288 ;;		On exit  : 0/0
  4289 ;;		Unchanged: 0/0
  4290 ;; Data sizes:     COMRAM   BANK5   BANK6   BANK7   BANK8   BANK9  BANK10  BANK11  BANK12  BANK13  BANK14  BANK15  BANK1
      +6  BANK17  BANK18  BANK19  BANK20  BANK21  BANK22  BANK23  BANK24  BANK25  BANK26  BANK27  BANK28  BANK29  BANK30  BANK3
      +1  BANK32  BANK33  BANK34  BANK35  BANK36
  4291 ;;      Params:         0       0       0       0       0       0       0       0       0       0       0       0       
      +0       0       0       0       0       0       0       0       0       0       0       0       0       0       0       
      +0       0       0       0       0       0
  4292 ;;      Locals:         1       0       0       0       0       0       0       0       0       0       0       0       
      +0       0       0       0       0       0       0       0       0       0       0       0       0       0       0       
      +0       0       0       0       0       0
  4293 ;;      Temps:          1       0       0       0       0       0       0       0       0       0       0       0       
      +0       0       0       0       0       0       0       0       0       0       0       0       0       0       0       
      +0       0       0       0       0       0
  4294 ;;      Totals:         2       0       0       0       0       0       0       0       0       0       0       0       
      +0       0       0       0       0       0       0       0       0       0       0       0       0       0       0       
      +0       0       0       0       0       0
  4295 ;;Total ram usage:        2 bytes
  4296 ;; Hardware stack levels used: 1
  4297 ;; Hardware stack levels required when called: 1
  4298 ;; This function calls:
  4299 ;;		Nothing
  4300 ;; This function is called by:
  4301 ;;		_LCDinit
  4302 ;;		_main
  4303 ;;		_RTCrun
  4304 ;;		_LCDgoto
  4305 ;; This function uses a non-reentrant model
  4306 ;;
  4307                           
  4308                           	psect	text16
  4309   003CFA                     __ptext16:
  4310                           	callstack 0
  4311   003CFA                     _LCDinstruct:
  4312                           	callstack 125
  4313                           
  4314                           ;incstack = 0
  4315                           ;LCDinstruct@instr stored from wreg
  4316   003CFA  6E03               	movwf	LCDinstruct@instr^(0+1280),c
  4317   003CFC                     
  4318                           ;C:/Users/a_hui/OneDrive - Camosun College/term2/ecet165_embedded_mc/labs/ecet165-labs/l
      +                          ab6/lcd18f.c: 17:     ANSELD = 0x0; TRISD = 0x0; WPUD = 0xFF; LATDbits.LATD7 = 1; _delay
      +                          ((unsigned long)((1)*(64000000/4000000.0)));
  4319   003CFC  0E00               	movlw	0
  4320   003CFE  0104               	movlb	4	; () banked
  4321   003D00  6F18               	movwf	24,b	;volatile
  4322   003D02  0E00               	movlw	0
  4323   003D04  6EC9               	movwf	201,c	;volatile
  4324   003D06                     
  4325                           ; BSR set to: 4
  4326   003D06  6919               	setf	25,b	;volatile
  4327   003D08                     
  4328                           ; BSR set to: 4
  4329   003D08  8EC1               	bsf	193,7,c	;volatile
  4330   003D0A                     
  4331                           ; BSR set to: 4
  4332   003D0A  0E05               	movlw	5
  4333   003D0C                     u2817:
  4334   003D0C  2EE8               	decfsz	wreg,f,c
  4335   003D0E  D7FE               	bra	u2817
  4336   003D10  F000               	nop	
  4337   003D12                     
  4338                           ;C:/Users/a_hui/OneDrive - Camosun College/term2/ecet165_embedded_mc/labs/ecet165-labs/l
      +                          ab6/lcd18f.c: 20:     LATDbits.LATD5 = 0;
  4339   003D12  9AC1               	bcf	193,5,c	;volatile
  4340   003D14                     
  4341                           ;C:/Users/a_hui/OneDrive - Camosun College/term2/ecet165_embedded_mc/labs/ecet165-labs/l
      +                          ab6/lcd18f.c: 21:     LATDbits.LATD4 = 0;
  4342   003D14  98C1               	bcf	193,4,c	;volatile
  4343   003D16                     
  4344                           ;C:/Users/a_hui/OneDrive - Camosun College/term2/ecet165_embedded_mc/labs/ecet165-labs/l
      +                          ab6/lcd18f.c: 24:     LATD = (LATD & 0xF0)| (instr >> 4 & 0x0F);
  4345   003D16  C503  F502         	movff	LCDinstruct@instr,??_LCDinstruct
  4346   003D1A  3A02               	swapf	??_LCDinstruct^(0+1280),f,c
  4347   003D1C  0E0F               	movlw	15
  4348   003D1E  1602               	andwf	??_LCDinstruct^(0+1280),f,c
  4349   003D20  0E0F               	movlw	15
  4350   003D22  1602               	andwf	??_LCDinstruct^(0+1280),f,c
  4351   003D24  50C1               	movf	193,w,c	;volatile
  4352   003D26  0BF0               	andlw	240
  4353   003D28  1002               	iorwf	??_LCDinstruct^(0+1280),w,c
  4354   003D2A  6EC1               	movwf	193,c	;volatile
  4355   003D2C                     
  4356                           ;C:/Users/a_hui/OneDrive - Camosun College/term2/ecet165_embedded_mc/labs/ecet165-labs/l
      +                          ab6/lcd18f.c: 25:     LATDbits.LATD6 = 1; _delay((unsigned long)((1)*(64000000/4000000.0
      +                          ))); LATDbits.LATD6 = 0;
  4357   003D2C  8CC1               	bsf	193,6,c	;volatile
  4358   003D2E  0E05               	movlw	5
  4359   003D30                     u2827:
  4360   003D30  2EE8               	decfsz	wreg,f,c
  4361   003D32  D7FE               	bra	u2827
  4362   003D34  F000               	nop	
  4363   003D36  9CC1               	bcf	193,6,c	;volatile
  4364   003D38                     
  4365                           ;C:/Users/a_hui/OneDrive - Camosun College/term2/ecet165_embedded_mc/labs/ecet165-labs/l
      +                          ab6/lcd18f.c: 26:     _delay((unsigned long)((1)*(64000000/4000000.0)));
  4366   003D38  0E05               	movlw	5
  4367   003D3A                     u2837:
  4368   003D3A  2EE8               	decfsz	wreg,f,c
  4369   003D3C  D7FE               	bra	u2837
  4370   003D3E  F000               	nop	
  4371   003D40                     
  4372                           ;C:/Users/a_hui/OneDrive - Camosun College/term2/ecet165_embedded_mc/labs/ecet165-labs/l
      +                          ab6/lcd18f.c: 27:     LATD = (LATD & 0xF0)|(instr & 0x0F);
  4373   003D40  C503  F502         	movff	LCDinstruct@instr,??_LCDinstruct
  4374   003D44  0E0F               	movlw	15
  4375   003D46  1602               	andwf	??_LCDinstruct^(0+1280),f,c
  4376   003D48  50C1               	movf	193,w,c	;volatile
  4377   003D4A  0BF0               	andlw	240
  4378   003D4C  1002               	iorwf	??_LCDinstruct^(0+1280),w,c
  4379   003D4E  6EC1               	movwf	193,c	;volatile
  4380   003D50                     
  4381                           ;C:/Users/a_hui/OneDrive - Camosun College/term2/ecet165_embedded_mc/labs/ecet165-labs/l
      +                          ab6/lcd18f.c: 28:     LATDbits.LATD6 = 1; _delay((unsigned long)((1)*(64000000/4000000.0
      +                          ))); LATDbits.LATD6 = 0;
  4382   003D50  8CC1               	bsf	193,6,c	;volatile
  4383   003D52  0E05               	movlw	5
  4384   003D54                     u2847:
  4385   003D54  2EE8               	decfsz	wreg,f,c
  4386   003D56  D7FE               	bra	u2847
  4387   003D58  F000               	nop	
  4388   003D5A  9CC1               	bcf	193,6,c	;volatile
  4389   003D5C                     
  4390                           ;C:/Users/a_hui/OneDrive - Camosun College/term2/ecet165_embedded_mc/labs/ecet165-labs/l
      +                          ab6/lcd18f.c: 29:     _delay((unsigned long)((5)*(64000000/4000.0)));
  4391   003D5C  0E68               	movlw	104
  4392   003D5E  6E02               	movwf	??_LCDinstruct^(0+1280),c
  4393   003D60  0EE4               	movlw	228
  4394   003D62                     u2857:
  4395   003D62  2EE8               	decfsz	wreg,f,c
  4396   003D64  D7FE               	bra	u2857
  4397   003D66  2E02               	decfsz	??_LCDinstruct^(0+1280),f,c
  4398   003D68  D7FC               	bra	u2857
  4399   003D6A  D000               	nop2	
  4400   003D6C  0012               	return		;funcret
  4401   003D6E                     __end_of_LCDinstruct:
  4402                           	callstack 0
  4403                           
  4404 ;; *************** function _setINT *****************
  4405 ;; Defined at:
  4406 ;;		line 80 in file "C:/Users/a_hui/OneDrive - Camosun College/term2/ecet165_embedded_mc/labs/ecet165-labs/lab9/RealTime
      +Clock.c"
  4407 ;; Parameters:    Size  Location     Type
  4408 ;;		None
  4409 ;; Auto vars:     Size  Location     Type
  4410 ;;		None
  4411 ;; Return value:  Size  Location     Type
  4412 ;;                  1    wreg      void 
  4413 ;; Registers used:
  4414 ;;		wreg, status,2
  4415 ;; Tracked objects:
  4416 ;;		On entry : 0/0
  4417 ;;		On exit  : 0/0
  4418 ;;		Unchanged: 0/0
  4419 ;; Data sizes:     COMRAM   BANK5   BANK6   BANK7   BANK8   BANK9  BANK10  BANK11  BANK12  BANK13  BANK14  BANK15  BANK1
      +6  BANK17  BANK18  BANK19  BANK20  BANK21  BANK22  BANK23  BANK24  BANK25  BANK26  BANK27  BANK28  BANK29  BANK30  BANK3
      +1  BANK32  BANK33  BANK34  BANK35  BANK36
  4420 ;;      Params:         0       0       0       0       0       0       0       0       0       0       0       0       
      +0       0       0       0       0       0       0       0       0       0       0       0       0       0       0       
      +0       0       0       0       0       0
  4421 ;;      Locals:         0       0       0       0       0       0       0       0       0       0       0       0       
      +0       0       0       0       0       0       0       0       0       0       0       0       0       0       0       
      +0       0       0       0       0       0
  4422 ;;      Temps:          1       0       0       0       0       0       0       0       0       0       0       0       
      +0       0       0       0       0       0       0       0       0       0       0       0       0       0       0       
      +0       0       0       0       0       0
  4423 ;;      Totals:         1       0       0       0       0       0       0       0       0       0       0       0       
      +0       0       0       0       0       0       0       0       0       0       0       0       0       0       0       
      +0       0       0       0       0       0
  4424 ;;Total ram usage:        1 bytes
  4425 ;; Hardware stack levels used: 1
  4426 ;; This function calls:
  4427 ;;		Nothing
  4428 ;; This function is called by:
  4429 ;;		Interrupt level 1
  4430 ;; This function uses a non-reentrant model
  4431 ;;
  4432                           
  4433                           	psect	text17
  4434   003EEC                     __ptext17:
  4435                           	callstack 0
  4436   003EEC                     _setINT:
  4437                           	callstack 123
  4438                           
  4439                           ;incstack = 0
  4440   003EEC  C4D8 F501          	movff	status,??_setINT
  4441   003EF0                     
  4442                           ;C:/Users/a_hui/OneDrive - Camosun College/term2/ecet165_embedded_mc/labs/ecet165-labs/l
      +                          ab9/RealTimeClock.c: 81:     IOCBN4 = 0;
  4443   003EF0  0104               	movlb	4	; () banked
  4444   003EF2  990E               	bcf	14,4,b	;volatile
  4445                           
  4446                           ;C:/Users/a_hui/OneDrive - Camosun College/term2/ecet165_embedded_mc/labs/ecet165-labs/l
      +                          ab9/RealTimeClock.c: 82:     IOCBF4 = 0;
  4447   003EF4  990F               	bcf	15,4,b	;volatile
  4448                           
  4449                           ;C:/Users/a_hui/OneDrive - Camosun College/term2/ecet165_embedded_mc/labs/ecet165-labs/l
      +                          ab9/RealTimeClock.c: 83:     T0CON0bits.EN = 0;
  4450   003EF6  0103               	movlb	3	; () banked
  4451   003EF8  9F1A               	bcf	26,7,b	;volatile
  4452   003EFA                     
  4453                           ; BSR set to: 3
  4454                           ;C:/Users/a_hui/OneDrive - Camosun College/term2/ecet165_embedded_mc/labs/ecet165-labs/l
      +                          ab9/RealTimeClock.c: 84:     nSetRTC = 0;
  4455   003EFA  0E00               	movlw	0
  4456   003EFC  6E5D               	movwf	_nSetRTC^(0+1280),c
  4457   003EFE                     
  4458                           ; BSR set to: 3
  4459   003EFE  C501  F4D8         	movff	??_setINT,status
  4460   003F02  0011               	retfie		f
  4461   003F04                     __end_of_setINT:
  4462                           	callstack 0
  4463                           
  4464                           ;
  4465                           ; Interrupt Vector Table @ 0x8
  4466                           ;
  4467                           
  4468                           	psect	ivt0x8
  4469   000008                     __pivt0x8:
  4470                           	callstack 0
  4471   000008                     ivt0x8_base:
  4472                           	callstack 0
  4473                           
  4474                           ; Vector 0 : SWINT
  4475   000008  0040               	dw	ivt0x8_undefint shr (0+2)
  4476                           
  4477                           ; Vector 1 : HLVD
  4478   00000A  0040               	dw	ivt0x8_undefint shr (0+2)
  4479                           
  4480                           ; Vector 2 : OSF
  4481   00000C  0040               	dw	ivt0x8_undefint shr (0+2)
  4482                           
  4483                           ; Vector 3 : CSW
  4484   00000E  0040               	dw	ivt0x8_undefint shr (0+2)
  4485                           
  4486                           ; Vector 4 : Undefined
  4487   000010  0040               	dw	ivt0x8_undefint shr (0+2)
  4488                           
  4489                           ; Vector 5 : CLC1
  4490   000012  0040               	dw	ivt0x8_undefint shr (0+2)
  4491                           
  4492                           ; Vector 6 : Undefined
  4493   000014  0040               	dw	ivt0x8_undefint shr (0+2)
  4494                           
  4495                           ; Vector 7 : IOC
  4496   000016  0FBB               	dw	_setINT shr (0+2)
  4497                           
  4498                           ; Vector 8 : INT0
  4499   000018  0040               	dw	ivt0x8_undefint shr (0+2)
  4500                           
  4501                           ; Vector 9 : ZCD
  4502   00001A  0040               	dw	ivt0x8_undefint shr (0+2)
  4503                           
  4504                           ; Vector 10 : AD
  4505   00001C  0040               	dw	ivt0x8_undefint shr (0+2)
  4506                           
  4507                           ; Vector 11 : ACT
  4508   00001E  0040               	dw	ivt0x8_undefint shr (0+2)
  4509                           
  4510                           ; Vector 12 : CMP1
  4511   000020  0040               	dw	ivt0x8_undefint shr (0+2)
  4512                           
  4513                           ; Vector 13 : SMT1
  4514   000022  0040               	dw	ivt0x8_undefint shr (0+2)
  4515                           
  4516                           ; Vector 14 : SMT1PRA
  4517   000024  0040               	dw	ivt0x8_undefint shr (0+2)
  4518                           
  4519                           ; Vector 15 : SMT1PRW
  4520   000026  0040               	dw	ivt0x8_undefint shr (0+2)
  4521                           
  4522                           ; Vector 16 : ADT
  4523   000028  0040               	dw	ivt0x8_undefint shr (0+2)
  4524                           
  4525                           ; Vector 17 : Undefined
  4526   00002A  0040               	dw	ivt0x8_undefint shr (0+2)
  4527                           
  4528                           ; Vector 18 : Undefined
  4529   00002C  0040               	dw	ivt0x8_undefint shr (0+2)
  4530                           
  4531                           ; Vector 19 : Undefined
  4532   00002E  0040               	dw	ivt0x8_undefint shr (0+2)
  4533                           
  4534                           ; Vector 20 : DMA1SCNT
  4535   000030  0040               	dw	ivt0x8_undefint shr (0+2)
  4536                           
  4537                           ; Vector 21 : DMA1DCNT
  4538   000032  0040               	dw	ivt0x8_undefint shr (0+2)
  4539                           
  4540                           ; Vector 22 : DMA1OR
  4541   000034  0040               	dw	ivt0x8_undefint shr (0+2)
  4542                           
  4543                           ; Vector 23 : DMA1A
  4544   000036  0040               	dw	ivt0x8_undefint shr (0+2)
  4545                           
  4546                           ; Vector 24 : SPI1RX
  4547   000038  0040               	dw	ivt0x8_undefint shr (0+2)
  4548                           
  4549                           ; Vector 25 : SPI1TX
  4550   00003A  0040               	dw	ivt0x8_undefint shr (0+2)
  4551                           
  4552                           ; Vector 26 : SPI1
  4553   00003C  0040               	dw	ivt0x8_undefint shr (0+2)
  4554                           
  4555                           ; Vector 27 : TMR2
  4556   00003E  0040               	dw	ivt0x8_undefint shr (0+2)
  4557                           
  4558                           ; Vector 28 : TMR1
  4559   000040  0040               	dw	ivt0x8_undefint shr (0+2)
  4560                           
  4561                           ; Vector 29 : TMR1G
  4562   000042  0040               	dw	ivt0x8_undefint shr (0+2)
  4563                           
  4564                           ; Vector 30 : CCP1
  4565   000044  0040               	dw	ivt0x8_undefint shr (0+2)
  4566                           
  4567                           ; Vector 31 : TMR0
  4568   000046  0040               	dw	ivt0x8_undefint shr (0+2)
  4569                           
  4570                           ; Vector 32 : U1RX
  4571   000048  0040               	dw	ivt0x8_undefint shr (0+2)
  4572                           
  4573                           ; Vector 33 : U1TX
  4574   00004A  0040               	dw	ivt0x8_undefint shr (0+2)
  4575                           
  4576                           ; Vector 34 : U1E
  4577   00004C  0040               	dw	ivt0x8_undefint shr (0+2)
  4578                           
  4579                           ; Vector 35 : U1
  4580   00004E  0040               	dw	ivt0x8_undefint shr (0+2)
  4581                           
  4582                           ; Vector 36 : Undefined
  4583   000050  0040               	dw	ivt0x8_undefint shr (0+2)
  4584                           
  4585                           ; Vector 37 : Undefined
  4586   000052  0040               	dw	ivt0x8_undefint shr (0+2)
  4587                           
  4588                           ; Vector 38 : PWM1PR
  4589   000054  0040               	dw	ivt0x8_undefint shr (0+2)
  4590                           
  4591                           ; Vector 39 : PWM1
  4592   000056  0040               	dw	ivt0x8_undefint shr (0+2)
  4593                           
  4594                           ; Vector 40 : SPI2RX
  4595   000058  0040               	dw	ivt0x8_undefint shr (0+2)
  4596                           
  4597                           ; Vector 41 : SPI2TX
  4598   00005A  0040               	dw	ivt0x8_undefint shr (0+2)
  4599                           
  4600                           ; Vector 42 : SPI2
  4601   00005C  0040               	dw	ivt0x8_undefint shr (0+2)
  4602                           
  4603                           ; Vector 43 : Undefined
  4604   00005E  0040               	dw	ivt0x8_undefint shr (0+2)
  4605                           
  4606                           ; Vector 44 : TMR3
  4607   000060  0040               	dw	ivt0x8_undefint shr (0+2)
  4608                           
  4609                           ; Vector 45 : TMR3G
  4610   000062  0040               	dw	ivt0x8_undefint shr (0+2)
  4611                           
  4612                           ; Vector 46 : PWM2PR
  4613   000064  0040               	dw	ivt0x8_undefint shr (0+2)
  4614                           
  4615                           ; Vector 47 : PWM2
  4616   000066  0040               	dw	ivt0x8_undefint shr (0+2)
  4617                           
  4618                           ; Vector 48 : INT1
  4619   000068  0040               	dw	ivt0x8_undefint shr (0+2)
  4620                           
  4621                           ; Vector 49 : CLC2
  4622   00006A  0040               	dw	ivt0x8_undefint shr (0+2)
  4623                           
  4624                           ; Vector 50 : CWG1
  4625   00006C  0040               	dw	ivt0x8_undefint shr (0+2)
  4626                           
  4627                           ; Vector 51 : NCO1
  4628   00006E  0040               	dw	ivt0x8_undefint shr (0+2)
  4629                           
  4630                           ; Vector 52 : DMA2SCNT
  4631   000070  0040               	dw	ivt0x8_undefint shr (0+2)
  4632                           
  4633                           ; Vector 53 : DMA2DCNT
  4634   000072  0040               	dw	ivt0x8_undefint shr (0+2)
  4635                           
  4636                           ; Vector 54 : DMA2OR
  4637   000074  0040               	dw	ivt0x8_undefint shr (0+2)
  4638                           
  4639                           ; Vector 55 : DMA2A
  4640   000076  0040               	dw	ivt0x8_undefint shr (0+2)
  4641                           
  4642                           ; Vector 56 : I2C1RX
  4643   000078  0040               	dw	ivt0x8_undefint shr (0+2)
  4644                           
  4645                           ; Vector 57 : I2C1TX
  4646   00007A  0040               	dw	ivt0x8_undefint shr (0+2)
  4647                           
  4648                           ; Vector 58 : I2C1
  4649   00007C  0040               	dw	ivt0x8_undefint shr (0+2)
  4650                           
  4651                           ; Vector 59 : I2C1E
  4652   00007E  0040               	dw	ivt0x8_undefint shr (0+2)
  4653                           
  4654                           ; Vector 60 : Undefined
  4655   000080  0040               	dw	ivt0x8_undefint shr (0+2)
  4656                           
  4657                           ; Vector 61 : CLC3
  4658   000082  0040               	dw	ivt0x8_undefint shr (0+2)
  4659                           
  4660                           ; Vector 62 : PWM3PR
  4661   000084  0040               	dw	ivt0x8_undefint shr (0+2)
  4662                           
  4663                           ; Vector 63 : PWM3
  4664   000086  0040               	dw	ivt0x8_undefint shr (0+2)
  4665                           
  4666                           ; Vector 64 : U2RX
  4667   000088  0040               	dw	ivt0x8_undefint shr (0+2)
  4668                           
  4669                           ; Vector 65 : U2TX
  4670   00008A  0040               	dw	ivt0x8_undefint shr (0+2)
  4671                           
  4672                           ; Vector 66 : U2E
  4673   00008C  0040               	dw	ivt0x8_undefint shr (0+2)
  4674                           
  4675                           ; Vector 67 : U2
  4676   00008E  0040               	dw	ivt0x8_undefint shr (0+2)
  4677                           
  4678                           ; Vector 68 : TMR5
  4679   000090  0040               	dw	ivt0x8_undefint shr (0+2)
  4680                           
  4681                           ; Vector 69 : TMR5G
  4682   000092  0040               	dw	ivt0x8_undefint shr (0+2)
  4683                           
  4684                           ; Vector 70 : CCP2
  4685   000094  0040               	dw	ivt0x8_undefint shr (0+2)
  4686                           
  4687                           ; Vector 71 : SCAN
  4688   000096  0040               	dw	ivt0x8_undefint shr (0+2)
  4689                           
  4690                           ; Vector 72 : U3RX
  4691   000098  0040               	dw	ivt0x8_undefint shr (0+2)
  4692                           
  4693                           ; Vector 73 : U3TX
  4694   00009A  0040               	dw	ivt0x8_undefint shr (0+2)
  4695                           
  4696                           ; Vector 74 : U3E
  4697   00009C  0040               	dw	ivt0x8_undefint shr (0+2)
  4698                           
  4699                           ; Vector 75 : U3
  4700   00009E  0040               	dw	ivt0x8_undefint shr (0+2)
  4701                           
  4702                           ; Vector 76 : Undefined
  4703   0000A0  0040               	dw	ivt0x8_undefint shr (0+2)
  4704                           
  4705                           ; Vector 77 : CLC4
  4706   0000A2  0040               	dw	ivt0x8_undefint shr (0+2)
  4707                           
  4708                           ; Vector 78 : Undefined
  4709   0000A4  0040               	dw	ivt0x8_undefint shr (0+2)
  4710                           
  4711                           ; Vector 79 : Undefined
  4712   0000A6  0040               	dw	ivt0x8_undefint shr (0+2)
  4713                           
  4714                           ; Vector 80 : INT2
  4715   0000A8  0040               	dw	ivt0x8_undefint shr (0+2)
  4716                           
  4717                           ; Vector 81 : CLC5
  4718   0000AA  0040               	dw	ivt0x8_undefint shr (0+2)
  4719                           
  4720                           ; Vector 82 : CWG2
  4721   0000AC  0040               	dw	ivt0x8_undefint shr (0+2)
  4722                           
  4723                           ; Vector 83 : NCO2
  4724   0000AE  0040               	dw	ivt0x8_undefint shr (0+2)
  4725                           
  4726                           ; Vector 84 : DMA3SCNT
  4727   0000B0  0040               	dw	ivt0x8_undefint shr (0+2)
  4728                           
  4729                           ; Vector 85 : DMA3DCNT
  4730   0000B2  0040               	dw	ivt0x8_undefint shr (0+2)
  4731                           
  4732                           ; Vector 86 : DMA3OR
  4733   0000B4  0040               	dw	ivt0x8_undefint shr (0+2)
  4734                           
  4735                           ; Vector 87 : DMA3A
  4736   0000B6  0040               	dw	ivt0x8_undefint shr (0+2)
  4737                           
  4738                           ; Vector 88 : CCP3
  4739   0000B8  0040               	dw	ivt0x8_undefint shr (0+2)
  4740                           
  4741                           ; Vector 89 : CLC6
  4742   0000BA  0040               	dw	ivt0x8_undefint shr (0+2)
  4743                           
  4744                           ; Vector 90 : CWG3
  4745   0000BC  0040               	dw	ivt0x8_undefint shr (0+2)
  4746                           
  4747                           ; Vector 91 : TMR4
  4748   0000BE  0040               	dw	ivt0x8_undefint shr (0+2)
  4749                           
  4750                           ; Vector 92 : DMA4SCNT
  4751   0000C0  0040               	dw	ivt0x8_undefint shr (0+2)
  4752                           
  4753                           ; Vector 93 : DMA4DCNT
  4754   0000C2  0040               	dw	ivt0x8_undefint shr (0+2)
  4755                           
  4756                           ; Vector 94 : DMA4OR
  4757   0000C4  0040               	dw	ivt0x8_undefint shr (0+2)
  4758                           
  4759                           ; Vector 95 : DMA4A
  4760   0000C6  0040               	dw	ivt0x8_undefint shr (0+2)
  4761                           
  4762                           ; Vector 96 : U4RX
  4763   0000C8  0040               	dw	ivt0x8_undefint shr (0+2)
  4764                           
  4765                           ; Vector 97 : U4TX
  4766   0000CA  0040               	dw	ivt0x8_undefint shr (0+2)
  4767                           
  4768                           ; Vector 98 : U4E
  4769   0000CC  0040               	dw	ivt0x8_undefint shr (0+2)
  4770                           
  4771                           ; Vector 99 : U4
  4772   0000CE  0040               	dw	ivt0x8_undefint shr (0+2)
  4773                           
  4774                           ; Vector 100 : DMA5SCNT
  4775   0000D0  0040               	dw	ivt0x8_undefint shr (0+2)
  4776                           
  4777                           ; Vector 101 : DMA5DCNT
  4778   0000D2  0040               	dw	ivt0x8_undefint shr (0+2)
  4779                           
  4780                           ; Vector 102 : DMA5OR
  4781   0000D4  0040               	dw	ivt0x8_undefint shr (0+2)
  4782                           
  4783                           ; Vector 103 : DMA5A
  4784   0000D6  0040               	dw	ivt0x8_undefint shr (0+2)
  4785                           
  4786                           ; Vector 104 : U5RX
  4787   0000D8  0040               	dw	ivt0x8_undefint shr (0+2)
  4788                           
  4789                           ; Vector 105 : U5TX
  4790   0000DA  0040               	dw	ivt0x8_undefint shr (0+2)
  4791                           
  4792                           ; Vector 106 : U5E
  4793   0000DC  0040               	dw	ivt0x8_undefint shr (0+2)
  4794                           
  4795                           ; Vector 107 : U5
  4796   0000DE  0040               	dw	ivt0x8_undefint shr (0+2)
  4797                           
  4798                           ; Vector 108 : DMA6SCNT
  4799   0000E0  0040               	dw	ivt0x8_undefint shr (0+2)
  4800                           
  4801                           ; Vector 109 : DMA6DCNT
  4802   0000E2  0040               	dw	ivt0x8_undefint shr (0+2)
  4803                           
  4804                           ; Vector 110 : DMA6OR
  4805   0000E4  0040               	dw	ivt0x8_undefint shr (0+2)
  4806                           
  4807                           ; Vector 111 : DMA6A
  4808   0000E6  0040               	dw	ivt0x8_undefint shr (0+2)
  4809                           
  4810                           ; Vector 112 : Undefined
  4811   0000E8  0040               	dw	ivt0x8_undefint shr (0+2)
  4812                           
  4813                           ; Vector 113 : CLC7
  4814   0000EA  0040               	dw	ivt0x8_undefint shr (0+2)
  4815                           
  4816                           ; Vector 114 : CMP2
  4817   0000EC  0040               	dw	ivt0x8_undefint shr (0+2)
  4818                           
  4819                           ; Vector 115 : NCO3
  4820   0000EE  0040               	dw	ivt0x8_undefint shr (0+2)
  4821                           
  4822                           ; Vector 116 : Undefined
  4823   0000F0  0040               	dw	ivt0x8_undefint shr (0+2)
  4824                           
  4825                           ; Vector 117 : Undefined
  4826   0000F2  0040               	dw	ivt0x8_undefint shr (0+2)
  4827                           
  4828                           ; Vector 118 : Undefined
  4829   0000F4  0040               	dw	ivt0x8_undefint shr (0+2)
  4830                           
  4831                           ; Vector 119 : Undefined
  4832   0000F6  0040               	dw	ivt0x8_undefint shr (0+2)
  4833                           
  4834                           ; Vector 120 : NVM
  4835   0000F8  0040               	dw	ivt0x8_undefint shr (0+2)
  4836                           
  4837                           ; Vector 121 : CLC8
  4838   0000FA  0040               	dw	ivt0x8_undefint shr (0+2)
  4839                           
  4840                           ; Vector 122 : CRC
  4841   0000FC  0040               	dw	ivt0x8_undefint shr (0+2)
  4842                           
  4843                           ; Vector 123 : TMR6
  4844   0000FE  0040               	dw	ivt0x8_undefint shr (0+2)
  4845   000100                     ivt0x8_undefint:
  4846                           	callstack 0
  4847   000100  00FF               	reset	
  4848                           
  4849                           	psect	rparam
  4850   000000                     
  4851                           	psect	idloc
  4852                           
  4853                           ;Config register IDLOC0 @ 0x200000
  4854                           ;	unspecified, using default values
  4855   200000                     	org	2097152
  4856   200000  FFFF               	dw	65535
  4857                           
  4858                           ;Config register IDLOC1 @ 0x200002
  4859                           ;	unspecified, using default values
  4860   200002                     	org	2097154
  4861   200002  FFFF               	dw	65535
  4862                           
  4863                           ;Config register IDLOC2 @ 0x200004
  4864                           ;	unspecified, using default values
  4865   200004                     	org	2097156
  4866   200004  FFFF               	dw	65535
  4867                           
  4868                           ;Config register IDLOC3 @ 0x200006
  4869                           ;	unspecified, using default values
  4870   200006                     	org	2097158
  4871   200006  FFFF               	dw	65535
  4872                           
  4873                           ;Config register IDLOC4 @ 0x200008
  4874                           ;	unspecified, using default values
  4875   200008                     	org	2097160
  4876   200008  FFFF               	dw	65535
  4877                           
  4878                           ;Config register IDLOC5 @ 0x20000A
  4879                           ;	unspecified, using default values
  4880   20000A                     	org	2097162
  4881   20000A  FFFF               	dw	65535
  4882                           
  4883                           ;Config register IDLOC6 @ 0x20000C
  4884                           ;	unspecified, using default values
  4885   20000C                     	org	2097164
  4886   20000C  FFFF               	dw	65535
  4887                           
  4888                           ;Config register IDLOC7 @ 0x20000E
  4889                           ;	unspecified, using default values
  4890   20000E                     	org	2097166
  4891   20000E  FFFF               	dw	65535
  4892                           
  4893                           ;Config register IDLOC8 @ 0x200010
  4894                           ;	unspecified, using default values
  4895   200010                     	org	2097168
  4896   200010  FFFF               	dw	65535
  4897                           
  4898                           ;Config register IDLOC9 @ 0x200012
  4899                           ;	unspecified, using default values
  4900   200012                     	org	2097170
  4901   200012  FFFF               	dw	65535
  4902                           
  4903                           ;Config register IDLOC10 @ 0x200014
  4904                           ;	unspecified, using default values
  4905   200014                     	org	2097172
  4906   200014  FFFF               	dw	65535
  4907                           
  4908                           ;Config register IDLOC11 @ 0x200016
  4909                           ;	unspecified, using default values
  4910   200016                     	org	2097174
  4911   200016  FFFF               	dw	65535
  4912                           
  4913                           ;Config register IDLOC12 @ 0x200018
  4914                           ;	unspecified, using default values
  4915   200018                     	org	2097176
  4916   200018  FFFF               	dw	65535
  4917                           
  4918                           ;Config register IDLOC13 @ 0x20001A
  4919                           ;	unspecified, using default values
  4920   20001A                     	org	2097178
  4921   20001A  FFFF               	dw	65535
  4922                           
  4923                           ;Config register IDLOC14 @ 0x20001C
  4924                           ;	unspecified, using default values
  4925   20001C                     	org	2097180
  4926   20001C  FFFF               	dw	65535
  4927                           
  4928                           ;Config register IDLOC15 @ 0x20001E
  4929                           ;	unspecified, using default values
  4930   20001E                     	org	2097182
  4931   20001E  FFFF               	dw	65535
  4932                           
  4933                           ;Config register IDLOC16 @ 0x200020
  4934                           ;	unspecified, using default values
  4935   200020                     	org	2097184
  4936   200020  FFFF               	dw	65535
  4937                           
  4938                           ;Config register IDLOC17 @ 0x200022
  4939                           ;	unspecified, using default values
  4940   200022                     	org	2097186
  4941   200022  FFFF               	dw	65535
  4942                           
  4943                           ;Config register IDLOC18 @ 0x200024
  4944                           ;	unspecified, using default values
  4945   200024                     	org	2097188
  4946   200024  FFFF               	dw	65535
  4947                           
  4948                           ;Config register IDLOC19 @ 0x200026
  4949                           ;	unspecified, using default values
  4950   200026                     	org	2097190
  4951   200026  FFFF               	dw	65535
  4952                           
  4953                           ;Config register IDLOC20 @ 0x200028
  4954                           ;	unspecified, using default values
  4955   200028                     	org	2097192
  4956   200028  FFFF               	dw	65535
  4957                           
  4958                           ;Config register IDLOC21 @ 0x20002A
  4959                           ;	unspecified, using default values
  4960   20002A                     	org	2097194
  4961   20002A  FFFF               	dw	65535
  4962                           
  4963                           ;Config register IDLOC22 @ 0x20002C
  4964                           ;	unspecified, using default values
  4965   20002C                     	org	2097196
  4966   20002C  FFFF               	dw	65535
  4967                           
  4968                           ;Config register IDLOC23 @ 0x20002E
  4969                           ;	unspecified, using default values
  4970   20002E                     	org	2097198
  4971   20002E  FFFF               	dw	65535
  4972                           
  4973                           ;Config register IDLOC24 @ 0x200030
  4974                           ;	unspecified, using default values
  4975   200030                     	org	2097200
  4976   200030  FFFF               	dw	65535
  4977                           
  4978                           ;Config register IDLOC25 @ 0x200032
  4979                           ;	unspecified, using default values
  4980   200032                     	org	2097202
  4981   200032  FFFF               	dw	65535
  4982                           
  4983                           ;Config register IDLOC26 @ 0x200034
  4984                           ;	unspecified, using default values
  4985   200034                     	org	2097204
  4986   200034  FFFF               	dw	65535
  4987                           
  4988                           ;Config register IDLOC27 @ 0x200036
  4989                           ;	unspecified, using default values
  4990   200036                     	org	2097206
  4991   200036  FFFF               	dw	65535
  4992                           
  4993                           ;Config register IDLOC28 @ 0x200038
  4994                           ;	unspecified, using default values
  4995   200038                     	org	2097208
  4996   200038  FFFF               	dw	65535
  4997                           
  4998                           ;Config register IDLOC29 @ 0x20003A
  4999                           ;	unspecified, using default values
  5000   20003A                     	org	2097210
  5001   20003A  FFFF               	dw	65535
  5002                           
  5003                           ;Config register IDLOC30 @ 0x20003C
  5004                           ;	unspecified, using default values
  5005   20003C                     	org	2097212
  5006   20003C  FFFF               	dw	65535
  5007                           
  5008                           ;Config register IDLOC31 @ 0x20003E
  5009                           ;	unspecified, using default values
  5010   20003E                     	org	2097214
  5011   20003E  FFFF               	dw	65535
  5012                           
  5013                           	psect	config
  5014                           
  5015                           ;Config register CONFIG1 @ 0x300000
  5016                           ;	External Oscillator Selection
  5017                           ;	FEXTOSC = OFF, Oscillator not enabled
  5018                           ;	Reset Oscillator Selection
  5019                           ;	RSTOSC = HFINTOSC_64MHZ, HFINTOSC with HFFRQ = 64 MHz and CDIV = 1:1
  5020   300000                     	org	3145728
  5021   300000  8C                 	db	140
  5022                           
  5023                           ;Config register CONFIG2 @ 0x300001
  5024                           ;	Clock out Enable bit
  5025                           ;	CLKOUTEN = OFF, CLKOUT function is disabled
  5026                           ;	PRLOCKED One-Way Set Enable bit
  5027                           ;	PR1WAY = ON, PRLOCKED bit can be cleared and set only once
  5028                           ;	Clock Switch Enable bit
  5029                           ;	CSWEN = ON, Writing to NOSC and NDIV is allowed
  5030                           ;	Fail-Safe Clock Monitor Enable bit
  5031                           ;	FCMEN = ON, Fail-Safe Clock Monitor enabled
  5032   300001                     	org	3145729
  5033   300001  FF                 	db	255
  5034                           
  5035                           ;Config register CONFIG3 @ 0x300002
  5036                           ;	MCLR Enable bit
  5037                           ;	MCLRE = EXTMCLR, If LVP = 0, MCLR pin is MCLR; If LVP = 1, RE3 pin function is MCLR
  5038                           ;	Power-up timer selection bits
  5039                           ;	PWRTS = PWRT_OFF, PWRT is disabled
  5040                           ;	Multi-vector enable bit
  5041                           ;	MVECEN = ON, Multi-vector enabled, Vector table used for interrupts
  5042                           ;	IVTLOCK bit One-way set enable bit
  5043                           ;	IVT1WAY = OFF, IVTLOCKED bit can be cleared and set repeatedly
  5044                           ;	Low Power BOR Enable bit
  5045                           ;	LPBOREN = OFF, Low-Power BOR disabled
  5046                           ;	Brown-out Reset Enable bits
  5047                           ;	BOREN = SBORDIS, Brown-out Reset enabled , SBOREN bit is ignored
  5048   300002                     	org	3145730
  5049   300002  EF                 	db	239
  5050                           
  5051                           ;Config register CONFIG4 @ 0x300003
  5052                           ;	Brown-out Reset Voltage Selection bits
  5053                           ;	BORV = VBOR_1P9, Brown-out Reset Voltage (VBOR) set to 1.9V
  5054                           ;	ZCD Disable bit
  5055                           ;	ZCD = OFF, ZCD module is disabled. ZCD can be enabled by setting the ZCDSEN bit of ZCD
      +                          CON
  5056                           ;	PPSLOCK bit One-Way Set Enable bit
  5057                           ;	PPS1WAY = ON, PPSLOCKED bit can be cleared and set only once; PPS registers remain loc
      +                          ked after one clear/set cycle
  5058                           ;	Stack Full/Underflow Reset Enable bit
  5059                           ;	STVREN = ON, Stack full/underflow will cause Reset
  5060                           ;	Low Voltage Programming Enable bit
  5061                           ;	LVP = ON, Low voltage programming enabled. MCLR/VPP pin function is MCLR. MCLRE config
      +                          uration bit is ignored
  5062                           ;	Extended Instruction Set Enable bit
  5063                           ;	XINST = OFF, Extended Instruction Set and Indexed Addressing Mode disabled
  5064   300003                     	org	3145731
  5065   300003  FF                 	db	255
  5066                           
  5067                           ;Config register CONFIG5 @ 0x300004
  5068                           ;	WDT Period selection bits
  5069                           ;	WDTCPS = WDTCPS_31, Divider ratio 1:65536; software control of WDTPS
  5070                           ;	WDT operating mode
  5071                           ;	WDTE = OFF, WDT Disabled; SWDTEN is ignored
  5072   300004                     	org	3145732
  5073   300004  9F                 	db	159
  5074                           
  5075                           ;Config register CONFIG6 @ 0x300005
  5076                           ;	WDT Window Select bits
  5077                           ;	WDTCWS = WDTCWS_7, window always open (100%); software control; keyed access not requi
      +                          red
  5078                           ;	WDT input clock selector
  5079                           ;	WDTCCS = SC, Software Control
  5080   300005                     	org	3145733
  5081   300005  FF                 	db	255
  5082                           
  5083                           ;Config register CONFIG7 @ 0x300006
  5084                           ;	Boot Block Size selection bits
  5085                           ;	BBSIZE = BBSIZE_512, Boot Block size is 512 words
  5086                           ;	Boot Block enable bit
  5087                           ;	BBEN = OFF, Boot block disabled
  5088                           ;	Storage Area Flash enable bit
  5089                           ;	SAFEN = OFF, SAF disabled
  5090                           ;	Background Debugger
  5091                           ;	DEBUG = OFF, Background Debugger disabled
  5092   300006                     	org	3145734
  5093   300006  FF                 	db	255
  5094                           
  5095                           ;Config register CONFIG8 @ 0x300007
  5096                           ;	Boot Block Write Protection bit
  5097                           ;	WRTB = OFF, Boot Block not Write protected
  5098                           ;	Configuration Register Write Protection bit
  5099                           ;	WRTC = OFF, Configuration registers not Write protected
  5100                           ;	Data EEPROM Write Protection bit
  5101                           ;	WRTD = OFF, Data EEPROM not Write protected
  5102                           ;	SAF Write protection bit
  5103                           ;	WRTSAF = OFF, SAF not Write Protected
  5104                           ;	Application Block write protection bit
  5105                           ;	WRTAPP = OFF, Application Block not write protected
  5106   300007                     	org	3145735
  5107   300007  FF                 	db	255
  5108                           
  5109                           ;Config register CONFIG10 @ 0x300009
  5110                           ;	PFM and Data EEPROM Code Protection bit
  5111                           ;	CP = OFF, PFM and Data EEPROM code protection disabled
  5112   300009                     	org	3145737
  5113   300009  FF                 	db	255
  5114                           tosu	equ	0x4FF
  5115                           tosh	equ	0x4FE
  5116                           tosl	equ	0x4FD
  5117                           stkptr	equ	0x4FC
  5118                           pclatu	equ	0x4FB
  5119                           pclath	equ	0x4FA
  5120                           pcl	equ	0x4F9
  5121                           tblptru	equ	0x4F8
  5122                           tblptrh	equ	0x4F7
  5123                           tblptrl	equ	0x4F6
  5124                           tablat	equ	0x4F5
  5125                           prodh	equ	0x4F4
  5126                           prodl	equ	0x4F3
  5127                           indf0	equ	0x4EF
  5128                           postinc0	equ	0x4EE
  5129                           postdec0	equ	0x4ED
  5130                           preinc0	equ	0x4EC
  5131                           plusw0	equ	0x4EB
  5132                           fsr0h	equ	0x4EA
  5133                           fsr0l	equ	0x4E9
  5134                           wreg	equ	0x4E8
  5135                           indf1	equ	0x4E7
  5136                           postinc1	equ	0x4E6
  5137                           postdec1	equ	0x4E5
  5138                           preinc1	equ	0x4E4
  5139                           plusw1	equ	0x4E3
  5140                           fsr1h	equ	0x4E2
  5141                           fsr1l	equ	0x4E1
  5142                           bsr	equ	0x4E0
  5143                           indf2	equ	0x4DF
  5144                           postinc2	equ	0x4DE
  5145                           postdec2	equ	0x4DD
  5146                           preinc2	equ	0x4DC
  5147                           plusw2	equ	0x4DB
  5148                           fsr2h	equ	0x4DA
  5149                           fsr2l	equ	0x4D9
  5150                           status	equ	0x4D8

Data Sizes:
    Strings     21
    Constant    0
    Data        1
    BSS         15
    Persistent  0
    Stack       0

Auto Spaces:
    Space          Size  Autos    Used
    COMRAM           95     91      93
    BANK5           160     37      51
    BANK6           256      0       0
    BANK7           256      0       0
    BANK8           256      0       0
    BANK9           256      0       0
    BANK10          256      0       0
    BANK11          256      0       0
    BANK12          256      0       0
    BANK13          256      0       0
    BANK14          256      0       0
    BANK15          256      0       0
    BANK16          256      0       0
    BANK17          256      0       0
    BANK18          256      0       0
    BANK19          256      0       0
    BANK20          256      0       0
    BANK21          256      0       0
    BANK22          256      0       0
    BANK23          256      0       0
    BANK24          256      0       0
    BANK25          256      0       0
    BANK26          256      0       0
    BANK27          256      0       0
    BANK28          256      0       0
    BANK29          256      0       0
    BANK30          256      0       0
    BANK31          256      0       0
    BANK32          256      0       0
    BANK33          256      0       0
    BANK34          256      0       0
    BANK35          256      0       0
    BANK36          256      0       0

Pointer List with Targets:

    LCDprintf@shell	PTR unsigned char  size(2) Largest target is 16
		 -> STR_2(CODE[5]), STR_1(CODE[16]), 

    LCDprintf@args	PTR void [1] size(2) Largest target is 1
		 -> ?_LCDprintf(BANK5[1]), 

    sp__toString	PTR unsigned char  size(2) Largest target is 6
		 -> toString@string(COMRAM[6]), 

    LCDprints@c	PTR unsigned char  size(2) Largest target is 12
		 -> LCDprintf@f_string(BANK5[10]), ?_LCDprintf(BANK5[1]), toString@string(COMRAM[6]), RTCrun@current_time(COMRAM[8]), 

    RTCrun@F16818	PTR unsigned char [4] size(2) Largest target is 0
		 -> NULL(NULL[0]), 


Critical Paths under _main in COMRAM

    _analogMap->___flmul
    ___flsub->___fladd
    ___fladd->___fldiv
    ___fldiv->___xxtofl
    _LCDprintf->___flmul
    _toString->___lwdiv
    ___flmul->___flsub
    _LCDprints->_toString
    _LCDinit->_LCDinstruct

Critical Paths under _setINT in COMRAM

    None.

Critical Paths under _main in BANK5

    _main->_LCDprintf

Critical Paths under _setINT in BANK5

    None.

Critical Paths under _main in BANK6

    None.

Critical Paths under _setINT in BANK6

    None.

Critical Paths under _main in BANK7

    None.

Critical Paths under _setINT in BANK7

    None.

Critical Paths under _main in BANK8

    None.

Critical Paths under _setINT in BANK8

    None.

Critical Paths under _main in BANK9

    None.

Critical Paths under _setINT in BANK9

    None.

Critical Paths under _main in BANK10

    None.

Critical Paths under _setINT in BANK10

    None.

Critical Paths under _main in BANK11

    None.

Critical Paths under _setINT in BANK11

    None.

Critical Paths under _main in BANK12

    None.

Critical Paths under _setINT in BANK12

    None.

Critical Paths under _main in BANK13

    None.

Critical Paths under _setINT in BANK13

    None.

Critical Paths under _main in BANK14

    None.

Critical Paths under _setINT in BANK14

    None.

Critical Paths under _main in BANK15

    None.

Critical Paths under _setINT in BANK15

    None.

Critical Paths under _main in BANK16

    None.

Critical Paths under _setINT in BANK16

    None.

Critical Paths under _main in BANK17

    None.

Critical Paths under _setINT in BANK17

    None.

Critical Paths under _main in BANK18

    None.

Critical Paths under _setINT in BANK18

    None.

Critical Paths under _main in BANK19

    None.

Critical Paths under _setINT in BANK19

    None.

Critical Paths under _main in BANK20

    None.

Critical Paths under _setINT in BANK20

    None.

Critical Paths under _main in BANK21

    None.

Critical Paths under _setINT in BANK21

    None.

Critical Paths under _main in BANK22

    None.

Critical Paths under _setINT in BANK22

    None.

Critical Paths under _main in BANK23

    None.

Critical Paths under _setINT in BANK23

    None.

Critical Paths under _main in BANK24

    None.

Critical Paths under _setINT in BANK24

    None.

Critical Paths under _main in BANK25

    None.

Critical Paths under _setINT in BANK25

    None.

Critical Paths under _main in BANK26

    None.

Critical Paths under _setINT in BANK26

    None.

Critical Paths under _main in BANK27

    None.

Critical Paths under _setINT in BANK27

    None.

Critical Paths under _main in BANK28

    None.

Critical Paths under _setINT in BANK28

    None.

Critical Paths under _main in BANK29

    None.

Critical Paths under _setINT in BANK29

    None.

Critical Paths under _main in BANK30

    None.

Critical Paths under _setINT in BANK30

    None.

Critical Paths under _main in BANK31

    None.

Critical Paths under _setINT in BANK31

    None.

Critical Paths under _main in BANK32

    None.

Critical Paths under _setINT in BANK32

    None.

Critical Paths under _main in BANK33

    None.

Critical Paths under _setINT in BANK33

    None.

Critical Paths under _main in BANK34

    None.

Critical Paths under _setINT in BANK34

    None.

Critical Paths under _main in BANK35

    None.

Critical Paths under _setINT in BANK35

    None.

Critical Paths under _main in BANK36

    None.

Critical Paths under _setINT in BANK36

    None.

Call Graph Tables:

 ---------------------------------------------------------------------------------
 (Depth) Function   	        Calls       Base Space   Used Autos Params    Refs
 ---------------------------------------------------------------------------------
 (0) _main                                                 6     6      0   16237
                                             89 COMRAM     2     2      0
                                             33 BANK5      4     4      0
                            _LCDinit
                        _LCDinstruct
                          _LCDprintf
                          _analogMap
                         _analogRead
 ---------------------------------------------------------------------------------
 (1) _analogRead                                          11     2      9     252
                                              1 COMRAM    11     2      9
 ---------------------------------------------------------------------------------
 (1) _analogMap                                           22     8     14    9697
                                              0 BANK5     22     8     14
                            ___fladd
                            ___fldiv
                            ___flmul
                            ___flsub
                           ___xxtofl
                         _analogRead (ARG)
 ---------------------------------------------------------------------------------
 (2) ___flsub                                              8     0      8    2737
                                             56 COMRAM     8     0      8
                            ___fladd
 ---------------------------------------------------------------------------------
 (3) ___fladd                                             16     8      8    2414
                                             40 COMRAM    16     8      8
                            ___fldiv (ARG)
                           ___xxtofl (ARG)
 ---------------------------------------------------------------------------------
 (2) ___fldiv                                             25    17      8    1399
                                             15 COMRAM    25    17      8
                           ___xxtofl (ARG)
 ---------------------------------------------------------------------------------
 (1) _LCDprintf                                           33    27      6    6166
                                              0 BANK5     33    27      6
                          _LCDprintc
                          _LCDprints
                            ___flmul
                            ___fltol
                            ___lwdiv
                            ___lwmod
                           ___xxtofl
                           _toString
 ---------------------------------------------------------------------------------
 (2) _toString                                            10     7      3    1265
                                              8 COMRAM    10     7      3
                            ___lwdiv
                            ___lwmod
 ---------------------------------------------------------------------------------
 (3) ___lwmod                                              5     1      4     463
                                              1 COMRAM     5     1      4
 ---------------------------------------------------------------------------------
 (3) ___lwdiv                                              7     3      4     466
                                              1 COMRAM     7     3      4
 ---------------------------------------------------------------------------------
 (2) ___xxtofl                                            14    10      4     550
                                              1 COMRAM    14    10      4
 ---------------------------------------------------------------------------------
 (2) ___fltol                                             10     6      4     305
                                              1 COMRAM    10     6      4
 ---------------------------------------------------------------------------------
 (2) ___flmul                                             25    17      8    1896
                                             64 COMRAM    25    17      8
                            ___fladd (ARG)
                            ___fldiv (ARG)
                            ___flsub (ARG)
                           ___xxtofl (ARG)
 ---------------------------------------------------------------------------------
 (2) _LCDprints                                            2     0      2     317
                                             18 COMRAM     2     0      2
                          _LCDprintc
                           _toString (ARG)
 ---------------------------------------------------------------------------------
 (3) _LCDprintc                                            2     2      0      44
                                              1 COMRAM     2     2      0
 ---------------------------------------------------------------------------------
 (1) _LCDinit                                              2     2      0      44
                                              3 COMRAM     2     2      0
                        _LCDinstruct
 ---------------------------------------------------------------------------------
 (1) _LCDinstruct                                          2     2      0      44
                                              1 COMRAM     2     2      0
 ---------------------------------------------------------------------------------
 Estimated maximum stack depth 3
 ---------------------------------------------------------------------------------
 (Depth) Function   	        Calls       Base Space   Used Autos Params    Refs
 ---------------------------------------------------------------------------------
 (4) _setINT                                               1     1      0       0
                                              0 COMRAM     1     1      0
 ---------------------------------------------------------------------------------
 Estimated maximum stack depth 4
 ---------------------------------------------------------------------------------

 Call Graph Graphs:

 _main (ROOT)
   _LCDinit
     _LCDinstruct
   _LCDinstruct
   _LCDprintf
     _LCDprintc
     _LCDprints
       _LCDprintc
       _toString (ARG)
         ___lwdiv
         ___lwmod
     ___flmul
       ___fladd (ARG)
         ___fldiv (ARG)
           ___xxtofl (ARG)
         ___xxtofl (ARG)
       ___fldiv (ARG)
       ___flsub (ARG)
         ___fladd
       ___xxtofl (ARG)
     ___fltol
     ___lwdiv
     ___lwmod
     ___xxtofl
     _toString
   _analogMap
     ___fladd
     ___fldiv
     ___flmul
     ___flsub
     ___xxtofl
     _analogRead (ARG)
   _analogRead

 _setINT (ROOT)

 Address spaces:
Name               Size   Autos  Total    Cost      Usage
BIGRAM            1FFF      0       0      69        0.0%
EEDATA             400      0       0       0        0.0%
BITBIGSFRlll       31A      0       0      82        0.0%
BITBIGSFR_1        100      0       0      68        0.0%
BITBANK36          100      0       0      66        0.0%
BANK36             100      0       0      67        0.0%
BITBANK35          100      0       0      64        0.0%
BANK35             100      0       0      65        0.0%
BITBANK34          100      0       0      62        0.0%
BANK34             100      0       0      63        0.0%
BITBANK33          100      0       0      60        0.0%
BANK33             100      0       0      61        0.0%
BITBANK32          100      0       0      58        0.0%
BANK32             100      0       0      59        0.0%
BITBANK31          100      0       0      56        0.0%
BANK31             100      0       0      57        0.0%
BITBANK30          100      0       0      54        0.0%
BANK30             100      0       0      55        0.0%
BITBANK29          100      0       0      52        0.0%
BANK29             100      0       0      53        0.0%
BITBANK28          100      0       0      50        0.0%
BANK28             100      0       0      51        0.0%
BITBANK27          100      0       0      48        0.0%
BANK27             100      0       0      49        0.0%
BITBANK26          100      0       0      46        0.0%
BANK26             100      0       0      47        0.0%
BITBANK25          100      0       0      44        0.0%
BANK25             100      0       0      45        0.0%
BITBANK24          100      0       0      42        0.0%
BANK24             100      0       0      43        0.0%
BITBANK23          100      0       0      40        0.0%
BANK23             100      0       0      41        0.0%
BITBANK22          100      0       0      38        0.0%
BANK22             100      0       0      39        0.0%
BITBANK21          100      0       0      36        0.0%
BANK21             100      0       0      37        0.0%
BITBANK20          100      0       0      34        0.0%
BANK20             100      0       0      35        0.0%
BITBANK19          100      0       0      32        0.0%
BANK19             100      0       0      33        0.0%
BITBANK18          100      0       0      30        0.0%
BANK18             100      0       0      31        0.0%
BITBANK17          100      0       0      28        0.0%
BANK17             100      0       0      29        0.0%
BITBANK16          100      0       0      26        0.0%
BANK16             100      0       0      27        0.0%
BITBANK15          100      0       0      24        0.0%
BANK15             100      0       0      25        0.0%
BITBANK14          100      0       0      22        0.0%
BANK14             100      0       0      23        0.0%
BITBANK13          100      0       0      20        0.0%
BANK13             100      0       0      21        0.0%
BITBANK12          100      0       0      18        0.0%
BANK12             100      0       0      19        0.0%
BITBANK11          100      0       0      16        0.0%
BANK11             100      0       0      17        0.0%
BITBANK10          100      0       0      14        0.0%
BANK10             100      0       0      15        0.0%
BITBANK9           100      0       0      12        0.0%
BANK9              100      0       0      13        0.0%
BITBANK8           100      0       0      10        0.0%
BANK8              100      0       0      11        0.0%
BITBANK7           100      0       0       8        0.0%
BANK7              100      0       0       9        0.0%
BITBANK6           100      0       0       6        0.0%
BANK6              100      0       0       7        0.0%
BITBIGSFRllhll      CF      0       0      81        0.0%
BITBANK5            A0      0       0       4        0.0%
BANK5               A0     25      33       5       31.9%
BITBIGSFRlhlhh      84      0       0      75        0.0%
BITCOMRAM           5F      0       0       0        0.0%
COMRAM              5F     5B      5D       1       97.9%
BITBIGSFRhh         29      0       0      70        0.0%
BITBIGSFRlhhl       22      0       0      74        0.0%
BITBIGSFRllhhl       C      0       0      79        0.0%
BITBIGSFRhlh         C      0       0      71        0.0%
BITBIGSFRlhlhl       8      0       0      76        0.0%
BITBIGSFRllhhh       7      0       0      78        0.0%
BITBIGSFRllhlh       6      0       0      80        0.0%
BITBIGSFRlhhh        4      0       0      73        0.0%
BITBIGSFRlhll        4      0       0      77        0.0%
BITBIGSFRhll         1      0       0      72        0.0%
BIGSFR_1             0      0       0     200        0.0%
BIGSFR               0      0       0     200        0.0%
BITSFR_6             0      0       0     200        0.0%
SFR_6                0      0       0     200        0.0%
BITSFR_5             0      0       0     200        0.0%
SFR_5                0      0       0     200        0.0%
BITSFR_4             0      0       0     200        0.0%
SFR_4                0      0       0     200        0.0%
BITSFR_3             0      0       0     200        0.0%
SFR_3                0      0       0     200        0.0%
BITSFR_2             0      0       0     200        0.0%
SFR_2                0      0       0     200        0.0%
BITSFR_1             0      0       0     200        0.0%
SFR_1                0      0       0     200        0.0%
BITSFR               0      0       0     200        0.0%
SFR                  0      0       0     200        0.0%
STACK                0      0       0       2        0.0%
NULL                 0      0       0       0        0.0%
ABS                  0      0      90      83        0.0%
DATA                 0      0      90       3        0.0%
CODE                 0      0       0       0        0.0%


Microchip Technology PIC18 Macro Assembler V2.40 build 20220703182018 
Symbol Table                                                                                   Mon Apr 03 08:33:17 2023

             ___fldiv@aexp 0528               ___fldiv@bexp 0527               ___fldiv@sign 0520  
                       l70 3D6C                         l73 3ABC                         l82 3E22  
                       l76 3C10                         l98 3C84                        l123 3626  
                      l140 39D2                        l134 3E48                        l137 3E68  
                      l161 3AC2                        l464 38E0                        l712 2920  
                      l704 2AD6                        l721 29F0                        l722 29DE  
                      l822 367E                        l751 30FA                        l760 3140  
                      l825 37DA                        l665 3CF8                        l737 3EAE  
                      l658 3CF0                        l762 31B8                        l754 30BE  
                      l675 3DD0                        l763 31A6                        l836 3772  
                      l668 3DC8                        l781 2B9C                        l829 3716  
                      l749 329A                        l790 2E0A                        l791 2DF8  
                      l695 2806                        l696 27F4                        l785 2F00  
                      l697 27BA                        l788 2D92                        l798 2EC2  
                      wreg 0004E8               ___flmul@aexp 0552               ___flmul@bexp 0553  
             ___flmul@sign 054D               ___flmul@temp 0558               ___flmul@prod 0554  
             ___fltol@exp1 050B                       l2000 299E                       l2010 29D6  
                     l2002 29A0                       l2100 3D2E                       l2020 2A54  
                     l2004 29AE                       l2110 3D52                       l2102 3D36  
                     l2030 2A9A                       l2014 2A00                       l2022 2A56  
                     l2006 29B2                       l2112 3D5A                       l2104 3D38  
                     l2120 3DDC                       l2200 2FF4                       l2040 2AC4  
                     l2032 2AA8                       l2024 2A66                       l2016 2A0C  
                     l2008 29C0                       l2114 3D5C                       l2106 3D40  
                     l2130 3DEC                       l2122 3DDE                       l2050 3CA0  
                     l2210 3024                       l2202 2FFC                       l2042 2AC6  
                     l2034 2AAE                       l2026 2A76                       l2018 2A1A  
                     l2108 3D50                       l2132 3DF8                       l2124 3DE0  
                     l2300 2AF2                       l2060 3CDA                       l2052 3CA8  
                     l2140 3C1E                       l2220 3062                       l2212 3024  
                     l2204 3000                       l2036 2AB0                       l2028 2A96  
                     l2134 3E06                       l2126 3DE8                       l2118 3DD2  
                     l2310 2B2A                       l2302 2AF4                       l2062 3CE2  
                     l2054 3CB0                       l2046 3C86                       l2070 3D80  
                     l2150 3C76                       l2142 3C22                       l2230 30AE  
                     l2222 3072                       l2038 2AB6                       l2136 3E0A  
                     l2128 3DEA                       l2400 2E34                       l2320 2B56  
                     l2312 2B3A                       l2304 2B04                       l2064 3CE4  
                     l2056 3CBE                       l2048 3C8E                       l2080 3DBC  
                     l2072 3D88                       l2240 30F8                       l2232 30BC  
                     l2224 3082                       l2216 3038                       l2208 3014  
                     l2160 2F0E                       l2090 3D0A                       l2410 2EAA  
                     l2402 2E5E                       l2330 2BAC                       l2322 2B66  
                     l2314 2B40                       l2306 2B14                       l2066 3CEA  
                     l2058 3CC4                       l2082 3DC2                       l2074 3D90  
                     l2154 3C7C                       l2146 3C34                       l2138 3C12  
                     l2250 313E                       l2242 310A                       l2234 30C8  
                     l2226 308A                       l2218 3052                       l2170 2F4E  
                     l2162 2F1C                       l2092 3D12                       l2084 3CFC  
                     l2412 2EC6                       l2420 2EEC                       l2404 2E62  
                     l2340 2BE6                       l2332 2BBC                       l2324 2B76  
                     l2316 2B46                       l2308 2B24                       l2500 3748  
                     l2076 3D9E                       l2068 3D6E                       l2148 3C5A  
                     l2260 319E                       l2244 3120                       l2252 3150  
                     l2236 30E6                       l2228 309A                       l2180 2F74  
                     l2172 2F50                       l2164 2F1E                       l2094 3D14  
                     l2086 3D06                       l2422 2EF0                       l2414 2ED6  
                     l2406 2E7C                       l2350 2C38                       l2342 2BFC  
                     l2326 2B86                       l2318 2B54                       l2510 3786  
                     l2502 3754                       l2078 3DB4                       l2270 320C  
                     l2254 315E                       l2246 3126                       l2238 30E8  
                     l2190 2FB4                       l2182 2F82                       l2166 2F2E  
                     l2174 2F58                       l2158 2F02                       l2096 3D16  
                     l2088 3D08                       l2600 39F2                       l2416 2EE4  
                     l2408 2E90                       l2360 2C7E                       l2352 2C46  
                     l2344 2C08                       l2336 2BD0                       l2328 2B8C  
                     l2440 3830                       l2432 37DC                       l2512 37AA  
                     l2504 3762                       l2280 3276                       l2264 31C8  
                     l2272 3210                       l2256 3162                       l2248 3130  
                     l2192 2FB6                       l2184 2F84                       l2176 2F68  
                     l2168 2F3E                       l2098 3D2C                       l2610 3A0E  
                     l2602 39F6                       l1810 3BA6                       l2418 2EE6  
                     l2370 2CEC                       l2362 2C98                       l2354 2C52  
                     l2346 2C20                       l2338 2BDC                       l2442 3832  
                     l2434 37F2                       l2514 37BA                       l2506 3780  
                     l2530 32E0                       l2522 329C                       l2282 327A  
                     l2274 322A                       l2266 31D4                       l2258 3170  
                     l2186 2F94                       l2194 2FBE                       l2178 2F6E  
                     l2426 3E6A                       l2620 3A32                       l2612 3A16  
                     l2604 39F8                       l1820 3BB6                       l1812 3BA8  
                     l2380 2D82                       l2372 2D16                       l2364 2CA8  
                     l2356 2C62                       l2348 2C2C                       l2444 3842  
                     l2516 37C8                       l2508 3782                       l2540 335A  
                     l2532 3308                       l2524 32AA                       l2284 3288  
                     l2276 3240                       l2268 31E2                       l2196 2FCE  
                     l2188 2FA4                       l1900 272C                       l2428 3E7A  
                     l2630 3A60                       l2622 3A3A                       l2614 3A18  
                     l2606 3A02                       l1830 3BDC                       l1822 3BC8  
                     l1814 3BAA                       l2390 2DC2                       l2382 2D90  
                     l2374 2D4C                       l2366 2CC4                       l2358 2C6E  
                     l2470 38C0                       l2454 386C                       l2446 3846  
                     l2438 3806                       l2518 37CA                       l2550 33E2  
                     l2542 3396                       l2534 331C                       l2526 32C6  
                     l2286 328E                       l2278 325A                       l2198 2FE4  
                     l1910 2740                       l1902 2730                       l2640 3A8C  
                     l2632 3A68                       l2624 3A44                       l2616 3A20  
                     l2608 3A04                       l1840 3C00                       l1832 3BEC  
                     l1824 3BD0                       l1816 3BB2                       l1808 3B9C  
                     l2392 2DF0                       l2384 2DA2                       l2376 2D5A  
                     l2368 2CD0                       l2296 2AD8                       l2472 38D0  
                     l2464 3894                       l2456 3876                       l2448 3854  
                     l2480 3648                       l2560 3438                       l2544 33A0  
                     l2536 3326                       l2528 32D6                       l2288 3290  
                     l1920 2754                       l1912 2744                       l1904 2734  
                     l2650 3AB6                       l2642 3A9E                       l2634 3A6A  
                     l2626 3A56                       l2618 3A22                       l1834 3BF4  
                     l1826 3BD2                       l1818 3BB4                       l2386 2DB0  
                     l2378 2D78                       l2298 2AE4                       l2466 38A0  
                     l2458 3880                       l2490 36C0                       l2482 368E  
                     l2570 351E                       l2562 34A6                       l2554 33F0  
                     l2546 33AC                       l2538 3332                       l1930 27B2  
                     l1914 2748                       l1906 2738                       l1922 2758  
                     l1850 2634                       l2644 3AA4                       l2636 3A7A  
                     l2628 3A5E                       l1836 3BF6                       l1828 3BDA  
                     l2396 2E1A                       l2388 2DB4                       l2468 38B0  
                     l2492 36CC                       l2484 36A4                       l2476 362A  
                     l2580 35AE                       l2572 3526                       l2564 34C2  
                     l2556 3418                       l2548 33D4                       l1940 27E8  
                     l1932 27C8                       l1924 275C                       l1916 274C  
                     l1908 273C                       l1852 2644                       l1860 266E  
                     l1844 2618                       l2660 3E2E                       l2646 3AAA  
                     l2638 3A82                       l1838 3BFE                       l2398 2E26  
                     l2494 36FE                       l2478 363A                       l2582 35CA  
                     l2574 352E                       l2566 34FC                       l2558 3430  
                     l2590 35F6                       l1950 2838                       l1942 27F2  
                     l1934 27D4                       l1926 2786                       l1918 2750  
                     l1870 269E                       l1862 267E                       l1854 2654  
                     l1846 2624                       l2662 3E30                       l2648 3AB0  
                     l2496 3700                       l2488 36B8                       l2576 3576  
                     l2584 35CE                       l2568 3510                       l1960 2874  
                     l1952 2848                       l1944 2814                       l1936 27D8  
                     l1928 27A2                       l1880 26DE                       l1872 26AC  
                     l1864 2684                       l1856 2664                       l1848 2632  
                     l2664 3E44                       l2498 370C                       l2586 35DC  
                     l2578 358A                       l2594 360A                       l1970 28BA  
                     l1962 2882                       l1954 2856                       l1946 2824  
                     l1938 27E6                       l1890 2718                       l1882 26E0  
                     l1874 26AE                       l1866 2696                       l1858 2666  
                     l2770 38E2                       l2666 3E46                       l2658 3E24  
                     l2596 39D4                       l2588 35E8                       l1980 2936  
                     l1972 28EE                       l1964 2884                       l1956 2864  
                     l1892 271C                       l1876 26BE                       l1884 26E8  
                     l1868 2698                       l2772 399E                       l2668 3E56  
                     l2780 3B5C                       l2598 39EC                       l1990 2972  
                     l1982 2946                       l1974 28F0                       l1966 288E  
                     l1958 2870                       l1894 2720                       l1886 26F8  
                     l1878 26CE                       l2782 3B7A                       l1992 2974  
                     l1976 2900                       l1968 2894                       l1896 2724  
                     l1888 270A                       l2776 3ABE            __end_of_LCDinit 3ABE  
                     l1994 2982                       l1986 295A                       l1978 2910  
                     l1898 2728                       l2778 3AC8                       l1996 298A  
                     l1988 2964                       l1998 298E                       STR_1 2601  
                     STR_2 2611                       u2000 3288                       u2001 3284  
                     u2010 2AF2                       u2011 2AEE                       u2100 2D90  
                     u2020 2B04                       u1300 2632                       u2101 2D8C  
                     u2021 2B00                       u1301 262E                       u2110 2DB0  
                     u2030 2B14                       u1310 2644                       u2111 2DAC  
                     u2031 2B10                       u1311 2640                       u2120 2DC2  
                     u2040 2B54                       u2200 37F2                       u1400 279E  
                     u1320 2654                       u2121 2DBE                       u2041 2B50  
                     u2201 37EE                       u1401 2798                       u1321 2650  
                     u2130 2DF0                       u2050 2B66                       u2210 3826  
                     u1410 27A0                       u1330 2696                       u2131 2DEC  
                     u2051 2B62                       u1331 2692                       u2140 2E06  
                     u2060 2B76                       u2220 3854                       u2300 36FA  
                     u1500 28BA                       u1420 27C8                       u1340 26AC  
                     u2141 2E02                       u2061 2B72                       u2221 3850  
                     u2301 36F6                       u1501 28B6                       u1421 27C4  
                     u1341 26A8                       u2150 2E1A                       u2070 2BAC  
                     u2230 3868                       u2310 3744                       u1510 2900  
                     u1430 27E6                       u1350 26BE                       u2151 2E16  
                     u2071 2BA8                       u2231 3864                       u2215 381C  
                     u2311 3740                       u1511 28FC                       u1431 27E2  
                     u1351 26BA                       u2160 2E34                       u2080 2BBC  
                     u2240 3890                       u2320 3762                       u2400 33D4  
                     u1600 29EC                       u1520 2936                       u1440 2806  
                     u1360 26CE                       _LATD 0004C1                       u2161 2E30  
                     u2081 2BB8                       u2241 388C                       u2321 375E  
                     u2401 33D0                       u1601 29E8                       u1521 2932  
                     u1441 2802                       u1361 26CA                       u2170 2E7C  
                     u2090 2D36                       u2250 38B0                       u2330 3772  
                     u2410 3418                       u1610 2A00                       u1530 2946  
                     u1450 2814                       u1370 270A                       u2171 2E78  
                     u2251 38AC                       u2331 376E                       u2411 3414  
                     u1611 29FC                       u1531 2942                       u1451 2810  
                     u1371 2706                       u2180 2EAA                       u2260 38C0  
                     u2340 3780                       u1700 3CBE                       u2420 3510  
                     u1620 2A1A                       u1540 2972                       u1460 2824  
                     u1380 2718                       u2181 2EA6                       u2261 38BC  
                     u2341 377C                       u1701 3CBA                       u2421 350C  
                     u1621 2A16                       u1541 296E                       u1461 2820  
                     u1381 2714                       u2190 2EE4                       u2350 37BA  
                     u2270 363A                       u1710 3CDA                       u2430 3576  
                     u1630 2A54                       u1550 2982                       u1470 2856  
                     u1390 2786                       u2191 2EE0                       u2095 2D2C  
                     u2351 37B6                       u2271 3636                       u1711 3CD6  
                     u2431 3572                       u1631 2A50                       u1551 297E  
                     u1471 2852                       u1391 2782                       u2360 37C8  
                     u2280 3648                       u1720 3D80                       u2440 35DC  
                     u1800 2F3E                       u1640 2A66                       u1560 299E  
                     u1480 2864                       u2600 3AFA                       u2361 37C4  
                     u2281 3644                       u1721 3D7C                       u2441 35D8  
                     u1801 2F3A                       u1641 2A62                       u1561 299A  
                     u1481 2860                       u2601 3AF2                       u2290 36A4  
                     u1730 3D9E                       u2450 3626                       u2370 32C6  
                     u1810 2F82                       u1650 2A76                       u1570 29AE  
                     u1490 2882                       u2291 36A0                       u1731 3D9A  
                     u2451 3622                       u2371 32C2                       u1811 2F7E  
                     u1651 2A72                       u1571 29AA                       u1491 287E  
                     u1740 3DB4                       u2380 3308                       u1900 3120  
                     u1820 2F94                       u1660 2A96                       u1580 29C0  
                     u2460 3E56                       u1741 3DB0                       u2381 3304  
                     u1901 311C                       u1821 2F90                       u1661 2A92  
                     u1581 29BC                       u2461 3E52                       u1750 3E22  
                     u2390 335A                       u1910 313E                       u1830 2FA4  
                     u1670 2AA8                       u1590 29D6                       u1751 3E1E  
                     u2391 3356                       u1911 313A                       u1831 2FA0  
                     u1671 2AA4                       u1591 29D2                       u1920 315E  
                     u1840 2FE4                       u1680 2AC4                       u2608 3AFC  
                     u1761 3C18                       u1921 315A                       u1841 2FE0  
                     u1681 2AC0                       u2617 3B84                       u1690 3CA0  
                     u1770 3C30                       u1930 3170                       u1850 3024  
                     u2707 39DE                       u2627 3DE2                       u1691 3C9C  
                     u1771 3C2C                       u1931 316C                       u1851 3020  
                     u1940 319E                       u1860 309A                       u1780 2F1C  
                     u2717 39FC                       u2637 3DEE                       u1941 319A  
                     u1861 3096                       u1781 2F18                       u1950 31B4  
                     u1870 30BC                       u1790 2F2E                       u2590 3ADC  
                     u2807 3A94                       u2727 3A08                       u2647 3BAC  
                     u1951 31B0                       u1871 30B8                       u1791 2F2A  
                     u2591 3AD4                       u1960 31C8                       u1880 30E6  
                     u2817 3D0C                       u2737 3A1A                       u2657 3BCA  
                     u1961 31C4                       u1881 30E2                       u1970 31E2  
                     u1890 310A                       u2827 3D30                       u2747 3A28  
                     u2667 3BD4                       u1971 31DE                       u1891 3106  
                     u1980 322A                       u2837 3D3A                       u2757 3A3E  
                     u2677 3BEE                       u1981 3226                       u1990 325A  
                     u2598 3ADE                       u2847 3D54                       u2767 3A4C  
                     u2687 3BF8                       u1991 3256                       u2857 3D62  
                     u2777 3A62                       u2697 3C06                       i1l51 3EFE  
                     u2787 3A70                       u2797 3A86                       _WPUD 000419  
                     _main 3ABE                       fsr2h 0004DA                       indf2 0004DF  
                     fsr2l 0004D9                       prodh 0004F4                       prodl 0004F3  
                     start 0102            ___fldiv@new_exp 0521               ___param_bank 000000  
             ?_LCDinstruct 0501              ___fltol@sign1 050A            __end_of___fladd 2AD8  
                    ?_main 0501                      _ADPCH 0003EC            __end_of___fldiv 329C  
          __end_of___flmul 2F02            __end_of___flsub 3EB0            __end_of___fltol 38E2  
                    _IOCBF 00040F            __end_of___lwdiv 3CFA            __end_of___lwmod 3DD2  
                    _TRISD 0004C9           LCDprintf@f_input 0578                      tablat 0004F5  
                    status 0004D8           LCDprintf@indexer 0580            __initialization 3EB0  
             __end_of_main 3B9A             _analogMap$1121 0572                     ??_main 055A  
            __activetblptr 000001        analogMap@analog_max 0562        analogMap@analog_min 0564  
                ??_LCDinit 0504                     _ADRESH 0003EB                     _ADRESL 0003EA  
                   _ANSELD 000418          __end_of_LCDprintc 3C12          __end_of_LCDprintf 3628  
        __end_of_LCDprints 3E24                     _IOCBF4 00207C                     _IOCBN4 002074  
                   i1l1762 3EF0                     i1l1764 3EFA           __end_of___xxtofl 37DC  
                ??___fladd 0531                  ??___fldiv 0518                  ??___flmul 0549  
                ??___flsub 0541                  ??___fltol 0506                  ??___lwdiv 0506  
                ??___lwmod 0506                     _setINT 3EEC                     clear_0 3EC8  
                   isa$std 000001               __pdataCOMRAM 055D           __end_of_toString 3C86  
             __mediumconst 0000          LCDprintf@f_string 056C                     tblptrh 0004F7  
                   tblptrl 0004F6                     tblptru 0004F8               ___xxtofl@arg 050C  
             ___xxtofl@exp 050B               ___xxtofl@val 0502                 __accesstop 0560  
  __end_of__initialization 3EDE              ___rparam_used 000001                 ___fltol@f1 0502  
           __pcstackCOMRAM 0501             ivt0x8_undefint 0100              _LCDprintf$339 0576  
               __pbssBANK5 0585        analogMap@sensor_max 0566        analogMap@sensor_min 056A  
               _analogRead 3E24                    IVTBASEH 00045E                    IVTBASEL 00045D  
                  IVTBASEU 00045F                    ?_setINT 0501               RTCrun@F16818 0585  
                ?___xxtofl 0502                    _LCDinit 39D4          __end_of_analogMap 39D4  
                  __Hparam 0000                    __Lparam 0000                  ?_toString 0509  
                  ___fladd 2618                    ___fldiv 2F02  analogRead@pin_designation 050A  
                  ___flmul 2AD8                    ___flsub 3E6A                    ___fltol 37DC  
                  ___lwdiv 3C86                    ___lwmod 3D6E               __psmallconst 2600  
                  _nSetRTC 055D                    __pcinit 3EB0                    __ramtop 2600  
                  __ptext0 3ABE                    __ptext1 3E24                    __ptext2 38E2  
                  __ptext3 3E6A                    __ptext4 2618                    __ptext5 2F02  
                  __ptext6 329C                    __ptext7 3C12                    __ptext8 3D6E  
                  __ptext9 3C86                 ??___xxtofl 0506       end_of_initialization 3EDE  
         LCDinstruct@instr 0503                ?_analogRead 0502                  _LCDprintc 3B9A  
                _LCDprintf 329C                  _LCDprints 3DD2                 _tick_count 055C  
               ??_toString 050C                    postdec2 0004DD                    postinc0 0004EE  
                  postinc2 0004DE         analogRead@pin_tris 0506                ___fladd@grs 0538  
            ___xxtofl@sign 050A                  _TRISAbits 0004C6                  _TRISBbits 0004C7  
              ___fldiv@grs 0523                ___fldiv@rem 051C                ___flmul@grs 054E  
               ?_LCDprintc 0501                 ?_LCDprintf 0560                 ?_LCDprints 0513  
            __pidataCOMRAM 3F04             __end_of_setINT 3F04        start_initialization 3EB0  
  analogMap@analog_reading 0560                 ivt0x8_base 0008                 LCDprintc@c 0503  
               LCDprints@c 0513                   ??_setINT 0501              ??_LCDinstruct 0502  
                ___fladd@a 052D                  ___fladd@b 0529                  ___fldiv@a 0514  
                ___fldiv@b 0510                  ___flmul@a 0545                  ___flmul@b 0541  
              __pbssCOMRAM 055C                   ?_LCDinit 0501                  ___flsub@a 053D  
                ___flsub@b 0539             toString@F16815 058D              __pcstackBANK5 0560  
              ??_LCDprintc 0502                ??_LCDprintf 0566                ??_LCDprints 0515  
                _analogMap 38E2           ___lwdiv@dividend 0502                   ?___fladd 0529  
                 ?___fldiv 0510                   ?___flmul 0541                   ?___flsub 0539  
                 ?___fltol 0502                   ?___lwdiv 0502                   ?___lwmod 0502  
           toString@length 050B             toString@number 0509             toString@string 050C  
              __smallconst 2600        __end_of_LCDinstruct 3D6E           ___lwdiv@quotient 0506  
                 _LATDbits 0004C1               ??_analogRead 050B                   _PIE0bits 00049E  
               ?_analogMap 0560                 _ADCON0bits 0003F3                   _WPUBbits 000409  
       __end_of_analogRead 3E6A                _INTCON0bits 0004D6             LCDprintf@f_int 057C  
           LCDprintf@shell 0560                   __Hrparam 0000                   __Lrparam 0000  
             __Lsmallconst 2600                _LCDinstruct 3CFA                 _ANSELAbits 000400  
               _ANSELBbits 000408                   ___xxtofl 3628                 _T0CON0bits 00031A  
                 __pivt0x8 0008            ___lwdiv@divisor 0504            ___lwdiv@counter 0508  
                 __ptext10 3628                   __ptext11 37DC                   __ptext12 2AD8  
                 __ptext13 3DD2                   __ptext14 3B9A                   __ptext15 39D4  
                 __ptext16 3CFA                   __ptext17 3EEC                ??_analogMap 056E  
                toString@i 0512                   _toString 3C12                   isa$xinst 000000  
            LCDprintf@args 057E                   intlevel1 0000            main@pot_voltage 0581  
         ___lwmod@dividend 0502        analogRead@pin_ansel 0502            ___lwmod@divisor 0504  
          ___lwmod@counter 0506              ___fladd@signs 0535               ___fladd@aexp 0536  
             ___fladd@bexp 0537  
