

Microchip MPLAB XC8 Assembler V2.40 build 20220703182018 
                                                                                               Mon Apr 03 18:44:10 2023

Microchip MPLAB XC8 C Compiler v2.40 (Free license) build 20220703182018 Og1 
     1                           	processor	18F57Q43
     2                           	fnconf	rparam,??,?,0
     3                           	pagewidth 120
     4                           	opt	flic
     5                           	psect	idataBANK5,global,class=CODE,delta=1,noexec
     6                           	psect	smallconst,global,reloc=2,class=SMALLCONST,delta=1,noexec
     7                           	psect	cinit,global,reloc=2,class=CODE,delta=1
     8                           	psect	bssBANK5,global,class=BANK5,space=1,delta=1,lowdata,noexec
     9                           	psect	dataBANK5,global,class=BANK5,space=1,delta=1,lowdata,noexec
    10                           	psect	bssBANK6,global,class=BANK6,space=1,delta=1,lowdata,noexec
    11                           	psect	cstackBANK5,global,class=BANK5,space=1,delta=1,lowdata,noexec
    12                           	psect	cstackCOMRAM,global,class=COMRAM,space=1,delta=1,lowdata,noexec
    13                           	psect	text0,global,reloc=2,class=CODE,delta=1
    14                           	psect	text1,global,reloc=2,class=CODE,delta=1
    15                           	psect	text2,global,reloc=2,class=CODE,delta=1
    16                           	psect	text3,global,reloc=2,class=CODE,delta=1
    17                           	psect	text4,global,reloc=2,class=CODE,delta=1,group=1
    18                           	psect	text5,global,reloc=2,class=CODE,delta=1,group=1
    19                           	psect	text6,global,reloc=2,class=CODE,delta=1,group=1
    20                           	psect	text7,global,reloc=2,class=CODE,delta=1,group=1
    21                           	psect	text8,global,reloc=2,class=CODE,delta=1,group=1
    22                           	psect	text9,global,reloc=2,class=CODE,delta=1
    23                           	psect	text10,global,reloc=2,class=CODE,delta=1
    24                           	psect	text11,global,reloc=2,class=CODE,delta=1
    25                           	psect	text12,global,reloc=2,class=CODE,delta=1,group=1
    26                           	psect	text13,global,reloc=2,class=CODE,delta=1,group=1
    27                           	psect	text14,global,reloc=2,class=CODE,delta=1,group=1
    28                           	psect	text15,global,reloc=2,class=CODE,delta=1,group=1
    29                           	psect	text16,global,reloc=2,class=CODE,delta=1,group=1
    30                           	psect	text17,global,reloc=2,class=CODE,delta=1,group=1
    31                           	psect	text18,global,reloc=2,class=CODE,delta=1
    32                           	psect	text19,global,reloc=2,class=CODE,delta=1
    33                           	psect	text20,global,reloc=2,class=CODE,delta=1
    34                           	psect	text21,global,reloc=2,class=CODE,delta=1
    35                           	psect	text22,global,reloc=2,class=CODE,delta=1
    36                           	psect	text23,global,reloc=2,class=CODE,delta=1
    37                           	psect	text24,global,reloc=2,class=CODE,delta=1
    38                           	psect	text25,global,reloc=4,class=CODE,delta=1
    39                           	psect	text26,global,reloc=4,class=CODE,delta=1
    40                           	psect	text27,global,reloc=4,class=CODE,delta=1
    41                           	psect	ivt0x8,global,reloc=2,class=CODE,delta=1,noexec,keep,optim=
    42                           	psect	intsave_regs,global,class=BIGRAM,space=1,delta=1,noexec
    43                           	psect	rparam,global,class=COMRAM,space=1,delta=1,noexec
    44                           	psect	idloc,global,abs,ovrld,class=IDLOC,space=5,delta=1,noexec
    45                           	psect	config,global,abs,ovrld,class=CONFIG,space=4,delta=1,noexec
    46   000000                     
    47                           ; Generated 09/02/2023 GMT
    48                           ; 
    49                           ; Copyright © 2023, Microchip Technology Inc. and its subsidiaries ("Microchip")
    50                           ; All rights reserved.
    51                           ; 
    52                           ; This software is developed by Microchip Technology Inc. and its subsidiaries ("Microch
      +                          ip").
    53                           ; 
    54                           ; Redistribution and use in source and binary forms, with or without modification, are
    55                           ; permitted provided that the following conditions are met:
    56                           ; 
    57                           ;     1. Redistributions of source code must retain the above copyright notice, this lis
      +                          t of
    58                           ;        conditions and the following disclaimer.
    59                           ; 
    60                           ;     2. Redistributions in binary form must reproduce the above copyright notice, this 
      +                          list
    61                           ;        of conditions and the following disclaimer in the documentation and/or other
    62                           ;        materials provided with the distribution. Publication is not required when
    63                           ;        this file is used in an embedded application.
    64                           ; 
    65                           ;     3. Microchip's name may not be used to endorse or promote products derived from th
      +                          is
    66                           ;        software without specific prior written permission.
    67                           ; 
    68                           ; THIS SOFTWARE IS PROVIDED BY MICROCHIP "AS IS" AND ANY EXPRESS OR IMPLIED WARRANTIES,
    69                           ; INCLUDING, BUT NOT LIMITED TO, THE IMPLIED WARRANTIES OF MERCHANTABILITY AND FITNESS F
      +                          OR
    70                           ; PURPOSE ARE DISCLAIMED.  IN NO EVENT SHALL MICROCHIP BE LIABLE FOR ANY DIRECT, INDIREC
      +                          T,
    71                           ; INCIDENTAL, SPECIAL, EXEMPLARY, OR CONSEQUENTIAL DAMAGES (INCLUDING BUT NOT LIMITED TO
    72                           ; PROCUREMENT OF SUBSTITUTE GOODS OR SERVICES; LOSS OF USE, DATA OR PROFITS; OR BUSINESS
    73                           ; INTERRUPTION) HOWSOEVER CAUSED AND ON ANY THEORY OF LIABILITY, WHETHER IN CONTRACT, ST
      +                          RICT
    74                           ; LIABILITY, OR TORT (INCLUDING NEGLIGENCE OR OTHERWISE) ARISING IN ANY WAY OUT OF THE U
      +                          SE OF
    75                           ; THIS SOFTWARE, EVEN IF ADVISED OF THE POSSIBILITY OF SUCH DAMAGE.
    76                           ; 
    77                           ; 
    78                           ; Code-generator required, PIC18F57Q43 Definitions
    79                           ; 
    80                           ; SFR Addresses
    81   000000                     
    82                           	psect	idataBANK5
    83   004A02                     __pidataBANK5:
    84                           	callstack 0
    85                           
    86                           ;initializer for keyScan@F16784
    87   004A02  31                 	db	49
    88   004A03  32                 	db	50
    89   004A04  33                 	db	51
    90   004A05  41                 	db	65
    91   004A06  34                 	db	52
    92   004A07  35                 	db	53
    93   004A08  36                 	db	54
    94   004A09  42                 	db	66
    95   004A0A  37                 	db	55
    96   004A0B  38                 	db	56
    97   004A0C  39                 	db	57
    98   004A0D  43                 	db	67
    99   004A0E  2A                 	db	42
   100   004A0F  30                 	db	48
   101   004A10  23                 	db	35
   102   004A11  44                 	db	68
   103                           
   104                           ;initializer for main@F16831
   105   004A12  48                 	db	72
   106   004A13  48                 	db	72
   107   004A14  3A                 	db	58
   108   004A15  4D                 	db	77
   109   004A16  4D                 	db	77
   110   004A17  3A                 	db	58
   111   004A18  53                 	db	83
   112   004A19  53                 	db	83
   113   004A1A  20                 	db	32
   114   004A1B  58                 	db	88
   115   004A1C  6D                 	db	109
   116   004A1D  00                 	db	0
   117                           
   118                           ;initializer for _nSetRTC
   119   004A1E  01                 	db	1
   120   000000                     _T0CON0	set	794
   121   000000                     _IOCBF4	set	8316
   122   000000                     _LATD	set	1217
   123   000000                     _TMR0H	set	793
   124   000000                     _T0CON0bits	set	794
   125   000000                     _ADRESL	set	1002
   126   000000                     _ADRESH	set	1003
   127   000000                     _ADPCH	set	1004
   128   000000                     _ADCON0bits	set	1011
   129   000000                     _ANSELD	set	1048
   130   000000                     _ANSELF	set	1064
   131   000000                     _PIE0bits	set	1182
   132   000000                     _LATDbits	set	1217
   133   000000                     _WPUD	set	1049
   134   000000                     _TRISD	set	1225
   135   000000                     _TRISF	set	1227
   136   000000                     _INTCON0bits	set	1238
   137   000000                     _LATF	set	1219
   138   000000                     _TRISAbits	set	1222
   139   000000                     _ANSELAbits	set	1024
   140   000000                     _ANSELBbits	set	1032
   141   000000                     _TRISBbits	set	1223
   142   000000                     _WPUBbits	set	1033
   143   000000                     _IOCBN4	set	8308
   144   000000                     _PIE3bits	set	1185
   145   000000                     _IOCBF	set	1039
   146   000000                     _IPR3bits	set	869
   147   000000                     _T0CON1	set	795
   148   000000                     _WPUF	set	1065
   149   000000                     _PORTF	set	1235
   150   000000                     _PIR3bits	set	1201
   151                           
   152                           	psect	smallconst
   153   002600                     __psmallconst:
   154                           	callstack 0
   155   002600  00                 	db	0
   156   002601                     STR_3:
   157   002601  25                 	db	37
   158   002602  69                 	db	105	;'i'
   159   002603  32                 	db	50	;'2'
   160   002604  3A                 	db	58	;':'
   161   002605  25                 	db	37
   162   002606  69                 	db	105	;'i'
   163   002607  32                 	db	50	;'2'
   164   002608  3A                 	db	58	;':'
   165   002609  25                 	db	37
   166   00260A  69                 	db	105	;'i'
   167   00260B  32                 	db	50	;'2'
   168   00260C  20                 	db	32
   169   00260D  25                 	db	37
   170   00260E  63                 	db	99	;'c'
   171   00260F  6D                 	db	109	;'m'
   172   002610  00                 	db	0
   173   002611                     STR_1:
   174   002611  50                 	db	80	;'P'
   175   002612  3A                 	db	58	;':'
   176   002613  25                 	db	37
   177   002614  31                 	db	49	;'1'
   178   002615  66                 	db	102	;'f'
   179   002616  32                 	db	50	;'2'
   180   002617  56                 	db	86	;'V'
   181   002618  20                 	db	32
   182   002619  00                 	db	0
   183   00261A                     STR_2:
   184   00261A  4C                 	db	76	;'L'
   185   00261B  3A                 	db	58	;':'
   186   00261C  25                 	db	37
   187   00261D  69                 	db	105	;'i'
   188   00261E  33                 	db	51	;'3'
   189   00261F  25                 	db	37
   190   002620  00                 	db	0
   191   002621  00                 	db	0	; dummy byte at the end
   192   000000                     
   193                           ; #config settings
   194                           
   195                           	psect	cinit
   196   0048EC                     __pcinit:
   197                           	callstack 0
   198   0048EC                     start_initialization:
   199                           	callstack 0
   200   0048EC                     __initialization:
   201                           	callstack 0
   202                           
   203                           ; Initialize objects allocated to BANK5 (29 bytes)
   204                           ; load TBLPTR registers with __pidataBANK5
   205   0048EC  0E02               	movlw	low __pidataBANK5
   206   0048EE  6EF6               	movwf	tblptrl,c
   207   0048F0  0E4A               	movlw	high __pidataBANK5
   208   0048F2  6EF7               	movwf	tblptrh,c
   209   0048F4  0E00               	movlw	low (__pidataBANK5 shr (0+16))
   210   0048F6  6EF8               	movwf	tblptru,c
   211   0048F8  EE01  F1D2         	lfsr	0,__pdataBANK5
   212   0048FC  EE10 F01D          	lfsr	1,29
   213   004900                     copy_data0:
   214   004900  0009               	tblrd		*+
   215   004902  C4F5 F4EE          	movff	tablat,postinc0
   216   004906  50E5               	movf	postdec1,w,c
   217   004908  50E1               	movf	fsr1l,w,c
   218   00490A  E1FA               	bnz	copy_data0
   219                           
   220                           ; Clear objects allocated to BANK6 (20 bytes)
   221   00490C  EE01  F200         	lfsr	0,__pbssBANK6
   222   004910  0E14               	movlw	20
   223   004912                     clear_0:
   224   004912  6AEE               	clrf	postinc0,c
   225   004914  06E8               	decf	wreg,f,c
   226   004916  E1FD               	bnz	clear_0
   227                           
   228                           ; Clear objects allocated to BANK5 (7 bytes)
   229   004918  EE01  F1EF         	lfsr	0,__pbssBANK5
   230   00491C  0E07               	movlw	7
   231   00491E                     clear_1:
   232   00491E  6AEE               	clrf	postinc0,c
   233   004920  06E8               	decf	wreg,f,c
   234   004922  E1FD               	bnz	clear_1
   235                           
   236                           ;
   237                           ; Setup IVTBASE
   238                           ;
   239   004924  0104               	movlb	4
   240   004926  0E08               	movlw	(ivt0x8_base shr 0)& (0+255)
   241   004928  6F5D               	movwf	93,b
   242   00492A  0E00               	movlw	(ivt0x8_base shr (0+8))& (0+255)
   243   00492C  6F5E               	movwf	94,b
   244   00492E  0E00               	movlw	(ivt0x8_base shr (0+16))& (0+255)
   245   004930  6F5F               	movwf	95,b
   246   004932                     end_of_initialization:
   247                           	callstack 0
   248   004932                     __end_of__initialization:
   249                           	callstack 0
   250   004932  0100               	movlb	0
   251   004934  EF11  F013         	goto	_main	;jump to C main() function
   252                           
   253                           	psect	bssBANK5
   254   0005EF                     __pbssBANK5:
   255                           	callstack 0
   256   0005EF                     	ds	6
   257   0005F5                     _tick_count:
   258                           	callstack 0
   259   0005F5                     	ds	1
   260                           
   261                           	psect	dataBANK5
   262   0005D2                     __pdataBANK5:
   263                           	callstack 0
   264   0005D2                     keyScan@F16784:
   265                           	callstack 0
   266   0005D2                     	ds	16
   267   0005E2                     main@F16831:
   268                           	callstack 0
   269   0005E2                     	ds	12
   270   0005EE                     _nSetRTC:
   271                           	callstack 0
   272   0005EE                     	ds	1
   273                           
   274                           	psect	bssBANK6
   275   000600                     __pbssBANK6:
   276                           	callstack 0
   277   000600                     	ds	20
   278                           
   279                           	psect	cstackBANK5
   280   000560                     __pcstackBANK5:
   281                           	callstack 0
   282   000560                     ?_analogMap:
   283                           	callstack 0
   284   000560                     analogMap@analog_reading:
   285                           	callstack 0
   286                           
   287                           ; 2 bytes @ 0x0
   288   000560                     	ds	2
   289   000562                     analogMap@analog_max:
   290                           	callstack 0
   291                           
   292                           ; 2 bytes @ 0x2
   293   000562                     	ds	2
   294   000564                     analogMap@analog_min:
   295                           	callstack 0
   296                           
   297                           ; 2 bytes @ 0x4
   298   000564                     	ds	2
   299   000566                     analogMap@sensor_max:
   300                           	callstack 0
   301                           
   302                           ; 4 bytes @ 0x6
   303   000566                     	ds	4
   304   00056A                     analogMap@sensor_min:
   305                           	callstack 0
   306                           
   307                           ; 4 bytes @ 0xA
   308   00056A                     	ds	4
   309   00056E                     _analogMap$1286:
   310                           	callstack 0
   311                           
   312                           ; 4 bytes @ 0xE
   313   00056E                     	ds	4
   314   000572                     _analogMap$1287:
   315                           	callstack 0
   316                           
   317                           ; 4 bytes @ 0x12
   318   000572                     	ds	4
   319   000576                     ?___fltol:
   320                           	callstack 0
   321   000576                     ___fltol@f1:
   322                           	callstack 0
   323                           
   324                           ; 4 bytes @ 0x16
   325   000576                     	ds	4
   326   00057A                     ??___fltol:
   327                           
   328                           ; 1 bytes @ 0x1A
   329   00057A                     	ds	4
   330   00057E                     ___fltol@sign1:
   331                           	callstack 0
   332                           
   333                           ; 1 bytes @ 0x1E
   334   00057E                     	ds	1
   335   00057F                     ___fltol@exp1:
   336                           	callstack 0
   337                           
   338                           ; 1 bytes @ 0x1F
   339   00057F                     	ds	1
   340   000580                     ?_LCDprintf:
   341                           	callstack 0
   342   000580                     LCDprintf@shell:
   343                           	callstack 0
   344                           
   345                           ; 2 bytes @ 0x20
   346   000580                     	ds	10
   347   00058A                     ??_LCDprintf:
   348                           
   349                           ; 1 bytes @ 0x2A
   350   00058A                     	ds	7
   351   000591                     LCDprintf@f_string:
   352                           	callstack 0
   353                           
   354                           ; 20 bytes @ 0x31
   355   000591                     	ds	20
   356   0005A5                     LCDprintf@i:
   357                           	callstack 0
   358                           
   359                           ; 1 bytes @ 0x45
   360   0005A5                     	ds	1
   361   0005A6                     LCDprintf@f_input:
   362                           	callstack 0
   363                           
   364                           ; 4 bytes @ 0x46
   365   0005A6                     	ds	4
   366   0005AA                     LCDprintf@f_int:
   367                           	callstack 0
   368                           
   369                           ; 2 bytes @ 0x4A
   370   0005AA                     	ds	2
   371   0005AC                     LCDprintf@indexer:
   372                           	callstack 0
   373                           
   374                           ; 1 bytes @ 0x4C
   375   0005AC                     	ds	1
   376   0005AD                     LCDprintf@args:
   377                           	callstack 0
   378                           
   379                           ; 2 bytes @ 0x4D
   380   0005AD                     	ds	2
   381   0005AF                     RTCupdate@current_time:
   382                           	callstack 0
   383                           
   384                           ; 2 bytes @ 0x4F
   385   0005AF                     	ds	2
   386   0005B1                     ??_RTCupdate:
   387                           
   388                           ; 1 bytes @ 0x51
   389   0005B1                     	ds	4
   390   0005B5                     _RTCupdate$510:
   391                           	callstack 0
   392                           
   393                           ; 2 bytes @ 0x55
   394   0005B5                     	ds	2
   395   0005B7                     ??_main:
   396                           
   397                           ; 1 bytes @ 0x57
   398   0005B7                     	ds	2
   399   0005B9                     main@indexer:
   400                           	callstack 0
   401                           
   402                           ; 12 bytes @ 0x59
   403   0005B9                     	ds	12
   404   0005C5                     main@pot_voltage:
   405                           	callstack 0
   406                           
   407                           ; 4 bytes @ 0x65
   408   0005C5                     	ds	4
   409   0005C9                     _main$296:
   410                           	callstack 0
   411                           
   412                           ; 2 bytes @ 0x69
   413   0005C9                     	ds	2
   414   0005CB                     main@lux:
   415                           	callstack 0
   416                           
   417                           ; 1 bytes @ 0x6B
   418   0005CB                     	ds	1
   419   0005CC                     main@position:
   420                           	callstack 0
   421                           
   422                           ; 1 bytes @ 0x6C
   423   0005CC                     	ds	1
   424   0005CD                     main@key:
   425                           	callstack 0
   426                           
   427                           ; 1 bytes @ 0x6D
   428   0005CD                     	ds	1
   429   0005CE                     main@current_time:
   430                           	callstack 0
   431                           
   432                           ; 4 bytes @ 0x6E
   433   0005CE                     	ds	4
   434                           
   435                           	psect	cstackCOMRAM
   436   000501                     __pcstackCOMRAM:
   437                           	callstack 0
   438   000501                     ??_setINT:
   439   000501                     
   440                           ; 1 bytes @ 0x0
   441   000501                     	ds	1
   442   000502                     ??_keyScan:
   443   000502                     ??_LCDinstruct:
   444   000502                     ??_LCDprintc:
   445   000502                     ?_analogRead:
   446                           	callstack 0
   447   000502                     ?___awdiv:
   448                           	callstack 0
   449   000502                     ?___awmod:
   450                           	callstack 0
   451   000502                     ?___lwdiv:
   452                           	callstack 0
   453   000502                     ?___lwmod:
   454                           	callstack 0
   455   000502                     ?___xxtofl:
   456                           	callstack 0
   457   000502                     ___awdiv@dividend:
   458                           	callstack 0
   459   000502                     ___awmod@dividend:
   460                           	callstack 0
   461   000502                     ___lwdiv@dividend:
   462                           	callstack 0
   463   000502                     ___lwmod@dividend:
   464                           	callstack 0
   465   000502                     analogRead@pin_ansel:
   466                           	callstack 0
   467   000502                     ___flge@ff1:
   468                           	callstack 0
   469   000502                     ___xxtofl@val:
   470                           	callstack 0
   471                           
   472                           ; 4 bytes @ 0x1
   473   000502                     	ds	1
   474   000503                     LCDinstruct@instr:
   475                           	callstack 0
   476   000503                     LCDprintc@c:
   477                           	callstack 0
   478                           
   479                           ; 1 bytes @ 0x2
   480   000503                     	ds	1
   481   000504                     ??_LCDinit:
   482   000504                     LCDgoto@pos:
   483                           	callstack 0
   484   000504                     ___awdiv@divisor:
   485                           	callstack 0
   486   000504                     ___awmod@divisor:
   487                           	callstack 0
   488   000504                     ___lwdiv@divisor:
   489                           	callstack 0
   490   000504                     ___lwmod@divisor:
   491                           	callstack 0
   492                           
   493                           ; 2 bytes @ 0x3
   494   000504                     	ds	1
   495   000505                     keyScan@lookup:
   496                           	callstack 0
   497                           
   498                           ; 16 bytes @ 0x4
   499   000505                     	ds	1
   500   000506                     ??___xxtofl:
   501   000506                     ___awdiv@counter:
   502                           	callstack 0
   503   000506                     ___awmod@counter:
   504                           	callstack 0
   505   000506                     ___lwmod@counter:
   506                           	callstack 0
   507   000506                     ___lwdiv@quotient:
   508                           	callstack 0
   509   000506                     analogRead@pin_tris:
   510                           	callstack 0
   511   000506                     ___flge@ff2:
   512                           	callstack 0
   513                           
   514                           ; 4 bytes @ 0x5
   515   000506                     	ds	1
   516   000507                     ___awdiv@sign:
   517                           	callstack 0
   518   000507                     ___awmod@sign:
   519                           	callstack 0
   520                           
   521                           ; 1 bytes @ 0x6
   522   000507                     	ds	1
   523   000508                     ___lwdiv@counter:
   524                           	callstack 0
   525   000508                     ___awdiv@quotient:
   526                           	callstack 0
   527                           
   528                           ; 2 bytes @ 0x7
   529   000508                     	ds	1
   530   000509                     ?_toString:
   531                           	callstack 0
   532   000509                     toString@number:
   533                           	callstack 0
   534                           
   535                           ; 2 bytes @ 0x8
   536   000509                     	ds	1
   537   00050A                     ??___flge:
   538   00050A                     analogRead@pin_designation:
   539                           	callstack 0
   540   00050A                     ___xxtofl@sign:
   541                           	callstack 0
   542                           
   543                           ; 1 bytes @ 0x9
   544   00050A                     	ds	1
   545   00050B                     ??_analogRead:
   546   00050B                     toString@length:
   547                           	callstack 0
   548   00050B                     ___xxtofl@exp:
   549                           	callstack 0
   550                           
   551                           ; 1 bytes @ 0xA
   552   00050B                     	ds	1
   553   00050C                     ___xxtofl@arg:
   554                           	callstack 0
   555   00050C                     toString@string:
   556                           	callstack 0
   557                           
   558                           ; 6 bytes @ 0xB
   559   00050C                     	ds	4
   560   000510                     ?___fldiv:
   561                           	callstack 0
   562   000510                     ___fldiv@b:
   563                           	callstack 0
   564                           
   565                           ; 4 bytes @ 0xF
   566   000510                     	ds	2
   567   000512                     toString@i:
   568                           	callstack 0
   569                           
   570                           ; 1 bytes @ 0x11
   571   000512                     	ds	1
   572   000513                     LCDprints@c:
   573                           	callstack 0
   574                           
   575                           ; 2 bytes @ 0x12
   576   000513                     	ds	1
   577   000514                     ___fldiv@a:
   578                           	callstack 0
   579                           
   580                           ; 4 bytes @ 0x13
   581   000514                     	ds	1
   582   000515                     keyScan@colshift:
   583                           	callstack 0
   584                           
   585                           ; 1 bytes @ 0x14
   586   000515                     	ds	1
   587   000516                     keyScan@cols:
   588                           	callstack 0
   589                           
   590                           ; 1 bytes @ 0x15
   591   000516                     	ds	1
   592   000517                     keyScan@rowshift:
   593                           	callstack 0
   594                           
   595                           ; 1 bytes @ 0x16
   596   000517                     	ds	1
   597   000518                     ??___fldiv:
   598                           
   599                           ; 1 bytes @ 0x17
   600   000518                     	ds	4
   601   00051C                     ___fldiv@rem:
   602                           	callstack 0
   603                           
   604                           ; 4 bytes @ 0x1B
   605   00051C                     	ds	4
   606   000520                     ___fldiv@sign:
   607                           	callstack 0
   608                           
   609                           ; 1 bytes @ 0x1F
   610   000520                     	ds	1
   611   000521                     ___fldiv@new_exp:
   612                           	callstack 0
   613                           
   614                           ; 2 bytes @ 0x20
   615   000521                     	ds	2
   616   000523                     ___fldiv@grs:
   617                           	callstack 0
   618                           
   619                           ; 4 bytes @ 0x22
   620   000523                     	ds	4
   621   000527                     ___fldiv@bexp:
   622                           	callstack 0
   623                           
   624                           ; 1 bytes @ 0x26
   625   000527                     	ds	1
   626   000528                     ___fldiv@aexp:
   627                           	callstack 0
   628                           
   629                           ; 1 bytes @ 0x27
   630   000528                     	ds	1
   631   000529                     ?___fladd:
   632                           	callstack 0
   633   000529                     ___fladd@b:
   634                           	callstack 0
   635                           
   636                           ; 4 bytes @ 0x28
   637   000529                     	ds	4
   638   00052D                     ___fladd@a:
   639                           	callstack 0
   640                           
   641                           ; 4 bytes @ 0x2C
   642   00052D                     	ds	4
   643   000531                     ??___fladd:
   644                           
   645                           ; 1 bytes @ 0x30
   646   000531                     	ds	4
   647   000535                     ___fladd@signs:
   648                           	callstack 0
   649                           
   650                           ; 1 bytes @ 0x34
   651   000535                     	ds	1
   652   000536                     ___fladd@aexp:
   653                           	callstack 0
   654                           
   655                           ; 1 bytes @ 0x35
   656   000536                     	ds	1
   657   000537                     ___fladd@bexp:
   658                           	callstack 0
   659                           
   660                           ; 1 bytes @ 0x36
   661   000537                     	ds	1
   662   000538                     ___fladd@grs:
   663                           	callstack 0
   664                           
   665                           ; 1 bytes @ 0x37
   666   000538                     	ds	1
   667   000539                     ?___flsub:
   668                           	callstack 0
   669   000539                     ___flsub@b:
   670                           	callstack 0
   671                           
   672                           ; 4 bytes @ 0x38
   673   000539                     	ds	4
   674   00053D                     ___flsub@a:
   675                           	callstack 0
   676                           
   677                           ; 4 bytes @ 0x3C
   678   00053D                     	ds	4
   679   000541                     ?___flmul:
   680                           	callstack 0
   681   000541                     ___flmul@b:
   682                           	callstack 0
   683                           
   684                           ; 4 bytes @ 0x40
   685   000541                     	ds	4
   686   000545                     ___flmul@a:
   687                           	callstack 0
   688                           
   689                           ; 4 bytes @ 0x44
   690   000545                     	ds	4
   691   000549                     ??___flmul:
   692                           
   693                           ; 1 bytes @ 0x48
   694   000549                     	ds	4
   695   00054D                     ___flmul@sign:
   696                           	callstack 0
   697                           
   698                           ; 1 bytes @ 0x4C
   699   00054D                     	ds	1
   700   00054E                     ___flmul@grs:
   701                           	callstack 0
   702                           
   703                           ; 4 bytes @ 0x4D
   704   00054E                     	ds	4
   705   000552                     ___flmul@aexp:
   706                           	callstack 0
   707                           
   708                           ; 1 bytes @ 0x51
   709   000552                     	ds	1
   710   000553                     ___flmul@bexp:
   711                           	callstack 0
   712                           
   713                           ; 1 bytes @ 0x52
   714   000553                     	ds	1
   715   000554                     ___flmul@prod:
   716                           	callstack 0
   717                           
   718                           ; 4 bytes @ 0x53
   719   000554                     	ds	4
   720   000558                     ___flmul@temp:
   721                           	callstack 0
   722                           
   723                           ; 2 bytes @ 0x57
   724   000558                     	ds	2
   725   00055A                     ??_analogMap:
   726                           
   727                           ; 1 bytes @ 0x59
   728   00055A                     	ds	4
   729                           
   730 ;;
   731 ;;Main: autosize = 0, tempsize = 2, incstack = 0, save=0
   732 ;;
   733 ;; *************** function _main *****************
   734 ;; Defined at:
   735 ;;		line 20 in file "C:/Users/a_hui/OneDrive - Camosun College/term2/ecet165_embedded_mc/labs/ecet165-labs/lab11/analogT
      +est.c"
   736 ;; Parameters:    Size  Location     Type
   737 ;;		None
   738 ;; Auto vars:     Size  Location     Type
   739 ;;  indexer        12   89[BANK5 ] unsigned char [12]
   740 ;;  current_time    4  110[BANK5 ] struct realtime
   741 ;;  pot_voltage     4  101[BANK5 ] float 
   742 ;;  key             1  109[BANK5 ] unsigned char 
   743 ;;  position        1  108[BANK5 ] unsigned char 
   744 ;;  lux             1  107[BANK5 ] unsigned char 
   745 ;; Return value:  Size  Location     Type
   746 ;;                  1    wreg      void 
   747 ;; Registers used:
   748 ;;		wreg, fsr1l, fsr1h, fsr2l, fsr2h, status,2, status,0, tblptrl, tblptrh, tblptru, prodl, prodh, cstack
   749 ;; Tracked objects:
   750 ;;		On entry : 0/0
   751 ;;		On exit  : 0/0
   752 ;;		Unchanged: 0/0
   753 ;; Data sizes:     COMRAM   BANK5   BANK6   BANK7   BANK8   BANK9  BANK10  BANK11  BANK12  BANK13  BANK14  BANK15  BANK1
      +6  BANK17  BANK18  BANK19  BANK20  BANK21  BANK22  BANK23  BANK24  BANK25  BANK26  BANK27  BANK28  BANK29  BANK30  BANK3
      +1  BANK32  BANK33  BANK34  BANK35  BANK36
   754 ;;      Params:         0       0       0       0       0       0       0       0       0       0       0       0       
      +0       0       0       0       0       0       0       0       0       0       0       0       0       0       0       
      +0       0       0       0       0       0
   755 ;;      Locals:         0      25       0       0       0       0       0       0       0       0       0       0       
      +0       0       0       0       0       0       0       0       0       0       0       0       0       0       0       
      +0       0       0       0       0       0
   756 ;;      Temps:          0       2       0       0       0       0       0       0       0       0       0       0       
      +0       0       0       0       0       0       0       0       0       0       0       0       0       0       0       
      +0       0       0       0       0       0
   757 ;;      Totals:         0      27       0       0       0       0       0       0       0       0       0       0       
      +0       0       0       0       0       0       0       0       0       0       0       0       0       0       0       
      +0       0       0       0       0       0
   758 ;;Total ram usage:       27 bytes
   759 ;; Hardware stack levels required when called: 6
   760 ;; This function calls:
   761 ;;		_LCDgoto
   762 ;;		_LCDinit
   763 ;;		_LCDinstruct
   764 ;;		_LCDprintc
   765 ;;		_LCDprintf
   766 ;;		_RTCinit
   767 ;;		_RTCupdate
   768 ;;		___awmod
   769 ;;		___fltol
   770 ;;		_analogMap
   771 ;;		_analogRead
   772 ;;		_keyScan
   773 ;; This function is called by:
   774 ;;		Startup code after reset
   775 ;; This function uses a non-reentrant model
   776 ;;
   777                           
   778                           	psect	text0
   779   002622                     __ptext0:
   780                           	callstack 0
   781   002622                     _main:
   782                           	callstack 121
   783   002622                     
   784                           ;C:/Users/a_hui/OneDrive - Camosun College/term2/ecet165_embedded_mc/labs/ecet165-labs/l
      +                          ab11/analogTest.c: 25:     time current_time;;C:/Users/a_hui/OneDrive - Camosun College/
      +                          term2/ecet165_embedded_mc/labs/ecet165-labs/lab11/analogTest.c: 26:     current_time.hou
      +                          rs = 12;
   785   002622  0E0C               	movlw	12
   786   002624  0105               	movlb	5	; () banked
   787   002626  6FCE               	movwf	main@current_time& (0+255),b
   788                           
   789                           ;C:/Users/a_hui/OneDrive - Camosun College/term2/ecet165_embedded_mc/labs/ecet165-labs/l
      +                          ab11/analogTest.c: 27:     current_time.minutes = 0;
   790   002628  0E00               	movlw	0
   791   00262A  6FCF               	movwf	(main@current_time+1)& (0+255),b
   792                           
   793                           ;C:/Users/a_hui/OneDrive - Camosun College/term2/ecet165_embedded_mc/labs/ecet165-labs/l
      +                          ab11/analogTest.c: 28:     current_time.seconds = 0;
   794   00262C  0E00               	movlw	0
   795   00262E  6FD0               	movwf	(main@current_time+2)& (0+255),b
   796                           
   797                           ;C:/Users/a_hui/OneDrive - Camosun College/term2/ecet165_embedded_mc/labs/ecet165-labs/l
      +                          ab11/analogTest.c: 29:     current_time.meridian = 'a';
   798   002630  0E61               	movlw	97
   799   002632  6FD1               	movwf	(main@current_time+3)& (0+255),b
   800   002634                     
   801                           ; BSR set to: 5
   802                           ;C:/Users/a_hui/OneDrive - Camosun College/term2/ecet165_embedded_mc/labs/ecet165-labs/l
      +                          ab11/analogTest.c: 35:     char indexer[12] = "HH:MM:SS Xm";
   803   002634  EE21  F1E2         	lfsr	2,main@F16831
   804   002638  EE11  F1B9         	lfsr	1,main@indexer
   805   00263C  0E0B               	movlw	11
   806   00263E                     u3171:
   807   00263E  C4DB F4E3          	movff	plusw2,plusw1
   808   002642  06E8               	decf	wreg,f,c
   809   002644  E2FC               	bc	u3171
   810   002646                     
   811                           ; BSR set to: 5
   812                           ;C:/Users/a_hui/OneDrive - Camosun College/term2/ecet165_embedded_mc/labs/ecet165-labs/l
      +                          ab11/analogTest.c: 38:     char key;;C:/Users/a_hui/OneDrive - Camosun College/term2/ece
      +                          t165_embedded_mc/labs/ecet165-labs/lab11/analogTest.c: 41:     unsigned char lux;;C:/Use
      +                          rs/a_hui/OneDrive - Camosun College/term2/ecet165_embedded_mc/labs/ecet165-labs/lab11/an
      +                          alogTest.c: 44:     float pot_voltage;;C:/Users/a_hui/OneDrive - Camosun College/term2/e
      +                          cet165_embedded_mc/labs/ecet165-labs/lab11/analogTest.c: 47:     LCDinit();
   813   002646  EC02  F022         	call	_LCDinit	;wreg free
   814   00264A                     
   815                           ;C:/Users/a_hui/OneDrive - Camosun College/term2/ecet165_embedded_mc/labs/ecet165-labs/l
      +                          ab11/analogTest.c: 50:     nSetRTC = 1;
   816   00264A  0E01               	movlw	1
   817   00264C  0105               	movlb	5	; () banked
   818   00264E  6FEE               	movwf	_nSetRTC& (0+255),b
   819   002650                     l3483:
   820                           
   821                           ; BSR set to: 5
   822                           ;C:/Users/a_hui/OneDrive - Camosun College/term2/ecet165_embedded_mc/labs/ecet165-labs/l
      +                          ab11/analogTest.c: 54:         RTCinit();
   823   002650  ECF2  F024         	call	_RTCinit	;wreg free
   824                           
   825                           ;C:/Users/a_hui/OneDrive - Camosun College/term2/ecet165_embedded_mc/labs/ecet165-labs/l
      +                          ab11/analogTest.c: 57:         while(nSetRTC){
   826   002654  EF15  F014         	goto	l3503
   827   002658                     l3485:
   828                           
   829                           ; BSR set to: 5
   830                           ;C:/Users/a_hui/OneDrive - Camosun College/term2/ecet165_embedded_mc/labs/ecet165-labs/l
      +                          ab11/analogTest.c: 60:                     lux = analogMap(analogRead(ANSELAbits.ANSELA4
      +                          , TRISAbits.TRISA4, 0x04), 2600, 0, 0, 100);
   831   002658  0E00               	movlw	0
   832   00265A  6F6A               	movwf	analogMap@sensor_min& (0+255),b
   833   00265C  0E00               	movlw	0
   834   00265E  6F6B               	movwf	(analogMap@sensor_min+1)& (0+255),b
   835   002660  0EC8               	movlw	200
   836   002662  6F6C               	movwf	(analogMap@sensor_min+2)& (0+255),b
   837   002664  0E42               	movlw	66
   838   002666  6F6D               	movwf	(analogMap@sensor_min+3)& (0+255),b
   839   002668  0E00               	movlw	0
   840   00266A  6F66               	movwf	analogMap@sensor_max& (0+255),b
   841   00266C  0E00               	movlw	0
   842   00266E  6F67               	movwf	(analogMap@sensor_max+1)& (0+255),b
   843   002670  0E00               	movlw	0
   844   002672  6F68               	movwf	(analogMap@sensor_max+2)& (0+255),b
   845   002674  0E00               	movlw	0
   846   002676  6F69               	movwf	(analogMap@sensor_max+3)& (0+255),b
   847   002678  0E00               	movlw	0
   848   00267A  6F65               	movwf	(analogMap@analog_min+1)& (0+255),b
   849   00267C  0E00               	movlw	0
   850   00267E  6F64               	movwf	analogMap@analog_min& (0+255),b
   851   002680  0E0A               	movlw	10
   852   002682  6F63               	movwf	(analogMap@analog_max+1)& (0+255),b
   853   002684  0E28               	movlw	40
   854   002686  6F62               	movwf	analogMap@analog_max& (0+255),b
   855   002688  0E04               	movlw	4
   856   00268A  6E0A               	movwf	analogRead@pin_designation^(0+1280),c
   857   00268C  B8C6               	btfsc	198,4,c	;volatile
   858   00268E  EF4B  F013         	goto	u3181
   859   002692  EF4F  F013         	goto	u3180
   860   002696                     u3181:
   861   002696  6BB7               	clrf	??_main& (0+255),b
   862   002698  2BB7               	incf	??_main& (0+255),f,b
   863   00269A  EF51  F013         	goto	u3188
   864   00269E                     u3180:
   865   00269E  0105               	movlb	5	; () banked
   866   0026A0  6BB7               	clrf	??_main& (0+255),b
   867   0026A2                     u3188:
   868   0026A2  51B7               	movf	??_main& (0+255),w,b
   869   0026A4  6E06               	movwf	analogRead@pin_tris^(0+1280),c
   870   0026A6  6A07               	clrf	(analogRead@pin_tris+1)^(0+1280),c
   871   0026A8  6A08               	clrf	(analogRead@pin_tris+2)^(0+1280),c
   872   0026AA  6A09               	clrf	(analogRead@pin_tris+3)^(0+1280),c
   873   0026AC  0104               	movlb	4	; () banked
   874   0026AE  B900               	btfsc	0,4,b	;volatile
   875   0026B0  EF5C  F013         	goto	u3191
   876   0026B4  EF61  F013         	goto	u3190
   877   0026B8                     u3191:
   878   0026B8  0105               	movlb	5	; () banked
   879   0026BA  6BB8               	clrf	(??_main+1)& (0+255),b
   880   0026BC  2BB8               	incf	(??_main+1)& (0+255),f,b
   881   0026BE  EF63  F013         	goto	u3198
   882   0026C2                     u3190:
   883   0026C2  0105               	movlb	5	; () banked
   884   0026C4  6BB8               	clrf	(??_main+1)& (0+255),b
   885   0026C6                     u3198:
   886   0026C6  51B8               	movf	(??_main+1)& (0+255),w,b
   887   0026C8  6E02               	movwf	analogRead@pin_ansel^(0+1280),c
   888   0026CA  6A03               	clrf	(analogRead@pin_ansel+1)^(0+1280),c
   889   0026CC  6A04               	clrf	(analogRead@pin_ansel+2)^(0+1280),c
   890   0026CE  6A05               	clrf	(analogRead@pin_ansel+3)^(0+1280),c
   891   0026D0  EC9C  F024         	call	_analogRead	;wreg free
   892   0026D4  C502  F560         	movff	?_analogRead,analogMap@analog_reading
   893   0026D8  C503  F561         	movff	?_analogRead+1,analogMap@analog_reading+1
   894   0026DC  ECB0  F01D         	call	_analogMap	;wreg free
   895   0026E0  C560  F576         	movff	?_analogMap,___fltol@f1
   896   0026E4  C561  F577         	movff	?_analogMap+1,___fltol@f1+1
   897   0026E8  C562  F578         	movff	?_analogMap+2,___fltol@f1+2
   898   0026EC  C563  F579         	movff	?_analogMap+3,___fltol@f1+3
   899   0026F0  ECFC  F020         	call	___fltol	;wreg free
   900   0026F4  0105               	movlb	5	; () banked
   901   0026F6  5176               	movf	?___fltol& (0+255),w,b
   902   0026F8  6FCB               	movwf	main@lux& (0+255),b
   903                           
   904                           ;C:/Users/a_hui/OneDrive - Camosun College/term2/ecet165_embedded_mc/labs/ecet165-labs/l
      +                          ab11/analogTest.c: 61:                     break;
   905   0026FA  EF15  F014         	goto	l3503
   906   0026FE                     l3487:
   907                           
   908                           ; BSR set to: 5
   909                           ;C:/Users/a_hui/OneDrive - Camosun College/term2/ecet165_embedded_mc/labs/ecet165-labs/l
      +                          ab11/analogTest.c: 63:                     pot_voltage = analogMap(analogRead(ANSELAbits
      +                          .ANSELA3, TRISAbits.TRISA3, 0x03), 4095, 0, 5.00, 0.00);
   910   0026FE  0104               	movlb	4	; () banked
   911   002700  B700               	btfsc	0,3,b	;volatile
   912   002702  EF85  F013         	goto	u3201
   913   002706  EF8A  F013         	goto	u3200
   914   00270A                     u3201:
   915   00270A  0105               	movlb	5	; () banked
   916   00270C  6BB7               	clrf	??_main& (0+255),b
   917   00270E  2BB7               	incf	??_main& (0+255),f,b
   918   002710  EF8C  F013         	goto	u3208
   919   002714                     u3200:
   920   002714  0105               	movlb	5	; () banked
   921   002716  6BB7               	clrf	??_main& (0+255),b
   922   002718                     u3208:
   923   002718  51B7               	movf	??_main& (0+255),w,b
   924   00271A  6E02               	movwf	analogRead@pin_ansel^(0+1280),c
   925   00271C  6A03               	clrf	(analogRead@pin_ansel+1)^(0+1280),c
   926   00271E  6A04               	clrf	(analogRead@pin_ansel+2)^(0+1280),c
   927   002720  6A05               	clrf	(analogRead@pin_ansel+3)^(0+1280),c
   928   002722  B6C6               	btfsc	198,3,c	;volatile
   929   002724  EF96  F013         	goto	u3211
   930   002728  EF9A  F013         	goto	u3210
   931   00272C                     u3211:
   932   00272C  6BB8               	clrf	(??_main+1)& (0+255),b
   933   00272E  2BB8               	incf	(??_main+1)& (0+255),f,b
   934   002730  EF9C  F013         	goto	u3218
   935   002734                     u3210:
   936   002734  0105               	movlb	5	; () banked
   937   002736  6BB8               	clrf	(??_main+1)& (0+255),b
   938   002738                     u3218:
   939   002738  51B8               	movf	(??_main+1)& (0+255),w,b
   940   00273A  6E06               	movwf	analogRead@pin_tris^(0+1280),c
   941   00273C  6A07               	clrf	(analogRead@pin_tris+1)^(0+1280),c
   942   00273E  6A08               	clrf	(analogRead@pin_tris+2)^(0+1280),c
   943   002740  6A09               	clrf	(analogRead@pin_tris+3)^(0+1280),c
   944   002742  0E03               	movlw	3
   945   002744  6E0A               	movwf	analogRead@pin_designation^(0+1280),c
   946   002746  EC9C  F024         	call	_analogRead	;wreg free
   947   00274A  C502  F560         	movff	?_analogRead,analogMap@analog_reading
   948   00274E  C503  F561         	movff	?_analogRead+1,analogMap@analog_reading+1
   949   002752  0E0F               	movlw	15
   950   002754  0105               	movlb	5	; () banked
   951   002756  6F63               	movwf	(analogMap@analog_max+1)& (0+255),b
   952   002758  6962               	setf	analogMap@analog_max& (0+255),b
   953   00275A  0E00               	movlw	0
   954   00275C  6F65               	movwf	(analogMap@analog_min+1)& (0+255),b
   955   00275E  0E00               	movlw	0
   956   002760  6F64               	movwf	analogMap@analog_min& (0+255),b
   957   002762  0E00               	movlw	0
   958   002764  6F66               	movwf	analogMap@sensor_max& (0+255),b
   959   002766  0E00               	movlw	0
   960   002768  6F67               	movwf	(analogMap@sensor_max+1)& (0+255),b
   961   00276A  0EA0               	movlw	160
   962   00276C  6F68               	movwf	(analogMap@sensor_max+2)& (0+255),b
   963   00276E  0E40               	movlw	64
   964   002770  6F69               	movwf	(analogMap@sensor_max+3)& (0+255),b
   965   002772  0E00               	movlw	0
   966   002774  6F6A               	movwf	analogMap@sensor_min& (0+255),b
   967   002776  0E00               	movlw	0
   968   002778  6F6B               	movwf	(analogMap@sensor_min+1)& (0+255),b
   969   00277A  0E00               	movlw	0
   970   00277C  6F6C               	movwf	(analogMap@sensor_min+2)& (0+255),b
   971   00277E  0E00               	movlw	0
   972   002780  6F6D               	movwf	(analogMap@sensor_min+3)& (0+255),b
   973   002782  ECB0  F01D         	call	_analogMap	;wreg free
   974   002786  C560  F5C5         	movff	?_analogMap,main@pot_voltage
   975   00278A  C561  F5C6         	movff	?_analogMap+1,main@pot_voltage+1
   976   00278E  C562  F5C7         	movff	?_analogMap+2,main@pot_voltage+2
   977   002792  C563  F5C8         	movff	?_analogMap+3,main@pot_voltage+3
   978                           
   979                           ;C:/Users/a_hui/OneDrive - Camosun College/term2/ecet165_embedded_mc/labs/ecet165-labs/l
      +                          ab11/analogTest.c: 64:                     break;
   980   002796  EF15  F014         	goto	l3503
   981   00279A                     l3489:
   982                           
   983                           ; BSR set to: 5
   984                           ;C:/Users/a_hui/OneDrive - Camosun College/term2/ecet165_embedded_mc/labs/ecet165-labs/l
      +                          ab11/analogTest.c: 66:                     LCDgoto(0x40);
   985   00279A  0E40               	movlw	64
   986   00279C  EC1D  F025         	call	_LCDgoto
   987   0027A0                     
   988                           ;C:/Users/a_hui/OneDrive - Camosun College/term2/ecet165_embedded_mc/labs/ecet165-labs/l
      +                          ab11/analogTest.c: 67:                     LCDprintf("P:%1f2V ", pot_voltage);
   989   0027A0  0E11               	movlw	low STR_1
   990   0027A2  0105               	movlb	5	; () banked
   991   0027A4  6F80               	movwf	LCDprintf@shell& (0+255),b
   992   0027A6  0E26               	movlw	high STR_1
   993   0027A8  6F81               	movwf	(LCDprintf@shell+1)& (0+255),b
   994   0027AA  C5C5  F582         	movff	main@pot_voltage,?_LCDprintf+2
   995   0027AE  C5C6  F583         	movff	main@pot_voltage+1,?_LCDprintf+3
   996   0027B2  C5C7  F584         	movff	main@pot_voltage+2,?_LCDprintf+4
   997   0027B6  C5C8  F585         	movff	main@pot_voltage+3,?_LCDprintf+5
   998   0027BA  EC09  F01A         	call	_LCDprintf	;wreg free
   999                           
  1000                           ;C:/Users/a_hui/OneDrive - Camosun College/term2/ecet165_embedded_mc/labs/ecet165-labs/l
      +                          ab11/analogTest.c: 68:                     break;
  1001   0027BE  EF15  F014         	goto	l3503
  1002   0027C2                     l3493:
  1003                           
  1004                           ; BSR set to: 5
  1005                           ;C:/Users/a_hui/OneDrive - Camosun College/term2/ecet165_embedded_mc/labs/ecet165-labs/l
      +                          ab11/analogTest.c: 70:                     LCDgoto(0x49);
  1006   0027C2  0E49               	movlw	73
  1007   0027C4  EC1D  F025         	call	_LCDgoto
  1008   0027C8                     
  1009                           ;C:/Users/a_hui/OneDrive - Camosun College/term2/ecet165_embedded_mc/labs/ecet165-labs/l
      +                          ab11/analogTest.c: 71:                     LCDprintf("L:%i3%", lux);
  1010   0027C8  0E1A               	movlw	low STR_2
  1011   0027CA  0105               	movlb	5	; () banked
  1012   0027CC  6F80               	movwf	LCDprintf@shell& (0+255),b
  1013   0027CE  0E26               	movlw	high STR_2
  1014   0027D0  6F81               	movwf	(LCDprintf@shell+1)& (0+255),b
  1015   0027D2  C5CB  F582         	movff	main@lux,?_LCDprintf+2
  1016   0027D6  6B83               	clrf	(?_LCDprintf+3)& (0+255),b
  1017   0027D8  EC09  F01A         	call	_LCDprintf	;wreg free
  1018                           
  1019                           ;C:/Users/a_hui/OneDrive - Camosun College/term2/ecet165_embedded_mc/labs/ecet165-labs/l
      +                          ab11/analogTest.c: 72:                     break;
  1020   0027DC  EF15  F014         	goto	l3503
  1021   0027E0                     l3497:
  1022                           
  1023                           ; BSR set to: 5
  1024                           ;C:/Users/a_hui/OneDrive - Camosun College/term2/ecet165_embedded_mc/labs/ecet165-labs/l
      +                          ab11/analogTest.c: 74:                     RTCupdate(&current_time);
  1025   0027E0  0ECE               	movlw	low main@current_time
  1026   0027E2  6FAF               	movwf	RTCupdate@current_time& (0+255),b
  1027   0027E4  0E05               	movlw	high main@current_time
  1028   0027E6  6FB0               	movwf	(RTCupdate@current_time+1)& (0+255),b
  1029   0027E8  EC96  F01F         	call	_RTCupdate	;wreg free
  1030                           
  1031                           ;C:/Users/a_hui/OneDrive - Camosun College/term2/ecet165_embedded_mc/labs/ecet165-labs/l
      +                          ab11/analogTest.c: 75:                     break;
  1032   0027EC  EF15  F014         	goto	l3503
  1033   0027F0                     l3501:
  1034                           
  1035                           ; BSR set to: 5
  1036   0027F0  51F5               	movf	_tick_count& (0+255),w,b	;volatile
  1037   0027F2  6FB7               	movwf	??_main& (0+255),b
  1038   0027F4  6BB8               	clrf	(??_main+1)& (0+255),b
  1039                           
  1040                           ; Switch on 2 bytes has been partitioned into a top level switch of size 1, and 1 sub-sw
      +                          itches
  1041                           ; Switch size 1, requested type "simple"
  1042                           ; Number of cases is 1, Range of values is 0 to 0
  1043                           ; switch strategies available:
  1044                           ; Name         Instructions Cycles
  1045                           ; simple_byte            4     3 (average)
  1046                           ;	Chosen strategy is simple_byte
  1047   0027F6  51B8               	movf	(??_main+1)& (0+255),w,b
  1048   0027F8  0A00               	xorlw	0	; case 0
  1049   0027FA  B4D8               	btfsc	status,2,c
  1050   0027FC  EF02  F014         	goto	l3707
  1051   002800  EFF0  F013         	goto	l3497
  1052   002804                     l3707:
  1053                           
  1054                           ; BSR set to: 5
  1055                           ; Switch size 1, requested type "simple"
  1056                           ; Number of cases is 4, Range of values is 10 to 40
  1057                           ; switch strategies available:
  1058                           ; Name         Instructions Cycles
  1059                           ; simple_byte           13     7 (average)
  1060                           ;	Chosen strategy is simple_byte
  1061   002804  51B7               	movf	??_main& (0+255),w,b
  1062   002806  0A0A               	xorlw	10	; case 10
  1063   002808  B4D8               	btfsc	status,2,c
  1064   00280A  EF2C  F013         	goto	l3485
  1065   00280E  0A1E               	xorlw	30	; case 20
  1066   002810  B4D8               	btfsc	status,2,c
  1067   002812  EF7F  F013         	goto	l3487
  1068   002816  0A0A               	xorlw	10	; case 30
  1069   002818  B4D8               	btfsc	status,2,c
  1070   00281A  EFCD  F013         	goto	l3489
  1071   00281E  0A36               	xorlw	54	; case 40
  1072   002820  B4D8               	btfsc	status,2,c
  1073   002822  EFE1  F013         	goto	l3493
  1074   002826  EFF0  F013         	goto	l3497
  1075   00282A                     l3503:
  1076                           
  1077                           ;C:/Users/a_hui/OneDrive - Camosun College/term2/ecet165_embedded_mc/labs/ecet165-labs/l
      +                          ab11/analogTest.c: 57:         while(nSetRTC){
  1078   00282A  0105               	movlb	5	; () banked
  1079   00282C  51EE               	movf	_nSetRTC& (0+255),w,b
  1080   00282E  A4D8               	btfss	status,2,c
  1081   002830  EF1C  F014         	goto	u3221
  1082   002834  EF1E  F014         	goto	u3220
  1083   002838                     u3221:
  1084   002838  EFF8  F013         	goto	l3501
  1085   00283C                     u3220:
  1086   00283C                     
  1087                           ; BSR set to: 5
  1088                           ;C:/Users/a_hui/OneDrive - Camosun College/term2/ecet165_embedded_mc/labs/ecet165-labs/l
      +                          ab11/analogTest.c: 80:         LCDinstruct(0x02);
  1089   00283C  0E02               	movlw	2
  1090   00283E  ECE1  F023         	call	_LCDinstruct
  1091   002842                     
  1092                           ;C:/Users/a_hui/OneDrive - Camosun College/term2/ecet165_embedded_mc/labs/ecet165-labs/l
      +                          ab11/analogTest.c: 81:         position = 0;
  1093   002842  0E00               	movlw	0
  1094   002844  0105               	movlb	5	; () banked
  1095   002846  6FCC               	movwf	main@position& (0+255),b
  1096                           
  1097                           ;C:/Users/a_hui/OneDrive - Camosun College/term2/ecet165_embedded_mc/labs/ecet165-labs/l
      +                          ab11/analogTest.c: 84:         while(!nSetRTC){
  1098   002848  EF87  F015         	goto	l3585
  1099   00284C                     l3509:
  1100                           
  1101                           ; BSR set to: 5
  1102                           ;C:/Users/a_hui/OneDrive - Camosun College/term2/ecet165_embedded_mc/labs/ecet165-labs/l
      +                          ab11/analogTest.c: 85:             key = keyScan();
  1103   00284C  EC56  F020         	call	_keyScan	;wreg free
  1104   002850  0105               	movlb	5	; () banked
  1105   002852  6FCD               	movwf	main@key& (0+255),b
  1106                           
  1107                           ;C:/Users/a_hui/OneDrive - Camosun College/term2/ecet165_embedded_mc/labs/ecet165-labs/l
      +                          ab11/analogTest.c: 88:             switch (key) {
  1108   002854  EF62  F015         	goto	l3583
  1109   002858                     l3511:
  1110                           
  1111                           ; BSR set to: 5
  1112                           ;C:/Users/a_hui/OneDrive - Camosun College/term2/ecet165_embedded_mc/labs/ecet165-labs/l
      +                          ab11/analogTest.c: 90:                     LCDgoto(++position);
  1113   002858  2BCC               	incf	main@position& (0+255),f,b
  1114   00285A  51CC               	movf	main@position& (0+255),w,b
  1115   00285C  EC1D  F025         	call	_LCDgoto
  1116                           
  1117                           ;C:/Users/a_hui/OneDrive - Camosun College/term2/ecet165_embedded_mc/labs/ecet165-labs/l
      +                          ab11/analogTest.c: 91:                     break;
  1118   002860  EF87  F015         	goto	l3585
  1119   002864                     l3513:
  1120                           
  1121                           ; BSR set to: 5
  1122                           ;C:/Users/a_hui/OneDrive - Camosun College/term2/ecet165_embedded_mc/labs/ecet165-labs/l
      +                          ab11/analogTest.c: 93:                     if(position != 0){
  1123   002864  51CC               	movf	main@position& (0+255),w,b
  1124   002866  B4D8               	btfsc	status,2,c
  1125   002868  EF38  F014         	goto	u3231
  1126   00286C  EF3A  F014         	goto	u3230
  1127   002870                     u3231:
  1128   002870  EF87  F015         	goto	l3585
  1129   002874                     u3230:
  1130   002874                     
  1131                           ; BSR set to: 5
  1132                           ;C:/Users/a_hui/OneDrive - Camosun College/term2/ecet165_embedded_mc/labs/ecet165-labs/l
      +                          ab11/analogTest.c: 94:                         LCDgoto(--position);
  1133   002874  07CC               	decf	main@position& (0+255),f,b
  1134   002876  51CC               	movf	main@position& (0+255),w,b
  1135   002878  EC1D  F025         	call	_LCDgoto
  1136   00287C  EF87  F015         	goto	l3585
  1137   002880                     l3517:
  1138                           
  1139                           ; BSR set to: 5
  1140                           ;C:/Users/a_hui/OneDrive - Camosun College/term2/ecet165_embedded_mc/labs/ecet165-labs/l
      +                          ab11/analogTest.c: 98:                     current_time.hours = 12;
  1141   002880  0E0C               	movlw	12
  1142   002882  6FCE               	movwf	main@current_time& (0+255),b
  1143                           
  1144                           ;C:/Users/a_hui/OneDrive - Camosun College/term2/ecet165_embedded_mc/labs/ecet165-labs/l
      +                          ab11/analogTest.c: 99:                     current_time.minutes = 0;
  1145   002884  0E00               	movlw	0
  1146   002886  6FCF               	movwf	(main@current_time+1)& (0+255),b
  1147                           
  1148                           ;C:/Users/a_hui/OneDrive - Camosun College/term2/ecet165_embedded_mc/labs/ecet165-labs/l
      +                          ab11/analogTest.c: 100:                     current_time.seconds = 0;
  1149   002888  0E00               	movlw	0
  1150   00288A  6FD0               	movwf	(main@current_time+2)& (0+255),b
  1151                           
  1152                           ;C:/Users/a_hui/OneDrive - Camosun College/term2/ecet165_embedded_mc/labs/ecet165-labs/l
      +                          ab11/analogTest.c: 101:                     current_time.meridian = 'a';
  1153   00288C  0E61               	movlw	97
  1154   00288E  6FD1               	movwf	(main@current_time+3)& (0+255),b
  1155                           
  1156                           ;C:/Users/a_hui/OneDrive - Camosun College/term2/ecet165_embedded_mc/labs/ecet165-labs/l
      +                          ab11/analogTest.c: 102:                     nSetRTC = 1;
  1157   002890  0E01               	movlw	1
  1158   002892  6FEE               	movwf	_nSetRTC& (0+255),b
  1159                           
  1160                           ;C:/Users/a_hui/OneDrive - Camosun College/term2/ecet165_embedded_mc/labs/ecet165-labs/l
      +                          ab11/analogTest.c: 103:                     break;
  1161   002894  EF87  F015         	goto	l3585
  1162   002898                     l3519:
  1163                           
  1164                           ; BSR set to: 5
  1165                           ;C:/Users/a_hui/OneDrive - Camosun College/term2/ecet165_embedded_mc/labs/ecet165-labs/l
      +                          ab11/analogTest.c: 105:                     nSetRTC = 1;
  1166   002898  0E01               	movlw	1
  1167   00289A  6FEE               	movwf	_nSetRTC& (0+255),b
  1168                           
  1169                           ;C:/Users/a_hui/OneDrive - Camosun College/term2/ecet165_embedded_mc/labs/ecet165-labs/l
      +                          ab11/analogTest.c: 106:                     break;
  1170   00289C  EF87  F015         	goto	l3585
  1171   0028A0                     l3521:
  1172                           
  1173                           ; BSR set to: 5
  1174                           ;C:/Users/a_hui/OneDrive - Camosun College/term2/ecet165_embedded_mc/labs/ecet165-labs/l
      +                          ab11/analogTest.c: 110:                     current_time.meridian = (current_time.meridi
      +                          an == 'a')? 'p' : 'a';
  1175   0028A0  0E61               	movlw	97
  1176   0028A2  19D1               	xorwf	(main@current_time+3)& (0+255),w,b
  1177   0028A4  B4D8               	btfsc	status,2,c
  1178   0028A6  EF57  F014         	goto	u3241
  1179   0028AA  EF59  F014         	goto	u3240
  1180   0028AE                     u3241:
  1181   0028AE  EF5F  F014         	goto	l3525
  1182   0028B2                     u3240:
  1183   0028B2                     
  1184                           ; BSR set to: 5
  1185   0028B2  0E00               	movlw	0
  1186   0028B4  6FCA               	movwf	(_main$296+1)& (0+255),b
  1187   0028B6  0E61               	movlw	97
  1188   0028B8  6FC9               	movwf	_main$296& (0+255),b
  1189   0028BA  EF63  F014         	goto	l3527
  1190   0028BE                     l3525:
  1191                           
  1192                           ; BSR set to: 5
  1193   0028BE  0E00               	movlw	0
  1194   0028C0  6FCA               	movwf	(_main$296+1)& (0+255),b
  1195   0028C2  0E70               	movlw	112
  1196   0028C4  6FC9               	movwf	_main$296& (0+255),b
  1197   0028C6                     l3527:
  1198                           
  1199                           ; BSR set to: 5
  1200   0028C6  C5C9  F5D1         	movff	_main$296,main@current_time+3
  1201   0028CA                     
  1202                           ; BSR set to: 5
  1203                           ;C:/Users/a_hui/OneDrive - Camosun College/term2/ecet165_embedded_mc/labs/ecet165-labs/l
      +                          ab11/analogTest.c: 111:                     LCDgoto(0x09);
  1204   0028CA  0E09               	movlw	9
  1205   0028CC  EC1D  F025         	call	_LCDgoto
  1206   0028D0                     
  1207                           ;C:/Users/a_hui/OneDrive - Camosun College/term2/ecet165_embedded_mc/labs/ecet165-labs/l
      +                          ab11/analogTest.c: 112:                     LCDprintc(current_time.meridian);
  1208   0028D0  0105               	movlb	5	; () banked
  1209   0028D2  51D1               	movf	(main@current_time+3)& (0+255),w,b
  1210   0028D4  EC31  F023         	call	_LCDprintc
  1211   0028D8                     
  1212                           ;C:/Users/a_hui/OneDrive - Camosun College/term2/ecet165_embedded_mc/labs/ecet165-labs/l
      +                          ab11/analogTest.c: 113:                     LCDgoto(position);
  1213   0028D8  0105               	movlb	5	; () banked
  1214   0028DA  51CC               	movf	main@position& (0+255),w,b
  1215   0028DC  EC1D  F025         	call	_LCDgoto
  1216                           
  1217                           ;C:/Users/a_hui/OneDrive - Camosun College/term2/ecet165_embedded_mc/labs/ecet165-labs/l
      +                          ab11/analogTest.c: 114:                     break;
  1218   0028E0  EF87  F015         	goto	l3585
  1219   0028E4                     l3535:
  1220                           
  1221                           ; BSR set to: 5
  1222                           ;C:/Users/a_hui/OneDrive - Camosun College/term2/ecet165_embedded_mc/labs/ecet165-labs/l
      +                          ab11/analogTest.c: 119:                             if ((position % 3)==0){
  1223   0028E4  C5CC  F502         	movff	main@position,___awmod@dividend
  1224   0028E8  6A03               	clrf	(___awmod@dividend+1)^(0+1280),c
  1225   0028EA  0E00               	movlw	0
  1226   0028EC  6E05               	movwf	(___awmod@divisor+1)^(0+1280),c
  1227   0028EE  0E03               	movlw	3
  1228   0028F0  6E04               	movwf	___awmod@divisor^(0+1280),c
  1229   0028F2  ECD9  F022         	call	___awmod	;wreg free
  1230   0028F6  5002               	movf	?___awmod^(0+1280),w,c
  1231   0028F8  1003               	iorwf	(?___awmod+1)^(0+1280),w,c
  1232   0028FA  A4D8               	btfss	status,2,c
  1233   0028FC  EF82  F014         	goto	u3251
  1234   002900  EF84  F014         	goto	u3250
  1235   002904                     u3251:
  1236   002904  EF96  F014         	goto	l3539
  1237   002908                     u3250:
  1238   002908                     
  1239                           ;C:/Users/a_hui/OneDrive - Camosun College/term2/ecet165_embedded_mc/labs/ecet165-labs/l
      +                          ab11/analogTest.c: 120:                                 current_time.hours = (current_ti
      +                          me.hours % 10) + 10*(key-'0');
  1240   002908  C5CE  F502         	movff	main@current_time,___awmod@dividend
  1241   00290C  6A03               	clrf	(___awmod@dividend+1)^(0+1280),c
  1242   00290E  0E00               	movlw	0
  1243   002910  6E05               	movwf	(___awmod@divisor+1)^(0+1280),c
  1244   002912  0E0A               	movlw	10
  1245   002914  6E04               	movwf	___awmod@divisor^(0+1280),c
  1246   002916  ECD9  F022         	call	___awmod	;wreg free
  1247   00291A  0105               	movlb	5	; () banked
  1248   00291C  51CD               	movf	main@key& (0+255),w,b
  1249   00291E  0D0A               	mullw	10
  1250   002920  50F3               	movf	243,w,c
  1251   002922  2402               	addwf	?___awmod^(0+1280),w,c
  1252   002924  0F20               	addlw	32
  1253   002926  6FCE               	movwf	main@current_time& (0+255),b
  1254                           
  1255                           ;C:/Users/a_hui/OneDrive - Camosun College/term2/ecet165_embedded_mc/labs/ecet165-labs/l
      +                          ab11/analogTest.c: 121:                             }else{
  1256   002928  EFA5  F014         	goto	l3543
  1257   00292C                     l3539:
  1258                           
  1259                           ;C:/Users/a_hui/OneDrive - Camosun College/term2/ecet165_embedded_mc/labs/ecet165-labs/l
      +                          ab11/analogTest.c: 122:                                 current_time.hours -= current_ti
      +                          me.hours % 10;
  1260   00292C  C5CE  F502         	movff	main@current_time,___awmod@dividend
  1261   002930  6A03               	clrf	(___awmod@dividend+1)^(0+1280),c
  1262   002932  0E00               	movlw	0
  1263   002934  6E05               	movwf	(___awmod@divisor+1)^(0+1280),c
  1264   002936  0E0A               	movlw	10
  1265   002938  6E04               	movwf	___awmod@divisor^(0+1280),c
  1266   00293A  ECD9  F022         	call	___awmod	;wreg free
  1267   00293E  5002               	movf	?___awmod^(0+1280),w,c
  1268   002940  0105               	movlb	5	; () banked
  1269   002942  5FCE               	subwf	main@current_time& (0+255),f,b
  1270   002944                     
  1271                           ; BSR set to: 5
  1272                           ;C:/Users/a_hui/OneDrive - Camosun College/term2/ecet165_embedded_mc/labs/ecet165-labs/l
      +                          ab11/analogTest.c: 123:                                 current_time.hours += key - '0';
  1273   002944  51CD               	movf	main@key& (0+255),w,b
  1274   002946  0FD0               	addlw	208
  1275   002948  27CE               	addwf	main@current_time& (0+255),f,b
  1276   00294A                     l3543:
  1277                           
  1278                           ; BSR set to: 5
  1279                           ;C:/Users/a_hui/OneDrive - Camosun College/term2/ecet165_embedded_mc/labs/ecet165-labs/l
      +                          ab11/analogTest.c: 125:                             current_time.hours = (current_time.h
      +                          ours - 1) % 12 + 1;
  1280   00294A  0EFF               	movlw	255
  1281   00294C  25CE               	addwf	main@current_time& (0+255),w,b
  1282   00294E  6E02               	movwf	___awmod@dividend^(0+1280),c
  1283   002950  6A03               	clrf	(___awmod@dividend+1)^(0+1280),c
  1284   002952  0EFF               	movlw	255
  1285   002954  2203               	addwfc	(___awmod@dividend+1)^(0+1280),f,c
  1286   002956  0E00               	movlw	0
  1287   002958  6E05               	movwf	(___awmod@divisor+1)^(0+1280),c
  1288   00295A  0E0C               	movlw	12
  1289   00295C  6E04               	movwf	___awmod@divisor^(0+1280),c
  1290   00295E  ECD9  F022         	call	___awmod	;wreg free
  1291   002962  2802               	incf	?___awmod^(0+1280),w,c
  1292   002964  0105               	movlb	5	; () banked
  1293   002966  6FCE               	movwf	main@current_time& (0+255),b
  1294   002968                     
  1295                           ; BSR set to: 5
  1296                           ;C:/Users/a_hui/OneDrive - Camosun College/term2/ecet165_embedded_mc/labs/ecet165-labs/l
      +                          ab11/analogTest.c: 126:                             LCDprintc(key);
  1297   002968  51CD               	movf	main@key& (0+255),w,b
  1298   00296A  EC31  F023         	call	_LCDprintc
  1299   00296E                     l3547:
  1300                           
  1301                           ;C:/Users/a_hui/OneDrive - Camosun College/term2/ecet165_embedded_mc/labs/ecet165-labs/l
      +                          ab11/analogTest.c: 127:                             position++;
  1302   00296E  0105               	movlb	5	; () banked
  1303   002970  2BCC               	incf	main@position& (0+255),f,b
  1304                           
  1305                           ;C:/Users/a_hui/OneDrive - Camosun College/term2/ecet165_embedded_mc/labs/ecet165-labs/l
      +                          ab11/analogTest.c: 128:                             break;
  1306   002972  EF87  F015         	goto	l3585
  1307   002976                     l3549:
  1308                           
  1309                           ; BSR set to: 5
  1310                           ;C:/Users/a_hui/OneDrive - Camosun College/term2/ecet165_embedded_mc/labs/ecet165-labs/l
      +                          ab11/analogTest.c: 130:                             if ((position % 3)==0){
  1311   002976  C5CC  F502         	movff	main@position,___awmod@dividend
  1312   00297A  6A03               	clrf	(___awmod@dividend+1)^(0+1280),c
  1313   00297C  0E00               	movlw	0
  1314   00297E  6E05               	movwf	(___awmod@divisor+1)^(0+1280),c
  1315   002980  0E03               	movlw	3
  1316   002982  6E04               	movwf	___awmod@divisor^(0+1280),c
  1317   002984  ECD9  F022         	call	___awmod	;wreg free
  1318   002988  5002               	movf	?___awmod^(0+1280),w,c
  1319   00298A  1003               	iorwf	(?___awmod+1)^(0+1280),w,c
  1320   00298C  A4D8               	btfss	status,2,c
  1321   00298E  EFCB  F014         	goto	u3261
  1322   002992  EFCD  F014         	goto	u3260
  1323   002996                     u3261:
  1324   002996  EFDF  F014         	goto	l3553
  1325   00299A                     u3260:
  1326   00299A                     
  1327                           ;C:/Users/a_hui/OneDrive - Camosun College/term2/ecet165_embedded_mc/labs/ecet165-labs/l
      +                          ab11/analogTest.c: 131:                                 current_time.minutes = (current_
      +                          time.minutes % 10) + 10*(key-'0');
  1328   00299A  C5CF  F502         	movff	main@current_time+1,___awmod@dividend
  1329   00299E  6A03               	clrf	(___awmod@dividend+1)^(0+1280),c
  1330   0029A0  0E00               	movlw	0
  1331   0029A2  6E05               	movwf	(___awmod@divisor+1)^(0+1280),c
  1332   0029A4  0E0A               	movlw	10
  1333   0029A6  6E04               	movwf	___awmod@divisor^(0+1280),c
  1334   0029A8  ECD9  F022         	call	___awmod	;wreg free
  1335   0029AC  0105               	movlb	5	; () banked
  1336   0029AE  51CD               	movf	main@key& (0+255),w,b
  1337   0029B0  0D0A               	mullw	10
  1338   0029B2  50F3               	movf	243,w,c
  1339   0029B4  2402               	addwf	?___awmod^(0+1280),w,c
  1340   0029B6  0F20               	addlw	32
  1341   0029B8  6FCF               	movwf	(main@current_time+1)& (0+255),b
  1342                           
  1343                           ;C:/Users/a_hui/OneDrive - Camosun College/term2/ecet165_embedded_mc/labs/ecet165-labs/l
      +                          ab11/analogTest.c: 132:                             }else{
  1344   0029BA  EFEE  F014         	goto	l3557
  1345   0029BE                     l3553:
  1346                           
  1347                           ;C:/Users/a_hui/OneDrive - Camosun College/term2/ecet165_embedded_mc/labs/ecet165-labs/l
      +                          ab11/analogTest.c: 133:                                 current_time.minutes -= current_
      +                          time.minutes % 10;
  1348   0029BE  C5CF  F502         	movff	main@current_time+1,___awmod@dividend
  1349   0029C2  6A03               	clrf	(___awmod@dividend+1)^(0+1280),c
  1350   0029C4  0E00               	movlw	0
  1351   0029C6  6E05               	movwf	(___awmod@divisor+1)^(0+1280),c
  1352   0029C8  0E0A               	movlw	10
  1353   0029CA  6E04               	movwf	___awmod@divisor^(0+1280),c
  1354   0029CC  ECD9  F022         	call	___awmod	;wreg free
  1355   0029D0  5002               	movf	?___awmod^(0+1280),w,c
  1356   0029D2  0105               	movlb	5	; () banked
  1357   0029D4  5FCF               	subwf	(main@current_time+1)& (0+255),f,b
  1358   0029D6                     
  1359                           ; BSR set to: 5
  1360                           ;C:/Users/a_hui/OneDrive - Camosun College/term2/ecet165_embedded_mc/labs/ecet165-labs/l
      +                          ab11/analogTest.c: 134:                                 current_time.minutes += key - '0
      +                          ';
  1361   0029D6  51CD               	movf	main@key& (0+255),w,b
  1362   0029D8  0FD0               	addlw	208
  1363   0029DA  27CF               	addwf	(main@current_time+1)& (0+255),f,b
  1364   0029DC                     l3557:
  1365                           
  1366                           ; BSR set to: 5
  1367                           ;C:/Users/a_hui/OneDrive - Camosun College/term2/ecet165_embedded_mc/labs/ecet165-labs/l
      +                          ab11/analogTest.c: 136:                             current_time.minutes = current_time.
      +                          minutes % 60;
  1368   0029DC  C5CF  F502         	movff	main@current_time+1,___awmod@dividend
  1369   0029E0  6A03               	clrf	(___awmod@dividend+1)^(0+1280),c
  1370   0029E2  0E00               	movlw	0
  1371   0029E4  6E05               	movwf	(___awmod@divisor+1)^(0+1280),c
  1372   0029E6  0E3C               	movlw	60
  1373   0029E8  6E04               	movwf	___awmod@divisor^(0+1280),c
  1374   0029EA  ECD9  F022         	call	___awmod	;wreg free
  1375   0029EE  5002               	movf	?___awmod^(0+1280),w,c
  1376   0029F0  0105               	movlb	5	; () banked
  1377   0029F2  6FCF               	movwf	(main@current_time+1)& (0+255),b
  1378   0029F4                     
  1379                           ; BSR set to: 5
  1380                           ;C:/Users/a_hui/OneDrive - Camosun College/term2/ecet165_embedded_mc/labs/ecet165-labs/l
      +                          ab11/analogTest.c: 137:                             LCDprintc(key);
  1381   0029F4  51CD               	movf	main@key& (0+255),w,b
  1382   0029F6  EC31  F023         	call	_LCDprintc
  1383   0029FA  EFB7  F014         	goto	l3547
  1384   0029FE                     l3563:
  1385                           
  1386                           ; BSR set to: 5
  1387                           ;C:/Users/a_hui/OneDrive - Camosun College/term2/ecet165_embedded_mc/labs/ecet165-labs/l
      +                          ab11/analogTest.c: 141:                             if ((position % 3)==0){
  1388   0029FE  C5CC  F502         	movff	main@position,___awmod@dividend
  1389   002A02  6A03               	clrf	(___awmod@dividend+1)^(0+1280),c
  1390   002A04  0E00               	movlw	0
  1391   002A06  6E05               	movwf	(___awmod@divisor+1)^(0+1280),c
  1392   002A08  0E03               	movlw	3
  1393   002A0A  6E04               	movwf	___awmod@divisor^(0+1280),c
  1394   002A0C  ECD9  F022         	call	___awmod	;wreg free
  1395   002A10  5002               	movf	?___awmod^(0+1280),w,c
  1396   002A12  1003               	iorwf	(?___awmod+1)^(0+1280),w,c
  1397   002A14  A4D8               	btfss	status,2,c
  1398   002A16  EF0F  F015         	goto	u3271
  1399   002A1A  EF11  F015         	goto	u3270
  1400   002A1E                     u3271:
  1401   002A1E  EF23  F015         	goto	l3567
  1402   002A22                     u3270:
  1403   002A22                     
  1404                           ;C:/Users/a_hui/OneDrive - Camosun College/term2/ecet165_embedded_mc/labs/ecet165-labs/l
      +                          ab11/analogTest.c: 142:                                 current_time.seconds = (current_
      +                          time.seconds % 10) + 10*(key-'0');
  1405   002A22  C5D0  F502         	movff	main@current_time+2,___awmod@dividend
  1406   002A26  6A03               	clrf	(___awmod@dividend+1)^(0+1280),c
  1407   002A28  0E00               	movlw	0
  1408   002A2A  6E05               	movwf	(___awmod@divisor+1)^(0+1280),c
  1409   002A2C  0E0A               	movlw	10
  1410   002A2E  6E04               	movwf	___awmod@divisor^(0+1280),c
  1411   002A30  ECD9  F022         	call	___awmod	;wreg free
  1412   002A34  0105               	movlb	5	; () banked
  1413   002A36  51CD               	movf	main@key& (0+255),w,b
  1414   002A38  0D0A               	mullw	10
  1415   002A3A  50F3               	movf	243,w,c
  1416   002A3C  2402               	addwf	?___awmod^(0+1280),w,c
  1417   002A3E  0F20               	addlw	32
  1418   002A40  6FD0               	movwf	(main@current_time+2)& (0+255),b
  1419                           
  1420                           ;C:/Users/a_hui/OneDrive - Camosun College/term2/ecet165_embedded_mc/labs/ecet165-labs/l
      +                          ab11/analogTest.c: 143:                             }else{
  1421   002A42  EF32  F015         	goto	l3571
  1422   002A46                     l3567:
  1423                           
  1424                           ;C:/Users/a_hui/OneDrive - Camosun College/term2/ecet165_embedded_mc/labs/ecet165-labs/l
      +                          ab11/analogTest.c: 144:                                 current_time.seconds -= current_
      +                          time.seconds % 10;
  1425   002A46  C5D0  F502         	movff	main@current_time+2,___awmod@dividend
  1426   002A4A  6A03               	clrf	(___awmod@dividend+1)^(0+1280),c
  1427   002A4C  0E00               	movlw	0
  1428   002A4E  6E05               	movwf	(___awmod@divisor+1)^(0+1280),c
  1429   002A50  0E0A               	movlw	10
  1430   002A52  6E04               	movwf	___awmod@divisor^(0+1280),c
  1431   002A54  ECD9  F022         	call	___awmod	;wreg free
  1432   002A58  5002               	movf	?___awmod^(0+1280),w,c
  1433   002A5A  0105               	movlb	5	; () banked
  1434   002A5C  5FD0               	subwf	(main@current_time+2)& (0+255),f,b
  1435   002A5E                     
  1436                           ; BSR set to: 5
  1437                           ;C:/Users/a_hui/OneDrive - Camosun College/term2/ecet165_embedded_mc/labs/ecet165-labs/l
      +                          ab11/analogTest.c: 145:                                 current_time.seconds += key - '0
      +                          ';
  1438   002A5E  51CD               	movf	main@key& (0+255),w,b
  1439   002A60  0FD0               	addlw	208
  1440   002A62  27D0               	addwf	(main@current_time+2)& (0+255),f,b
  1441   002A64                     l3571:
  1442                           
  1443                           ; BSR set to: 5
  1444                           ;C:/Users/a_hui/OneDrive - Camosun College/term2/ecet165_embedded_mc/labs/ecet165-labs/l
      +                          ab11/analogTest.c: 147:                             current_time.seconds = current_time.
      +                          seconds % 60;
  1445   002A64  C5D0  F502         	movff	main@current_time+2,___awmod@dividend
  1446   002A68  6A03               	clrf	(___awmod@dividend+1)^(0+1280),c
  1447   002A6A  0E00               	movlw	0
  1448   002A6C  6E05               	movwf	(___awmod@divisor+1)^(0+1280),c
  1449   002A6E  0E3C               	movlw	60
  1450   002A70  6E04               	movwf	___awmod@divisor^(0+1280),c
  1451   002A72  ECD9  F022         	call	___awmod	;wreg free
  1452   002A76  5002               	movf	?___awmod^(0+1280),w,c
  1453   002A78  0105               	movlb	5	; () banked
  1454   002A7A  6FD0               	movwf	(main@current_time+2)& (0+255),b
  1455   002A7C                     
  1456                           ; BSR set to: 5
  1457                           ;C:/Users/a_hui/OneDrive - Camosun College/term2/ecet165_embedded_mc/labs/ecet165-labs/l
      +                          ab11/analogTest.c: 148:                             LCDprintc(key);
  1458   002A7C  51CD               	movf	main@key& (0+255),w,b
  1459   002A7E  EC31  F023         	call	_LCDprintc
  1460   002A82  EFB7  F014         	goto	l3547
  1461   002A86                     l3579:
  1462                           
  1463                           ; BSR set to: 5
  1464   002A86  0EB9               	movlw	low main@indexer
  1465   002A88  25CC               	addwf	main@position& (0+255),w,b
  1466   002A8A  6ED9               	movwf	fsr2l,c
  1467   002A8C  6ADA               	clrf	fsr2h,c
  1468   002A8E  0E05               	movlw	high main@indexer
  1469   002A90  22DA               	addwfc	fsr2h,f,c
  1470   002A92  50DF               	movf	indf2,w,c
  1471   002A94  6FB7               	movwf	??_main& (0+255),b
  1472   002A96  6BB8               	clrf	(??_main+1)& (0+255),b
  1473                           
  1474                           ; Switch on 2 bytes has been partitioned into a top level switch of size 1, and 1 sub-sw
      +                          itches
  1475                           ; Switch size 1, requested type "simple"
  1476                           ; Number of cases is 1, Range of values is 0 to 0
  1477                           ; switch strategies available:
  1478                           ; Name         Instructions Cycles
  1479                           ; simple_byte            4     3 (average)
  1480                           ;	Chosen strategy is simple_byte
  1481   002A98  51B8               	movf	(??_main+1)& (0+255),w,b
  1482   002A9A  0A00               	xorlw	0	; case 0
  1483   002A9C  B4D8               	btfsc	status,2,c
  1484   002A9E  EF53  F015         	goto	l3709
  1485   002AA2  EF87  F015         	goto	l142
  1486   002AA6                     l3709:
  1487                           
  1488                           ; BSR set to: 5
  1489                           ; Switch size 1, requested type "simple"
  1490                           ; Number of cases is 3, Range of values is 72 to 83
  1491                           ; switch strategies available:
  1492                           ; Name         Instructions Cycles
  1493                           ; simple_byte           10     6 (average)
  1494                           ;	Chosen strategy is simple_byte
  1495   002AA6  51B7               	movf	??_main& (0+255),w,b
  1496   002AA8  0A48               	xorlw	72	; case 72
  1497   002AAA  B4D8               	btfsc	status,2,c
  1498   002AAC  EF72  F014         	goto	l3535
  1499   002AB0  0A05               	xorlw	5	; case 77
  1500   002AB2  B4D8               	btfsc	status,2,c
  1501   002AB4  EFBB  F014         	goto	l3549
  1502   002AB8  0A1E               	xorlw	30	; case 83
  1503   002ABA  B4D8               	btfsc	status,2,c
  1504   002ABC  EFFF  F014         	goto	l3563
  1505   002AC0  EF87  F015         	goto	l142
  1506   002AC4                     l3583:
  1507                           
  1508                           ; BSR set to: 5
  1509   002AC4  51CD               	movf	main@key& (0+255),w,b
  1510   002AC6  6FB7               	movwf	??_main& (0+255),b
  1511   002AC8  6BB8               	clrf	(??_main+1)& (0+255),b
  1512                           
  1513                           ; Switch on 2 bytes has been partitioned into a top level switch of size 1, and 1 sub-sw
      +                          itches
  1514                           ; Switch size 1, requested type "simple"
  1515                           ; Number of cases is 1, Range of values is 0 to 0
  1516                           ; switch strategies available:
  1517                           ; Name         Instructions Cycles
  1518                           ; simple_byte            4     3 (average)
  1519                           ;	Chosen strategy is simple_byte
  1520   002ACA  51B8               	movf	(??_main+1)& (0+255),w,b
  1521   002ACC  0A00               	xorlw	0	; case 0
  1522   002ACE  B4D8               	btfsc	status,2,c
  1523   002AD0  EF6C  F015         	goto	l3711
  1524   002AD4  EF43  F015         	goto	l3579
  1525   002AD8                     l3711:
  1526                           
  1527                           ; BSR set to: 5
  1528                           ; Switch size 1, requested type "simple"
  1529                           ; Number of cases is 6, Range of values is 35 to 68
  1530                           ; switch strategies available:
  1531                           ; Name         Instructions Cycles
  1532                           ; simple_byte           19    10 (average)
  1533                           ;	Chosen strategy is simple_byte
  1534   002AD8  51B7               	movf	??_main& (0+255),w,b
  1535   002ADA  0A23               	xorlw	35	; case 35
  1536   002ADC  B4D8               	btfsc	status,2,c
  1537   002ADE  EF87  F015         	goto	l3585
  1538   002AE2  0A09               	xorlw	9	; case 42
  1539   002AE4  B4D8               	btfsc	status,2,c
  1540   002AE6  EF50  F014         	goto	l3521
  1541   002AEA  0A6B               	xorlw	107	; case 65
  1542   002AEC  B4D8               	btfsc	status,2,c
  1543   002AEE  EF2C  F014         	goto	l3511
  1544   002AF2  0A03               	xorlw	3	; case 66
  1545   002AF4  B4D8               	btfsc	status,2,c
  1546   002AF6  EF32  F014         	goto	l3513
  1547   002AFA  0A01               	xorlw	1	; case 67
  1548   002AFC  B4D8               	btfsc	status,2,c
  1549   002AFE  EF40  F014         	goto	l3517
  1550   002B02  0A07               	xorlw	7	; case 68
  1551   002B04  B4D8               	btfsc	status,2,c
  1552   002B06  EF4C  F014         	goto	l3519
  1553   002B0A  EF43  F015         	goto	l3579
  1554   002B0E                     l142:
  1555   002B0E                     l3585:
  1556                           
  1557                           ;C:/Users/a_hui/OneDrive - Camosun College/term2/ecet165_embedded_mc/labs/ecet165-labs/l
      +                          ab11/analogTest.c: 84:         while(!nSetRTC){
  1558   002B0E  0105               	movlb	5	; () banked
  1559   002B10  51EE               	movf	_nSetRTC& (0+255),w,b
  1560   002B12  B4D8               	btfsc	status,2,c
  1561   002B14  EF8E  F015         	goto	u3281
  1562   002B18  EF90  F015         	goto	u3280
  1563   002B1C                     u3281:
  1564   002B1C  EF26  F014         	goto	l3509
  1565   002B20                     u3280:
  1566   002B20  EF28  F013         	goto	l3483
  1567   002B24  EF81  F000         	goto	start
  1568   002B28                     __end_of_main:
  1569                           	callstack 0
  1570                           
  1571 ;; *************** function _keyScan *****************
  1572 ;; Defined at:
  1573 ;;		line 27 in file "C:/Users/a_hui/OneDrive - Camosun College/term2/ecet165_embedded_mc/labs/ecet165-labs/matrixkeypad/
      +keypad18f.c"
  1574 ;; Parameters:    Size  Location     Type
  1575 ;;		None
  1576 ;; Auto vars:     Size  Location     Type
  1577 ;;  lookup         16    4[COMRAM] unsigned char [4][4]
  1578 ;;  rowshift        1   22[COMRAM] unsigned char 
  1579 ;;  cols            1   21[COMRAM] unsigned char 
  1580 ;;  colshift        1   20[COMRAM] unsigned char 
  1581 ;; Return value:  Size  Location     Type
  1582 ;;                  1    wreg      unsigned char 
  1583 ;; Registers used:
  1584 ;;		wreg, fsr1l, fsr1h, fsr2l, fsr2h, status,2, status,0, prodl, prodh
  1585 ;; Tracked objects:
  1586 ;;		On entry : 0/0
  1587 ;;		On exit  : 0/0
  1588 ;;		Unchanged: 0/0
  1589 ;; Data sizes:     COMRAM   BANK5   BANK6   BANK7   BANK8   BANK9  BANK10  BANK11  BANK12  BANK13  BANK14  BANK15  BANK1
      +6  BANK17  BANK18  BANK19  BANK20  BANK21  BANK22  BANK23  BANK24  BANK25  BANK26  BANK27  BANK28  BANK29  BANK30  BANK3
      +1  BANK32  BANK33  BANK34  BANK35  BANK36
  1590 ;;      Params:         0       0       0       0       0       0       0       0       0       0       0       0       
      +0       0       0       0       0       0       0       0       0       0       0       0       0       0       0       
      +0       0       0       0       0       0
  1591 ;;      Locals:        19       0       0       0       0       0       0       0       0       0       0       0       
      +0       0       0       0       0       0       0       0       0       0       0       0       0       0       0       
      +0       0       0       0       0       0
  1592 ;;      Temps:          3       0       0       0       0       0       0       0       0       0       0       0       
      +0       0       0       0       0       0       0       0       0       0       0       0       0       0       0       
      +0       0       0       0       0       0
  1593 ;;      Totals:        22       0       0       0       0       0       0       0       0       0       0       0       
      +0       0       0       0       0       0       0       0       0       0       0       0       0       0       0       
      +0       0       0       0       0       0
  1594 ;;Total ram usage:       22 bytes
  1595 ;; Hardware stack levels used: 1
  1596 ;; Hardware stack levels required when called: 2
  1597 ;; This function calls:
  1598 ;;		Nothing
  1599 ;; This function is called by:
  1600 ;;		_main
  1601 ;; This function uses a non-reentrant model
  1602 ;;
  1603                           
  1604                           	psect	text1
  1605   0040AC                     __ptext1:
  1606                           	callstack 0
  1607   0040AC                     _keyScan:
  1608                           	callstack 124
  1609   0040AC                     
  1610                           ;C:/Users/a_hui/OneDrive - Camosun College/term2/ecet165_embedded_mc/labs/ecet165-labs/m
      +                          atrixkeypad/keypad18f.c: 29:     unsigned char colshift = 0x00;
  1611   0040AC  0E00               	movlw	0
  1612   0040AE  6E15               	movwf	keyScan@colshift^(0+1280),c
  1613                           
  1614                           ;C:/Users/a_hui/OneDrive - Camosun College/term2/ecet165_embedded_mc/labs/ecet165-labs/m
      +                          atrixkeypad/keypad18f.c: 30:     unsigned char cols = 0x0;
  1615   0040B0  0E00               	movlw	0
  1616   0040B2  6E16               	movwf	keyScan@cols^(0+1280),c
  1617                           
  1618                           ;C:/Users/a_hui/OneDrive - Camosun College/term2/ecet165_embedded_mc/labs/ecet165-labs/m
      +                          atrixkeypad/keypad18f.c: 31:     unsigned char rowshift = 0x00;
  1619   0040B4  0E00               	movlw	0
  1620   0040B6  6E17               	movwf	keyScan@rowshift^(0+1280),c
  1621   0040B8                     
  1622                           ;C:/Users/a_hui/OneDrive - Camosun College/term2/ecet165_embedded_mc/labs/ecet165-labs/m
      +                          atrixkeypad/keypad18f.c: 34:     char lookup[4][4] = {
  1623   0040B8  EE21  F1D2         	lfsr	2,keyScan@F16784
  1624   0040BC  EE11  F105         	lfsr	1,keyScan@lookup
  1625   0040C0  0E0F               	movlw	15
  1626   0040C2                     u3071:
  1627   0040C2  C4DB F4E3          	movff	plusw2,plusw1
  1628   0040C6  06E8               	decf	wreg,f,c
  1629   0040C8  E2FC               	bc	u3071
  1630   0040CA                     
  1631                           ;C:/Users/a_hui/OneDrive - Camosun College/term2/ecet165_embedded_mc/labs/ecet165-labs/m
      +                          atrixkeypad/keypad18f.c: 41:     ANSELF = 0x00; TRISF = 0xF0; WPUF = 0xF0; _delay((unsig
      +                          ned long)((1)*(64000000/4000000.0)));;
  1632   0040CA  0E00               	movlw	0
  1633   0040CC  0104               	movlb	4	; () banked
  1634   0040CE  6F28               	movwf	40,b	;volatile
  1635   0040D0                     
  1636                           ; BSR set to: 4
  1637   0040D0  0EF0               	movlw	240
  1638   0040D2  6ECB               	movwf	203,c	;volatile
  1639   0040D4                     
  1640                           ; BSR set to: 4
  1641   0040D4  0EF0               	movlw	240
  1642   0040D6  6F29               	movwf	41,b	;volatile
  1643   0040D8                     
  1644                           ; BSR set to: 4
  1645   0040D8  0E05               	movlw	5
  1646   0040DA                     u3297:
  1647   0040DA  2EE8               	decfsz	wreg,f,c
  1648   0040DC  D7FE               	bra	u3297
  1649   0040DE  F000               	nop	
  1650   0040E0                     
  1651                           ;C:/Users/a_hui/OneDrive - Camosun College/term2/ecet165_embedded_mc/labs/ecet165-labs/m
      +                          atrixkeypad/keypad18f.c: 42:     LATF = 0x00;
  1652   0040E0  0E00               	movlw	0
  1653   0040E2  6EC3               	movwf	195,c	;volatile
  1654   0040E4                     l3405:
  1655   0040E4  0EF0               	movlw	240
  1656   0040E6  18D3               	xorwf	211,w,c	;volatile
  1657   0040E8  B4D8               	btfsc	status,2,c
  1658   0040EA  EF79  F020         	goto	u3081
  1659   0040EE  EF7B  F020         	goto	u3080
  1660   0040F2                     u3081:
  1661   0040F2  EF72  F020         	goto	l3405
  1662   0040F6                     u3080:
  1663   0040F6                     
  1664                           ;C:/Users/a_hui/OneDrive - Camosun College/term2/ecet165_embedded_mc/labs/ecet165-labs/m
      +                          atrixkeypad/keypad18f.c: 46:     _delay((unsigned long)((15)*(64000000/4000.0)));
  1665   0040F6  0E02               	movlw	2
  1666   0040F8  6E03               	movwf	(??_keyScan+1)^(0+1280),c
  1667   0040FA  0E38               	movlw	56
  1668   0040FC  6E02               	movwf	??_keyScan^(0+1280),c
  1669   0040FE  0EAD               	movlw	173
  1670   004100                     u3307:
  1671   004100  2EE8               	decfsz	wreg,f,c
  1672   004102  D7FE               	bra	u3307
  1673   004104  2E02               	decfsz	??_keyScan^(0+1280),f,c
  1674   004106  D7FC               	bra	u3307
  1675   004108  2E03               	decfsz	(??_keyScan+1)^(0+1280),f,c
  1676   00410A  D7FA               	bra	u3307
  1677   00410C  F000               	nop	
  1678                           
  1679                           ;C:/Users/a_hui/OneDrive - Camosun College/term2/ecet165_embedded_mc/labs/ecet165-labs/m
      +                          atrixkeypad/keypad18f.c: 49:     while(!(cols)){
  1680   00410E  EFAE  F020         	goto	l3421
  1681   004112                     l3409:
  1682                           
  1683                           ;C:/Users/a_hui/OneDrive - Camosun College/term2/ecet165_embedded_mc/labs/ecet165-labs/m
      +                          atrixkeypad/keypad18f.c: 50:         if(rowshift > 0x3){
  1684   004112  0E03               	movlw	3
  1685   004114  6417               	cpfsgt	keyScan@rowshift^(0+1280),c
  1686   004116  EF8F  F020         	goto	u3091
  1687   00411A  EF91  F020         	goto	u3090
  1688   00411E                     u3091:
  1689   00411E  EF93  F020         	goto	l3413
  1690   004122                     u3090:
  1691   004122                     
  1692                           ;C:/Users/a_hui/OneDrive - Camosun College/term2/ecet165_embedded_mc/labs/ecet165-labs/m
      +                          atrixkeypad/keypad18f.c: 51:             rowshift = 0x0;
  1693   004122  0E00               	movlw	0
  1694   004124  6E17               	movwf	keyScan@rowshift^(0+1280),c
  1695   004126                     l3413:
  1696                           
  1697                           ;C:/Users/a_hui/OneDrive - Camosun College/term2/ecet165_embedded_mc/labs/ecet165-labs/m
      +                          atrixkeypad/keypad18f.c: 54:         LATF = ~(0x08>>rowshift);
  1698   004126  C517  F502         	movff	keyScan@rowshift,??_keyScan
  1699   00412A  0E08               	movlw	8
  1700   00412C  6E03               	movwf	(??_keyScan+1)^(0+1280),c
  1701   00412E  0E00               	movlw	0
  1702   004130  6E04               	movwf	(??_keyScan+2)^(0+1280),c
  1703   004132  2A02               	incf	??_keyScan^(0+1280),f,c
  1704   004134  EF9F  F020         	goto	u3104
  1705   004138                     u3105:
  1706   004138  3404               	rlcf	(??_keyScan+2)^(0+1280),w,c
  1707   00413A  3204               	rrcf	(??_keyScan+2)^(0+1280),f,c
  1708   00413C  3203               	rrcf	(??_keyScan+1)^(0+1280),f,c
  1709   00413E                     u3104:
  1710   00413E  2E02               	decfsz	??_keyScan^(0+1280),f,c
  1711   004140  EF9C  F020         	goto	u3105
  1712   004144  5003               	movf	(??_keyScan+1)^(0+1280),w,c
  1713   004146  0AFF               	xorlw	255
  1714   004148  6EC3               	movwf	195,c	;volatile
  1715   00414A                     
  1716                           ;C:/Users/a_hui/OneDrive - Camosun College/term2/ecet165_embedded_mc/labs/ecet165-labs/m
      +                          atrixkeypad/keypad18f.c: 56:         _delay((unsigned long)((1)*(64000000/4000000.0)));
  1717   00414A  0E05               	movlw	5
  1718   00414C                     u3317:
  1719   00414C  2EE8               	decfsz	wreg,f,c
  1720   00414E  D7FE               	bra	u3317
  1721   004150  F000               	nop	
  1722   004152                     
  1723                           ;C:/Users/a_hui/OneDrive - Camosun College/term2/ecet165_embedded_mc/labs/ecet165-labs/m
      +                          atrixkeypad/keypad18f.c: 58:         cols = (~(PORTF)& 0xF0);
  1724   004152  50D3               	movf	211,w,c	;volatile
  1725   004154  0AFF               	xorlw	255
  1726   004156  0BF0               	andlw	240
  1727   004158  6E16               	movwf	keyScan@cols^(0+1280),c
  1728   00415A                     
  1729                           ;C:/Users/a_hui/OneDrive - Camosun College/term2/ecet165_embedded_mc/labs/ecet165-labs/m
      +                          atrixkeypad/keypad18f.c: 59:         rowshift++;
  1730   00415A  2A17               	incf	keyScan@rowshift^(0+1280),f,c
  1731   00415C                     l3421:
  1732                           
  1733                           ;C:/Users/a_hui/OneDrive - Camosun College/term2/ecet165_embedded_mc/labs/ecet165-labs/m
      +                          atrixkeypad/keypad18f.c: 49:     while(!(cols)){
  1734   00415C  5016               	movf	keyScan@cols^(0+1280),w,c
  1735   00415E  B4D8               	btfsc	status,2,c
  1736   004160  EFB4  F020         	goto	u3111
  1737   004164  EFB6  F020         	goto	u3110
  1738   004168                     u3111:
  1739   004168  EF89  F020         	goto	l3409
  1740   00416C                     u3110:
  1741   00416C                     
  1742                           ;C:/Users/a_hui/OneDrive - Camosun College/term2/ecet165_embedded_mc/labs/ecet165-labs/m
      +                          atrixkeypad/keypad18f.c: 63:     rowshift--;
  1743   00416C  0617               	decf	keyScan@rowshift^(0+1280),f,c
  1744   00416E                     
  1745                           ;C:/Users/a_hui/OneDrive - Camosun College/term2/ecet165_embedded_mc/labs/ecet165-labs/m
      +                          atrixkeypad/keypad18f.c: 66:     LATF = 0x00;
  1746   00416E  0E00               	movlw	0
  1747   004170  6EC3               	movwf	195,c	;volatile
  1748   004172                     
  1749                           ;C:/Users/a_hui/OneDrive - Camosun College/term2/ecet165_embedded_mc/labs/ecet165-labs/m
      +                          atrixkeypad/keypad18f.c: 67:     _delay((unsigned long)((1)*(64000000/4000000.0)));
  1750   004172  0E05               	movlw	5
  1751   004174                     u3327:
  1752   004174  2EE8               	decfsz	wreg,f,c
  1753   004176  D7FE               	bra	u3327
  1754   004178  F000               	nop	
  1755   00417A                     l3429:
  1756   00417A  0EF0               	movlw	240
  1757   00417C  18D3               	xorwf	211,w,c	;volatile
  1758   00417E  A4D8               	btfss	status,2,c
  1759   004180  EFC4  F020         	goto	u3121
  1760   004184  EFC6  F020         	goto	u3120
  1761   004188                     u3121:
  1762   004188  EFBD  F020         	goto	l3429
  1763   00418C                     u3120:
  1764   00418C                     
  1765                           ;C:/Users/a_hui/OneDrive - Camosun College/term2/ecet165_embedded_mc/labs/ecet165-labs/m
      +                          atrixkeypad/keypad18f.c: 71:     LATF = 0xF0;
  1766   00418C  0EF0               	movlw	240
  1767   00418E  6EC3               	movwf	195,c	;volatile
  1768   004190                     
  1769                           ;C:/Users/a_hui/OneDrive - Camosun College/term2/ecet165_embedded_mc/labs/ecet165-labs/m
      +                          atrixkeypad/keypad18f.c: 72:     _delay((unsigned long)((15)*(64000000/4000.0)));
  1770   004190  0E02               	movlw	2
  1771   004192  6E03               	movwf	(??_keyScan+1)^(0+1280),c
  1772   004194  0E38               	movlw	56
  1773   004196  6E02               	movwf	??_keyScan^(0+1280),c
  1774   004198  0EAD               	movlw	173
  1775   00419A                     u3337:
  1776   00419A  2EE8               	decfsz	wreg,f,c
  1777   00419C  D7FE               	bra	u3337
  1778   00419E  2E02               	decfsz	??_keyScan^(0+1280),f,c
  1779   0041A0  D7FC               	bra	u3337
  1780   0041A2  2E03               	decfsz	(??_keyScan+1)^(0+1280),f,c
  1781   0041A4  D7FA               	bra	u3337
  1782   0041A6  F000               	nop	
  1783                           
  1784                           ;C:/Users/a_hui/OneDrive - Camosun College/term2/ecet165_embedded_mc/labs/ecet165-labs/m
      +                          atrixkeypad/keypad18f.c: 75:     while(!(cols<<colshift & 0x80)){
  1785   0041A8  EFD7  F020         	goto	l3437
  1786   0041AC                     l3435:
  1787                           
  1788                           ;C:/Users/a_hui/OneDrive - Camosun College/term2/ecet165_embedded_mc/labs/ecet165-labs/m
      +                          atrixkeypad/keypad18f.c: 76:         colshift++;
  1789   0041AC  2A15               	incf	keyScan@colshift^(0+1280),f,c
  1790   0041AE                     l3437:
  1791                           
  1792                           ;C:/Users/a_hui/OneDrive - Camosun College/term2/ecet165_embedded_mc/labs/ecet165-labs/m
      +                          atrixkeypad/keypad18f.c: 75:     while(!(cols<<colshift & 0x80)){
  1793   0041AE  C515  F502         	movff	keyScan@colshift,??_keyScan
  1794   0041B2  5016               	movf	keyScan@cols^(0+1280),w,c
  1795   0041B4  6E03               	movwf	(??_keyScan+1)^(0+1280),c
  1796   0041B6  6A04               	clrf	(??_keyScan+2)^(0+1280),c
  1797   0041B8  2A02               	incf	??_keyScan^(0+1280),f,c
  1798   0041BA  EFE2  F020         	goto	u3134
  1799   0041BE                     u3135:
  1800   0041BE  90D8               	bcf	status,0,c
  1801   0041C0  3603               	rlcf	(??_keyScan+1)^(0+1280),f,c
  1802   0041C2  3604               	rlcf	(??_keyScan+2)^(0+1280),f,c
  1803   0041C4                     u3134:
  1804   0041C4  2E02               	decfsz	??_keyScan^(0+1280),f,c
  1805   0041C6  EFDF  F020         	goto	u3135
  1806   0041CA  AE03               	btfss	(??_keyScan+1)^(0+1280),7,c
  1807   0041CC  EFEA  F020         	goto	u3141
  1808   0041D0  EFEC  F020         	goto	u3140
  1809   0041D4                     u3141:
  1810   0041D4  EFD6  F020         	goto	l3435
  1811   0041D8                     u3140:
  1812   0041D8                     
  1813                           ;C:/Users/a_hui/OneDrive - Camosun College/term2/ecet165_embedded_mc/labs/ecet165-labs/m
      +                          atrixkeypad/keypad18f.c: 79:     return lookup[rowshift][colshift];
  1814   0041D8  5017               	movf	keyScan@rowshift^(0+1280),w,c
  1815   0041DA  0D04               	mullw	4
  1816   0041DC  0E05               	movlw	low keyScan@lookup
  1817   0041DE  24F3               	addwf	243,w,c
  1818   0041E0  6E02               	movwf	??_keyScan^(0+1280),c
  1819   0041E2  0E05               	movlw	high keyScan@lookup
  1820   0041E4  20F4               	addwfc	prodh,w,c
  1821   0041E6  6E03               	movwf	(??_keyScan+1)^(0+1280),c
  1822   0041E8  5015               	movf	keyScan@colshift^(0+1280),w,c
  1823   0041EA  2402               	addwf	??_keyScan^(0+1280),w,c
  1824   0041EC  6ED9               	movwf	fsr2l,c
  1825   0041EE  0E00               	movlw	0
  1826   0041F0  2003               	addwfc	(??_keyScan+1)^(0+1280),w,c
  1827   0041F2  6EDA               	movwf	fsr2h,c
  1828   0041F4  50DF               	movf	indf2,w,c
  1829   0041F6  0012               	return		;funcret
  1830   0041F8                     __end_of_keyScan:
  1831                           	callstack 0
  1832                           
  1833 ;; *************** function _analogRead *****************
  1834 ;; Defined at:
  1835 ;;		line 30 in file "C:/Users/a_hui/OneDrive - Camosun College/term2/ecet165_embedded_mc/labs/ecet165-labs/lab11/analog1
      +8f.c"
  1836 ;; Parameters:    Size  Location     Type
  1837 ;;  pin_ansel       4    1[COMRAM] unsigned long 
  1838 ;;  pin_tris        4    5[COMRAM] unsigned long 
  1839 ;;  pin_designat    1    9[COMRAM] unsigned char 
  1840 ;; Auto vars:     Size  Location     Type
  1841 ;;		None
  1842 ;; Return value:  Size  Location     Type
  1843 ;;                  2    1[COMRAM] unsigned int 
  1844 ;; Registers used:
  1845 ;;		wreg, status,2, status,0
  1846 ;; Tracked objects:
  1847 ;;		On entry : 0/0
  1848 ;;		On exit  : 0/0
  1849 ;;		Unchanged: 0/0
  1850 ;; Data sizes:     COMRAM   BANK5   BANK6   BANK7   BANK8   BANK9  BANK10  BANK11  BANK12  BANK13  BANK14  BANK15  BANK1
      +6  BANK17  BANK18  BANK19  BANK20  BANK21  BANK22  BANK23  BANK24  BANK25  BANK26  BANK27  BANK28  BANK29  BANK30  BANK3
      +1  BANK32  BANK33  BANK34  BANK35  BANK36
  1851 ;;      Params:         9       0       0       0       0       0       0       0       0       0       0       0       
      +0       0       0       0       0       0       0       0       0       0       0       0       0       0       0       
      +0       0       0       0       0       0
  1852 ;;      Locals:         0       0       0       0       0       0       0       0       0       0       0       0       
      +0       0       0       0       0       0       0       0       0       0       0       0       0       0       0       
      +0       0       0       0       0       0
  1853 ;;      Temps:          2       0       0       0       0       0       0       0       0       0       0       0       
      +0       0       0       0       0       0       0       0       0       0       0       0       0       0       0       
      +0       0       0       0       0       0
  1854 ;;      Totals:        11       0       0       0       0       0       0       0       0       0       0       0       
      +0       0       0       0       0       0       0       0       0       0       0       0       0       0       0       
      +0       0       0       0       0       0
  1855 ;;Total ram usage:       11 bytes
  1856 ;; Hardware stack levels used: 1
  1857 ;; Hardware stack levels required when called: 2
  1858 ;; This function calls:
  1859 ;;		Nothing
  1860 ;; This function is called by:
  1861 ;;		_main
  1862 ;; This function uses a non-reentrant model
  1863 ;;
  1864                           
  1865                           	psect	text2
  1866   004938                     __ptext2:
  1867                           	callstack 0
  1868   004938                     _analogRead:
  1869                           	callstack 124
  1870   004938                     
  1871                           ;C:/Users/a_hui/OneDrive - Camosun College/term2/ecet165_embedded_mc/labs/ecet165-labs/l
      +                          ab11/analog18f.c: 32:      ADCON0bits.FM = 1;
  1872   004938  0103               	movlb	3	; () banked
  1873   00493A  51F3               	movf	243,w,b	;volatile
  1874   00493C  0BF3               	andlw	-13
  1875   00493E  0904               	iorlw	4
  1876   004940  6FF3               	movwf	243,b	;volatile
  1877   004942                     
  1878                           ; BSR set to: 3
  1879                           ;C:/Users/a_hui/OneDrive - Camosun College/term2/ecet165_embedded_mc/labs/ecet165-labs/l
      +                          ab11/analog18f.c: 33:      ADCON0bits.CS = 1;
  1880   004942  89F3               	bsf	243,4,b	;volatile
  1881   004944                     
  1882                           ; BSR set to: 3
  1883                           ;C:/Users/a_hui/OneDrive - Camosun College/term2/ecet165_embedded_mc/labs/ecet165-labs/l
      +                          ab11/analog18f.c: 34:      ADPCH = pin_designation;
  1884   004944  C50A  F3EC         	movff	analogRead@pin_designation,1004	;volatile
  1885                           
  1886                           ;C:/Users/a_hui/OneDrive - Camosun College/term2/ecet165_embedded_mc/labs/ecet165-labs/l
      +                          ab11/analog18f.c: 36:      pin_ansel = 1;
  1887   004948  0E01               	movlw	1
  1888   00494A  6E02               	movwf	analogRead@pin_ansel^(0+1280),c
  1889   00494C  0E00               	movlw	0
  1890   00494E  6E03               	movwf	(analogRead@pin_ansel+1)^(0+1280),c
  1891   004950  0E00               	movlw	0
  1892   004952  6E04               	movwf	(analogRead@pin_ansel+2)^(0+1280),c
  1893   004954  0E00               	movlw	0
  1894   004956  6E05               	movwf	(analogRead@pin_ansel+3)^(0+1280),c
  1895   004958                     
  1896                           ; BSR set to: 3
  1897                           ;C:/Users/a_hui/OneDrive - Camosun College/term2/ecet165_embedded_mc/labs/ecet165-labs/l
      +                          ab11/analog18f.c: 37:      ADCON0bits.ON = 1;
  1898   004958  8FF3               	bsf	243,7,b	;volatile
  1899   00495A                     
  1900                           ; BSR set to: 3
  1901                           ;C:/Users/a_hui/OneDrive - Camosun College/term2/ecet165_embedded_mc/labs/ecet165-labs/l
      +                          ab11/analog18f.c: 39:      ADCON0bits.GO = 1;
  1902   00495A  81F3               	bsf	243,0,b	;volatile
  1903   00495C                     l84:
  1904                           
  1905                           ; BSR set to: 3
  1906                           ;C:/Users/a_hui/OneDrive - Camosun College/term2/ecet165_embedded_mc/labs/ecet165-labs/l
      +                          ab11/analog18f.c: 40:      while(ADCON0bits.GO)
  1907   00495C  B1F3               	btfsc	243,0,b	;volatile
  1908   00495E  EFB3  F024         	goto	u2991
  1909   004962  EFB5  F024         	goto	u2990
  1910   004966                     u2991:
  1911   004966  EFAE  F024         	goto	l84
  1912   00496A                     u2990:
  1913   00496A                     
  1914                           ; BSR set to: 3
  1915                           ;C:/Users/a_hui/OneDrive - Camosun College/term2/ecet165_embedded_mc/labs/ecet165-labs/l
      +                          ab11/analog18f.c: 42:      return ((ADRESH<<8)+ADRESL);
  1916   00496A  51EB               	movf	235,w,b	;volatile
  1917   00496C  6E0C               	movwf	(??_analogRead+1)^(0+1280),c
  1918   00496E  6A0B               	clrf	??_analogRead^(0+1280),c
  1919   004970  51EA               	movf	234,w,b	;volatile
  1920   004972  240B               	addwf	??_analogRead^(0+1280),w,c
  1921   004974  6E02               	movwf	?_analogRead^(0+1280),c
  1922   004976  0E00               	movlw	0
  1923   004978  200C               	addwfc	(??_analogRead+1)^(0+1280),w,c
  1924   00497A  6E03               	movwf	(?_analogRead+1)^(0+1280),c
  1925   00497C                     
  1926                           ; BSR set to: 3
  1927   00497C  0012               	return		;funcret
  1928   00497E                     __end_of_analogRead:
  1929                           	callstack 0
  1930                           
  1931 ;; *************** function _analogMap *****************
  1932 ;; Defined at:
  1933 ;;		line 57 in file "C:/Users/a_hui/OneDrive - Camosun College/term2/ecet165_embedded_mc/labs/ecet165-labs/lab11/analog1
      +8f.c"
  1934 ;; Parameters:    Size  Location     Type
  1935 ;;  analog_readi    2    0[BANK5 ] unsigned int 
  1936 ;;  analog_max      2    2[BANK5 ] unsigned int 
  1937 ;;  analog_min      2    4[BANK5 ] unsigned int 
  1938 ;;  sensor_max      4    6[BANK5 ] float 
  1939 ;;  sensor_min      4   10[BANK5 ] float 
  1940 ;; Auto vars:     Size  Location     Type
  1941 ;;		None
  1942 ;; Return value:  Size  Location     Type
  1943 ;;                  4    0[BANK5 ] float 
  1944 ;; Registers used:
  1945 ;;		wreg, status,2, status,0, prodl, prodh, cstack
  1946 ;; Tracked objects:
  1947 ;;		On entry : 0/0
  1948 ;;		On exit  : 0/0
  1949 ;;		Unchanged: 0/0
  1950 ;; Data sizes:     COMRAM   BANK5   BANK6   BANK7   BANK8   BANK9  BANK10  BANK11  BANK12  BANK13  BANK14  BANK15  BANK1
      +6  BANK17  BANK18  BANK19  BANK20  BANK21  BANK22  BANK23  BANK24  BANK25  BANK26  BANK27  BANK28  BANK29  BANK30  BANK3
      +1  BANK32  BANK33  BANK34  BANK35  BANK36
  1951 ;;      Params:         0      14       0       0       0       0       0       0       0       0       0       0       
      +0       0       0       0       0       0       0       0       0       0       0       0       0       0       0       
      +0       0       0       0       0       0
  1952 ;;      Locals:         0       8       0       0       0       0       0       0       0       0       0       0       
      +0       0       0       0       0       0       0       0       0       0       0       0       0       0       0       
      +0       0       0       0       0       0
  1953 ;;      Temps:          4       0       0       0       0       0       0       0       0       0       0       0       
      +0       0       0       0       0       0       0       0       0       0       0       0       0       0       0       
      +0       0       0       0       0       0
  1954 ;;      Totals:         4      22       0       0       0       0       0       0       0       0       0       0       
      +0       0       0       0       0       0       0       0       0       0       0       0       0       0       0       
      +0       0       0       0       0       0
  1955 ;;Total ram usage:       26 bytes
  1956 ;; Hardware stack levels used: 1
  1957 ;; Hardware stack levels required when called: 4
  1958 ;; This function calls:
  1959 ;;		___fladd
  1960 ;;		___fldiv
  1961 ;;		___flge
  1962 ;;		___flmul
  1963 ;;		___flsub
  1964 ;;		___xxtofl
  1965 ;; This function is called by:
  1966 ;;		_main
  1967 ;; This function uses a non-reentrant model
  1968 ;;
  1969                           
  1970                           	psect	text3
  1971   003B60                     __ptext3:
  1972                           	callstack 0
  1973   003B60                     _analogMap:
  1974                           	callstack 122
  1975   003B60                     
  1976                           ;C:/Users/a_hui/OneDrive - Camosun College/term2/ecet165_embedded_mc/labs/ecet165-labs/l
      +                          ab11/analog18f.c: 58:             unsigned int analog_reading,;C:/Users/a_hui/OneDrive -
      +                           Camosun College/term2/ecet165_embedded_mc/labs/ecet165-labs/lab11/analog18f.c: 59:     
      +                                  unsigned int analog_max,;C:/Users/a_hui/OneDrive - Camosun College/term2/ecet165
      +                          _embedded_mc/labs/ecet165-labs/lab11/analog18f.c: 60:             unsigned int analog_mi
      +                          n,;C:/Users/a_hui/OneDrive - Camosun College/term2/ecet165_embedded_mc/labs/ecet165-labs
      +                          /lab11/analog18f.c: 61:             float sensor_max,
  1977   003B60  C56A  F502         	movff	analogMap@sensor_min,___flge@ff1
  1978   003B64  C56B  F503         	movff	analogMap@sensor_min+1,___flge@ff1+1
  1979   003B68  C56C  F504         	movff	analogMap@sensor_min+2,___flge@ff1+2
  1980   003B6C  C56D  F505         	movff	analogMap@sensor_min+3,___flge@ff1+3
  1981   003B70  C566  F506         	movff	analogMap@sensor_max,___flge@ff2
  1982   003B74  C567  F507         	movff	analogMap@sensor_max+1,___flge@ff2+1
  1983   003B78  C568  F508         	movff	analogMap@sensor_max+2,___flge@ff2+2
  1984   003B7C  C569  F509         	movff	analogMap@sensor_max+3,___flge@ff2+3
  1985   003B80  EC80  F021         	call	___flge	;wreg free
  1986   003B84  B0D8               	btfsc	status,0,c
  1987   003B86  EFC7  F01D         	goto	u3001
  1988   003B8A  EFC9  F01D         	goto	u3000
  1989   003B8E                     u3001:
  1990   003B8E  EF43  F01E         	goto	l3335
  1991   003B92                     u3000:
  1992   003B92                     
  1993                           ;C:/Users/a_hui/OneDrive - Camosun College/term2/ecet165_embedded_mc/labs/ecet165-labs/l
      +                          ab11/analog18f.c: 65:         return (sensor_min + ((analog_reading-analog_min)/((float)
      +                          (analog_max-analog_min)))*(sensor_max-sensor_min));
  1994   003B92  C56A  F53D         	movff	analogMap@sensor_min,___flsub@a
  1995   003B96  C56B  F53E         	movff	analogMap@sensor_min+1,___flsub@a+1
  1996   003B9A  C56C  F53F         	movff	analogMap@sensor_min+2,___flsub@a+2
  1997   003B9E  C56D  F540         	movff	analogMap@sensor_min+3,___flsub@a+3
  1998   003BA2  C566  F539         	movff	analogMap@sensor_max,___flsub@b
  1999   003BA6  C567  F53A         	movff	analogMap@sensor_max+1,___flsub@b+1
  2000   003BAA  C568  F53B         	movff	analogMap@sensor_max+2,___flsub@b+2
  2001   003BAE  C569  F53C         	movff	analogMap@sensor_max+3,___flsub@b+3
  2002   003BB2  ECBF  F024         	call	___flsub	;wreg free
  2003   003BB6  C539  F545         	movff	?___flsub,___flmul@a
  2004   003BBA  C53A  F546         	movff	?___flsub+1,___flmul@a+1
  2005   003BBE  C53B  F547         	movff	?___flsub+2,___flmul@a+2
  2006   003BC2  C53C  F548         	movff	?___flsub+3,___flmul@a+3
  2007   003BC6  0105               	movlb	5	; () banked
  2008   003BC8  5164               	movf	analogMap@analog_min& (0+255),w,b
  2009   003BCA  5D62               	subwf	analogMap@analog_max& (0+255),w,b
  2010   003BCC  6E5A               	movwf	??_analogMap^(0+1280),c
  2011   003BCE  5165               	movf	(analogMap@analog_min+1)& (0+255),w,b
  2012   003BD0  5963               	subwfb	(analogMap@analog_max+1)& (0+255),w,b
  2013   003BD2  6E5B               	movwf	(??_analogMap+1)^(0+1280),c
  2014   003BD4  C55A  F502         	movff	??_analogMap,___xxtofl@val
  2015   003BD8  C55B  F503         	movff	??_analogMap+1,___xxtofl@val+1
  2016   003BDC  6A04               	clrf	(___xxtofl@val+2)^(0+1280),c
  2017   003BDE  6A05               	clrf	(___xxtofl@val+3)^(0+1280),c
  2018   003BE0  0E00               	movlw	0
  2019   003BE2  ECBC  F01E         	call	___xxtofl
  2020   003BE6  C502  F514         	movff	?___xxtofl,___fldiv@a
  2021   003BEA  C503  F515         	movff	?___xxtofl+1,___fldiv@a+1
  2022   003BEE  C504  F516         	movff	?___xxtofl+2,___fldiv@a+2
  2023   003BF2  C505  F517         	movff	?___xxtofl+3,___fldiv@a+3
  2024   003BF6  0105               	movlb	5	; () banked
  2025   003BF8  5164               	movf	analogMap@analog_min& (0+255),w,b
  2026   003BFA  5D60               	subwf	analogMap@analog_reading& (0+255),w,b
  2027   003BFC  6E5C               	movwf	(??_analogMap+2)^(0+1280),c
  2028   003BFE  5165               	movf	(analogMap@analog_min+1)& (0+255),w,b
  2029   003C00  5961               	subwfb	(analogMap@analog_reading+1)& (0+255),w,b
  2030   003C02  6E5D               	movwf	(??_analogMap+3)^(0+1280),c
  2031   003C04  C55C  F502         	movff	??_analogMap+2,___xxtofl@val
  2032   003C08  C55D  F503         	movff	??_analogMap+3,___xxtofl@val+1
  2033   003C0C  6A04               	clrf	(___xxtofl@val+2)^(0+1280),c
  2034   003C0E  6A05               	clrf	(___xxtofl@val+3)^(0+1280),c
  2035   003C10  0E00               	movlw	0
  2036   003C12  ECBC  F01E         	call	___xxtofl
  2037   003C16  C502  F510         	movff	?___xxtofl,___fldiv@b
  2038   003C1A  C503  F511         	movff	?___xxtofl+1,___fldiv@b+1
  2039   003C1E  C504  F512         	movff	?___xxtofl+2,___fldiv@b+2
  2040   003C22  C505  F513         	movff	?___xxtofl+3,___fldiv@b+3
  2041   003C26  ECE3  F01B         	call	___fldiv	;wreg free
  2042   003C2A  C510  F541         	movff	?___fldiv,___flmul@b
  2043   003C2E  C511  F542         	movff	?___fldiv+1,___flmul@b+1
  2044   003C32  C512  F543         	movff	?___fldiv+2,___flmul@b+2
  2045   003C36  C513  F544         	movff	?___fldiv+3,___flmul@b+3
  2046   003C3A  ECF4  F017         	call	___flmul	;wreg free
  2047   003C3E  C541  F56E         	movff	?___flmul,_analogMap$1286
  2048   003C42  C542  F56F         	movff	?___flmul+1,_analogMap$1286+1
  2049   003C46  C543  F570         	movff	?___flmul+2,_analogMap$1286+2
  2050   003C4A  C544  F571         	movff	?___flmul+3,_analogMap$1286+3
  2051   003C4E                     
  2052                           ;C:/Users/a_hui/OneDrive - Camosun College/term2/ecet165_embedded_mc/labs/ecet165-labs/l
      +                          ab11/analog18f.c: 65:         return (sensor_min + ((analog_reading-analog_min)/((float)
      +                          (analog_max-analog_min)))*(sensor_max-sensor_min));
  2053   003C4E  C56E  F529         	movff	_analogMap$1286,___fladd@b
  2054   003C52  C56F  F52A         	movff	_analogMap$1286+1,___fladd@b+1
  2055   003C56  C570  F52B         	movff	_analogMap$1286+2,___fladd@b+2
  2056   003C5A  C571  F52C         	movff	_analogMap$1286+3,___fladd@b+3
  2057   003C5E  C56A  F52D         	movff	analogMap@sensor_min,___fladd@a
  2058   003C62  C56B  F52E         	movff	analogMap@sensor_min+1,___fladd@a+1
  2059   003C66  C56C  F52F         	movff	analogMap@sensor_min+2,___fladd@a+2
  2060   003C6A  C56D  F530         	movff	analogMap@sensor_min+3,___fladd@a+3
  2061   003C6E  EC94  F015         	call	___fladd	;wreg free
  2062   003C72  C529  F560         	movff	?___fladd,?_analogMap
  2063   003C76  C52A  F561         	movff	?___fladd+1,?_analogMap+1
  2064   003C7A  C52B  F562         	movff	?___fladd+2,?_analogMap+2
  2065   003C7E  C52C  F563         	movff	?___fladd+3,?_analogMap+3
  2066   003C82  EFBB  F01E         	goto	l91
  2067   003C86                     l3335:
  2068                           
  2069                           ;C:/Users/a_hui/OneDrive - Camosun College/term2/ecet165_embedded_mc/labs/ecet165-labs/l
      +                          ab11/analog18f.c: 67:         return (sensor_min - ((analog_reading-analog_min)/((float)
      +                          (analog_max-analog_min)))*(sensor_min-sensor_max));
  2070   003C86  C566  F53D         	movff	analogMap@sensor_max,___flsub@a
  2071   003C8A  C567  F53E         	movff	analogMap@sensor_max+1,___flsub@a+1
  2072   003C8E  C568  F53F         	movff	analogMap@sensor_max+2,___flsub@a+2
  2073   003C92  C569  F540         	movff	analogMap@sensor_max+3,___flsub@a+3
  2074   003C96  C56A  F539         	movff	analogMap@sensor_min,___flsub@b
  2075   003C9A  C56B  F53A         	movff	analogMap@sensor_min+1,___flsub@b+1
  2076   003C9E  C56C  F53B         	movff	analogMap@sensor_min+2,___flsub@b+2
  2077   003CA2  C56D  F53C         	movff	analogMap@sensor_min+3,___flsub@b+3
  2078   003CA6  ECBF  F024         	call	___flsub	;wreg free
  2079   003CAA  C539  F545         	movff	?___flsub,___flmul@a
  2080   003CAE  C53A  F546         	movff	?___flsub+1,___flmul@a+1
  2081   003CB2  C53B  F547         	movff	?___flsub+2,___flmul@a+2
  2082   003CB6  C53C  F548         	movff	?___flsub+3,___flmul@a+3
  2083   003CBA  0105               	movlb	5	; () banked
  2084   003CBC  5164               	movf	analogMap@analog_min& (0+255),w,b
  2085   003CBE  5D62               	subwf	analogMap@analog_max& (0+255),w,b
  2086   003CC0  6E5A               	movwf	??_analogMap^(0+1280),c
  2087   003CC2  5165               	movf	(analogMap@analog_min+1)& (0+255),w,b
  2088   003CC4  5963               	subwfb	(analogMap@analog_max+1)& (0+255),w,b
  2089   003CC6  6E5B               	movwf	(??_analogMap+1)^(0+1280),c
  2090   003CC8  C55A  F502         	movff	??_analogMap,___xxtofl@val
  2091   003CCC  C55B  F503         	movff	??_analogMap+1,___xxtofl@val+1
  2092   003CD0  6A04               	clrf	(___xxtofl@val+2)^(0+1280),c
  2093   003CD2  6A05               	clrf	(___xxtofl@val+3)^(0+1280),c
  2094   003CD4  0E00               	movlw	0
  2095   003CD6  ECBC  F01E         	call	___xxtofl
  2096   003CDA  C502  F514         	movff	?___xxtofl,___fldiv@a
  2097   003CDE  C503  F515         	movff	?___xxtofl+1,___fldiv@a+1
  2098   003CE2  C504  F516         	movff	?___xxtofl+2,___fldiv@a+2
  2099   003CE6  C505  F517         	movff	?___xxtofl+3,___fldiv@a+3
  2100   003CEA  0105               	movlb	5	; () banked
  2101   003CEC  5164               	movf	analogMap@analog_min& (0+255),w,b
  2102   003CEE  5D60               	subwf	analogMap@analog_reading& (0+255),w,b
  2103   003CF0  6E5C               	movwf	(??_analogMap+2)^(0+1280),c
  2104   003CF2  5165               	movf	(analogMap@analog_min+1)& (0+255),w,b
  2105   003CF4  5961               	subwfb	(analogMap@analog_reading+1)& (0+255),w,b
  2106   003CF6  6E5D               	movwf	(??_analogMap+3)^(0+1280),c
  2107   003CF8  C55C  F502         	movff	??_analogMap+2,___xxtofl@val
  2108   003CFC  C55D  F503         	movff	??_analogMap+3,___xxtofl@val+1
  2109   003D00  6A04               	clrf	(___xxtofl@val+2)^(0+1280),c
  2110   003D02  6A05               	clrf	(___xxtofl@val+3)^(0+1280),c
  2111   003D04  0E00               	movlw	0
  2112   003D06  ECBC  F01E         	call	___xxtofl
  2113   003D0A  C502  F510         	movff	?___xxtofl,___fldiv@b
  2114   003D0E  C503  F511         	movff	?___xxtofl+1,___fldiv@b+1
  2115   003D12  C504  F512         	movff	?___xxtofl+2,___fldiv@b+2
  2116   003D16  C505  F513         	movff	?___xxtofl+3,___fldiv@b+3
  2117   003D1A  ECE3  F01B         	call	___fldiv	;wreg free
  2118   003D1E  C510  F541         	movff	?___fldiv,___flmul@b
  2119   003D22  C511  F542         	movff	?___fldiv+1,___flmul@b+1
  2120   003D26  C512  F543         	movff	?___fldiv+2,___flmul@b+2
  2121   003D2A  C513  F544         	movff	?___fldiv+3,___flmul@b+3
  2122   003D2E  ECF4  F017         	call	___flmul	;wreg free
  2123   003D32  C541  F572         	movff	?___flmul,_analogMap$1287
  2124   003D36  C542  F573         	movff	?___flmul+1,_analogMap$1287+1
  2125   003D3A  C543  F574         	movff	?___flmul+2,_analogMap$1287+2
  2126   003D3E  C544  F575         	movff	?___flmul+3,_analogMap$1287+3
  2127   003D42                     
  2128                           ;C:/Users/a_hui/OneDrive - Camosun College/term2/ecet165_embedded_mc/labs/ecet165-labs/l
      +                          ab11/analog18f.c: 67:         return (sensor_min - ((analog_reading-analog_min)/((float)
      +                          (analog_max-analog_min)))*(sensor_min-sensor_max));
  2129   003D42  C56A  F539         	movff	analogMap@sensor_min,___flsub@b
  2130   003D46  C56B  F53A         	movff	analogMap@sensor_min+1,___flsub@b+1
  2131   003D4A  C56C  F53B         	movff	analogMap@sensor_min+2,___flsub@b+2
  2132   003D4E  C56D  F53C         	movff	analogMap@sensor_min+3,___flsub@b+3
  2133   003D52  C572  F53D         	movff	_analogMap$1287,___flsub@a
  2134   003D56  C573  F53E         	movff	_analogMap$1287+1,___flsub@a+1
  2135   003D5A  C574  F53F         	movff	_analogMap$1287+2,___flsub@a+2
  2136   003D5E  C575  F540         	movff	_analogMap$1287+3,___flsub@a+3
  2137   003D62  ECBF  F024         	call	___flsub	;wreg free
  2138   003D66  C539  F560         	movff	?___flsub,?_analogMap
  2139   003D6A  C53A  F561         	movff	?___flsub+1,?_analogMap+1
  2140   003D6E  C53B  F562         	movff	?___flsub+2,?_analogMap+2
  2141   003D72  C53C  F563         	movff	?___flsub+3,?_analogMap+3
  2142   003D76                     l91:
  2143   003D76  0012               	return		;funcret
  2144   003D78                     __end_of_analogMap:
  2145                           	callstack 0
  2146                           
  2147 ;; *************** function ___xxtofl *****************
  2148 ;; Defined at:
  2149 ;;		line 10 in file "C:\Program Files\Microchip\xc8\v2.40\pic\sources\c99\common\xxtofl.c"
  2150 ;; Parameters:    Size  Location     Type
  2151 ;;  sign            1    wreg     unsigned char 
  2152 ;;  val             4    1[COMRAM] long 
  2153 ;; Auto vars:     Size  Location     Type
  2154 ;;  sign            1    9[COMRAM] unsigned char 
  2155 ;;  arg             4   11[COMRAM] unsigned long 
  2156 ;;  exp             1   10[COMRAM] unsigned char 
  2157 ;; Return value:  Size  Location     Type
  2158 ;;                  4    1[COMRAM] unsigned char 
  2159 ;; Registers used:
  2160 ;;		wreg, status,2, status,0
  2161 ;; Tracked objects:
  2162 ;;		On entry : 0/0
  2163 ;;		On exit  : 0/0
  2164 ;;		Unchanged: 0/0
  2165 ;; Data sizes:     COMRAM   BANK5   BANK6   BANK7   BANK8   BANK9  BANK10  BANK11  BANK12  BANK13  BANK14  BANK15  BANK1
      +6  BANK17  BANK18  BANK19  BANK20  BANK21  BANK22  BANK23  BANK24  BANK25  BANK26  BANK27  BANK28  BANK29  BANK30  BANK3
      +1  BANK32  BANK33  BANK34  BANK35  BANK36
  2166 ;;      Params:         4       0       0       0       0       0       0       0       0       0       0       0       
      +0       0       0       0       0       0       0       0       0       0       0       0       0       0       0       
      +0       0       0       0       0       0
  2167 ;;      Locals:         6       0       0       0       0       0       0       0       0       0       0       0       
      +0       0       0       0       0       0       0       0       0       0       0       0       0       0       0       
      +0       0       0       0       0       0
  2168 ;;      Temps:          4       0       0       0       0       0       0       0       0       0       0       0       
      +0       0       0       0       0       0       0       0       0       0       0       0       0       0       0       
      +0       0       0       0       0       0
  2169 ;;      Totals:        14       0       0       0       0       0       0       0       0       0       0       0       
      +0       0       0       0       0       0       0       0       0       0       0       0       0       0       0       
      +0       0       0       0       0       0
  2170 ;;Total ram usage:       14 bytes
  2171 ;; Hardware stack levels used: 1
  2172 ;; Hardware stack levels required when called: 2
  2173 ;; This function calls:
  2174 ;;		Nothing
  2175 ;; This function is called by:
  2176 ;;		_analogMap
  2177 ;; This function uses a non-reentrant model
  2178 ;;
  2179                           
  2180                           	psect	text4
  2181   003D78                     __ptext4:
  2182                           	callstack 0
  2183   003D78                     ___xxtofl:
  2184                           	callstack 123
  2185                           
  2186                           ;incstack = 0
  2187                           ;___xxtofl@sign stored from wreg
  2188   003D78  6E0A               	movwf	___xxtofl@sign^(0+1280),c
  2189   003D7A  500A               	movf	___xxtofl@sign^(0+1280),w,c
  2190   003D7C  B4D8               	btfsc	status,2,c
  2191   003D7E  EFC3  F01E         	goto	u2891
  2192   003D82  EFC5  F01E         	goto	u2890
  2193   003D86                     u2891:
  2194   003D86  EFE7  F01E         	goto	l935
  2195   003D8A                     u2890:
  2196   003D8A  BE05               	btfsc	(___xxtofl@val+3)^(0+1280),7,c
  2197   003D8C  EFCC  F01E         	goto	u2900
  2198   003D90  EFCA  F01E         	goto	u2901
  2199   003D94                     u2901:
  2200   003D94  EFE7  F01E         	goto	l935
  2201   003D98                     u2900:
  2202   003D98  C502  F506         	movff	___xxtofl@val,??___xxtofl
  2203   003D9C  C503  F507         	movff	___xxtofl@val+1,??___xxtofl+1
  2204   003DA0  C504  F508         	movff	___xxtofl@val+2,??___xxtofl+2
  2205   003DA4  C505  F509         	movff	___xxtofl@val+3,??___xxtofl+3
  2206   003DA8  1E06               	comf	??___xxtofl^(0+1280),f,c
  2207   003DAA  1E07               	comf	(??___xxtofl+1)^(0+1280),f,c
  2208   003DAC  1E08               	comf	(??___xxtofl+2)^(0+1280),f,c
  2209   003DAE  1E09               	comf	(??___xxtofl+3)^(0+1280),f,c
  2210   003DB0  2A06               	incf	??___xxtofl^(0+1280),f,c
  2211   003DB2  0E00               	movlw	0
  2212   003DB4  2207               	addwfc	(??___xxtofl+1)^(0+1280),f,c
  2213   003DB6  2208               	addwfc	(??___xxtofl+2)^(0+1280),f,c
  2214   003DB8  2209               	addwfc	(??___xxtofl+3)^(0+1280),f,c
  2215   003DBA  C506  F50C         	movff	??___xxtofl,___xxtofl@arg
  2216   003DBE  C507  F50D         	movff	??___xxtofl+1,___xxtofl@arg+1
  2217   003DC2  C508  F50E         	movff	??___xxtofl+2,___xxtofl@arg+2
  2218   003DC6  C509  F50F         	movff	??___xxtofl+3,___xxtofl@arg+3
  2219   003DCA  EFEF  F01E         	goto	l3209
  2220   003DCE                     l935:
  2221   003DCE  C502  F50C         	movff	___xxtofl@val,___xxtofl@arg
  2222   003DD2  C503  F50D         	movff	___xxtofl@val+1,___xxtofl@arg+1
  2223   003DD6  C504  F50E         	movff	___xxtofl@val+2,___xxtofl@arg+2
  2224   003DDA  C505  F50F         	movff	___xxtofl@val+3,___xxtofl@arg+3
  2225   003DDE                     l3209:
  2226   003DDE  5002               	movf	___xxtofl@val^(0+1280),w,c
  2227   003DE0  1003               	iorwf	(___xxtofl@val+1)^(0+1280),w,c
  2228   003DE2  1004               	iorwf	(___xxtofl@val+2)^(0+1280),w,c
  2229   003DE4  1005               	iorwf	(___xxtofl@val+3)^(0+1280),w,c
  2230   003DE6  A4D8               	btfss	status,2,c
  2231   003DE8  EFF8  F01E         	goto	u2911
  2232   003DEC  EFFA  F01E         	goto	u2910
  2233   003DF0                     u2911:
  2234   003DF0  EF04  F01F         	goto	l3215
  2235   003DF4                     u2910:
  2236   003DF4  0E00               	movlw	0
  2237   003DF6  6E02               	movwf	?___xxtofl^(0+1280),c
  2238   003DF8  0E00               	movlw	0
  2239   003DFA  6E03               	movwf	(?___xxtofl+1)^(0+1280),c
  2240   003DFC  0E00               	movlw	0
  2241   003DFE  6E04               	movwf	(?___xxtofl+2)^(0+1280),c
  2242   003E00  0E00               	movlw	0
  2243   003E02  6E05               	movwf	(?___xxtofl+3)^(0+1280),c
  2244   003E04  EF95  F01F         	goto	l938
  2245   003E08                     l3215:
  2246   003E08  0E96               	movlw	150
  2247   003E0A  6E0B               	movwf	___xxtofl@exp^(0+1280),c
  2248   003E0C  EF0E  F01F         	goto	l3219
  2249   003E10                     l3217:
  2250   003E10  2A0B               	incf	___xxtofl@exp^(0+1280),f,c
  2251   003E12  90D8               	bcf	status,0,c
  2252   003E14  320F               	rrcf	(___xxtofl@arg+3)^(0+1280),f,c
  2253   003E16  320E               	rrcf	(___xxtofl@arg+2)^(0+1280),f,c
  2254   003E18  320D               	rrcf	(___xxtofl@arg+1)^(0+1280),f,c
  2255   003E1A  320C               	rrcf	___xxtofl@arg^(0+1280),f,c
  2256   003E1C                     l3219:
  2257   003E1C  0E00               	movlw	0
  2258   003E1E  140C               	andwf	___xxtofl@arg^(0+1280),w,c
  2259   003E20  6E06               	movwf	??___xxtofl^(0+1280),c
  2260   003E22  0E00               	movlw	0
  2261   003E24  140D               	andwf	(___xxtofl@arg+1)^(0+1280),w,c
  2262   003E26  6E07               	movwf	(??___xxtofl+1)^(0+1280),c
  2263   003E28  0E00               	movlw	0
  2264   003E2A  140E               	andwf	(___xxtofl@arg+2)^(0+1280),w,c
  2265   003E2C  6E08               	movwf	(??___xxtofl+2)^(0+1280),c
  2266   003E2E  0EFE               	movlw	254
  2267   003E30  140F               	andwf	(___xxtofl@arg+3)^(0+1280),w,c
  2268   003E32  6E09               	movwf	(??___xxtofl+3)^(0+1280),c
  2269   003E34  5006               	movf	??___xxtofl^(0+1280),w,c
  2270   003E36  1007               	iorwf	(??___xxtofl+1)^(0+1280),w,c
  2271   003E38  1008               	iorwf	(??___xxtofl+2)^(0+1280),w,c
  2272   003E3A  1009               	iorwf	(??___xxtofl+3)^(0+1280),w,c
  2273   003E3C  A4D8               	btfss	status,2,c
  2274   003E3E  EF23  F01F         	goto	u2921
  2275   003E42  EF25  F01F         	goto	u2920
  2276   003E46                     u2921:
  2277   003E46  EF08  F01F         	goto	l3217
  2278   003E4A                     u2920:
  2279   003E4A  EF33  F01F         	goto	l942
  2280   003E4E                     l3221:
  2281   003E4E  2A0B               	incf	___xxtofl@exp^(0+1280),f,c
  2282   003E50  0E01               	movlw	1
  2283   003E52  260C               	addwf	___xxtofl@arg^(0+1280),f,c
  2284   003E54  0E00               	movlw	0
  2285   003E56  220D               	addwfc	(___xxtofl@arg+1)^(0+1280),f,c
  2286   003E58  220E               	addwfc	(___xxtofl@arg+2)^(0+1280),f,c
  2287   003E5A  220F               	addwfc	(___xxtofl@arg+3)^(0+1280),f,c
  2288   003E5C  90D8               	bcf	status,0,c
  2289   003E5E  320F               	rrcf	(___xxtofl@arg+3)^(0+1280),f,c
  2290   003E60  320E               	rrcf	(___xxtofl@arg+2)^(0+1280),f,c
  2291   003E62  320D               	rrcf	(___xxtofl@arg+1)^(0+1280),f,c
  2292   003E64  320C               	rrcf	___xxtofl@arg^(0+1280),f,c
  2293   003E66                     l942:
  2294   003E66  0E00               	movlw	0
  2295   003E68  140C               	andwf	___xxtofl@arg^(0+1280),w,c
  2296   003E6A  6E06               	movwf	??___xxtofl^(0+1280),c
  2297   003E6C  0E00               	movlw	0
  2298   003E6E  140D               	andwf	(___xxtofl@arg+1)^(0+1280),w,c
  2299   003E70  6E07               	movwf	(??___xxtofl+1)^(0+1280),c
  2300   003E72  0E00               	movlw	0
  2301   003E74  140E               	andwf	(___xxtofl@arg+2)^(0+1280),w,c
  2302   003E76  6E08               	movwf	(??___xxtofl+2)^(0+1280),c
  2303   003E78  0EFF               	movlw	255
  2304   003E7A  140F               	andwf	(___xxtofl@arg+3)^(0+1280),w,c
  2305   003E7C  6E09               	movwf	(??___xxtofl+3)^(0+1280),c
  2306   003E7E  5006               	movf	??___xxtofl^(0+1280),w,c
  2307   003E80  1007               	iorwf	(??___xxtofl+1)^(0+1280),w,c
  2308   003E82  1008               	iorwf	(??___xxtofl+2)^(0+1280),w,c
  2309   003E84  1009               	iorwf	(??___xxtofl+3)^(0+1280),w,c
  2310   003E86  A4D8               	btfss	status,2,c
  2311   003E88  EF48  F01F         	goto	u2931
  2312   003E8C  EF4A  F01F         	goto	u2930
  2313   003E90                     u2931:
  2314   003E90  EF27  F01F         	goto	l3221
  2315   003E94                     u2930:
  2316   003E94  EF52  F01F         	goto	l3229
  2317   003E98                     l3227:
  2318   003E98  060B               	decf	___xxtofl@exp^(0+1280),f,c
  2319   003E9A  90D8               	bcf	status,0,c
  2320   003E9C  360C               	rlcf	___xxtofl@arg^(0+1280),f,c
  2321   003E9E  360D               	rlcf	(___xxtofl@arg+1)^(0+1280),f,c
  2322   003EA0  360E               	rlcf	(___xxtofl@arg+2)^(0+1280),f,c
  2323   003EA2  360F               	rlcf	(___xxtofl@arg+3)^(0+1280),f,c
  2324   003EA4                     l3229:
  2325   003EA4  BE0E               	btfsc	(___xxtofl@arg+2)^(0+1280),7,c
  2326   003EA6  EF57  F01F         	goto	u2941
  2327   003EAA  EF59  F01F         	goto	u2940
  2328   003EAE                     u2941:
  2329   003EAE  EF61  F01F         	goto	l949
  2330   003EB2                     u2940:
  2331   003EB2  0E02               	movlw	2
  2332   003EB4  600B               	cpfslt	___xxtofl@exp^(0+1280),c
  2333   003EB6  EF5F  F01F         	goto	u2951
  2334   003EBA  EF61  F01F         	goto	u2950
  2335   003EBE                     u2951:
  2336   003EBE  EF4C  F01F         	goto	l3227
  2337   003EC2                     u2950:
  2338   003EC2                     l949:
  2339   003EC2  B00B               	btfsc	___xxtofl@exp^(0+1280),0,c
  2340   003EC4  EF66  F01F         	goto	u2961
  2341   003EC8  EF68  F01F         	goto	u2960
  2342   003ECC                     u2961:
  2343   003ECC  EF69  F01F         	goto	l3235
  2344   003ED0                     u2960:
  2345   003ED0  9E0E               	bcf	(___xxtofl@arg+2)^(0+1280),7,c
  2346   003ED2                     l3235:
  2347   003ED2  90D8               	bcf	status,0,c
  2348   003ED4  320B               	rrcf	___xxtofl@exp^(0+1280),f,c
  2349   003ED6  C50B  F506         	movff	___xxtofl@exp,??___xxtofl
  2350   003EDA  6A07               	clrf	(??___xxtofl+1)^(0+1280),c
  2351   003EDC  6A08               	clrf	(??___xxtofl+2)^(0+1280),c
  2352   003EDE  6A09               	clrf	(??___xxtofl+3)^(0+1280),c
  2353   003EE0  C506  F509         	movff	??___xxtofl,??___xxtofl+3
  2354   003EE4  6A08               	clrf	(??___xxtofl+2)^(0+1280),c
  2355   003EE6  6A07               	clrf	(??___xxtofl+1)^(0+1280),c
  2356   003EE8  6A06               	clrf	??___xxtofl^(0+1280),c
  2357   003EEA  5006               	movf	??___xxtofl^(0+1280),w,c
  2358   003EEC  120C               	iorwf	___xxtofl@arg^(0+1280),f,c
  2359   003EEE  5007               	movf	(??___xxtofl+1)^(0+1280),w,c
  2360   003EF0  120D               	iorwf	(___xxtofl@arg+1)^(0+1280),f,c
  2361   003EF2  5008               	movf	(??___xxtofl+2)^(0+1280),w,c
  2362   003EF4  120E               	iorwf	(___xxtofl@arg+2)^(0+1280),f,c
  2363   003EF6  5009               	movf	(??___xxtofl+3)^(0+1280),w,c
  2364   003EF8  120F               	iorwf	(___xxtofl@arg+3)^(0+1280),f,c
  2365   003EFA  500A               	movf	___xxtofl@sign^(0+1280),w,c
  2366   003EFC  B4D8               	btfsc	status,2,c
  2367   003EFE  EF83  F01F         	goto	u2971
  2368   003F02  EF85  F01F         	goto	u2970
  2369   003F06                     u2971:
  2370   003F06  EF8D  F01F         	goto	l3245
  2371   003F0A                     u2970:
  2372   003F0A  BE05               	btfsc	(___xxtofl@val+3)^(0+1280),7,c
  2373   003F0C  EF8C  F01F         	goto	u2980
  2374   003F10  EF8A  F01F         	goto	u2981
  2375   003F14                     u2981:
  2376   003F14  EF8D  F01F         	goto	l3245
  2377   003F18                     u2980:
  2378   003F18  8E0F               	bsf	(___xxtofl@arg+3)^(0+1280),7,c
  2379   003F1A                     l3245:
  2380   003F1A  C50C  F502         	movff	___xxtofl@arg,?___xxtofl
  2381   003F1E  C50D  F503         	movff	___xxtofl@arg+1,?___xxtofl+1
  2382   003F22  C50E  F504         	movff	___xxtofl@arg+2,?___xxtofl+2
  2383   003F26  C50F  F505         	movff	___xxtofl@arg+3,?___xxtofl+3
  2384   003F2A                     l938:
  2385   003F2A  0012               	return		;funcret
  2386   003F2C                     __end_of___xxtofl:
  2387                           	callstack 0
  2388                           
  2389 ;; *************** function ___flsub *****************
  2390 ;; Defined at:
  2391 ;;		line 245 in file "C:\Program Files\Microchip\xc8\v2.40\pic\sources\c99\common\sprcadd.c"
  2392 ;; Parameters:    Size  Location     Type
  2393 ;;  b               4   56[COMRAM] unsigned char 
  2394 ;;  a               4   60[COMRAM] unsigned char 
  2395 ;; Auto vars:     Size  Location     Type
  2396 ;;		None
  2397 ;; Return value:  Size  Location     Type
  2398 ;;                  4   56[COMRAM] unsigned char 
  2399 ;; Registers used:
  2400 ;;		wreg, status,2, status,0, cstack
  2401 ;; Tracked objects:
  2402 ;;		On entry : 0/0
  2403 ;;		On exit  : 0/0
  2404 ;;		Unchanged: 0/0
  2405 ;; Data sizes:     COMRAM   BANK5   BANK6   BANK7   BANK8   BANK9  BANK10  BANK11  BANK12  BANK13  BANK14  BANK15  BANK1
      +6  BANK17  BANK18  BANK19  BANK20  BANK21  BANK22  BANK23  BANK24  BANK25  BANK26  BANK27  BANK28  BANK29  BANK30  BANK3
      +1  BANK32  BANK33  BANK34  BANK35  BANK36
  2406 ;;      Params:         8       0       0       0       0       0       0       0       0       0       0       0       
      +0       0       0       0       0       0       0       0       0       0       0       0       0       0       0       
      +0       0       0       0       0       0
  2407 ;;      Locals:         0       0       0       0       0       0       0       0       0       0       0       0       
      +0       0       0       0       0       0       0       0       0       0       0       0       0       0       0       
      +0       0       0       0       0       0
  2408 ;;      Temps:          0       0       0       0       0       0       0       0       0       0       0       0       
      +0       0       0       0       0       0       0       0       0       0       0       0       0       0       0       
      +0       0       0       0       0       0
  2409 ;;      Totals:         8       0       0       0       0       0       0       0       0       0       0       0       
      +0       0       0       0       0       0       0       0       0       0       0       0       0       0       0       
      +0       0       0       0       0       0
  2410 ;;Total ram usage:        8 bytes
  2411 ;; Hardware stack levels used: 1
  2412 ;; Hardware stack levels required when called: 3
  2413 ;; This function calls:
  2414 ;;		___fladd
  2415 ;; This function is called by:
  2416 ;;		_analogMap
  2417 ;; This function uses a non-reentrant model
  2418 ;;
  2419                           
  2420                           	psect	text5
  2421   00497E                     __ptext5:
  2422                           	callstack 0
  2423   00497E                     ___flsub:
  2424                           	callstack 122
  2425   00497E  0E00               	movlw	0
  2426   004980  1A3D               	xorwf	___flsub@a^(0+1280),f,c
  2427   004982  0E00               	movlw	0
  2428   004984  1A3E               	xorwf	(___flsub@a+1)^(0+1280),f,c
  2429   004986  0E00               	movlw	0
  2430   004988  1A3F               	xorwf	(___flsub@a+2)^(0+1280),f,c
  2431   00498A  0E80               	movlw	128
  2432   00498C  1A40               	xorwf	(___flsub@a+3)^(0+1280),f,c
  2433   00498E  C539  F529         	movff	___flsub@b,___fladd@b
  2434   004992  C53A  F52A         	movff	___flsub@b+1,___fladd@b+1
  2435   004996  C53B  F52B         	movff	___flsub@b+2,___fladd@b+2
  2436   00499A  C53C  F52C         	movff	___flsub@b+3,___fladd@b+3
  2437   00499E  C53D  F52D         	movff	___flsub@a,___fladd@a
  2438   0049A2  C53E  F52E         	movff	___flsub@a+1,___fladd@a+1
  2439   0049A6  C53F  F52F         	movff	___flsub@a+2,___fladd@a+2
  2440   0049AA  C540  F530         	movff	___flsub@a+3,___fladd@a+3
  2441   0049AE  EC94  F015         	call	___fladd	;wreg free
  2442   0049B2  C529  F539         	movff	?___fladd,?___flsub
  2443   0049B6  C52A  F53A         	movff	?___fladd+1,?___flsub+1
  2444   0049BA  C52B  F53B         	movff	?___fladd+2,?___flsub+2
  2445   0049BE  C52C  F53C         	movff	?___fladd+3,?___flsub+3
  2446   0049C2  0012               	return		;funcret
  2447   0049C4                     __end_of___flsub:
  2448                           	callstack 0
  2449                           
  2450 ;; *************** function ___fladd *****************
  2451 ;; Defined at:
  2452 ;;		line 10 in file "C:\Program Files\Microchip\xc8\v2.40\pic\sources\c99\common\sprcadd.c"
  2453 ;; Parameters:    Size  Location     Type
  2454 ;;  b               4   40[COMRAM] unsigned char 
  2455 ;;  a               4   44[COMRAM] unsigned char 
  2456 ;; Auto vars:     Size  Location     Type
  2457 ;;  grs             1   55[COMRAM] unsigned char 
  2458 ;;  bexp            1   54[COMRAM] unsigned char 
  2459 ;;  aexp            1   53[COMRAM] unsigned char 
  2460 ;;  signs           1   52[COMRAM] unsigned char 
  2461 ;; Return value:  Size  Location     Type
  2462 ;;                  4   40[COMRAM] unsigned char 
  2463 ;; Registers used:
  2464 ;;		wreg, status,2, status,0
  2465 ;; Tracked objects:
  2466 ;;		On entry : 0/0
  2467 ;;		On exit  : 0/0
  2468 ;;		Unchanged: 0/0
  2469 ;; Data sizes:     COMRAM   BANK5   BANK6   BANK7   BANK8   BANK9  BANK10  BANK11  BANK12  BANK13  BANK14  BANK15  BANK1
      +6  BANK17  BANK18  BANK19  BANK20  BANK21  BANK22  BANK23  BANK24  BANK25  BANK26  BANK27  BANK28  BANK29  BANK30  BANK3
      +1  BANK32  BANK33  BANK34  BANK35  BANK36
  2470 ;;      Params:         8       0       0       0       0       0       0       0       0       0       0       0       
      +0       0       0       0       0       0       0       0       0       0       0       0       0       0       0       
      +0       0       0       0       0       0
  2471 ;;      Locals:         4       0       0       0       0       0       0       0       0       0       0       0       
      +0       0       0       0       0       0       0       0       0       0       0       0       0       0       0       
      +0       0       0       0       0       0
  2472 ;;      Temps:          4       0       0       0       0       0       0       0       0       0       0       0       
      +0       0       0       0       0       0       0       0       0       0       0       0       0       0       0       
      +0       0       0       0       0       0
  2473 ;;      Totals:        16       0       0       0       0       0       0       0       0       0       0       0       
      +0       0       0       0       0       0       0       0       0       0       0       0       0       0       0       
      +0       0       0       0       0       0
  2474 ;;Total ram usage:       16 bytes
  2475 ;; Hardware stack levels used: 1
  2476 ;; Hardware stack levels required when called: 2
  2477 ;; This function calls:
  2478 ;;		Nothing
  2479 ;; This function is called by:
  2480 ;;		_analogMap
  2481 ;;		___flsub
  2482 ;; This function uses a non-reentrant model
  2483 ;;
  2484                           
  2485                           	psect	text6
  2486   002B28                     __ptext6:
  2487                           	callstack 0
  2488   002B28                     ___fladd:
  2489                           	callstack 122
  2490   002B28  502C               	movf	(___fladd@b+3)^(0+1280),w,c
  2491   002B2A  0B80               	andlw	128
  2492   002B2C  6E35               	movwf	___fladd@signs^(0+1280),c
  2493   002B2E  502C               	movf	(___fladd@b+3)^(0+1280),w,c
  2494   002B30  242C               	addwf	(___fladd@b+3)^(0+1280),w,c
  2495   002B32  6E37               	movwf	___fladd@bexp^(0+1280),c
  2496   002B34  AE2B               	btfss	(___fladd@b+2)^(0+1280),7,c
  2497   002B36  EF9F  F015         	goto	u1741
  2498   002B3A  EFA1  F015         	goto	u1740
  2499   002B3E                     u1741:
  2500   002B3E  EFA2  F015         	goto	l2469
  2501   002B42                     u1740:
  2502   002B42  8037               	bsf	___fladd@bexp^(0+1280),0,c
  2503   002B44                     l2469:
  2504   002B44  5037               	movf	___fladd@bexp^(0+1280),w,c
  2505   002B46  B4D8               	btfsc	status,2,c
  2506   002B48  EFA8  F015         	goto	u1751
  2507   002B4C  EFAA  F015         	goto	u1750
  2508   002B50                     u1751:
  2509   002B50  EFBF  F015         	goto	l2479
  2510   002B54                     u1750:
  2511   002B54  2837               	incf	___fladd@bexp^(0+1280),w,c
  2512   002B56  A4D8               	btfss	status,2,c
  2513   002B58  EFB0  F015         	goto	u1761
  2514   002B5C  EFB2  F015         	goto	u1760
  2515   002B60                     u1761:
  2516   002B60  EFBA  F015         	goto	l2475
  2517   002B64                     u1760:
  2518   002B64  0E00               	movlw	0
  2519   002B66  6E29               	movwf	___fladd@b^(0+1280),c
  2520   002B68  0E00               	movlw	0
  2521   002B6A  6E2A               	movwf	(___fladd@b+1)^(0+1280),c
  2522   002B6C  0E00               	movlw	0
  2523   002B6E  6E2B               	movwf	(___fladd@b+2)^(0+1280),c
  2524   002B70  0E00               	movlw	0
  2525   002B72  6E2C               	movwf	(___fladd@b+3)^(0+1280),c
  2526   002B74                     l2475:
  2527   002B74  8E2B               	bsf	(___fladd@b+2)^(0+1280),7,c
  2528   002B76  0E00               	movlw	0
  2529   002B78  6E2C               	movwf	(___fladd@b+3)^(0+1280),c
  2530   002B7A  EFC7  F015         	goto	l2481
  2531   002B7E                     l2479:
  2532   002B7E  0E00               	movlw	0
  2533   002B80  6E29               	movwf	___fladd@b^(0+1280),c
  2534   002B82  0E00               	movlw	0
  2535   002B84  6E2A               	movwf	(___fladd@b+1)^(0+1280),c
  2536   002B86  0E00               	movlw	0
  2537   002B88  6E2B               	movwf	(___fladd@b+2)^(0+1280),c
  2538   002B8A  0E00               	movlw	0
  2539   002B8C  6E2C               	movwf	(___fladd@b+3)^(0+1280),c
  2540   002B8E                     l2481:
  2541   002B8E  5030               	movf	(___fladd@a+3)^(0+1280),w,c
  2542   002B90  0B80               	andlw	128
  2543   002B92  6E36               	movwf	___fladd@aexp^(0+1280),c
  2544   002B94  5035               	movf	___fladd@signs^(0+1280),w,c
  2545   002B96  1836               	xorwf	___fladd@aexp^(0+1280),w,c
  2546   002B98  B4D8               	btfsc	status,2,c
  2547   002B9A  EFD1  F015         	goto	u1771
  2548   002B9E  EFD3  F015         	goto	u1770
  2549   002BA2                     u1771:
  2550   002BA2  EFD4  F015         	goto	l2487
  2551   002BA6                     u1770:
  2552   002BA6  8C35               	bsf	___fladd@signs^(0+1280),6,c
  2553   002BA8                     l2487:
  2554   002BA8  5030               	movf	(___fladd@a+3)^(0+1280),w,c
  2555   002BAA  2430               	addwf	(___fladd@a+3)^(0+1280),w,c
  2556   002BAC  6E36               	movwf	___fladd@aexp^(0+1280),c
  2557   002BAE  AE2F               	btfss	(___fladd@a+2)^(0+1280),7,c
  2558   002BB0  EFDC  F015         	goto	u1781
  2559   002BB4  EFDE  F015         	goto	u1780
  2560   002BB8                     u1781:
  2561   002BB8  EFDF  F015         	goto	l2493
  2562   002BBC                     u1780:
  2563   002BBC  8036               	bsf	___fladd@aexp^(0+1280),0,c
  2564   002BBE                     l2493:
  2565   002BBE  5036               	movf	___fladd@aexp^(0+1280),w,c
  2566   002BC0  B4D8               	btfsc	status,2,c
  2567   002BC2  EFE5  F015         	goto	u1791
  2568   002BC6  EFE7  F015         	goto	u1790
  2569   002BCA                     u1791:
  2570   002BCA  EFFC  F015         	goto	l2503
  2571   002BCE                     u1790:
  2572   002BCE  2836               	incf	___fladd@aexp^(0+1280),w,c
  2573   002BD0  A4D8               	btfss	status,2,c
  2574   002BD2  EFED  F015         	goto	u1801
  2575   002BD6  EFEF  F015         	goto	u1800
  2576   002BDA                     u1801:
  2577   002BDA  EFF7  F015         	goto	l2499
  2578   002BDE                     u1800:
  2579   002BDE  0E00               	movlw	0
  2580   002BE0  6E2D               	movwf	___fladd@a^(0+1280),c
  2581   002BE2  0E00               	movlw	0
  2582   002BE4  6E2E               	movwf	(___fladd@a+1)^(0+1280),c
  2583   002BE6  0E00               	movlw	0
  2584   002BE8  6E2F               	movwf	(___fladd@a+2)^(0+1280),c
  2585   002BEA  0E00               	movlw	0
  2586   002BEC  6E30               	movwf	(___fladd@a+3)^(0+1280),c
  2587   002BEE                     l2499:
  2588   002BEE  8E2F               	bsf	(___fladd@a+2)^(0+1280),7,c
  2589   002BF0  0E00               	movlw	0
  2590   002BF2  6E30               	movwf	(___fladd@a+3)^(0+1280),c
  2591   002BF4  EF04  F016         	goto	l2505
  2592   002BF8                     l2503:
  2593   002BF8  0E00               	movlw	0
  2594   002BFA  6E2D               	movwf	___fladd@a^(0+1280),c
  2595   002BFC  0E00               	movlw	0
  2596   002BFE  6E2E               	movwf	(___fladd@a+1)^(0+1280),c
  2597   002C00  0E00               	movlw	0
  2598   002C02  6E2F               	movwf	(___fladd@a+2)^(0+1280),c
  2599   002C04  0E00               	movlw	0
  2600   002C06  6E30               	movwf	(___fladd@a+3)^(0+1280),c
  2601   002C08                     l2505:
  2602   002C08  5037               	movf	___fladd@bexp^(0+1280),w,c
  2603   002C0A  5C36               	subwf	___fladd@aexp^(0+1280),w,c
  2604   002C0C  B0D8               	btfsc	status,0,c
  2605   002C0E  EF0B  F016         	goto	u1811
  2606   002C12  EF0D  F016         	goto	u1810
  2607   002C16                     u1811:
  2608   002C16  EF34  F016         	goto	l2541
  2609   002C1A                     u1810:
  2610   002C1A  AC35               	btfss	___fladd@signs^(0+1280),6,c
  2611   002C1C  EF12  F016         	goto	u1821
  2612   002C20  EF14  F016         	goto	u1820
  2613   002C24                     u1821:
  2614   002C24  EF16  F016         	goto	l2511
  2615   002C28                     u1820:
  2616   002C28  0E80               	movlw	128
  2617   002C2A  1A35               	xorwf	___fladd@signs^(0+1280),f,c
  2618   002C2C                     l2511:
  2619   002C2C  C537  F538         	movff	___fladd@bexp,___fladd@grs
  2620   002C30  C536  F537         	movff	___fladd@aexp,___fladd@bexp
  2621   002C34  C538  F536         	movff	___fladd@grs,___fladd@aexp
  2622   002C38  C529  F538         	movff	___fladd@b,___fladd@grs
  2623   002C3C  C52D  F529         	movff	___fladd@a,___fladd@b
  2624   002C40  C538  F52D         	movff	___fladd@grs,___fladd@a
  2625   002C44  C52A  F538         	movff	___fladd@b+1,___fladd@grs
  2626   002C48  C52E  F52A         	movff	___fladd@a+1,___fladd@b+1
  2627   002C4C  C538  F52E         	movff	___fladd@grs,___fladd@a+1
  2628   002C50  C52B  F538         	movff	___fladd@b+2,___fladd@grs
  2629   002C54  C52F  F52B         	movff	___fladd@a+2,___fladd@b+2
  2630   002C58  C538  F52F         	movff	___fladd@grs,___fladd@a+2
  2631   002C5C  C52C  F538         	movff	___fladd@b+3,___fladd@grs
  2632   002C60  C530  F52C         	movff	___fladd@a+3,___fladd@b+3
  2633   002C64  C538  F530         	movff	___fladd@grs,___fladd@a+3
  2634   002C68                     l2541:
  2635   002C68  0E00               	movlw	0
  2636   002C6A  6E38               	movwf	___fladd@grs^(0+1280),c
  2637   002C6C  5037               	movf	___fladd@bexp^(0+1280),w,c
  2638   002C6E  C536  F531         	movff	___fladd@aexp,??___fladd
  2639   002C72  6A32               	clrf	(??___fladd+1)^(0+1280),c
  2640   002C74  5E31               	subwf	??___fladd^(0+1280),f,c
  2641   002C76  0E00               	movlw	0
  2642   002C78  5A32               	subwfb	(??___fladd+1)^(0+1280),f,c
  2643   002C7A  BE32               	btfsc	(??___fladd+1)^(0+1280),7,c
  2644   002C7C  EF49  F016         	goto	u1831
  2645   002C80  5032               	movf	(??___fladd+1)^(0+1280),w,c
  2646   002C82  E109               	bnz	u1830
  2647   002C84  0E1A               	movlw	26
  2648   002C86  5C31               	subwf	??___fladd^(0+1280),w,c
  2649   002C88  A0D8               	btfss	status,0,c
  2650   002C8A  EF49  F016         	goto	u1831
  2651   002C8E  EF4B  F016         	goto	u1830
  2652   002C92                     u1831:
  2653   002C92  EF82  F016         	goto	l809
  2654   002C96                     u1830:
  2655   002C96  5029               	movf	___fladd@b^(0+1280),w,c
  2656   002C98  102A               	iorwf	(___fladd@b+1)^(0+1280),w,c
  2657   002C9A  102B               	iorwf	(___fladd@b+2)^(0+1280),w,c
  2658   002C9C  102C               	iorwf	(___fladd@b+3)^(0+1280),w,c
  2659   002C9E  A4D8               	btfss	status,2,c
  2660   002CA0  EF54  F016         	goto	u1841
  2661   002CA4  EF57  F016         	goto	u1840
  2662   002CA8                     u1841:
  2663   002CA8  0E01               	movlw	1
  2664   002CAA  EF58  F016         	goto	u1850
  2665   002CAE                     u1840:
  2666   002CAE  0E00               	movlw	0
  2667   002CB0                     u1850:
  2668   002CB0  6E38               	movwf	___fladd@grs^(0+1280),c
  2669   002CB2  0E00               	movlw	0
  2670   002CB4  6E29               	movwf	___fladd@b^(0+1280),c
  2671   002CB6  0E00               	movlw	0
  2672   002CB8  6E2A               	movwf	(___fladd@b+1)^(0+1280),c
  2673   002CBA  0E00               	movlw	0
  2674   002CBC  6E2B               	movwf	(___fladd@b+2)^(0+1280),c
  2675   002CBE  0E00               	movlw	0
  2676   002CC0  6E2C               	movwf	(___fladd@b+3)^(0+1280),c
  2677   002CC2  C536  F537         	movff	___fladd@aexp,___fladd@bexp
  2678   002CC6  EF8B  F016         	goto	l808
  2679   002CCA                     l810:
  2680   002CCA  A038               	btfss	___fladd@grs^(0+1280),0,c
  2681   002CCC  EF6A  F016         	goto	u1861
  2682   002CD0  EF6C  F016         	goto	u1860
  2683   002CD4                     u1861:
  2684   002CD4  EF72  F016         	goto	l2553
  2685   002CD8                     u1860:
  2686   002CD8  90D8               	bcf	status,0,c
  2687   002CDA  3038               	rrcf	___fladd@grs^(0+1280),w,c
  2688   002CDC  0901               	iorlw	1
  2689   002CDE  6E38               	movwf	___fladd@grs^(0+1280),c
  2690   002CE0  EF74  F016         	goto	l2555
  2691   002CE4                     l2553:
  2692   002CE4  90D8               	bcf	status,0,c
  2693   002CE6  3238               	rrcf	___fladd@grs^(0+1280),f,c
  2694   002CE8                     l2555:
  2695   002CE8  A029               	btfss	___fladd@b^(0+1280),0,c
  2696   002CEA  EF79  F016         	goto	u1871
  2697   002CEE  EF7B  F016         	goto	u1870
  2698   002CF2                     u1871:
  2699   002CF2  EF7C  F016         	goto	l2559
  2700   002CF6                     u1870:
  2701   002CF6  8E38               	bsf	___fladd@grs^(0+1280),7,c
  2702   002CF8                     l2559:
  2703   002CF8  342C               	rlcf	(___fladd@b+3)^(0+1280),w,c
  2704   002CFA  322C               	rrcf	(___fladd@b+3)^(0+1280),f,c
  2705   002CFC  322B               	rrcf	(___fladd@b+2)^(0+1280),f,c
  2706   002CFE  322A               	rrcf	(___fladd@b+1)^(0+1280),f,c
  2707   002D00  3229               	rrcf	___fladd@b^(0+1280),f,c
  2708   002D02  2A37               	incf	___fladd@bexp^(0+1280),f,c
  2709   002D04                     l809:
  2710   002D04  5036               	movf	___fladd@aexp^(0+1280),w,c
  2711   002D06  5C37               	subwf	___fladd@bexp^(0+1280),w,c
  2712   002D08  A0D8               	btfss	status,0,c
  2713   002D0A  EF89  F016         	goto	u1881
  2714   002D0E  EF8B  F016         	goto	u1880
  2715   002D12                     u1881:
  2716   002D12  EF65  F016         	goto	l810
  2717   002D16                     u1880:
  2718   002D16                     l808:
  2719   002D16  BC35               	btfsc	___fladd@signs^(0+1280),6,c
  2720   002D18  EF90  F016         	goto	u1891
  2721   002D1C  EF92  F016         	goto	u1890
  2722   002D20                     u1891:
  2723   002D20  EFD2  F016         	goto	l2587
  2724   002D24                     u1890:
  2725   002D24  5037               	movf	___fladd@bexp^(0+1280),w,c
  2726   002D26  A4D8               	btfss	status,2,c
  2727   002D28  EF98  F016         	goto	u1901
  2728   002D2C  EF9A  F016         	goto	u1900
  2729   002D30                     u1901:
  2730   002D30  EFA4  F016         	goto	l2569
  2731   002D34                     u1900:
  2732   002D34  0E00               	movlw	0
  2733   002D36  6E29               	movwf	?___fladd^(0+1280),c
  2734   002D38  0E00               	movlw	0
  2735   002D3A  6E2A               	movwf	(?___fladd+1)^(0+1280),c
  2736   002D3C  0E00               	movlw	0
  2737   002D3E  6E2B               	movwf	(?___fladd+2)^(0+1280),c
  2738   002D40  0E00               	movlw	0
  2739   002D42  6E2C               	movwf	(?___fladd+3)^(0+1280),c
  2740   002D44  EFF3  F017         	goto	l817
  2741   002D48                     l2569:
  2742   002D48  502D               	movf	___fladd@a^(0+1280),w,c
  2743   002D4A  2629               	addwf	___fladd@b^(0+1280),f,c
  2744   002D4C  502E               	movf	(___fladd@a+1)^(0+1280),w,c
  2745   002D4E  222A               	addwfc	(___fladd@b+1)^(0+1280),f,c
  2746   002D50  502F               	movf	(___fladd@a+2)^(0+1280),w,c
  2747   002D52  222B               	addwfc	(___fladd@b+2)^(0+1280),f,c
  2748   002D54  5030               	movf	(___fladd@a+3)^(0+1280),w,c
  2749   002D56  222C               	addwfc	(___fladd@b+3)^(0+1280),f,c
  2750   002D58  A02C               	btfss	(___fladd@b+3)^(0+1280),0,c
  2751   002D5A  EFB1  F016         	goto	u1911
  2752   002D5E  EFB3  F016         	goto	u1910
  2753   002D62                     u1911:
  2754   002D62  EF5F  F017         	goto	l2623
  2755   002D66                     u1910:
  2756   002D66  A038               	btfss	___fladd@grs^(0+1280),0,c
  2757   002D68  EFB8  F016         	goto	u1921
  2758   002D6C  EFBA  F016         	goto	u1920
  2759   002D70                     u1921:
  2760   002D70  EFC0  F016         	goto	l2577
  2761   002D74                     u1920:
  2762   002D74  90D8               	bcf	status,0,c
  2763   002D76  3038               	rrcf	___fladd@grs^(0+1280),w,c
  2764   002D78  0901               	iorlw	1
  2765   002D7A  6E38               	movwf	___fladd@grs^(0+1280),c
  2766   002D7C  EFC2  F016         	goto	l2579
  2767   002D80                     l2577:
  2768   002D80  90D8               	bcf	status,0,c
  2769   002D82  3238               	rrcf	___fladd@grs^(0+1280),f,c
  2770   002D84                     l2579:
  2771   002D84  A029               	btfss	___fladd@b^(0+1280),0,c
  2772   002D86  EFC7  F016         	goto	u1931
  2773   002D8A  EFC9  F016         	goto	u1930
  2774   002D8E                     u1931:
  2775   002D8E  EFCA  F016         	goto	l2583
  2776   002D92                     u1930:
  2777   002D92  8E38               	bsf	___fladd@grs^(0+1280),7,c
  2778   002D94                     l2583:
  2779   002D94  342C               	rlcf	(___fladd@b+3)^(0+1280),w,c
  2780   002D96  322C               	rrcf	(___fladd@b+3)^(0+1280),f,c
  2781   002D98  322B               	rrcf	(___fladd@b+2)^(0+1280),f,c
  2782   002D9A  322A               	rrcf	(___fladd@b+1)^(0+1280),f,c
  2783   002D9C  3229               	rrcf	___fladd@b^(0+1280),f,c
  2784   002D9E  2A37               	incf	___fladd@bexp^(0+1280),f,c
  2785   002DA0  EF5F  F017         	goto	l2623
  2786   002DA4                     l2587:
  2787   002DA4  502D               	movf	___fladd@a^(0+1280),w,c
  2788   002DA6  5C29               	subwf	___fladd@b^(0+1280),w,c
  2789   002DA8  502E               	movf	(___fladd@a+1)^(0+1280),w,c
  2790   002DAA  582A               	subwfb	(___fladd@b+1)^(0+1280),w,c
  2791   002DAC  502F               	movf	(___fladd@a+2)^(0+1280),w,c
  2792   002DAE  582B               	subwfb	(___fladd@b+2)^(0+1280),w,c
  2793   002DB0  502C               	movf	(___fladd@b+3)^(0+1280),w,c
  2794   002DB2  0A80               	xorlw	128
  2795   002DB4  6E31               	movwf	??___fladd^(0+1280),c
  2796   002DB6  5030               	movf	(___fladd@a+3)^(0+1280),w,c
  2797   002DB8  0A80               	xorlw	128
  2798   002DBA  5831               	subwfb	??___fladd^(0+1280),w,c
  2799   002DBC  B0D8               	btfsc	status,0,c
  2800   002DBE  EFE3  F016         	goto	u1941
  2801   002DC2  EFE5  F016         	goto	u1940
  2802   002DC6                     u1941:
  2803   002DC6  EF10  F017         	goto	l2597
  2804   002DCA                     u1940:
  2805   002DCA  5029               	movf	___fladd@b^(0+1280),w,c
  2806   002DCC  5C2D               	subwf	___fladd@a^(0+1280),w,c
  2807   002DCE  6E31               	movwf	??___fladd^(0+1280),c
  2808   002DD0  502A               	movf	(___fladd@b+1)^(0+1280),w,c
  2809   002DD2  582E               	subwfb	(___fladd@a+1)^(0+1280),w,c
  2810   002DD4  6E32               	movwf	(??___fladd+1)^(0+1280),c
  2811   002DD6  502B               	movf	(___fladd@b+2)^(0+1280),w,c
  2812   002DD8  582F               	subwfb	(___fladd@a+2)^(0+1280),w,c
  2813   002DDA  6E33               	movwf	(??___fladd+2)^(0+1280),c
  2814   002DDC  502C               	movf	(___fladd@b+3)^(0+1280),w,c
  2815   002DDE  5830               	subwfb	(___fladd@a+3)^(0+1280),w,c
  2816   002DE0  6E34               	movwf	(??___fladd+3)^(0+1280),c
  2817   002DE2  0EFF               	movlw	255
  2818   002DE4  2431               	addwf	??___fladd^(0+1280),w,c
  2819   002DE6  6E29               	movwf	___fladd@b^(0+1280),c
  2820   002DE8  0EFF               	movlw	255
  2821   002DEA  2032               	addwfc	(??___fladd+1)^(0+1280),w,c
  2822   002DEC  6E2A               	movwf	(___fladd@b+1)^(0+1280),c
  2823   002DEE  0EFF               	movlw	255
  2824   002DF0  2033               	addwfc	(??___fladd+2)^(0+1280),w,c
  2825   002DF2  6E2B               	movwf	(___fladd@b+2)^(0+1280),c
  2826   002DF4  0EFF               	movlw	255
  2827   002DF6  2034               	addwfc	(??___fladd+3)^(0+1280),w,c
  2828   002DF8  6E2C               	movwf	(___fladd@b+3)^(0+1280),c
  2829   002DFA  0E80               	movlw	128
  2830   002DFC  1A35               	xorwf	___fladd@signs^(0+1280),f,c
  2831   002DFE  6C38               	negf	___fladd@grs^(0+1280),c
  2832   002E00  5038               	movf	___fladd@grs^(0+1280),w,c
  2833   002E02  A4D8               	btfss	status,2,c
  2834   002E04  EF06  F017         	goto	u1951
  2835   002E08  EF08  F017         	goto	u1950
  2836   002E0C                     u1951:
  2837   002E0C  EF18  F017         	goto	l825
  2838   002E10                     u1950:
  2839   002E10  0E01               	movlw	1
  2840   002E12  2629               	addwf	___fladd@b^(0+1280),f,c
  2841   002E14  0E00               	movlw	0
  2842   002E16  222A               	addwfc	(___fladd@b+1)^(0+1280),f,c
  2843   002E18  222B               	addwfc	(___fladd@b+2)^(0+1280),f,c
  2844   002E1A  222C               	addwfc	(___fladd@b+3)^(0+1280),f,c
  2845   002E1C  EF18  F017         	goto	l825
  2846   002E20                     l2597:
  2847   002E20  502D               	movf	___fladd@a^(0+1280),w,c
  2848   002E22  5E29               	subwf	___fladd@b^(0+1280),f,c
  2849   002E24  502E               	movf	(___fladd@a+1)^(0+1280),w,c
  2850   002E26  5A2A               	subwfb	(___fladd@b+1)^(0+1280),f,c
  2851   002E28  502F               	movf	(___fladd@a+2)^(0+1280),w,c
  2852   002E2A  5A2B               	subwfb	(___fladd@b+2)^(0+1280),f,c
  2853   002E2C  5030               	movf	(___fladd@a+3)^(0+1280),w,c
  2854   002E2E  5A2C               	subwfb	(___fladd@b+3)^(0+1280),f,c
  2855   002E30                     l825:
  2856   002E30  5029               	movf	___fladd@b^(0+1280),w,c
  2857   002E32  102A               	iorwf	(___fladd@b+1)^(0+1280),w,c
  2858   002E34  102B               	iorwf	(___fladd@b+2)^(0+1280),w,c
  2859   002E36  102C               	iorwf	(___fladd@b+3)^(0+1280),w,c
  2860   002E38  A4D8               	btfss	status,2,c
  2861   002E3A  EF21  F017         	goto	u1961
  2862   002E3E  EF23  F017         	goto	u1960
  2863   002E42                     u1961:
  2864   002E42  EF58  F017         	goto	l2621
  2865   002E46                     u1960:
  2866   002E46  5038               	movf	___fladd@grs^(0+1280),w,c
  2867   002E48  A4D8               	btfss	status,2,c
  2868   002E4A  EF29  F017         	goto	u1971
  2869   002E4E  EF2B  F017         	goto	u1970
  2870   002E52                     u1971:
  2871   002E52  EF58  F017         	goto	l2621
  2872   002E56                     u1970:
  2873   002E56  0E00               	movlw	0
  2874   002E58  6E29               	movwf	?___fladd^(0+1280),c
  2875   002E5A  0E00               	movlw	0
  2876   002E5C  6E2A               	movwf	(?___fladd+1)^(0+1280),c
  2877   002E5E  0E00               	movlw	0
  2878   002E60  6E2B               	movwf	(?___fladd+2)^(0+1280),c
  2879   002E62  0E00               	movlw	0
  2880   002E64  6E2C               	movwf	(?___fladd+3)^(0+1280),c
  2881   002E66  EFF3  F017         	goto	l817
  2882   002E6A                     l2605:
  2883   002E6A  90D8               	bcf	status,0,c
  2884   002E6C  3629               	rlcf	___fladd@b^(0+1280),f,c
  2885   002E6E  362A               	rlcf	(___fladd@b+1)^(0+1280),f,c
  2886   002E70  362B               	rlcf	(___fladd@b+2)^(0+1280),f,c
  2887   002E72  362C               	rlcf	(___fladd@b+3)^(0+1280),f,c
  2888   002E74  AE38               	btfss	___fladd@grs^(0+1280),7,c
  2889   002E76  EF3F  F017         	goto	u1981
  2890   002E7A  EF41  F017         	goto	u1980
  2891   002E7E                     u1981:
  2892   002E7E  EF42  F017         	goto	l2611
  2893   002E82                     u1980:
  2894   002E82  8029               	bsf	___fladd@b^(0+1280),0,c
  2895   002E84                     l2611:
  2896   002E84  A038               	btfss	___fladd@grs^(0+1280),0,c
  2897   002E86  EF47  F017         	goto	u1991
  2898   002E8A  EF49  F017         	goto	u1990
  2899   002E8E                     u1991:
  2900   002E8E  EF4D  F017         	goto	l2615
  2901   002E92                     u1990:
  2902   002E92  80D8               	bsf	status,0,c
  2903   002E94  3638               	rlcf	___fladd@grs^(0+1280),f,c
  2904   002E96  EF4F  F017         	goto	l2617
  2905   002E9A                     l2615:
  2906   002E9A  90D8               	bcf	status,0,c
  2907   002E9C  3638               	rlcf	___fladd@grs^(0+1280),f,c
  2908   002E9E                     l2617:
  2909   002E9E  5037               	movf	___fladd@bexp^(0+1280),w,c
  2910   002EA0  B4D8               	btfsc	status,2,c
  2911   002EA2  EF55  F017         	goto	u2001
  2912   002EA6  EF57  F017         	goto	u2000
  2913   002EAA                     u2001:
  2914   002EAA  EF58  F017         	goto	l2621
  2915   002EAE                     u2000:
  2916   002EAE  0637               	decf	___fladd@bexp^(0+1280),f,c
  2917   002EB0                     l2621:
  2918   002EB0  AE2B               	btfss	(___fladd@b+2)^(0+1280),7,c
  2919   002EB2  EF5D  F017         	goto	u2011
  2920   002EB6  EF5F  F017         	goto	u2010
  2921   002EBA                     u2011:
  2922   002EBA  EF35  F017         	goto	l2605
  2923   002EBE                     u2010:
  2924   002EBE                     l2623:
  2925   002EBE  0E00               	movlw	0
  2926   002EC0  6E36               	movwf	___fladd@aexp^(0+1280),c
  2927   002EC2  AE38               	btfss	___fladd@grs^(0+1280),7,c
  2928   002EC4  EF66  F017         	goto	u2021
  2929   002EC8  EF68  F017         	goto	u2020
  2930   002ECC                     u2021:
  2931   002ECC  EF80  F017         	goto	l834
  2932   002ED0                     u2020:
  2933   002ED0  C538  F531         	movff	___fladd@grs,??___fladd
  2934   002ED4  0E7F               	movlw	127
  2935   002ED6  1631               	andwf	??___fladd^(0+1280),f,c
  2936   002ED8  B4D8               	btfsc	status,2,c
  2937   002EDA  EF71  F017         	goto	u2031
  2938   002EDE  EF73  F017         	goto	u2030
  2939   002EE2                     u2031:
  2940   002EE2  EF77  F017         	goto	l835
  2941   002EE6                     u2030:
  2942   002EE6                     l2629:
  2943   002EE6  0E01               	movlw	1
  2944   002EE8  6E36               	movwf	___fladd@aexp^(0+1280),c
  2945   002EEA  EF80  F017         	goto	l834
  2946   002EEE                     l835:
  2947   002EEE  A029               	btfss	___fladd@b^(0+1280),0,c
  2948   002EF0  EF7C  F017         	goto	u2041
  2949   002EF4  EF7E  F017         	goto	u2040
  2950   002EF8                     u2041:
  2951   002EF8  EF80  F017         	goto	l834
  2952   002EFC                     u2040:
  2953   002EFC  EF73  F017         	goto	l2629
  2954   002F00                     l834:
  2955   002F00  5036               	movf	___fladd@aexp^(0+1280),w,c
  2956   002F02  B4D8               	btfsc	status,2,c
  2957   002F04  EF86  F017         	goto	u2051
  2958   002F08  EF88  F017         	goto	u2050
  2959   002F0C                     u2051:
  2960   002F0C  EFB3  F017         	goto	l2641
  2961   002F10                     u2050:
  2962   002F10  0E01               	movlw	1
  2963   002F12  2629               	addwf	___fladd@b^(0+1280),f,c
  2964   002F14  0E00               	movlw	0
  2965   002F16  222A               	addwfc	(___fladd@b+1)^(0+1280),f,c
  2966   002F18  222B               	addwfc	(___fladd@b+2)^(0+1280),f,c
  2967   002F1A  222C               	addwfc	(___fladd@b+3)^(0+1280),f,c
  2968   002F1C  A02C               	btfss	(___fladd@b+3)^(0+1280),0,c
  2969   002F1E  EF93  F017         	goto	u2061
  2970   002F22  EF95  F017         	goto	u2060
  2971   002F26                     u2061:
  2972   002F26  EFB3  F017         	goto	l2641
  2973   002F2A                     u2060:
  2974   002F2A  C529  F531         	movff	___fladd@b,??___fladd
  2975   002F2E  C52A  F532         	movff	___fladd@b+1,??___fladd+1
  2976   002F32  C52B  F533         	movff	___fladd@b+2,??___fladd+2
  2977   002F36  C52C  F534         	movff	___fladd@b+3,??___fladd+3
  2978   002F3A  3434               	rlcf	(??___fladd+3)^(0+1280),w,c
  2979   002F3C  3234               	rrcf	(??___fladd+3)^(0+1280),f,c
  2980   002F3E  3233               	rrcf	(??___fladd+2)^(0+1280),f,c
  2981   002F40  3232               	rrcf	(??___fladd+1)^(0+1280),f,c
  2982   002F42  3231               	rrcf	??___fladd^(0+1280),f,c
  2983   002F44  C531  F529         	movff	??___fladd,___fladd@b
  2984   002F48  C532  F52A         	movff	??___fladd+1,___fladd@b+1
  2985   002F4C  C533  F52B         	movff	??___fladd+2,___fladd@b+2
  2986   002F50  C534  F52C         	movff	??___fladd+3,___fladd@b+3
  2987   002F54  2837               	incf	___fladd@bexp^(0+1280),w,c
  2988   002F56  B4D8               	btfsc	status,2,c
  2989   002F58  EFB0  F017         	goto	u2071
  2990   002F5C  EFB2  F017         	goto	u2070
  2991   002F60                     u2071:
  2992   002F60  EFB3  F017         	goto	l2641
  2993   002F64                     u2070:
  2994   002F64  2A37               	incf	___fladd@bexp^(0+1280),f,c
  2995   002F66                     l2641:
  2996   002F66  2837               	incf	___fladd@bexp^(0+1280),w,c
  2997   002F68  B4D8               	btfsc	status,2,c
  2998   002F6A  EFB9  F017         	goto	u2081
  2999   002F6E  EFBB  F017         	goto	u2080
  3000   002F72                     u2081:
  3001   002F72  EFC3  F017         	goto	l2645
  3002   002F76                     u2080:
  3003   002F76  5037               	movf	___fladd@bexp^(0+1280),w,c
  3004   002F78  A4D8               	btfss	status,2,c
  3005   002F7A  EFC1  F017         	goto	u2091
  3006   002F7E  EFC3  F017         	goto	u2090
  3007   002F82                     u2091:
  3008   002F82  EFD5  F017         	goto	l2649
  3009   002F86                     u2090:
  3010   002F86                     l2645:
  3011   002F86  0E00               	movlw	0
  3012   002F88  6E29               	movwf	___fladd@b^(0+1280),c
  3013   002F8A  0E00               	movlw	0
  3014   002F8C  6E2A               	movwf	(___fladd@b+1)^(0+1280),c
  3015   002F8E  0E00               	movlw	0
  3016   002F90  6E2B               	movwf	(___fladd@b+2)^(0+1280),c
  3017   002F92  0E00               	movlw	0
  3018   002F94  6E2C               	movwf	(___fladd@b+3)^(0+1280),c
  3019   002F96  5037               	movf	___fladd@bexp^(0+1280),w,c
  3020   002F98  A4D8               	btfss	status,2,c
  3021   002F9A  EFD1  F017         	goto	u2101
  3022   002F9E  EFD3  F017         	goto	u2100
  3023   002FA2                     u2101:
  3024   002FA2  EFD5  F017         	goto	l2649
  3025   002FA6                     u2100:
  3026   002FA6  0E00               	movlw	0
  3027   002FA8  6E35               	movwf	___fladd@signs^(0+1280),c
  3028   002FAA                     l2649:
  3029   002FAA  A037               	btfss	___fladd@bexp^(0+1280),0,c
  3030   002FAC  EFDA  F017         	goto	u2111
  3031   002FB0  EFDC  F017         	goto	u2110
  3032   002FB4                     u2111:
  3033   002FB4  EFDF  F017         	goto	l2653
  3034   002FB8                     u2110:
  3035   002FB8  8E2B               	bsf	(___fladd@b+2)^(0+1280),7,c
  3036   002FBA  EFE0  F017         	goto	l2655
  3037   002FBE                     l2653:
  3038   002FBE  9E2B               	bcf	(___fladd@b+2)^(0+1280),7,c
  3039   002FC0                     l2655:
  3040   002FC0  90D8               	bcf	status,0,c
  3041   002FC2  3037               	rrcf	___fladd@bexp^(0+1280),w,c
  3042   002FC4  6E2C               	movwf	(___fladd@b+3)^(0+1280),c
  3043   002FC6  AE35               	btfss	___fladd@signs^(0+1280),7,c
  3044   002FC8  EFE8  F017         	goto	u2121
  3045   002FCC  EFEA  F017         	goto	u2120
  3046   002FD0                     u2121:
  3047   002FD0  EFEB  F017         	goto	l2661
  3048   002FD4                     u2120:
  3049   002FD4  8E2C               	bsf	(___fladd@b+3)^(0+1280),7,c
  3050   002FD6                     l2661:
  3051   002FD6  C529  F529         	movff	___fladd@b,?___fladd
  3052   002FDA  C52A  F52A         	movff	___fladd@b+1,?___fladd+1
  3053   002FDE  C52B  F52B         	movff	___fladd@b+2,?___fladd+2
  3054   002FE2  C52C  F52C         	movff	___fladd@b+3,?___fladd+3
  3055   002FE6                     l817:
  3056   002FE6  0012               	return		;funcret
  3057   002FE8                     __end_of___fladd:
  3058                           	callstack 0
  3059                           
  3060 ;; *************** function ___flge *****************
  3061 ;; Defined at:
  3062 ;;		line 4 in file "C:\Program Files\Microchip\xc8\v2.40\pic\sources\c99\common\flge.c"
  3063 ;; Parameters:    Size  Location     Type
  3064 ;;  ff1             4    1[COMRAM] unsigned char 
  3065 ;;  ff2             4    5[COMRAM] unsigned char 
  3066 ;; Auto vars:     Size  Location     Type
  3067 ;;		None
  3068 ;; Return value:  Size  Location     Type
  3069 ;;		None               void
  3070 ;; Registers used:
  3071 ;;		wreg, status,2, status,0
  3072 ;; Tracked objects:
  3073 ;;		On entry : 0/0
  3074 ;;		On exit  : 0/0
  3075 ;;		Unchanged: 0/0
  3076 ;; Data sizes:     COMRAM   BANK5   BANK6   BANK7   BANK8   BANK9  BANK10  BANK11  BANK12  BANK13  BANK14  BANK15  BANK1
      +6  BANK17  BANK18  BANK19  BANK20  BANK21  BANK22  BANK23  BANK24  BANK25  BANK26  BANK27  BANK28  BANK29  BANK30  BANK3
      +1  BANK32  BANK33  BANK34  BANK35  BANK36
  3077 ;;      Params:         8       0       0       0       0       0       0       0       0       0       0       0       
      +0       0       0       0       0       0       0       0       0       0       0       0       0       0       0       
      +0       0       0       0       0       0
  3078 ;;      Locals:         0       0       0       0       0       0       0       0       0       0       0       0       
      +0       0       0       0       0       0       0       0       0       0       0       0       0       0       0       
      +0       0       0       0       0       0
  3079 ;;      Temps:          4       0       0       0       0       0       0       0       0       0       0       0       
      +0       0       0       0       0       0       0       0       0       0       0       0       0       0       0       
      +0       0       0       0       0       0
  3080 ;;      Totals:        12       0       0       0       0       0       0       0       0       0       0       0       
      +0       0       0       0       0       0       0       0       0       0       0       0       0       0       0       
      +0       0       0       0       0       0
  3081 ;;Total ram usage:       12 bytes
  3082 ;; Hardware stack levels used: 1
  3083 ;; Hardware stack levels required when called: 2
  3084 ;; This function calls:
  3085 ;;		Nothing
  3086 ;; This function is called by:
  3087 ;;		_analogMap
  3088 ;; This function uses a non-reentrant model
  3089 ;;
  3090                           
  3091                           	psect	text7
  3092   004300                     __ptext7:
  3093                           	callstack 0
  3094   004300                     ___flge:
  3095                           	callstack 123
  3096   004300  0E00               	movlw	0
  3097   004302  1402               	andwf	___flge@ff1^(0+1280),w,c
  3098   004304  6E0A               	movwf	??___flge^(0+1280),c
  3099   004306  0E00               	movlw	0
  3100   004308  1403               	andwf	(___flge@ff1+1)^(0+1280),w,c
  3101   00430A  6E0B               	movwf	(??___flge+1)^(0+1280),c
  3102   00430C  0E80               	movlw	128
  3103   00430E  1404               	andwf	(___flge@ff1+2)^(0+1280),w,c
  3104   004310  6E0C               	movwf	(??___flge+2)^(0+1280),c
  3105   004312  0E7F               	movlw	127
  3106   004314  1405               	andwf	(___flge@ff1+3)^(0+1280),w,c
  3107   004316  6E0D               	movwf	(??___flge+3)^(0+1280),c
  3108   004318  500A               	movf	??___flge^(0+1280),w,c
  3109   00431A  100B               	iorwf	(??___flge+1)^(0+1280),w,c
  3110   00431C  100C               	iorwf	(??___flge+2)^(0+1280),w,c
  3111   00431E  100D               	iorwf	(??___flge+3)^(0+1280),w,c
  3112   004320  A4D8               	btfss	status,2,c
  3113   004322  EF95  F021         	goto	u2841
  3114   004326  EF97  F021         	goto	u2840
  3115   00432A                     u2841:
  3116   00432A  EF9F  F021         	goto	l3185
  3117   00432E                     u2840:
  3118   00432E  0E00               	movlw	0
  3119   004330  6E02               	movwf	___flge@ff1^(0+1280),c
  3120   004332  0E00               	movlw	0
  3121   004334  6E03               	movwf	(___flge@ff1+1)^(0+1280),c
  3122   004336  0E00               	movlw	0
  3123   004338  6E04               	movwf	(___flge@ff1+2)^(0+1280),c
  3124   00433A  0E00               	movlw	0
  3125   00433C  6E05               	movwf	(___flge@ff1+3)^(0+1280),c
  3126   00433E                     l3185:
  3127   00433E  0E00               	movlw	0
  3128   004340  1406               	andwf	___flge@ff2^(0+1280),w,c
  3129   004342  6E0A               	movwf	??___flge^(0+1280),c
  3130   004344  0E00               	movlw	0
  3131   004346  1407               	andwf	(___flge@ff2+1)^(0+1280),w,c
  3132   004348  6E0B               	movwf	(??___flge+1)^(0+1280),c
  3133   00434A  0E80               	movlw	128
  3134   00434C  1408               	andwf	(___flge@ff2+2)^(0+1280),w,c
  3135   00434E  6E0C               	movwf	(??___flge+2)^(0+1280),c
  3136   004350  0E7F               	movlw	127
  3137   004352  1409               	andwf	(___flge@ff2+3)^(0+1280),w,c
  3138   004354  6E0D               	movwf	(??___flge+3)^(0+1280),c
  3139   004356  500A               	movf	??___flge^(0+1280),w,c
  3140   004358  100B               	iorwf	(??___flge+1)^(0+1280),w,c
  3141   00435A  100C               	iorwf	(??___flge+2)^(0+1280),w,c
  3142   00435C  100D               	iorwf	(??___flge+3)^(0+1280),w,c
  3143   00435E  A4D8               	btfss	status,2,c
  3144   004360  EFB4  F021         	goto	u2851
  3145   004364  EFB6  F021         	goto	u2850
  3146   004368                     u2851:
  3147   004368  EFBE  F021         	goto	l3189
  3148   00436C                     u2850:
  3149   00436C  0E00               	movlw	0
  3150   00436E  6E06               	movwf	___flge@ff2^(0+1280),c
  3151   004370  0E00               	movlw	0
  3152   004372  6E07               	movwf	(___flge@ff2+1)^(0+1280),c
  3153   004374  0E00               	movlw	0
  3154   004376  6E08               	movwf	(___flge@ff2+2)^(0+1280),c
  3155   004378  0E00               	movlw	0
  3156   00437A  6E09               	movwf	(___flge@ff2+3)^(0+1280),c
  3157   00437C                     l3189:
  3158   00437C  AE05               	btfss	(___flge@ff1+3)^(0+1280),7,c
  3159   00437E  EFC3  F021         	goto	u2861
  3160   004382  EFC5  F021         	goto	u2860
  3161   004386                     u2861:
  3162   004386  EFCE  F021         	goto	l3193
  3163   00438A                     u2860:
  3164   00438A  6C02               	negf	___flge@ff1^(0+1280),c
  3165   00438C  1E03               	comf	(___flge@ff1+1)^(0+1280),f,c
  3166   00438E  B0D8               	btfsc	status,0,c
  3167   004390  2A03               	incf	(___flge@ff1+1)^(0+1280),f,c
  3168   004392  1E04               	comf	(___flge@ff1+2)^(0+1280),f,c
  3169   004394  B0D8               	btfsc	status,0,c
  3170   004396  2A04               	incf	(___flge@ff1+2)^(0+1280),f,c
  3171   004398  0E80               	movlw	128
  3172   00439A  5605               	subfwb	(___flge@ff1+3)^(0+1280),f,c
  3173   00439C                     l3193:
  3174   00439C  AE09               	btfss	(___flge@ff2+3)^(0+1280),7,c
  3175   00439E  EFD3  F021         	goto	u2871
  3176   0043A2  EFD5  F021         	goto	u2870
  3177   0043A6                     u2871:
  3178   0043A6  EFDE  F021         	goto	l545
  3179   0043AA                     u2870:
  3180   0043AA  6C06               	negf	___flge@ff2^(0+1280),c
  3181   0043AC  1E07               	comf	(___flge@ff2+1)^(0+1280),f,c
  3182   0043AE  B0D8               	btfsc	status,0,c
  3183   0043B0  2A07               	incf	(___flge@ff2+1)^(0+1280),f,c
  3184   0043B2  1E08               	comf	(___flge@ff2+2)^(0+1280),f,c
  3185   0043B4  B0D8               	btfsc	status,0,c
  3186   0043B6  2A08               	incf	(___flge@ff2+2)^(0+1280),f,c
  3187   0043B8  0E80               	movlw	128
  3188   0043BA  5609               	subfwb	(___flge@ff2+3)^(0+1280),f,c
  3189   0043BC                     l545:
  3190   0043BC  0E00               	movlw	0
  3191   0043BE  1A02               	xorwf	___flge@ff1^(0+1280),f,c
  3192   0043C0  0E00               	movlw	0
  3193   0043C2  1A03               	xorwf	(___flge@ff1+1)^(0+1280),f,c
  3194   0043C4  0E00               	movlw	0
  3195   0043C6  1A04               	xorwf	(___flge@ff1+2)^(0+1280),f,c
  3196   0043C8  0E80               	movlw	128
  3197   0043CA  1A05               	xorwf	(___flge@ff1+3)^(0+1280),f,c
  3198   0043CC  0E00               	movlw	0
  3199   0043CE  1A06               	xorwf	___flge@ff2^(0+1280),f,c
  3200   0043D0  0E00               	movlw	0
  3201   0043D2  1A07               	xorwf	(___flge@ff2+1)^(0+1280),f,c
  3202   0043D4  0E00               	movlw	0
  3203   0043D6  1A08               	xorwf	(___flge@ff2+2)^(0+1280),f,c
  3204   0043D8  0E80               	movlw	128
  3205   0043DA  1A09               	xorwf	(___flge@ff2+3)^(0+1280),f,c
  3206   0043DC  5006               	movf	___flge@ff2^(0+1280),w,c
  3207   0043DE  5C02               	subwf	___flge@ff1^(0+1280),w,c
  3208   0043E0  5007               	movf	(___flge@ff2+1)^(0+1280),w,c
  3209   0043E2  5803               	subwfb	(___flge@ff1+1)^(0+1280),w,c
  3210   0043E4  5008               	movf	(___flge@ff2+2)^(0+1280),w,c
  3211   0043E6  5804               	subwfb	(___flge@ff1+2)^(0+1280),w,c
  3212   0043E8  5009               	movf	(___flge@ff2+3)^(0+1280),w,c
  3213   0043EA  5805               	subwfb	(___flge@ff1+3)^(0+1280),w,c
  3214   0043EC  B0D8               	btfsc	status,0,c
  3215   0043EE  EFFB  F021         	goto	u2881
  3216   0043F2  EFFD  F021         	goto	u2880
  3217   0043F6                     u2881:
  3218   0043F6  EF00  F022         	goto	l3199
  3219   0043FA                     u2880:
  3220   0043FA  90D8               	bcf	status,0,c
  3221   0043FC  EF01  F022         	goto	l550
  3222   004400                     l3199:
  3223   004400  80D8               	bsf	status,0,c
  3224   004402                     l550:
  3225   004402  0012               	return		;funcret
  3226   004404                     __end_of___flge:
  3227                           	callstack 0
  3228                           
  3229 ;; *************** function ___fldiv *****************
  3230 ;; Defined at:
  3231 ;;		line 11 in file "C:\Program Files\Microchip\xc8\v2.40\pic\sources\c99\common\sprcdiv.c"
  3232 ;; Parameters:    Size  Location     Type
  3233 ;;  b               4   15[COMRAM] unsigned char 
  3234 ;;  a               4   19[COMRAM] unsigned char 
  3235 ;; Auto vars:     Size  Location     Type
  3236 ;;  grs             4   34[COMRAM] unsigned long 
  3237 ;;  rem             4   27[COMRAM] unsigned long 
  3238 ;;  new_exp         2   32[COMRAM] short 
  3239 ;;  aexp            1   39[COMRAM] unsigned char 
  3240 ;;  bexp            1   38[COMRAM] unsigned char 
  3241 ;;  sign            1   31[COMRAM] unsigned char 
  3242 ;; Return value:  Size  Location     Type
  3243 ;;                  4   15[COMRAM] unsigned char 
  3244 ;; Registers used:
  3245 ;;		wreg, status,2, status,0
  3246 ;; Tracked objects:
  3247 ;;		On entry : 0/0
  3248 ;;		On exit  : 0/0
  3249 ;;		Unchanged: 0/0
  3250 ;; Data sizes:     COMRAM   BANK5   BANK6   BANK7   BANK8   BANK9  BANK10  BANK11  BANK12  BANK13  BANK14  BANK15  BANK1
      +6  BANK17  BANK18  BANK19  BANK20  BANK21  BANK22  BANK23  BANK24  BANK25  BANK26  BANK27  BANK28  BANK29  BANK30  BANK3
      +1  BANK32  BANK33  BANK34  BANK35  BANK36
  3251 ;;      Params:         8       0       0       0       0       0       0       0       0       0       0       0       
      +0       0       0       0       0       0       0       0       0       0       0       0       0       0       0       
      +0       0       0       0       0       0
  3252 ;;      Locals:        13       0       0       0       0       0       0       0       0       0       0       0       
      +0       0       0       0       0       0       0       0       0       0       0       0       0       0       0       
      +0       0       0       0       0       0
  3253 ;;      Temps:          4       0       0       0       0       0       0       0       0       0       0       0       
      +0       0       0       0       0       0       0       0       0       0       0       0       0       0       0       
      +0       0       0       0       0       0
  3254 ;;      Totals:        25       0       0       0       0       0       0       0       0       0       0       0       
      +0       0       0       0       0       0       0       0       0       0       0       0       0       0       0       
      +0       0       0       0       0       0
  3255 ;;Total ram usage:       25 bytes
  3256 ;; Hardware stack levels used: 1
  3257 ;; Hardware stack levels required when called: 2
  3258 ;; This function calls:
  3259 ;;		Nothing
  3260 ;; This function is called by:
  3261 ;;		_analogMap
  3262 ;; This function uses a non-reentrant model
  3263 ;;
  3264                           
  3265                           	psect	text8
  3266   0037C6                     __ptext8:
  3267                           	callstack 0
  3268   0037C6                     ___fldiv:
  3269                           	callstack 123
  3270   0037C6  5013               	movf	(___fldiv@b+3)^(0+1280),w,c
  3271   0037C8  0B80               	andlw	128
  3272   0037CA  6E20               	movwf	___fldiv@sign^(0+1280),c
  3273   0037CC  5013               	movf	(___fldiv@b+3)^(0+1280),w,c
  3274   0037CE  2413               	addwf	(___fldiv@b+3)^(0+1280),w,c
  3275   0037D0  6E27               	movwf	___fldiv@bexp^(0+1280),c
  3276   0037D2  AE12               	btfss	(___fldiv@b+2)^(0+1280),7,c
  3277   0037D4  EFEE  F01B         	goto	u2611
  3278   0037D8  EFF0  F01B         	goto	u2610
  3279   0037DC                     u2611:
  3280   0037DC  EFF1  F01B         	goto	l3043
  3281   0037E0                     u2610:
  3282   0037E0  8027               	bsf	___fldiv@bexp^(0+1280),0,c
  3283   0037E2                     l3043:
  3284   0037E2  5027               	movf	___fldiv@bexp^(0+1280),w,c
  3285   0037E4  B4D8               	btfsc	status,2,c
  3286   0037E6  EFF7  F01B         	goto	u2621
  3287   0037EA  EFF9  F01B         	goto	u2620
  3288   0037EE                     u2621:
  3289   0037EE  EF0E  F01C         	goto	l3053
  3290   0037F2                     u2620:
  3291   0037F2  2827               	incf	___fldiv@bexp^(0+1280),w,c
  3292   0037F4  A4D8               	btfss	status,2,c
  3293   0037F6  EFFF  F01B         	goto	u2631
  3294   0037FA  EF01  F01C         	goto	u2630
  3295   0037FE                     u2631:
  3296   0037FE  EF09  F01C         	goto	l3049
  3297   003802                     u2630:
  3298   003802  0E00               	movlw	0
  3299   003804  6E10               	movwf	___fldiv@b^(0+1280),c
  3300   003806  0E00               	movlw	0
  3301   003808  6E11               	movwf	(___fldiv@b+1)^(0+1280),c
  3302   00380A  0E00               	movlw	0
  3303   00380C  6E12               	movwf	(___fldiv@b+2)^(0+1280),c
  3304   00380E  0E00               	movlw	0
  3305   003810  6E13               	movwf	(___fldiv@b+3)^(0+1280),c
  3306   003812                     l3049:
  3307   003812  8E12               	bsf	(___fldiv@b+2)^(0+1280),7,c
  3308   003814  0E00               	movlw	0
  3309   003816  6E13               	movwf	(___fldiv@b+3)^(0+1280),c
  3310   003818  EF16  F01C         	goto	l3055
  3311   00381C                     l3053:
  3312   00381C  0E00               	movlw	0
  3313   00381E  6E10               	movwf	___fldiv@b^(0+1280),c
  3314   003820  0E00               	movlw	0
  3315   003822  6E11               	movwf	(___fldiv@b+1)^(0+1280),c
  3316   003824  0E00               	movlw	0
  3317   003826  6E12               	movwf	(___fldiv@b+2)^(0+1280),c
  3318   003828  0E00               	movlw	0
  3319   00382A  6E13               	movwf	(___fldiv@b+3)^(0+1280),c
  3320   00382C                     l3055:
  3321   00382C  5017               	movf	(___fldiv@a+3)^(0+1280),w,c
  3322   00382E  0B80               	andlw	128
  3323   003830  1A20               	xorwf	___fldiv@sign^(0+1280),f,c
  3324   003832  5017               	movf	(___fldiv@a+3)^(0+1280),w,c
  3325   003834  2417               	addwf	(___fldiv@a+3)^(0+1280),w,c
  3326   003836  6E28               	movwf	___fldiv@aexp^(0+1280),c
  3327   003838  AE16               	btfss	(___fldiv@a+2)^(0+1280),7,c
  3328   00383A  EF21  F01C         	goto	u2641
  3329   00383E  EF23  F01C         	goto	u2640
  3330   003842                     u2641:
  3331   003842  EF24  F01C         	goto	l3063
  3332   003846                     u2640:
  3333   003846  8028               	bsf	___fldiv@aexp^(0+1280),0,c
  3334   003848                     l3063:
  3335   003848  5028               	movf	___fldiv@aexp^(0+1280),w,c
  3336   00384A  B4D8               	btfsc	status,2,c
  3337   00384C  EF2A  F01C         	goto	u2651
  3338   003850  EF2C  F01C         	goto	u2650
  3339   003854                     u2651:
  3340   003854  EF41  F01C         	goto	l3073
  3341   003858                     u2650:
  3342   003858  2828               	incf	___fldiv@aexp^(0+1280),w,c
  3343   00385A  A4D8               	btfss	status,2,c
  3344   00385C  EF32  F01C         	goto	u2661
  3345   003860  EF34  F01C         	goto	u2660
  3346   003864                     u2661:
  3347   003864  EF3C  F01C         	goto	l3069
  3348   003868                     u2660:
  3349   003868  0E00               	movlw	0
  3350   00386A  6E14               	movwf	___fldiv@a^(0+1280),c
  3351   00386C  0E00               	movlw	0
  3352   00386E  6E15               	movwf	(___fldiv@a+1)^(0+1280),c
  3353   003870  0E00               	movlw	0
  3354   003872  6E16               	movwf	(___fldiv@a+2)^(0+1280),c
  3355   003874  0E00               	movlw	0
  3356   003876  6E17               	movwf	(___fldiv@a+3)^(0+1280),c
  3357   003878                     l3069:
  3358   003878  8E16               	bsf	(___fldiv@a+2)^(0+1280),7,c
  3359   00387A  0E00               	movlw	0
  3360   00387C  6E17               	movwf	(___fldiv@a+3)^(0+1280),c
  3361   00387E  EF49  F01C         	goto	l3075
  3362   003882                     l3073:
  3363   003882  0E00               	movlw	0
  3364   003884  6E14               	movwf	___fldiv@a^(0+1280),c
  3365   003886  0E00               	movlw	0
  3366   003888  6E15               	movwf	(___fldiv@a+1)^(0+1280),c
  3367   00388A  0E00               	movlw	0
  3368   00388C  6E16               	movwf	(___fldiv@a+2)^(0+1280),c
  3369   00388E  0E00               	movlw	0
  3370   003890  6E17               	movwf	(___fldiv@a+3)^(0+1280),c
  3371   003892                     l3075:
  3372   003892  5014               	movf	___fldiv@a^(0+1280),w,c
  3373   003894  1015               	iorwf	(___fldiv@a+1)^(0+1280),w,c
  3374   003896  1016               	iorwf	(___fldiv@a+2)^(0+1280),w,c
  3375   003898  1017               	iorwf	(___fldiv@a+3)^(0+1280),w,c
  3376   00389A  A4D8               	btfss	status,2,c
  3377   00389C  EF52  F01C         	goto	u2671
  3378   0038A0  EF54  F01C         	goto	u2670
  3379   0038A4                     u2671:
  3380   0038A4  EF6C  F01C         	goto	l3087
  3381   0038A8                     u2670:
  3382   0038A8  0E00               	movlw	0
  3383   0038AA  6E10               	movwf	___fldiv@b^(0+1280),c
  3384   0038AC  0E00               	movlw	0
  3385   0038AE  6E11               	movwf	(___fldiv@b+1)^(0+1280),c
  3386   0038B0  0E00               	movlw	0
  3387   0038B2  6E12               	movwf	(___fldiv@b+2)^(0+1280),c
  3388   0038B4  0E00               	movlw	0
  3389   0038B6  6E13               	movwf	(___fldiv@b+3)^(0+1280),c
  3390   0038B8  0E80               	movlw	128
  3391   0038BA  1212               	iorwf	(___fldiv@b+2)^(0+1280),f,c
  3392   0038BC  0E7F               	movlw	127
  3393   0038BE  1213               	iorwf	(___fldiv@b+3)^(0+1280),f,c
  3394   0038C0                     l3081:
  3395   0038C0  5020               	movf	___fldiv@sign^(0+1280),w,c
  3396   0038C2  1213               	iorwf	(___fldiv@b+3)^(0+1280),f,c
  3397   0038C4  C510  F510         	movff	___fldiv@b,?___fldiv
  3398   0038C8  C511  F511         	movff	___fldiv@b+1,?___fldiv+1
  3399   0038CC  C512  F512         	movff	___fldiv@b+2,?___fldiv+2
  3400   0038D0  C513  F513         	movff	___fldiv@b+3,?___fldiv+3
  3401   0038D4  EFAF  F01D         	goto	l862
  3402   0038D8                     l3087:
  3403   0038D8  5027               	movf	___fldiv@bexp^(0+1280),w,c
  3404   0038DA  A4D8               	btfss	status,2,c
  3405   0038DC  EF72  F01C         	goto	u2681
  3406   0038E0  EF74  F01C         	goto	u2680
  3407   0038E4                     u2681:
  3408   0038E4  EF7E  F01C         	goto	l3095
  3409   0038E8                     u2680:
  3410   0038E8  0E00               	movlw	0
  3411   0038EA  6E10               	movwf	?___fldiv^(0+1280),c
  3412   0038EC  0E00               	movlw	0
  3413   0038EE  6E11               	movwf	(?___fldiv+1)^(0+1280),c
  3414   0038F0  0E00               	movlw	0
  3415   0038F2  6E12               	movwf	(?___fldiv+2)^(0+1280),c
  3416   0038F4  0E00               	movlw	0
  3417   0038F6  6E13               	movwf	(?___fldiv+3)^(0+1280),c
  3418   0038F8  EFAF  F01D         	goto	l862
  3419   0038FC                     l3095:
  3420   0038FC  5028               	movf	___fldiv@aexp^(0+1280),w,c
  3421   0038FE  C527  F518         	movff	___fldiv@bexp,??___fldiv
  3422   003902  6A19               	clrf	(??___fldiv+1)^(0+1280),c
  3423   003904  5E18               	subwf	??___fldiv^(0+1280),f,c
  3424   003906  0E00               	movlw	0
  3425   003908  5A19               	subwfb	(??___fldiv+1)^(0+1280),f,c
  3426   00390A  0E7F               	movlw	127
  3427   00390C  2418               	addwf	??___fldiv^(0+1280),w,c
  3428   00390E  6E21               	movwf	___fldiv@new_exp^(0+1280),c
  3429   003910  0E00               	movlw	0
  3430   003912  2019               	addwfc	(??___fldiv+1)^(0+1280),w,c
  3431   003914  6E22               	movwf	(___fldiv@new_exp+1)^(0+1280),c
  3432   003916  C510  F51C         	movff	___fldiv@b,___fldiv@rem
  3433   00391A  C511  F51D         	movff	___fldiv@b+1,___fldiv@rem+1
  3434   00391E  C512  F51E         	movff	___fldiv@b+2,___fldiv@rem+2
  3435   003922  C513  F51F         	movff	___fldiv@b+3,___fldiv@rem+3
  3436   003926  0E00               	movlw	0
  3437   003928  6E10               	movwf	___fldiv@b^(0+1280),c
  3438   00392A  0E00               	movlw	0
  3439   00392C  6E11               	movwf	(___fldiv@b+1)^(0+1280),c
  3440   00392E  0E00               	movlw	0
  3441   003930  6E12               	movwf	(___fldiv@b+2)^(0+1280),c
  3442   003932  0E00               	movlw	0
  3443   003934  6E13               	movwf	(___fldiv@b+3)^(0+1280),c
  3444   003936  0E00               	movlw	0
  3445   003938  6E23               	movwf	___fldiv@grs^(0+1280),c
  3446   00393A  0E00               	movlw	0
  3447   00393C  6E24               	movwf	(___fldiv@grs+1)^(0+1280),c
  3448   00393E  0E00               	movlw	0
  3449   003940  6E25               	movwf	(___fldiv@grs+2)^(0+1280),c
  3450   003942  0E00               	movlw	0
  3451   003944  6E26               	movwf	(___fldiv@grs+3)^(0+1280),c
  3452   003946  0E00               	movlw	0
  3453   003948  6E28               	movwf	___fldiv@aexp^(0+1280),c
  3454   00394A  EFDF  F01C         	goto	l864
  3455   00394E                     l3105:
  3456   00394E  5028               	movf	___fldiv@aexp^(0+1280),w,c
  3457   003950  B4D8               	btfsc	status,2,c
  3458   003952  EFAD  F01C         	goto	u2691
  3459   003956  EFAF  F01C         	goto	u2690
  3460   00395A                     u2691:
  3461   00395A  EFC6  F01C         	goto	l3113
  3462   00395E                     u2690:
  3463   00395E  90D8               	bcf	status,0,c
  3464   003960  361C               	rlcf	___fldiv@rem^(0+1280),f,c
  3465   003962  361D               	rlcf	(___fldiv@rem+1)^(0+1280),f,c
  3466   003964  361E               	rlcf	(___fldiv@rem+2)^(0+1280),f,c
  3467   003966  361F               	rlcf	(___fldiv@rem+3)^(0+1280),f,c
  3468   003968  90D8               	bcf	status,0,c
  3469   00396A  3610               	rlcf	___fldiv@b^(0+1280),f,c
  3470   00396C  3611               	rlcf	(___fldiv@b+1)^(0+1280),f,c
  3471   00396E  3612               	rlcf	(___fldiv@b+2)^(0+1280),f,c
  3472   003970  3613               	rlcf	(___fldiv@b+3)^(0+1280),f,c
  3473   003972  AE26               	btfss	(___fldiv@grs+3)^(0+1280),7,c
  3474   003974  EFBE  F01C         	goto	u2701
  3475   003978  EFC0  F01C         	goto	u2700
  3476   00397C                     u2701:
  3477   00397C  EFC1  F01C         	goto	l867
  3478   003980                     u2700:
  3479   003980  8010               	bsf	___fldiv@b^(0+1280),0,c
  3480   003982                     l867:
  3481   003982  90D8               	bcf	status,0,c
  3482   003984  3623               	rlcf	___fldiv@grs^(0+1280),f,c
  3483   003986  3624               	rlcf	(___fldiv@grs+1)^(0+1280),f,c
  3484   003988  3625               	rlcf	(___fldiv@grs+2)^(0+1280),f,c
  3485   00398A  3626               	rlcf	(___fldiv@grs+3)^(0+1280),f,c
  3486   00398C                     l3113:
  3487   00398C  5014               	movf	___fldiv@a^(0+1280),w,c
  3488   00398E  5C1C               	subwf	___fldiv@rem^(0+1280),w,c
  3489   003990  5015               	movf	(___fldiv@a+1)^(0+1280),w,c
  3490   003992  581D               	subwfb	(___fldiv@rem+1)^(0+1280),w,c
  3491   003994  5016               	movf	(___fldiv@a+2)^(0+1280),w,c
  3492   003996  581E               	subwfb	(___fldiv@rem+2)^(0+1280),w,c
  3493   003998  5017               	movf	(___fldiv@a+3)^(0+1280),w,c
  3494   00399A  581F               	subwfb	(___fldiv@rem+3)^(0+1280),w,c
  3495   00399C  A0D8               	btfss	status,0,c
  3496   00399E  EFD3  F01C         	goto	u2711
  3497   0039A2  EFD5  F01C         	goto	u2710
  3498   0039A6                     u2711:
  3499   0039A6  EFDE  F01C         	goto	l3119
  3500   0039AA                     u2710:
  3501   0039AA  8C26               	bsf	(___fldiv@grs+3)^(0+1280),6,c
  3502   0039AC  5014               	movf	___fldiv@a^(0+1280),w,c
  3503   0039AE  5E1C               	subwf	___fldiv@rem^(0+1280),f,c
  3504   0039B0  5015               	movf	(___fldiv@a+1)^(0+1280),w,c
  3505   0039B2  5A1D               	subwfb	(___fldiv@rem+1)^(0+1280),f,c
  3506   0039B4  5016               	movf	(___fldiv@a+2)^(0+1280),w,c
  3507   0039B6  5A1E               	subwfb	(___fldiv@rem+2)^(0+1280),f,c
  3508   0039B8  5017               	movf	(___fldiv@a+3)^(0+1280),w,c
  3509   0039BA  5A1F               	subwfb	(___fldiv@rem+3)^(0+1280),f,c
  3510   0039BC                     l3119:
  3511   0039BC  2A28               	incf	___fldiv@aexp^(0+1280),f,c
  3512   0039BE                     l864:
  3513   0039BE  0E19               	movlw	25
  3514   0039C0  6428               	cpfsgt	___fldiv@aexp^(0+1280),c
  3515   0039C2  EFE5  F01C         	goto	u2721
  3516   0039C6  EFE7  F01C         	goto	u2720
  3517   0039CA                     u2721:
  3518   0039CA  EFA7  F01C         	goto	l3105
  3519   0039CE                     u2720:
  3520   0039CE  501C               	movf	___fldiv@rem^(0+1280),w,c
  3521   0039D0  101D               	iorwf	(___fldiv@rem+1)^(0+1280),w,c
  3522   0039D2  101E               	iorwf	(___fldiv@rem+2)^(0+1280),w,c
  3523   0039D4  101F               	iorwf	(___fldiv@rem+3)^(0+1280),w,c
  3524   0039D6  B4D8               	btfsc	status,2,c
  3525   0039D8  EFF0  F01C         	goto	u2731
  3526   0039DC  EFF2  F01C         	goto	u2730
  3527   0039E0                     u2731:
  3528   0039E0  EF0A  F01D         	goto	l3131
  3529   0039E4                     u2730:
  3530   0039E4  8023               	bsf	___fldiv@grs^(0+1280),0,c
  3531   0039E6  EF0A  F01D         	goto	l3131
  3532   0039EA                     l3125:
  3533   0039EA  90D8               	bcf	status,0,c
  3534   0039EC  3610               	rlcf	___fldiv@b^(0+1280),f,c
  3535   0039EE  3611               	rlcf	(___fldiv@b+1)^(0+1280),f,c
  3536   0039F0  3612               	rlcf	(___fldiv@b+2)^(0+1280),f,c
  3537   0039F2  3613               	rlcf	(___fldiv@b+3)^(0+1280),f,c
  3538   0039F4  AE26               	btfss	(___fldiv@grs+3)^(0+1280),7,c
  3539   0039F6  EFFF  F01C         	goto	u2741
  3540   0039FA  EF01  F01D         	goto	u2740
  3541   0039FE                     u2741:
  3542   0039FE  EF02  F01D         	goto	l873
  3543   003A02                     u2740:
  3544   003A02  8010               	bsf	___fldiv@b^(0+1280),0,c
  3545   003A04                     l873:
  3546   003A04  90D8               	bcf	status,0,c
  3547   003A06  3623               	rlcf	___fldiv@grs^(0+1280),f,c
  3548   003A08  3624               	rlcf	(___fldiv@grs+1)^(0+1280),f,c
  3549   003A0A  3625               	rlcf	(___fldiv@grs+2)^(0+1280),f,c
  3550   003A0C  3626               	rlcf	(___fldiv@grs+3)^(0+1280),f,c
  3551   003A0E  0621               	decf	___fldiv@new_exp^(0+1280),f,c
  3552   003A10  A0D8               	btfss	status,0,c
  3553   003A12  0622               	decf	(___fldiv@new_exp+1)^(0+1280),f,c
  3554   003A14                     l3131:
  3555   003A14  AE12               	btfss	(___fldiv@b+2)^(0+1280),7,c
  3556   003A16  EF0F  F01D         	goto	u2751
  3557   003A1A  EF11  F01D         	goto	u2750
  3558   003A1E                     u2751:
  3559   003A1E  EFF5  F01C         	goto	l3125
  3560   003A22                     u2750:
  3561   003A22  0E00               	movlw	0
  3562   003A24  6E28               	movwf	___fldiv@aexp^(0+1280),c
  3563   003A26  AE26               	btfss	(___fldiv@grs+3)^(0+1280),7,c
  3564   003A28  EF18  F01D         	goto	u2761
  3565   003A2C  EF1A  F01D         	goto	u2760
  3566   003A30                     u2761:
  3567   003A30  EF3E  F01D         	goto	l875
  3568   003A34                     u2760:
  3569   003A34  0EFF               	movlw	255
  3570   003A36  1423               	andwf	___fldiv@grs^(0+1280),w,c
  3571   003A38  6E18               	movwf	??___fldiv^(0+1280),c
  3572   003A3A  0EFF               	movlw	255
  3573   003A3C  1424               	andwf	(___fldiv@grs+1)^(0+1280),w,c
  3574   003A3E  6E19               	movwf	(??___fldiv+1)^(0+1280),c
  3575   003A40  0EFF               	movlw	255
  3576   003A42  1425               	andwf	(___fldiv@grs+2)^(0+1280),w,c
  3577   003A44  6E1A               	movwf	(??___fldiv+2)^(0+1280),c
  3578   003A46  0E7F               	movlw	127
  3579   003A48  1426               	andwf	(___fldiv@grs+3)^(0+1280),w,c
  3580   003A4A  6E1B               	movwf	(??___fldiv+3)^(0+1280),c
  3581   003A4C  5018               	movf	??___fldiv^(0+1280),w,c
  3582   003A4E  1019               	iorwf	(??___fldiv+1)^(0+1280),w,c
  3583   003A50  101A               	iorwf	(??___fldiv+2)^(0+1280),w,c
  3584   003A52  101B               	iorwf	(??___fldiv+3)^(0+1280),w,c
  3585   003A54  B4D8               	btfsc	status,2,c
  3586   003A56  EF2F  F01D         	goto	u2771
  3587   003A5A  EF31  F01D         	goto	u2770
  3588   003A5E                     u2771:
  3589   003A5E  EF35  F01D         	goto	l876
  3590   003A62                     u2770:
  3591   003A62                     l3139:
  3592   003A62  0E01               	movlw	1
  3593   003A64  6E28               	movwf	___fldiv@aexp^(0+1280),c
  3594   003A66  EF3E  F01D         	goto	l875
  3595   003A6A                     l876:
  3596   003A6A  A010               	btfss	___fldiv@b^(0+1280),0,c
  3597   003A6C  EF3A  F01D         	goto	u2781
  3598   003A70  EF3C  F01D         	goto	u2780
  3599   003A74                     u2781:
  3600   003A74  EF3E  F01D         	goto	l875
  3601   003A78                     u2780:
  3602   003A78  EF31  F01D         	goto	l3139
  3603   003A7C                     l875:
  3604   003A7C  5028               	movf	___fldiv@aexp^(0+1280),w,c
  3605   003A7E  B4D8               	btfsc	status,2,c
  3606   003A80  EF44  F01D         	goto	u2791
  3607   003A84  EF46  F01D         	goto	u2790
  3608   003A88                     u2791:
  3609   003A88  EF6A  F01D         	goto	l3151
  3610   003A8C                     u2790:
  3611   003A8C  0E01               	movlw	1
  3612   003A8E  2610               	addwf	___fldiv@b^(0+1280),f,c
  3613   003A90  0E00               	movlw	0
  3614   003A92  2211               	addwfc	(___fldiv@b+1)^(0+1280),f,c
  3615   003A94  2212               	addwfc	(___fldiv@b+2)^(0+1280),f,c
  3616   003A96  2213               	addwfc	(___fldiv@b+3)^(0+1280),f,c
  3617   003A98  A013               	btfss	(___fldiv@b+3)^(0+1280),0,c
  3618   003A9A  EF51  F01D         	goto	u2801
  3619   003A9E  EF53  F01D         	goto	u2800
  3620   003AA2                     u2801:
  3621   003AA2  EF6A  F01D         	goto	l3151
  3622   003AA6                     u2800:
  3623   003AA6  C510  F518         	movff	___fldiv@b,??___fldiv
  3624   003AAA  C511  F519         	movff	___fldiv@b+1,??___fldiv+1
  3625   003AAE  C512  F51A         	movff	___fldiv@b+2,??___fldiv+2
  3626   003AB2  C513  F51B         	movff	___fldiv@b+3,??___fldiv+3
  3627   003AB6  341B               	rlcf	(??___fldiv+3)^(0+1280),w,c
  3628   003AB8  321B               	rrcf	(??___fldiv+3)^(0+1280),f,c
  3629   003ABA  321A               	rrcf	(??___fldiv+2)^(0+1280),f,c
  3630   003ABC  3219               	rrcf	(??___fldiv+1)^(0+1280),f,c
  3631   003ABE  3218               	rrcf	??___fldiv^(0+1280),f,c
  3632   003AC0  C518  F510         	movff	??___fldiv,___fldiv@b
  3633   003AC4  C519  F511         	movff	??___fldiv+1,___fldiv@b+1
  3634   003AC8  C51A  F512         	movff	??___fldiv+2,___fldiv@b+2
  3635   003ACC  C51B  F513         	movff	??___fldiv+3,___fldiv@b+3
  3636   003AD0  4A21               	infsnz	___fldiv@new_exp^(0+1280),f,c
  3637   003AD2  2A22               	incf	(___fldiv@new_exp+1)^(0+1280),f,c
  3638   003AD4                     l3151:
  3639   003AD4  BE22               	btfsc	(___fldiv@new_exp+1)^(0+1280),7,c
  3640   003AD6  EF75  F01D         	goto	u2811
  3641   003ADA  5022               	movf	(___fldiv@new_exp+1)^(0+1280),w,c
  3642   003ADC  E108               	bnz	u2810
  3643   003ADE  2821               	incf	___fldiv@new_exp^(0+1280),w,c
  3644   003AE0  A0D8               	btfss	status,0,c
  3645   003AE2  EF75  F01D         	goto	u2811
  3646   003AE6  EF77  F01D         	goto	u2810
  3647   003AEA                     u2811:
  3648   003AEA  EF82  F01D         	goto	l3155
  3649   003AEE                     u2810:
  3650   003AEE  0E00               	movlw	0
  3651   003AF0  6E22               	movwf	(___fldiv@new_exp+1)^(0+1280),c
  3652   003AF2  6821               	setf	___fldiv@new_exp^(0+1280),c
  3653   003AF4  0E00               	movlw	0
  3654   003AF6  6E10               	movwf	___fldiv@b^(0+1280),c
  3655   003AF8  0E00               	movlw	0
  3656   003AFA  6E11               	movwf	(___fldiv@b+1)^(0+1280),c
  3657   003AFC  0E00               	movlw	0
  3658   003AFE  6E12               	movwf	(___fldiv@b+2)^(0+1280),c
  3659   003B00  0E00               	movlw	0
  3660   003B02  6E13               	movwf	(___fldiv@b+3)^(0+1280),c
  3661   003B04                     l3155:
  3662   003B04  BE22               	btfsc	(___fldiv@new_exp+1)^(0+1280),7,c
  3663   003B06  EF8F  F01D         	goto	u2820
  3664   003B0A  5022               	movf	(___fldiv@new_exp+1)^(0+1280),w,c
  3665   003B0C  E106               	bnz	u2821
  3666   003B0E  0421               	decf	___fldiv@new_exp^(0+1280),w,c
  3667   003B10  B0D8               	btfsc	status,0,c
  3668   003B12  EF8D  F01D         	goto	u2821
  3669   003B16  EF8F  F01D         	goto	u2820
  3670   003B1A                     u2821:
  3671   003B1A  EF9D  F01D         	goto	l3159
  3672   003B1E                     u2820:
  3673   003B1E  0E00               	movlw	0
  3674   003B20  6E22               	movwf	(___fldiv@new_exp+1)^(0+1280),c
  3675   003B22  0E00               	movlw	0
  3676   003B24  6E21               	movwf	___fldiv@new_exp^(0+1280),c
  3677   003B26  0E00               	movlw	0
  3678   003B28  6E10               	movwf	___fldiv@b^(0+1280),c
  3679   003B2A  0E00               	movlw	0
  3680   003B2C  6E11               	movwf	(___fldiv@b+1)^(0+1280),c
  3681   003B2E  0E00               	movlw	0
  3682   003B30  6E12               	movwf	(___fldiv@b+2)^(0+1280),c
  3683   003B32  0E00               	movlw	0
  3684   003B34  6E13               	movwf	(___fldiv@b+3)^(0+1280),c
  3685   003B36  0E00               	movlw	0
  3686   003B38  6E20               	movwf	___fldiv@sign^(0+1280),c
  3687   003B3A                     l3159:
  3688   003B3A  C521  F527         	movff	___fldiv@new_exp,___fldiv@bexp
  3689   003B3E  A027               	btfss	___fldiv@bexp^(0+1280),0,c
  3690   003B40  EFA4  F01D         	goto	u2831
  3691   003B44  EFA6  F01D         	goto	u2830
  3692   003B48                     u2831:
  3693   003B48  EFA9  F01D         	goto	l3165
  3694   003B4C                     u2830:
  3695   003B4C  8E12               	bsf	(___fldiv@b+2)^(0+1280),7,c
  3696   003B4E  EFAA  F01D         	goto	l3167
  3697   003B52                     l3165:
  3698   003B52  9E12               	bcf	(___fldiv@b+2)^(0+1280),7,c
  3699   003B54                     l3167:
  3700   003B54  90D8               	bcf	status,0,c
  3701   003B56  3027               	rrcf	___fldiv@bexp^(0+1280),w,c
  3702   003B58  6E13               	movwf	(___fldiv@b+3)^(0+1280),c
  3703   003B5A  EF60  F01C         	goto	l3081
  3704   003B5E                     l862:
  3705   003B5E  0012               	return		;funcret
  3706   003B60                     __end_of___fldiv:
  3707                           	callstack 0
  3708                           
  3709 ;; *************** function _RTCupdate *****************
  3710 ;; Defined at:
  3711 ;;		line 60 in file "C:/Users/a_hui/OneDrive - Camosun College/term2/ecet165_embedded_mc/labs/ecet165-labs/lab9/RealTime
      +Clock.c"
  3712 ;; Parameters:    Size  Location     Type
  3713 ;;  current_time    2   79[BANK5 ] PTR struct realtime
  3714 ;;		 -> main@current_time(4), 
  3715 ;; Auto vars:     Size  Location     Type
  3716 ;;		None
  3717 ;; Return value:  Size  Location     Type
  3718 ;;                  1    wreg      void 
  3719 ;; Registers used:
  3720 ;;		wreg, fsr2l, fsr2h, status,2, status,0, tblptrl, tblptrh, tblptru, prodl, prodh, cstack
  3721 ;; Tracked objects:
  3722 ;;		On entry : 0/0
  3723 ;;		On exit  : 0/0
  3724 ;;		Unchanged: 0/0
  3725 ;; Data sizes:     COMRAM   BANK5   BANK6   BANK7   BANK8   BANK9  BANK10  BANK11  BANK12  BANK13  BANK14  BANK15  BANK1
      +6  BANK17  BANK18  BANK19  BANK20  BANK21  BANK22  BANK23  BANK24  BANK25  BANK26  BANK27  BANK28  BANK29  BANK30  BANK3
      +1  BANK32  BANK33  BANK34  BANK35  BANK36
  3726 ;;      Params:         0       2       0       0       0       0       0       0       0       0       0       0       
      +0       0       0       0       0       0       0       0       0       0       0       0       0       0       0       
      +0       0       0       0       0       0
  3727 ;;      Locals:         0       2       0       0       0       0       0       0       0       0       0       0       
      +0       0       0       0       0       0       0       0       0       0       0       0       0       0       0       
      +0       0       0       0       0       0
  3728 ;;      Temps:          0       4       0       0       0       0       0       0       0       0       0       0       
      +0       0       0       0       0       0       0       0       0       0       0       0       0       0       0       
      +0       0       0       0       0       0
  3729 ;;      Totals:         0       8       0       0       0       0       0       0       0       0       0       0       
      +0       0       0       0       0       0       0       0       0       0       0       0       0       0       0       
      +0       0       0       0       0       0
  3730 ;;Total ram usage:        8 bytes
  3731 ;; Hardware stack levels used: 1
  3732 ;; Hardware stack levels required when called: 5
  3733 ;; This function calls:
  3734 ;;		_LCDinstruct
  3735 ;;		_LCDprintf
  3736 ;; This function is called by:
  3737 ;;		_main
  3738 ;; This function uses a non-reentrant model
  3739 ;;
  3740                           
  3741                           	psect	text9
  3742   003F2C                     __ptext9:
  3743                           	callstack 0
  3744   003F2C                     _RTCupdate:
  3745                           	callstack 121
  3746   003F2C                     
  3747                           ;C:/Users/a_hui/OneDrive - Camosun College/term2/ecet165_embedded_mc/labs/ecet165-labs/l
      +                          ab9/RealTimeClock.c: 61:     if(tick_count > 99){
  3748   003F2C  0E63               	movlw	99
  3749   003F2E  0105               	movlb	5	; () banked
  3750   003F30  65F5               	cpfsgt	_tick_count& (0+255),b	;volatile
  3751   003F32  EF9D  F01F         	goto	u3011
  3752   003F36  EF9F  F01F         	goto	u3010
  3753   003F3A                     u3011:
  3754   003F3A  EF55  F020         	goto	l213
  3755   003F3E                     u3010:
  3756   003F3E                     
  3757                           ; BSR set to: 5
  3758                           ;C:/Users/a_hui/OneDrive - Camosun College/term2/ecet165_embedded_mc/labs/ecet165-labs/l
      +                          ab9/RealTimeClock.c: 62:         tick_count -= 100;
  3759   003F3E  0E64               	movlw	100
  3760   003F40  5FF5               	subwf	_tick_count& (0+255),f,b	;volatile
  3761   003F42                     
  3762                           ; BSR set to: 5
  3763                           ;C:/Users/a_hui/OneDrive - Camosun College/term2/ecet165_embedded_mc/labs/ecet165-labs/l
      +                          ab9/RealTimeClock.c: 63:         (current_time)->seconds++;
  3764   003F42  EE20 F002          	lfsr	2,2
  3765   003F46  51AF               	movf	RTCupdate@current_time& (0+255),w,b
  3766   003F48  26D9               	addwf	fsr2l,f,c
  3767   003F4A  51B0               	movf	(RTCupdate@current_time+1)& (0+255),w,b
  3768   003F4C  22DA               	addwfc	fsr2h,f,c
  3769   003F4E  2ADF               	incf	indf2,f,c
  3770   003F50                     
  3771                           ; BSR set to: 5
  3772                           ;C:/Users/a_hui/OneDrive - Camosun College/term2/ecet165_embedded_mc/labs/ecet165-labs/l
      +                          ab9/RealTimeClock.c: 64:         if((current_time)->seconds > 59){
  3773   003F50  EE20 F002          	lfsr	2,2
  3774   003F54  51AF               	movf	RTCupdate@current_time& (0+255),w,b
  3775   003F56  26D9               	addwf	fsr2l,f,c
  3776   003F58  51B0               	movf	(RTCupdate@current_time+1)& (0+255),w,b
  3777   003F5A  22DA               	addwfc	fsr2h,f,c
  3778   003F5C  0E3B               	movlw	59
  3779   003F5E  64DF               	cpfsgt	indf2,c
  3780   003F60  EFB4  F01F         	goto	u3021
  3781   003F64  EFB6  F01F         	goto	u3020
  3782   003F68                     u3021:
  3783   003F68  EF21  F020         	goto	l3387
  3784   003F6C                     u3020:
  3785   003F6C                     
  3786                           ; BSR set to: 5
  3787                           ;C:/Users/a_hui/OneDrive - Camosun College/term2/ecet165_embedded_mc/labs/ecet165-labs/l
      +                          ab9/RealTimeClock.c: 65:             (current_time)->seconds = 0;
  3788   003F6C  EE20 F002          	lfsr	2,2
  3789   003F70  51AF               	movf	RTCupdate@current_time& (0+255),w,b
  3790   003F72  26D9               	addwf	fsr2l,f,c
  3791   003F74  51B0               	movf	(RTCupdate@current_time+1)& (0+255),w,b
  3792   003F76  22DA               	addwfc	fsr2h,f,c
  3793   003F78  0E00               	movlw	0
  3794   003F7A  6EDF               	movwf	indf2,c
  3795                           
  3796                           ;C:/Users/a_hui/OneDrive - Camosun College/term2/ecet165_embedded_mc/labs/ecet165-labs/l
      +                          ab9/RealTimeClock.c: 66:             (current_time)->minutes++;
  3797   003F7C  EE20 F001          	lfsr	2,1
  3798   003F80  51AF               	movf	RTCupdate@current_time& (0+255),w,b
  3799   003F82  26D9               	addwf	fsr2l,f,c
  3800   003F84  51B0               	movf	(RTCupdate@current_time+1)& (0+255),w,b
  3801   003F86  22DA               	addwfc	fsr2h,f,c
  3802   003F88  2ADF               	incf	indf2,f,c
  3803                           
  3804                           ;C:/Users/a_hui/OneDrive - Camosun College/term2/ecet165_embedded_mc/labs/ecet165-labs/l
      +                          ab9/RealTimeClock.c: 67:             if((current_time)->minutes>59){
  3805   003F8A  EE20 F001          	lfsr	2,1
  3806   003F8E  51AF               	movf	RTCupdate@current_time& (0+255),w,b
  3807   003F90  26D9               	addwf	fsr2l,f,c
  3808   003F92  51B0               	movf	(RTCupdate@current_time+1)& (0+255),w,b
  3809   003F94  22DA               	addwfc	fsr2h,f,c
  3810   003F96  0E3B               	movlw	59
  3811   003F98  64DF               	cpfsgt	indf2,c
  3812   003F9A  EFD1  F01F         	goto	u3031
  3813   003F9E  EFD3  F01F         	goto	u3030
  3814   003FA2                     u3031:
  3815   003FA2  EF21  F020         	goto	l3387
  3816   003FA6                     u3030:
  3817   003FA6                     
  3818                           ; BSR set to: 5
  3819                           ;C:/Users/a_hui/OneDrive - Camosun College/term2/ecet165_embedded_mc/labs/ecet165-labs/l
      +                          ab9/RealTimeClock.c: 68:                 (current_time)->minutes = 0;
  3820   003FA6  EE20 F001          	lfsr	2,1
  3821   003FAA  51AF               	movf	RTCupdate@current_time& (0+255),w,b
  3822   003FAC  26D9               	addwf	fsr2l,f,c
  3823   003FAE  51B0               	movf	(RTCupdate@current_time+1)& (0+255),w,b
  3824   003FB0  22DA               	addwfc	fsr2h,f,c
  3825   003FB2  0E00               	movlw	0
  3826   003FB4  6EDF               	movwf	indf2,c
  3827   003FB6                     
  3828                           ; BSR set to: 5
  3829                           ;C:/Users/a_hui/OneDrive - Camosun College/term2/ecet165_embedded_mc/labs/ecet165-labs/l
      +                          ab9/RealTimeClock.c: 69:                 (current_time)->hours++;
  3830   003FB6  C5AF  F4D9         	movff	RTCupdate@current_time,fsr2l
  3831   003FBA  C5B0  F4DA         	movff	RTCupdate@current_time+1,fsr2h
  3832   003FBE  2ADF               	incf	indf2,f,c
  3833   003FC0                     
  3834                           ; BSR set to: 5
  3835                           ;C:/Users/a_hui/OneDrive - Camosun College/term2/ecet165_embedded_mc/labs/ecet165-labs/l
      +                          ab9/RealTimeClock.c: 70:                 if((current_time)->hours>11){
  3836   003FC0  C5AF  F4D9         	movff	RTCupdate@current_time,fsr2l
  3837   003FC4  C5B0  F4DA         	movff	RTCupdate@current_time+1,fsr2h
  3838   003FC8  0E0B               	movlw	11
  3839   003FCA  64DF               	cpfsgt	indf2,c
  3840   003FCC  EFEA  F01F         	goto	u3041
  3841   003FD0  EFEC  F01F         	goto	u3040
  3842   003FD4                     u3041:
  3843   003FD4  EF21  F020         	goto	l3387
  3844   003FD8                     u3040:
  3845   003FD8                     
  3846                           ; BSR set to: 5
  3847                           ;C:/Users/a_hui/OneDrive - Camosun College/term2/ecet165_embedded_mc/labs/ecet165-labs/l
      +                          ab9/RealTimeClock.c: 71:                     if((current_time)->hours >12){
  3848   003FD8  C5AF  F4D9         	movff	RTCupdate@current_time,fsr2l
  3849   003FDC  C5B0  F4DA         	movff	RTCupdate@current_time+1,fsr2h
  3850   003FE0  0E0C               	movlw	12
  3851   003FE2  64DF               	cpfsgt	indf2,c
  3852   003FE4  EFF6  F01F         	goto	u3051
  3853   003FE8  EFF8  F01F         	goto	u3050
  3854   003FEC                     u3051:
  3855   003FEC  EF00  F020         	goto	l3379
  3856   003FF0                     u3050:
  3857   003FF0                     
  3858                           ; BSR set to: 5
  3859                           ;C:/Users/a_hui/OneDrive - Camosun College/term2/ecet165_embedded_mc/labs/ecet165-labs/l
      +                          ab9/RealTimeClock.c: 72:                         (current_time)->hours = 1;
  3860   003FF0  C5AF  F4D9         	movff	RTCupdate@current_time,fsr2l
  3861   003FF4  C5B0  F4DA         	movff	RTCupdate@current_time+1,fsr2h
  3862   003FF8  0E01               	movlw	1
  3863   003FFA  6EDF               	movwf	indf2,c
  3864                           
  3865                           ;C:/Users/a_hui/OneDrive - Camosun College/term2/ecet165_embedded_mc/labs/ecet165-labs/l
      +                          ab9/RealTimeClock.c: 73:                     }else{
  3866   003FFC  EF21  F020         	goto	l3387
  3867   004000                     l3379:
  3868                           
  3869                           ; BSR set to: 5
  3870                           ;C:/Users/a_hui/OneDrive - Camosun College/term2/ecet165_embedded_mc/labs/ecet165-labs/l
      +                          ab9/RealTimeClock.c: 74:                     (current_time)->meridian = (
  3871   004000  EE20 F003          	lfsr	2,3
  3872   004004  51AF               	movf	RTCupdate@current_time& (0+255),w,b
  3873   004006  26D9               	addwf	fsr2l,f,c
  3874   004008  51B0               	movf	(RTCupdate@current_time+1)& (0+255),w,b
  3875   00400A  22DA               	addwfc	fsr2h,f,c
  3876   00400C  0E61               	movlw	97
  3877   00400E  18DE               	xorwf	postinc2,w,c
  3878   004010  B4D8               	btfsc	status,2,c
  3879   004012  EF0D  F020         	goto	u3061
  3880   004016  EF0F  F020         	goto	u3060
  3881   00401A                     u3061:
  3882   00401A  EF15  F020         	goto	l3383
  3883   00401E                     u3060:
  3884   00401E                     
  3885                           ; BSR set to: 5
  3886   00401E  0E00               	movlw	0
  3887   004020  6FB6               	movwf	(_RTCupdate$510+1)& (0+255),b
  3888   004022  0E61               	movlw	97
  3889   004024  6FB5               	movwf	_RTCupdate$510& (0+255),b
  3890   004026  EF19  F020         	goto	l3385
  3891   00402A                     l3383:
  3892                           
  3893                           ; BSR set to: 5
  3894   00402A  0E00               	movlw	0
  3895   00402C  6FB6               	movwf	(_RTCupdate$510+1)& (0+255),b
  3896   00402E  0E70               	movlw	112
  3897   004030  6FB5               	movwf	_RTCupdate$510& (0+255),b
  3898   004032                     l3385:
  3899                           
  3900                           ; BSR set to: 5
  3901   004032  EE20 F003          	lfsr	2,3
  3902   004036  51AF               	movf	RTCupdate@current_time& (0+255),w,b
  3903   004038  26D9               	addwf	fsr2l,f,c
  3904   00403A  51B0               	movf	(RTCupdate@current_time+1)& (0+255),w,b
  3905   00403C  22DA               	addwfc	fsr2h,f,c
  3906   00403E  C5B5  F4DF         	movff	_RTCupdate$510,indf2
  3907   004042                     l3387:
  3908                           
  3909                           ; BSR set to: 5
  3910                           ;C:/Users/a_hui/OneDrive - Camosun College/term2/ecet165_embedded_mc/labs/ecet165-labs/l
      +                          ab9/RealTimeClock.c: 82:         LCDinstruct(0x02);
  3911   004042  0E02               	movlw	2
  3912   004044  ECE1  F023         	call	_LCDinstruct
  3913   004048                     
  3914                           ;C:/Users/a_hui/OneDrive - Camosun College/term2/ecet165_embedded_mc/labs/ecet165-labs/l
      +                          ab9/RealTimeClock.c: 83:         LCDprintf("%i2:%i2:%i2 %cm", current_time->hours, curre
      +                          nt_time->minutes, current_time->seconds, current_time->meridian);
  3915   004048  0E01               	movlw	low STR_3
  3916   00404A  0105               	movlb	5	; () banked
  3917   00404C  6F80               	movwf	LCDprintf@shell& (0+255),b
  3918   00404E  0E26               	movlw	high STR_3
  3919   004050  6F81               	movwf	(LCDprintf@shell+1)& (0+255),b
  3920   004052  C5AF  F4D9         	movff	RTCupdate@current_time,fsr2l
  3921   004056  C5B0  F4DA         	movff	RTCupdate@current_time+1,fsr2h
  3922   00405A  50DF               	movf	indf2,w,c
  3923   00405C  6FB1               	movwf	??_RTCupdate& (0+255),b
  3924   00405E  51B1               	movf	??_RTCupdate& (0+255),w,b
  3925   004060  6F82               	movwf	(?_LCDprintf+2)& (0+255),b
  3926   004062  6B83               	clrf	(?_LCDprintf+3)& (0+255),b
  3927   004064  EE20 F001          	lfsr	2,1
  3928   004068  51AF               	movf	RTCupdate@current_time& (0+255),w,b
  3929   00406A  26D9               	addwf	fsr2l,f,c
  3930   00406C  51B0               	movf	(RTCupdate@current_time+1)& (0+255),w,b
  3931   00406E  22DA               	addwfc	fsr2h,f,c
  3932   004070  50DF               	movf	indf2,w,c
  3933   004072  6FB2               	movwf	(??_RTCupdate+1)& (0+255),b
  3934   004074  51B2               	movf	(??_RTCupdate+1)& (0+255),w,b
  3935   004076  6F84               	movwf	(?_LCDprintf+4)& (0+255),b
  3936   004078  6B85               	clrf	(?_LCDprintf+5)& (0+255),b
  3937   00407A  EE20 F002          	lfsr	2,2
  3938   00407E  51AF               	movf	RTCupdate@current_time& (0+255),w,b
  3939   004080  26D9               	addwf	fsr2l,f,c
  3940   004082  51B0               	movf	(RTCupdate@current_time+1)& (0+255),w,b
  3941   004084  22DA               	addwfc	fsr2h,f,c
  3942   004086  50DF               	movf	indf2,w,c
  3943   004088  6FB3               	movwf	(??_RTCupdate+2)& (0+255),b
  3944   00408A  51B3               	movf	(??_RTCupdate+2)& (0+255),w,b
  3945   00408C  6F86               	movwf	(?_LCDprintf+6)& (0+255),b
  3946   00408E  6B87               	clrf	(?_LCDprintf+7)& (0+255),b
  3947   004090  EE20 F003          	lfsr	2,3
  3948   004094  51AF               	movf	RTCupdate@current_time& (0+255),w,b
  3949   004096  26D9               	addwf	fsr2l,f,c
  3950   004098  51B0               	movf	(RTCupdate@current_time+1)& (0+255),w,b
  3951   00409A  22DA               	addwfc	fsr2h,f,c
  3952   00409C  50DF               	movf	indf2,w,c
  3953   00409E  6FB4               	movwf	(??_RTCupdate+3)& (0+255),b
  3954   0040A0  51B4               	movf	(??_RTCupdate+3)& (0+255),w,b
  3955   0040A2  6F88               	movwf	(?_LCDprintf+8)& (0+255),b
  3956   0040A4  6B89               	clrf	(?_LCDprintf+9)& (0+255),b
  3957   0040A6  EC09  F01A         	call	_LCDprintf	;wreg free
  3958   0040AA                     l213:
  3959   0040AA  0012               	return		;funcret
  3960   0040AC                     __end_of_RTCupdate:
  3961                           	callstack 0
  3962                           
  3963 ;; *************** function _LCDprintf *****************
  3964 ;; Defined at:
  3965 ;;		line 143 in file "C:/Users/a_hui/OneDrive - Camosun College/term2/ecet165_embedded_mc/labs/ecet165-labs/lab6/lcd18f.
      +c"
  3966 ;; Parameters:    Size  Location     Type
  3967 ;;  shell           2   32[BANK5 ] PTR unsigned char 
  3968 ;;		 -> STR_3(16), STR_2(7), STR_1(9), 
  3969 ;; Auto vars:     Size  Location     Type
  3970 ;;  i               1   69[BANK5 ] unsigned char 
  3971 ;;  f_string       20   49[BANK5 ] unsigned char [20]
  3972 ;;  f_input         4   70[BANK5 ] unsigned char [20]
  3973 ;;  args            2   77[BANK5 ] PTR void [1]
  3974 ;;		 -> ?_LCDprintf(1), 
  3975 ;;  f_int           2   74[BANK5 ] int 
  3976 ;;  indexer         1   76[BANK5 ] char 
  3977 ;; Return value:  Size  Location     Type
  3978 ;;                  1    wreg      void 
  3979 ;; Registers used:
  3980 ;;		wreg, fsr2l, fsr2h, status,2, status,0, tblptrl, tblptrh, tblptru, prodl, prodh, cstack
  3981 ;; Tracked objects:
  3982 ;;		On entry : 0/0
  3983 ;;		On exit  : 0/0
  3984 ;;		Unchanged: 0/0
  3985 ;; Data sizes:     COMRAM   BANK5   BANK6   BANK7   BANK8   BANK9  BANK10  BANK11  BANK12  BANK13  BANK14  BANK15  BANK1
      +6  BANK17  BANK18  BANK19  BANK20  BANK21  BANK22  BANK23  BANK24  BANK25  BANK26  BANK27  BANK28  BANK29  BANK30  BANK3
      +1  BANK32  BANK33  BANK34  BANK35  BANK36
  3986 ;;      Params:         0      10       0       0       0       0       0       0       0       0       0       0       
      +0       0       0       0       0       0       0       0       0       0       0       0       0       0       0       
      +0       0       0       0       0       0
  3987 ;;      Locals:         0      30       0       0       0       0       0       0       0       0       0       0       
      +0       0       0       0       0       0       0       0       0       0       0       0       0       0       0       
      +0       0       0       0       0       0
  3988 ;;      Temps:          0       7       0       0       0       0       0       0       0       0       0       0       
      +0       0       0       0       0       0       0       0       0       0       0       0       0       0       0       
      +0       0       0       0       0       0
  3989 ;;      Totals:         0      47       0       0       0       0       0       0       0       0       0       0       
      +0       0       0       0       0       0       0       0       0       0       0       0       0       0       0       
      +0       0       0       0       0       0
  3990 ;;Total ram usage:       47 bytes
  3991 ;; Hardware stack levels used: 1
  3992 ;; Hardware stack levels required when called: 4
  3993 ;; This function calls:
  3994 ;;		_LCDprintc
  3995 ;;		_LCDprints
  3996 ;;		___awdiv
  3997 ;;		___awmod
  3998 ;;		___flmul
  3999 ;;		___fltol
  4000 ;;		_toString
  4001 ;; This function is called by:
  4002 ;;		_main
  4003 ;;		_RTCupdate
  4004 ;; This function uses a non-reentrant model
  4005 ;;
  4006                           
  4007                           	psect	text10
  4008   003412                     __ptext10:
  4009                           	callstack 0
  4010   003412                     _LCDprintf:
  4011                           	callstack 121
  4012   003412                     
  4013                           ;C:/Users/a_hui/OneDrive - Camosun College/term2/ecet165_embedded_mc/labs/ecet165-labs/l
      +                          ab6/lcd18f.c: 145:     double f_input;;C:/Users/a_hui/OneDrive - Camosun College/term2/e
      +                          cet165_embedded_mc/labs/ecet165-labs/lab6/lcd18f.c: 146:     int f_int;;C:/Users/a_hui/O
      +                          neDrive - Camosun College/term2/ecet165_embedded_mc/labs/ecet165-labs/lab6/lcd18f.c: 147
      +                          :     signed char indexer;;C:/Users/a_hui/OneDrive - Camosun College/term2/ecet165_embed
      +                          ded_mc/labs/ecet165-labs/lab6/lcd18f.c: 149:     va_list args;;C:/Users/a_hui/OneDrive -
      +                           Camosun College/term2/ecet165_embedded_mc/labs/ecet165-labs/lab6/lcd18f.c: 150:     *ar
      +                          gs = __va_start();
  4014   003412  0E82               	movlw	low (?_LCDprintf+2)
  4015   003414  0105               	movlb	5	; () banked
  4016   003416  6FAD               	movwf	LCDprintf@args& (0+255),b
  4017   003418  0E05               	movlw	high (?_LCDprintf+2)
  4018   00341A  6FAE               	movwf	(LCDprintf@args+1)& (0+255),b
  4019                           
  4020                           ;C:/Users/a_hui/OneDrive - Camosun College/term2/ecet165_embedded_mc/labs/ecet165-labs/l
      +                          ab6/lcd18f.c: 152:     while(*shell != 0x0){
  4021   00341C  EFD2  F01B         	goto	l3023
  4022   003420                     l2955:
  4023                           
  4024                           ; BSR set to: 5
  4025                           ;C:/Users/a_hui/OneDrive - Camosun College/term2/ecet165_embedded_mc/labs/ecet165-labs/l
      +                          ab6/lcd18f.c: 154:         if(*shell != '%'){
  4026   003420  C580  F4F6         	movff	LCDprintf@shell,tblptrl
  4027   003424  C581  F4F7         	movff	LCDprintf@shell+1,tblptrh
  4028   003428                     	if	0	;tblptru may be non-zero
  4029   003428                     	endif
  4030   003428                     	if	1	;Program memory is > 0xFFFF, there are 3 active tblptr bytes
  4031   003428  0E00               	movlw	low (__mediumconst shr (0+16))
  4032   00342A  6EF8               	movwf	tblptru,c
  4033   00342C                     	endif
  4034   00342C  0008               	tblrd		*
  4035   00342E  50F5               	movf	tablat,w,c
  4036   003430  0A25               	xorlw	37
  4037   003432  B4D8               	btfsc	status,2,c
  4038   003434  EF1E  F01A         	goto	u2511
  4039   003438  EF20  F01A         	goto	u2510
  4040   00343C                     u2511:
  4041   00343C  EF2F  F01A         	goto	l2961
  4042   003440                     u2510:
  4043   003440                     
  4044                           ; BSR set to: 5
  4045                           ;C:/Users/a_hui/OneDrive - Camosun College/term2/ecet165_embedded_mc/labs/ecet165-labs/l
      +                          ab6/lcd18f.c: 155:             LCDprintc(*shell++);
  4046   003440  C580  F4F6         	movff	LCDprintf@shell,tblptrl
  4047   003444  C581  F4F7         	movff	LCDprintf@shell+1,tblptrh
  4048   003448                     	if	0	;tblptru may be non-zero
  4049   003448                     	endif
  4050   003448                     	if	1	;Program memory is > 0xFFFF, there are 3 active tblptr bytes
  4051   003448  0E00               	movlw	low (__mediumconst shr (0+16))
  4052   00344A  6EF8               	movwf	tblptru,c
  4053   00344C                     	endif
  4054   00344C  0008               	tblrd		*
  4055   00344E  50F5               	movf	tablat,w,c
  4056   003450  EC31  F023         	call	_LCDprintc
  4057   003454                     l2959:
  4058   003454  0105               	movlb	5	; () banked
  4059   003456  4B80               	infsnz	LCDprintf@shell& (0+255),f,b
  4060   003458  2B81               	incf	(LCDprintf@shell+1)& (0+255),f,b
  4061                           
  4062                           ;C:/Users/a_hui/OneDrive - Camosun College/term2/ecet165_embedded_mc/labs/ecet165-labs/l
      +                          ab6/lcd18f.c: 157:         }else if(*(shell+1) == 's'){
  4063   00345A  EFD2  F01B         	goto	l3023
  4064   00345E                     l2961:
  4065                           
  4066                           ; BSR set to: 5
  4067   00345E  0E01               	movlw	1
  4068   003460  2580               	addwf	LCDprintf@shell& (0+255),w,b
  4069   003462  6F8A               	movwf	??_LCDprintf& (0+255),b
  4070   003464  0E00               	movlw	0
  4071   003466  2181               	addwfc	(LCDprintf@shell+1)& (0+255),w,b
  4072   003468  6F8B               	movwf	(??_LCDprintf+1)& (0+255),b
  4073   00346A  C58A  F4F6         	movff	??_LCDprintf,tblptrl
  4074   00346E  C58B  F4F7         	movff	??_LCDprintf+1,tblptrh
  4075   003472                     	if	0	;tblptru may be non-zero
  4076   003472                     	endif
  4077   003472                     	if	1	;Program memory is > 0xFFFF, there are 3 active tblptr bytes
  4078   003472  0E00               	movlw	low (__mediumconst shr (0+16))
  4079   003474  6EF8               	movwf	tblptru,c
  4080   003476                     	endif
  4081   003476  0008               	tblrd		*
  4082   003478  50F5               	movf	tablat,w,c
  4083   00347A  0A73               	xorlw	115
  4084   00347C  A4D8               	btfss	status,2,c
  4085   00347E  EF43  F01A         	goto	u2521
  4086   003482  EF45  F01A         	goto	u2520
  4087   003486                     u2521:
  4088   003486  EF5A  F01A         	goto	l2969
  4089   00348A                     u2520:
  4090   00348A                     
  4091                           ; BSR set to: 5
  4092                           ;C:/Users/a_hui/OneDrive - Camosun College/term2/ecet165_embedded_mc/labs/ecet165-labs/l
      +                          ab6/lcd18f.c: 159:             LCDprints((*(char* *)__va_arg(*(char* **)args, (char*)0))
      +                          );
  4093   00348A  C5AD  F4D9         	movff	LCDprintf@args,fsr2l
  4094   00348E  C5AE  F4DA         	movff	LCDprintf@args+1,fsr2h
  4095   003492  C4DE F513          	movff	postinc2,LCDprints@c
  4096   003496  C4DD F514          	movff	postdec2,LCDprints@c+1
  4097   00349A  EC4D  F024         	call	_LCDprints	;wreg free
  4098   00349E  0E02               	movlw	2
  4099   0034A0  0105               	movlb	5	; () banked
  4100   0034A2  27AD               	addwf	LCDprintf@args& (0+255),f,b
  4101   0034A4  0E00               	movlw	0
  4102   0034A6  23AE               	addwfc	(LCDprintf@args+1)& (0+255),f,b
  4103   0034A8                     l2967:
  4104                           
  4105                           ; BSR set to: 5
  4106                           ;C:/Users/a_hui/OneDrive - Camosun College/term2/ecet165_embedded_mc/labs/ecet165-labs/l
      +                          ab6/lcd18f.c: 160:             shell+=2;
  4107   0034A8  0E02               	movlw	2
  4108   0034AA  2780               	addwf	LCDprintf@shell& (0+255),f,b
  4109   0034AC  0E00               	movlw	0
  4110   0034AE  2381               	addwfc	(LCDprintf@shell+1)& (0+255),f,b
  4111                           
  4112                           ;C:/Users/a_hui/OneDrive - Camosun College/term2/ecet165_embedded_mc/labs/ecet165-labs/l
      +                          ab6/lcd18f.c: 161:         }
  4113   0034B0  EFD2  F01B         	goto	l3023
  4114   0034B4                     l2969:
  4115                           
  4116                           ; BSR set to: 5
  4117   0034B4  0E01               	movlw	1
  4118   0034B6  2580               	addwf	LCDprintf@shell& (0+255),w,b
  4119   0034B8  6F8A               	movwf	??_LCDprintf& (0+255),b
  4120   0034BA  0E00               	movlw	0
  4121   0034BC  2181               	addwfc	(LCDprintf@shell+1)& (0+255),w,b
  4122   0034BE  6F8B               	movwf	(??_LCDprintf+1)& (0+255),b
  4123   0034C0  C58A  F4F6         	movff	??_LCDprintf,tblptrl
  4124   0034C4  C58B  F4F7         	movff	??_LCDprintf+1,tblptrh
  4125   0034C8                     	if	0	;tblptru may be non-zero
  4126   0034C8                     	endif
  4127   0034C8                     	if	1	;Program memory is > 0xFFFF, there are 3 active tblptr bytes
  4128   0034C8  0E00               	movlw	low (__mediumconst shr (0+16))
  4129   0034CA  6EF8               	movwf	tblptru,c
  4130   0034CC                     	endif
  4131   0034CC  0008               	tblrd		*
  4132   0034CE  50F5               	movf	tablat,w,c
  4133   0034D0  0A69               	xorlw	105
  4134   0034D2  A4D8               	btfss	status,2,c
  4135   0034D4  EF6E  F01A         	goto	u2531
  4136   0034D8  EF70  F01A         	goto	u2530
  4137   0034DC                     u2531:
  4138   0034DC  EF9B  F01A         	goto	l2977
  4139   0034E0                     u2530:
  4140   0034E0                     
  4141                           ; BSR set to: 5
  4142                           ;C:/Users/a_hui/OneDrive - Camosun College/term2/ecet165_embedded_mc/labs/ecet165-labs/l
      +                          ab6/lcd18f.c: 165:             LCDprints(toString((*(unsigned int *)__va_arg(*(unsigned 
      +                          int **)args, (unsigned int)0)), (*(shell+2)-'0')));
  4143   0034E0  C5AD  F4D9         	movff	LCDprintf@args,fsr2l
  4144   0034E4  C5AE  F4DA         	movff	LCDprintf@args+1,fsr2h
  4145   0034E8  C4DE F509          	movff	postinc2,toString@number
  4146   0034EC  C4DD F50A          	movff	postdec2,toString@number+1
  4147   0034F0  0E02               	movlw	2
  4148   0034F2  2580               	addwf	LCDprintf@shell& (0+255),w,b
  4149   0034F4  6F8A               	movwf	??_LCDprintf& (0+255),b
  4150   0034F6  0E00               	movlw	0
  4151   0034F8  2181               	addwfc	(LCDprintf@shell+1)& (0+255),w,b
  4152   0034FA  6F8B               	movwf	(??_LCDprintf+1)& (0+255),b
  4153   0034FC  C58A  F4F6         	movff	??_LCDprintf,tblptrl
  4154   003500  C58B  F4F7         	movff	??_LCDprintf+1,tblptrh
  4155   003504                     	if	0	;tblptru may be non-zero
  4156   003504                     	endif
  4157   003504                     	if	1	;Program memory is > 0xFFFF, there are 3 active tblptr bytes
  4158   003504  0E00               	movlw	low (__mediumconst shr (0+16))
  4159   003506  6EF8               	movwf	tblptru,c
  4160   003508                     	endif
  4161   003508  0008               	tblrd		*
  4162   00350A  50F5               	movf	tablat,w,c
  4163   00350C  0FD0               	addlw	208
  4164   00350E  6E0B               	movwf	toString@length^(0+1280),c
  4165   003510  EC6D  F023         	call	_toString	;wreg free
  4166   003514  C509  F513         	movff	?_toString,LCDprints@c
  4167   003518  C50A  F514         	movff	?_toString+1,LCDprints@c+1
  4168   00351C  EC4D  F024         	call	_LCDprints	;wreg free
  4169   003520  0E02               	movlw	2
  4170   003522  0105               	movlb	5	; () banked
  4171   003524  27AD               	addwf	LCDprintf@args& (0+255),f,b
  4172   003526  0E00               	movlw	0
  4173   003528  23AE               	addwfc	(LCDprintf@args+1)& (0+255),f,b
  4174   00352A                     
  4175                           ; BSR set to: 5
  4176                           ;C:/Users/a_hui/OneDrive - Camosun College/term2/ecet165_embedded_mc/labs/ecet165-labs/l
      +                          ab6/lcd18f.c: 166:             shell+=3;
  4177   00352A  0E03               	movlw	3
  4178   00352C  2780               	addwf	LCDprintf@shell& (0+255),f,b
  4179   00352E  0E00               	movlw	0
  4180   003530  2381               	addwfc	(LCDprintf@shell+1)& (0+255),f,b
  4181                           
  4182                           ;C:/Users/a_hui/OneDrive - Camosun College/term2/ecet165_embedded_mc/labs/ecet165-labs/l
      +                          ab6/lcd18f.c: 168:         }else if(*(shell+1) == 'c'){
  4183   003532  EFD2  F01B         	goto	l3023
  4184   003536                     l2977:
  4185                           
  4186                           ; BSR set to: 5
  4187   003536  0E01               	movlw	1
  4188   003538  2580               	addwf	LCDprintf@shell& (0+255),w,b
  4189   00353A  6F8A               	movwf	??_LCDprintf& (0+255),b
  4190   00353C  0E00               	movlw	0
  4191   00353E  2181               	addwfc	(LCDprintf@shell+1)& (0+255),w,b
  4192   003540  6F8B               	movwf	(??_LCDprintf+1)& (0+255),b
  4193   003542  C58A  F4F6         	movff	??_LCDprintf,tblptrl
  4194   003546  C58B  F4F7         	movff	??_LCDprintf+1,tblptrh
  4195   00354A                     	if	0	;tblptru may be non-zero
  4196   00354A                     	endif
  4197   00354A                     	if	1	;Program memory is > 0xFFFF, there are 3 active tblptr bytes
  4198   00354A  0E00               	movlw	low (__mediumconst shr (0+16))
  4199   00354C  6EF8               	movwf	tblptru,c
  4200   00354E                     	endif
  4201   00354E  0008               	tblrd		*
  4202   003550  50F5               	movf	tablat,w,c
  4203   003552  0A63               	xorlw	99
  4204   003554  A4D8               	btfss	status,2,c
  4205   003556  EFAF  F01A         	goto	u2541
  4206   00355A  EFB1  F01A         	goto	u2540
  4207   00355E                     u2541:
  4208   00355E  EFBF  F01A         	goto	l2985
  4209   003562                     u2540:
  4210   003562                     
  4211                           ; BSR set to: 5
  4212                           ;C:/Users/a_hui/OneDrive - Camosun College/term2/ecet165_embedded_mc/labs/ecet165-labs/l
      +                          ab6/lcd18f.c: 170:             LCDprintc((*(char *)__va_arg(*(char **)args, (char)0)));
  4213   003562  C5AD  F4D9         	movff	LCDprintf@args,fsr2l
  4214   003566  C5AE  F4DA         	movff	LCDprintf@args+1,fsr2h
  4215   00356A  50DF               	movf	indf2,w,c
  4216   00356C  EC31  F023         	call	_LCDprintc
  4217   003570  0E02               	movlw	2
  4218   003572  0105               	movlb	5	; () banked
  4219   003574  27AD               	addwf	LCDprintf@args& (0+255),f,b
  4220   003576  0E00               	movlw	0
  4221   003578  23AE               	addwfc	(LCDprintf@args+1)& (0+255),f,b
  4222   00357A  EF54  F01A         	goto	l2967
  4223   00357E                     l2985:
  4224                           
  4225                           ; BSR set to: 5
  4226   00357E  0E02               	movlw	2
  4227   003580  2580               	addwf	LCDprintf@shell& (0+255),w,b
  4228   003582  6F8A               	movwf	??_LCDprintf& (0+255),b
  4229   003584  0E00               	movlw	0
  4230   003586  2181               	addwfc	(LCDprintf@shell+1)& (0+255),w,b
  4231   003588  6F8B               	movwf	(??_LCDprintf+1)& (0+255),b
  4232   00358A  C58A  F4F6         	movff	??_LCDprintf,tblptrl
  4233   00358E  C58B  F4F7         	movff	??_LCDprintf+1,tblptrh
  4234   003592                     	if	0	;tblptru may be non-zero
  4235   003592                     	endif
  4236   003592                     	if	1	;Program memory is > 0xFFFF, there are 3 active tblptr bytes
  4237   003592  0E00               	movlw	low (__mediumconst shr (0+16))
  4238   003594  6EF8               	movwf	tblptru,c
  4239   003596                     	endif
  4240   003596  0008               	tblrd		*
  4241   003598  50F5               	movf	tablat,w,c
  4242   00359A  0A66               	xorlw	102
  4243   00359C  A4D8               	btfss	status,2,c
  4244   00359E  EFD3  F01A         	goto	u2551
  4245   0035A2  EFD5  F01A         	goto	u2550
  4246   0035A6                     u2551:
  4247   0035A6  EFC6  F01B         	goto	l3019
  4248   0035AA                     u2550:
  4249   0035AA                     
  4250                           ; BSR set to: 5
  4251                           ;C:/Users/a_hui/OneDrive - Camosun College/term2/ecet165_embedded_mc/labs/ecet165-labs/l
      +                          ab6/lcd18f.c: 176:             char f_string[20] = "";
  4252   0035AA  EE21  F191         	lfsr	2,LCDprintf@f_string
  4253   0035AE  0E13               	movlw	19
  4254   0035B0                     u2561:
  4255   0035B0  6ADE               	clrf	postinc2,c
  4256   0035B2  06E8               	decf	wreg,f,c
  4257   0035B4  E2FD               	bc	u2561
  4258   0035B6                     
  4259                           ; BSR set to: 5
  4260                           ;C:/Users/a_hui/OneDrive - Camosun College/term2/ecet165_embedded_mc/labs/ecet165-labs/l
      +                          ab6/lcd18f.c: 178:             f_input = (*(float *)__va_arg(*(float **)args, (float)0))
      +                          ;
  4261   0035B6  C5AD  F4D9         	movff	LCDprintf@args,fsr2l
  4262   0035BA  C5AE  F4DA         	movff	LCDprintf@args+1,fsr2h
  4263   0035BE  C4DE F5A6          	movff	postinc2,LCDprintf@f_input
  4264   0035C2  C4DE F5A7          	movff	postinc2,LCDprintf@f_input+1
  4265   0035C6  C4DE F5A8          	movff	postinc2,LCDprintf@f_input+2
  4266   0035CA  C4DE F5A9          	movff	postinc2,LCDprintf@f_input+3
  4267   0035CE  0E04               	movlw	4
  4268   0035D0  27AD               	addwf	LCDprintf@args& (0+255),f,b
  4269   0035D2  0E00               	movlw	0
  4270   0035D4  23AE               	addwfc	(LCDprintf@args+1)& (0+255),f,b
  4271   0035D6                     
  4272                           ; BSR set to: 5
  4273                           ;C:/Users/a_hui/OneDrive - Camosun College/term2/ecet165_embedded_mc/labs/ecet165-labs/l
      +                          ab6/lcd18f.c: 179:             for(unsigned char i = 0; i<(*(shell+3)-'0'); i++){
  4274   0035D6  0E00               	movlw	0
  4275   0035D8  6FA5               	movwf	LCDprintf@i& (0+255),b
  4276   0035DA  EF0B  F01B         	goto	l2997
  4277   0035DE                     l2993:
  4278                           
  4279                           ; BSR set to: 5
  4280                           ;C:/Users/a_hui/OneDrive - Camosun College/term2/ecet165_embedded_mc/labs/ecet165-labs/l
      +                          ab6/lcd18f.c: 180:                 f_input *= 10;
  4281   0035DE  C5A6  F541         	movff	LCDprintf@f_input,___flmul@b
  4282   0035E2  C5A7  F542         	movff	LCDprintf@f_input+1,___flmul@b+1
  4283   0035E6  C5A8  F543         	movff	LCDprintf@f_input+2,___flmul@b+2
  4284   0035EA  C5A9  F544         	movff	LCDprintf@f_input+3,___flmul@b+3
  4285   0035EE  0E00               	movlw	0
  4286   0035F0  6E45               	movwf	___flmul@a^(0+1280),c
  4287   0035F2  0E00               	movlw	0
  4288   0035F4  6E46               	movwf	(___flmul@a+1)^(0+1280),c
  4289   0035F6  0E20               	movlw	32
  4290   0035F8  6E47               	movwf	(___flmul@a+2)^(0+1280),c
  4291   0035FA  0E41               	movlw	65
  4292   0035FC  6E48               	movwf	(___flmul@a+3)^(0+1280),c
  4293   0035FE  ECF4  F017         	call	___flmul	;wreg free
  4294   003602  C541  F5A6         	movff	?___flmul,LCDprintf@f_input
  4295   003606  C542  F5A7         	movff	?___flmul+1,LCDprintf@f_input+1
  4296   00360A  C543  F5A8         	movff	?___flmul+2,LCDprintf@f_input+2
  4297   00360E  C544  F5A9         	movff	?___flmul+3,LCDprintf@f_input+3
  4298   003612                     
  4299                           ;C:/Users/a_hui/OneDrive - Camosun College/term2/ecet165_embedded_mc/labs/ecet165-labs/l
      +                          ab6/lcd18f.c: 181:             }
  4300   003612  0105               	movlb	5	; () banked
  4301   003614  2BA5               	incf	LCDprintf@i& (0+255),f,b
  4302   003616                     l2997:
  4303                           
  4304                           ; BSR set to: 5
  4305   003616  0E03               	movlw	3
  4306   003618  2580               	addwf	LCDprintf@shell& (0+255),w,b
  4307   00361A  6F8A               	movwf	??_LCDprintf& (0+255),b
  4308   00361C  0E00               	movlw	0
  4309   00361E  2181               	addwfc	(LCDprintf@shell+1)& (0+255),w,b
  4310   003620  6F8B               	movwf	(??_LCDprintf+1)& (0+255),b
  4311   003622  C58A  F4F6         	movff	??_LCDprintf,tblptrl
  4312   003626  C58B  F4F7         	movff	??_LCDprintf+1,tblptrh
  4313   00362A                     	if	0	;tblptru may be non-zero
  4314   00362A                     	endif
  4315   00362A                     	if	1	;Program memory is > 0xFFFF, there are 3 active tblptr bytes
  4316   00362A  0E00               	movlw	low (__mediumconst shr (0+16))
  4317   00362C  6EF8               	movwf	tblptru,c
  4318   00362E                     	endif
  4319   00362E  0008               	tblrd		*
  4320   003630  C4F5 F58C          	movff	tablat,??_LCDprintf+2
  4321   003634  0ED0               	movlw	208
  4322   003636  258C               	addwf	(??_LCDprintf+2)& (0+255),w,b
  4323   003638  6F8D               	movwf	(??_LCDprintf+3)& (0+255),b
  4324   00363A  6B8E               	clrf	(??_LCDprintf+4)& (0+255),b
  4325   00363C  0EFF               	movlw	255
  4326   00363E  238E               	addwfc	(??_LCDprintf+4)& (0+255),f,b
  4327   003640  51A5               	movf	LCDprintf@i& (0+255),w,b
  4328   003642  6F8F               	movwf	(??_LCDprintf+5)& (0+255),b
  4329   003644  6B90               	clrf	(??_LCDprintf+6)& (0+255),b
  4330   003646  518D               	movf	(??_LCDprintf+3)& (0+255),w,b
  4331   003648  5D8F               	subwf	(??_LCDprintf+5)& (0+255),w,b
  4332   00364A  518E               	movf	(??_LCDprintf+4)& (0+255),w,b
  4333   00364C  5990               	subwfb	(??_LCDprintf+6)& (0+255),w,b
  4334   00364E  A0D8               	btfss	status,0,c
  4335   003650  EF2C  F01B         	goto	u2571
  4336   003654  EF2E  F01B         	goto	u2570
  4337   003658                     u2571:
  4338   003658  EFEF  F01A         	goto	l2993
  4339   00365C                     u2570:
  4340   00365C                     
  4341                           ; BSR set to: 5
  4342                           ;C:/Users/a_hui/OneDrive - Camosun College/term2/ecet165_embedded_mc/labs/ecet165-labs/l
      +                          ab6/lcd18f.c: 182:             f_int = (int)f_input;
  4343   00365C  C5A6  F576         	movff	LCDprintf@f_input,___fltol@f1
  4344   003660  C5A7  F577         	movff	LCDprintf@f_input+1,___fltol@f1+1
  4345   003664  C5A8  F578         	movff	LCDprintf@f_input+2,___fltol@f1+2
  4346   003668  C5A9  F579         	movff	LCDprintf@f_input+3,___fltol@f1+3
  4347   00366C  ECFC  F020         	call	___fltol	;wreg free
  4348   003670  C576  F5AA         	movff	?___fltol,LCDprintf@f_int
  4349   003674  C577  F5AB         	movff	?___fltol+1,LCDprintf@f_int+1
  4350   003678                     
  4351                           ;C:/Users/a_hui/OneDrive - Camosun College/term2/ecet165_embedded_mc/labs/ecet165-labs/l
      +                          ab6/lcd18f.c: 186:             indexer = (*(shell+1)-'0')+(*(shell+3)-'0');
  4352   003678  0E01               	movlw	1
  4353   00367A  0105               	movlb	5	; () banked
  4354   00367C  2580               	addwf	LCDprintf@shell& (0+255),w,b
  4355   00367E  6F8A               	movwf	??_LCDprintf& (0+255),b
  4356   003680  0E00               	movlw	0
  4357   003682  2181               	addwfc	(LCDprintf@shell+1)& (0+255),w,b
  4358   003684  6F8B               	movwf	(??_LCDprintf+1)& (0+255),b
  4359   003686  C58A  F4F6         	movff	??_LCDprintf,tblptrl
  4360   00368A  C58B  F4F7         	movff	??_LCDprintf+1,tblptrh
  4361   00368E                     	if	0	;tblptru may be non-zero
  4362   00368E                     	endif
  4363   00368E                     	if	1	;Program memory is > 0xFFFF, there are 3 active tblptr bytes
  4364   00368E  0E00               	movlw	low (__mediumconst shr (0+16))
  4365   003690  6EF8               	movwf	tblptru,c
  4366   003692                     	endif
  4367   003692  0008               	tblrd		*
  4368   003694  C4F5 F58C          	movff	tablat,??_LCDprintf+2
  4369   003698  0E03               	movlw	3
  4370   00369A  2580               	addwf	LCDprintf@shell& (0+255),w,b
  4371   00369C  6F8D               	movwf	(??_LCDprintf+3)& (0+255),b
  4372   00369E  0E00               	movlw	0
  4373   0036A0  2181               	addwfc	(LCDprintf@shell+1)& (0+255),w,b
  4374   0036A2  6F8E               	movwf	(??_LCDprintf+4)& (0+255),b
  4375   0036A4  C58D  F4F6         	movff	??_LCDprintf+3,tblptrl
  4376   0036A8  C58E  F4F7         	movff	??_LCDprintf+4,tblptrh
  4377   0036AC                     	if	0	;tblptru may be non-zero
  4378   0036AC                     	endif
  4379   0036AC                     	if	1	;Program memory is > 0xFFFF, there are 3 active tblptr bytes
  4380   0036AC  0E00               	movlw	low (__mediumconst shr (0+16))
  4381   0036AE  6EF8               	movwf	tblptru,c
  4382   0036B0                     	endif
  4383   0036B0  0008               	tblrd		*
  4384   0036B2  50F5               	movf	tablat,w,c
  4385   0036B4  258C               	addwf	(??_LCDprintf+2)& (0+255),w,b
  4386   0036B6  0FA0               	addlw	160
  4387   0036B8  6FAC               	movwf	LCDprintf@indexer& (0+255),b
  4388                           
  4389                           ;C:/Users/a_hui/OneDrive - Camosun College/term2/ecet165_embedded_mc/labs/ecet165-labs/l
      +                          ab6/lcd18f.c: 187:             while(indexer > -1){
  4390   0036BA  EFB2  F01B         	goto	l3013
  4391   0036BE                     l3003:
  4392                           
  4393                           ; BSR set to: 5
  4394                           ;C:/Users/a_hui/OneDrive - Camosun College/term2/ecet165_embedded_mc/labs/ecet165-labs/l
      +                          ab6/lcd18f.c: 189:                 if(indexer == (*(shell+1)-'0')){
  4395   0036BE  C5AC  F58A         	movff	LCDprintf@indexer,??_LCDprintf
  4396   0036C2  6B8B               	clrf	(??_LCDprintf+1)& (0+255),b
  4397   0036C4  BF8A               	btfsc	??_LCDprintf& (0+255),7,b
  4398   0036C6  078B               	decf	(??_LCDprintf+1)& (0+255),f,b
  4399   0036C8  0E01               	movlw	1
  4400   0036CA  2580               	addwf	LCDprintf@shell& (0+255),w,b
  4401   0036CC  6F8C               	movwf	(??_LCDprintf+2)& (0+255),b
  4402   0036CE  0E00               	movlw	0
  4403   0036D0  2181               	addwfc	(LCDprintf@shell+1)& (0+255),w,b
  4404   0036D2  6F8D               	movwf	(??_LCDprintf+3)& (0+255),b
  4405   0036D4  C58C  F4F6         	movff	??_LCDprintf+2,tblptrl
  4406   0036D8  C58D  F4F7         	movff	??_LCDprintf+3,tblptrh
  4407   0036DC                     	if	0	;tblptru may be non-zero
  4408   0036DC                     	endif
  4409   0036DC                     	if	1	;Program memory is > 0xFFFF, there are 3 active tblptr bytes
  4410   0036DC  0E00               	movlw	low (__mediumconst shr (0+16))
  4411   0036DE  6EF8               	movwf	tblptru,c
  4412   0036E0                     	endif
  4413   0036E0  0008               	tblrd		*
  4414   0036E2  C4F5 F58E          	movff	tablat,??_LCDprintf+4
  4415   0036E6  0ED0               	movlw	208
  4416   0036E8  258E               	addwf	(??_LCDprintf+4)& (0+255),w,b
  4417   0036EA  6F8F               	movwf	(??_LCDprintf+5)& (0+255),b
  4418   0036EC  6B90               	clrf	(??_LCDprintf+6)& (0+255),b
  4419   0036EE  0EFF               	movlw	255
  4420   0036F0  2390               	addwfc	(??_LCDprintf+6)& (0+255),f,b
  4421   0036F2  518A               	movf	??_LCDprintf& (0+255),w,b
  4422   0036F4  198F               	xorwf	(??_LCDprintf+5)& (0+255),w,b
  4423   0036F6  E107               	bnz	u2581
  4424   0036F8  518B               	movf	(??_LCDprintf+1)& (0+255),w,b
  4425   0036FA  1990               	xorwf	(??_LCDprintf+6)& (0+255),w,b
  4426   0036FC  A4D8               	btfss	status,2,c
  4427   0036FE  EF83  F01B         	goto	u2581
  4428   003702  EF85  F01B         	goto	u2580
  4429   003706                     u2581:
  4430   003706  EF8F  F01B         	goto	l3007
  4431   00370A                     u2580:
  4432   00370A                     
  4433                           ; BSR set to: 5
  4434                           ;C:/Users/a_hui/OneDrive - Camosun College/term2/ecet165_embedded_mc/labs/ecet165-labs/l
      +                          ab6/lcd18f.c: 190:                     f_string[indexer] = '.';
  4435   00370A  0E91               	movlw	low LCDprintf@f_string
  4436   00370C  25AC               	addwf	LCDprintf@indexer& (0+255),w,b
  4437   00370E  6ED9               	movwf	fsr2l,c
  4438   003710  6ADA               	clrf	fsr2h,c
  4439   003712  0E05               	movlw	high LCDprintf@f_string
  4440   003714  22DA               	addwfc	fsr2h,f,c
  4441   003716  0E2E               	movlw	46
  4442   003718  6EDF               	movwf	indf2,c
  4443                           
  4444                           ;C:/Users/a_hui/OneDrive - Camosun College/term2/ecet165_embedded_mc/labs/ecet165-labs/l
      +                          ab6/lcd18f.c: 192:                 }else{
  4445   00371A  EFB0  F01B         	goto	l3011
  4446   00371E                     l3007:
  4447                           
  4448                           ; BSR set to: 5
  4449                           ;C:/Users/a_hui/OneDrive - Camosun College/term2/ecet165_embedded_mc/labs/ecet165-labs/l
      +                          ab6/lcd18f.c: 193:                     f_string[indexer] = (f_int % 10) + '0';
  4450   00371E  0E91               	movlw	low LCDprintf@f_string
  4451   003720  25AC               	addwf	LCDprintf@indexer& (0+255),w,b
  4452   003722  6ED9               	movwf	fsr2l,c
  4453   003724  6ADA               	clrf	fsr2h,c
  4454   003726  0E05               	movlw	high LCDprintf@f_string
  4455   003728  22DA               	addwfc	fsr2h,f,c
  4456   00372A  C5AA  F502         	movff	LCDprintf@f_int,___awmod@dividend
  4457   00372E  C5AB  F503         	movff	LCDprintf@f_int+1,___awmod@dividend+1
  4458   003732  0E00               	movlw	0
  4459   003734  6E05               	movwf	(___awmod@divisor+1)^(0+1280),c
  4460   003736  0E0A               	movlw	10
  4461   003738  6E04               	movwf	___awmod@divisor^(0+1280),c
  4462   00373A  ECD9  F022         	call	___awmod	;wreg free
  4463   00373E  5002               	movf	?___awmod^(0+1280),w,c
  4464   003740  0F30               	addlw	48
  4465   003742  6EDF               	movwf	indf2,c
  4466   003744                     
  4467                           ;C:/Users/a_hui/OneDrive - Camosun College/term2/ecet165_embedded_mc/labs/ecet165-labs/l
      +                          ab6/lcd18f.c: 194:                     f_int /= 10;
  4468   003744  C5AA  F502         	movff	LCDprintf@f_int,___awdiv@dividend
  4469   003748  C5AB  F503         	movff	LCDprintf@f_int+1,___awdiv@dividend+1
  4470   00374C  0E00               	movlw	0
  4471   00374E  6E05               	movwf	(___awdiv@divisor+1)^(0+1280),c
  4472   003750  0E0A               	movlw	10
  4473   003752  6E04               	movwf	___awdiv@divisor^(0+1280),c
  4474   003754  EC77  F022         	call	___awdiv	;wreg free
  4475   003758  C502  F5AA         	movff	?___awdiv,LCDprintf@f_int
  4476   00375C  C503  F5AB         	movff	?___awdiv+1,LCDprintf@f_int+1
  4477   003760                     l3011:
  4478                           
  4479                           ;C:/Users/a_hui/OneDrive - Camosun College/term2/ecet165_embedded_mc/labs/ecet165-labs/l
      +                          ab6/lcd18f.c: 196:                 indexer--;
  4480   003760  0105               	movlb	5	; () banked
  4481   003762  07AC               	decf	LCDprintf@indexer& (0+255),f,b
  4482   003764                     l3013:
  4483                           
  4484                           ; BSR set to: 5
  4485                           ;C:/Users/a_hui/OneDrive - Camosun College/term2/ecet165_embedded_mc/labs/ecet165-labs/l
      +                          ab6/lcd18f.c: 187:             while(indexer > -1){
  4486   003764  BFAC               	btfsc	LCDprintf@indexer& (0+255),7,b
  4487   003766  EFB9  F01B         	goto	u2590
  4488   00376A  EFB7  F01B         	goto	u2591
  4489   00376E                     u2591:
  4490   00376E  EF5F  F01B         	goto	l3003
  4491   003772                     u2590:
  4492   003772                     
  4493                           ; BSR set to: 5
  4494                           ;C:/Users/a_hui/OneDrive - Camosun College/term2/ecet165_embedded_mc/labs/ecet165-labs/l
      +                          ab6/lcd18f.c: 199:             LCDprints(f_string);
  4495   003772  0E91               	movlw	low LCDprintf@f_string
  4496   003774  6E13               	movwf	LCDprints@c^(0+1280),c
  4497   003776  0E05               	movlw	high LCDprintf@f_string
  4498   003778  6E14               	movwf	(LCDprints@c+1)^(0+1280),c
  4499   00377A  EC4D  F024         	call	_LCDprints	;wreg free
  4500   00377E                     
  4501                           ;C:/Users/a_hui/OneDrive - Camosun College/term2/ecet165_embedded_mc/labs/ecet165-labs/l
      +                          ab6/lcd18f.c: 201:             shell+=4;
  4502   00377E  0E04               	movlw	4
  4503   003780  0105               	movlb	5	; () banked
  4504   003782  2780               	addwf	LCDprintf@shell& (0+255),f,b
  4505   003784  0E00               	movlw	0
  4506   003786  2381               	addwfc	(LCDprintf@shell+1)& (0+255),f,b
  4507                           
  4508                           ;C:/Users/a_hui/OneDrive - Camosun College/term2/ecet165_embedded_mc/labs/ecet165-labs/l
      +                          ab6/lcd18f.c: 202:         }else{
  4509   003788  EFD2  F01B         	goto	l3023
  4510   00378C                     l3019:
  4511                           
  4512                           ; BSR set to: 5
  4513                           ;C:/Users/a_hui/OneDrive - Camosun College/term2/ecet165_embedded_mc/labs/ecet165-labs/l
      +                          ab6/lcd18f.c: 204:             LCDprintc(*shell++);
  4514   00378C  C580  F4F6         	movff	LCDprintf@shell,tblptrl
  4515   003790  C581  F4F7         	movff	LCDprintf@shell+1,tblptrh
  4516   003794                     	if	0	;tblptru may be non-zero
  4517   003794                     	endif
  4518   003794                     	if	1	;Program memory is > 0xFFFF, there are 3 active tblptr bytes
  4519   003794  0E00               	movlw	low (__mediumconst shr (0+16))
  4520   003796  6EF8               	movwf	tblptru,c
  4521   003798                     	endif
  4522   003798  0008               	tblrd		*
  4523   00379A  50F5               	movf	tablat,w,c
  4524   00379C  EC31  F023         	call	_LCDprintc
  4525   0037A0  EF2A  F01A         	goto	l2959
  4526   0037A4                     l3023:
  4527                           
  4528                           ; BSR set to: 5
  4529                           ;C:/Users/a_hui/OneDrive - Camosun College/term2/ecet165_embedded_mc/labs/ecet165-labs/l
      +                          ab6/lcd18f.c: 152:     while(*shell != 0x0){
  4530   0037A4  C580  F4F6         	movff	LCDprintf@shell,tblptrl
  4531   0037A8  C581  F4F7         	movff	LCDprintf@shell+1,tblptrh
  4532   0037AC                     	if	0	;tblptru may be non-zero
  4533   0037AC                     	endif
  4534   0037AC                     	if	1	;Program memory is > 0xFFFF, there are 3 active tblptr bytes
  4535   0037AC  0E00               	movlw	low (__mediumconst shr (0+16))
  4536   0037AE  6EF8               	movwf	tblptru,c
  4537   0037B0                     	endif
  4538   0037B0  0008               	tblrd		*
  4539   0037B2  50F5               	movf	tablat,w,c
  4540   0037B4  0900               	iorlw	0
  4541   0037B6  A4D8               	btfss	status,2,c
  4542   0037B8  EFE0  F01B         	goto	u2601
  4543   0037BC  EFE2  F01B         	goto	u2600
  4544   0037C0                     u2601:
  4545   0037C0  EF10  F01A         	goto	l2955
  4546   0037C4                     u2600:
  4547   0037C4                     
  4548                           ; BSR set to: 5
  4549   0037C4  0012               	return		;funcret
  4550   0037C6                     __end_of_LCDprintf:
  4551                           	callstack 0
  4552                           
  4553 ;; *************** function _toString *****************
  4554 ;; Defined at:
  4555 ;;		line 133 in file "C:/Users/a_hui/OneDrive - Camosun College/term2/ecet165_embedded_mc/labs/ecet165-labs/lab6/lcd18f.
      +c"
  4556 ;; Parameters:    Size  Location     Type
  4557 ;;  number          2    8[COMRAM] unsigned int 
  4558 ;;  length          1   10[COMRAM] unsigned char 
  4559 ;; Auto vars:     Size  Location     Type
  4560 ;;  i               1   17[COMRAM] char 
  4561 ;;  string          6   11[COMRAM] unsigned char [6]
  4562 ;; Return value:  Size  Location     Type
  4563 ;;                  2    8[COMRAM] PTR unsigned char 
  4564 ;; Registers used:
  4565 ;;		wreg, fsr2l, fsr2h, status,2, status,0, cstack
  4566 ;; Tracked objects:
  4567 ;;		On entry : 0/0
  4568 ;;		On exit  : 0/0
  4569 ;;		Unchanged: 0/0
  4570 ;; Data sizes:     COMRAM   BANK5   BANK6   BANK7   BANK8   BANK9  BANK10  BANK11  BANK12  BANK13  BANK14  BANK15  BANK1
      +6  BANK17  BANK18  BANK19  BANK20  BANK21  BANK22  BANK23  BANK24  BANK25  BANK26  BANK27  BANK28  BANK29  BANK30  BANK3
      +1  BANK32  BANK33  BANK34  BANK35  BANK36
  4571 ;;      Params:         3       0       0       0       0       0       0       0       0       0       0       0       
      +0       0       0       0       0       0       0       0       0       0       0       0       0       0       0       
      +0       0       0       0       0       0
  4572 ;;      Locals:         7       0       0       0       0       0       0       0       0       0       0       0       
      +0       0       0       0       0       0       0       0       0       0       0       0       0       0       0       
      +0       0       0       0       0       0
  4573 ;;      Temps:          0       0       0       0       0       0       0       0       0       0       0       0       
      +0       0       0       0       0       0       0       0       0       0       0       0       0       0       0       
      +0       0       0       0       0       0
  4574 ;;      Totals:        10       0       0       0       0       0       0       0       0       0       0       0       
      +0       0       0       0       0       0       0       0       0       0       0       0       0       0       0       
      +0       0       0       0       0       0
  4575 ;;Total ram usage:       10 bytes
  4576 ;; Hardware stack levels used: 1
  4577 ;; Hardware stack levels required when called: 3
  4578 ;; This function calls:
  4579 ;;		___lwdiv
  4580 ;;		___lwmod
  4581 ;; This function is called by:
  4582 ;;		_LCDprintf
  4583 ;; This function uses a non-reentrant model
  4584 ;;
  4585                           
  4586                           	psect	text11
  4587   0046DA                     __ptext11:
  4588                           	callstack 0
  4589   0046DA                     _toString:
  4590                           	callstack 121
  4591   0046DA                     
  4592                           ;C:/Users/a_hui/OneDrive - Camosun College/term2/ecet165_embedded_mc/labs/ecet165-labs/l
      +                          ab6/lcd18f.c: 134:     char string[6] = "";
  4593   0046DA  EE21  F10C         	lfsr	2,toString@string
  4594   0046DE  0E05               	movlw	5
  4595   0046E0                     u1721:
  4596   0046E0  6ADE               	clrf	postinc2,c
  4597   0046E2  06E8               	decf	wreg,f,c
  4598   0046E4  E2FD               	bc	u1721
  4599   0046E6                     
  4600                           ;C:/Users/a_hui/OneDrive - Camosun College/term2/ecet165_embedded_mc/labs/ecet165-labs/l
      +                          ab6/lcd18f.c: 136:     for(signed char i = length-1; i > -1; i--){
  4601   0046E6  040B               	decf	toString@length^(0+1280),w,c
  4602   0046E8  6E12               	movwf	toString@i^(0+1280),c
  4603   0046EA                     l2447:
  4604   0046EA  BE12               	btfsc	toString@i^(0+1280),7,c
  4605   0046EC  EF7C  F023         	goto	u1730
  4606   0046F0  EF7A  F023         	goto	u1731
  4607   0046F4                     u1731:
  4608   0046F4  EF7E  F023         	goto	l2451
  4609   0046F8                     u1730:
  4610   0046F8  EFA2  F023         	goto	l2459
  4611   0046FC                     l2451:
  4612                           
  4613                           ;C:/Users/a_hui/OneDrive - Camosun College/term2/ecet165_embedded_mc/labs/ecet165-labs/l
      +                          ab6/lcd18f.c: 137:         string[i] = (number % 10) + '0';
  4614   0046FC  0E0C               	movlw	low toString@string
  4615   0046FE  2412               	addwf	toString@i^(0+1280),w,c
  4616   004700  6ED9               	movwf	fsr2l,c
  4617   004702  6ADA               	clrf	fsr2h,c
  4618   004704  0E05               	movlw	high toString@string
  4619   004706  22DA               	addwfc	fsr2h,f,c
  4620   004708  C509  F502         	movff	toString@number,___lwmod@dividend
  4621   00470C  C50A  F503         	movff	toString@number+1,___lwmod@dividend+1
  4622   004710  0E00               	movlw	0
  4623   004712  6E05               	movwf	(___lwmod@divisor+1)^(0+1280),c
  4624   004714  0E0A               	movlw	10
  4625   004716  6E04               	movwf	___lwmod@divisor^(0+1280),c
  4626   004718  EC1B  F024         	call	___lwmod	;wreg free
  4627   00471C  5002               	movf	?___lwmod^(0+1280),w,c
  4628   00471E  0F30               	addlw	48
  4629   004720  6EDF               	movwf	indf2,c
  4630   004722                     
  4631                           ;C:/Users/a_hui/OneDrive - Camosun College/term2/ecet165_embedded_mc/labs/ecet165-labs/l
      +                          ab6/lcd18f.c: 138:         number /= 10;
  4632   004722  C509  F502         	movff	toString@number,___lwdiv@dividend
  4633   004726  C50A  F503         	movff	toString@number+1,___lwdiv@dividend+1
  4634   00472A  0E00               	movlw	0
  4635   00472C  6E05               	movwf	(___lwdiv@divisor+1)^(0+1280),c
  4636   00472E  0E0A               	movlw	10
  4637   004730  6E04               	movwf	___lwdiv@divisor^(0+1280),c
  4638   004732  ECA7  F023         	call	___lwdiv	;wreg free
  4639   004736  C502  F509         	movff	?___lwdiv,toString@number
  4640   00473A  C503  F50A         	movff	?___lwdiv+1,toString@number+1
  4641   00473E                     
  4642                           ;C:/Users/a_hui/OneDrive - Camosun College/term2/ecet165_embedded_mc/labs/ecet165-labs/l
      +                          ab6/lcd18f.c: 139:     };
  4643   00473E  0612               	decf	toString@i^(0+1280),f,c
  4644   004740  EF75  F023         	goto	l2447
  4645   004744                     l2459:
  4646                           
  4647                           ;C:/Users/a_hui/OneDrive - Camosun College/term2/ecet165_embedded_mc/labs/ecet165-labs/l
      +                          ab6/lcd18f.c: 140:     return &string;
  4648   004744  0E0C               	movlw	low toString@string
  4649   004746  6E09               	movwf	?_toString^(0+1280),c
  4650   004748  0E05               	movlw	high toString@string
  4651   00474A  6E0A               	movwf	(?_toString+1)^(0+1280),c
  4652   00474C  0012               	return		;funcret
  4653   00474E                     __end_of_toString:
  4654                           	callstack 0
  4655                           
  4656 ;; *************** function ___lwmod *****************
  4657 ;; Defined at:
  4658 ;;		line 7 in file "C:\Program Files\Microchip\xc8\v2.40\pic\sources\c99\common\lwmod.c"
  4659 ;; Parameters:    Size  Location     Type
  4660 ;;  dividend        2    1[COMRAM] unsigned int 
  4661 ;;  divisor         2    3[COMRAM] unsigned int 
  4662 ;; Auto vars:     Size  Location     Type
  4663 ;;  counter         1    5[COMRAM] unsigned char 
  4664 ;; Return value:  Size  Location     Type
  4665 ;;                  2    1[COMRAM] unsigned int 
  4666 ;; Registers used:
  4667 ;;		wreg, status,2, status,0
  4668 ;; Tracked objects:
  4669 ;;		On entry : 0/0
  4670 ;;		On exit  : 0/0
  4671 ;;		Unchanged: 0/0
  4672 ;; Data sizes:     COMRAM   BANK5   BANK6   BANK7   BANK8   BANK9  BANK10  BANK11  BANK12  BANK13  BANK14  BANK15  BANK1
      +6  BANK17  BANK18  BANK19  BANK20  BANK21  BANK22  BANK23  BANK24  BANK25  BANK26  BANK27  BANK28  BANK29  BANK30  BANK3
      +1  BANK32  BANK33  BANK34  BANK35  BANK36
  4673 ;;      Params:         4       0       0       0       0       0       0       0       0       0       0       0       
      +0       0       0       0       0       0       0       0       0       0       0       0       0       0       0       
      +0       0       0       0       0       0
  4674 ;;      Locals:         1       0       0       0       0       0       0       0       0       0       0       0       
      +0       0       0       0       0       0       0       0       0       0       0       0       0       0       0       
      +0       0       0       0       0       0
  4675 ;;      Temps:          0       0       0       0       0       0       0       0       0       0       0       0       
      +0       0       0       0       0       0       0       0       0       0       0       0       0       0       0       
      +0       0       0       0       0       0
  4676 ;;      Totals:         5       0       0       0       0       0       0       0       0       0       0       0       
      +0       0       0       0       0       0       0       0       0       0       0       0       0       0       0       
      +0       0       0       0       0       0
  4677 ;;Total ram usage:        5 bytes
  4678 ;; Hardware stack levels used: 1
  4679 ;; Hardware stack levels required when called: 2
  4680 ;; This function calls:
  4681 ;;		Nothing
  4682 ;; This function is called by:
  4683 ;;		_toString
  4684 ;; This function uses a non-reentrant model
  4685 ;;
  4686                           
  4687                           	psect	text12
  4688   004836                     __ptext12:
  4689                           	callstack 0
  4690   004836                     ___lwmod:
  4691                           	callstack 121
  4692   004836  5004               	movf	___lwmod@divisor^(0+1280),w,c
  4693   004838  1005               	iorwf	(___lwmod@divisor+1)^(0+1280),w,c
  4694   00483A  B4D8               	btfsc	status,2,c
  4695   00483C  EF22  F024         	goto	u1681
  4696   004840  EF24  F024         	goto	u1680
  4697   004844                     u1681:
  4698   004844  EF48  F024         	goto	l781
  4699   004848                     u1680:
  4700   004848  0E01               	movlw	1
  4701   00484A  6E06               	movwf	___lwmod@counter^(0+1280),c
  4702   00484C  EF2C  F024         	goto	l2413
  4703   004850                     l2411:
  4704   004850  90D8               	bcf	status,0,c
  4705   004852  3604               	rlcf	___lwmod@divisor^(0+1280),f,c
  4706   004854  3605               	rlcf	(___lwmod@divisor+1)^(0+1280),f,c
  4707   004856  2A06               	incf	___lwmod@counter^(0+1280),f,c
  4708   004858                     l2413:
  4709   004858  AE05               	btfss	(___lwmod@divisor+1)^(0+1280),7,c
  4710   00485A  EF31  F024         	goto	u1691
  4711   00485E  EF33  F024         	goto	u1690
  4712   004862                     u1691:
  4713   004862  EF28  F024         	goto	l2411
  4714   004866                     u1690:
  4715   004866                     l2415:
  4716   004866  5004               	movf	___lwmod@divisor^(0+1280),w,c
  4717   004868  5C02               	subwf	___lwmod@dividend^(0+1280),w,c
  4718   00486A  5005               	movf	(___lwmod@divisor+1)^(0+1280),w,c
  4719   00486C  5803               	subwfb	(___lwmod@dividend+1)^(0+1280),w,c
  4720   00486E  A0D8               	btfss	status,0,c
  4721   004870  EF3C  F024         	goto	u1701
  4722   004874  EF3E  F024         	goto	u1700
  4723   004878                     u1701:
  4724   004878  EF42  F024         	goto	l2419
  4725   00487C                     u1700:
  4726   00487C  5004               	movf	___lwmod@divisor^(0+1280),w,c
  4727   00487E  5E02               	subwf	___lwmod@dividend^(0+1280),f,c
  4728   004880  5005               	movf	(___lwmod@divisor+1)^(0+1280),w,c
  4729   004882  5A03               	subwfb	(___lwmod@dividend+1)^(0+1280),f,c
  4730   004884                     l2419:
  4731   004884  90D8               	bcf	status,0,c
  4732   004886  3205               	rrcf	(___lwmod@divisor+1)^(0+1280),f,c
  4733   004888  3204               	rrcf	___lwmod@divisor^(0+1280),f,c
  4734   00488A  2E06               	decfsz	___lwmod@counter^(0+1280),f,c
  4735   00488C  EF33  F024         	goto	l2415
  4736   004890                     l781:
  4737   004890  C502  F502         	movff	___lwmod@dividend,?___lwmod
  4738   004894  C503  F503         	movff	___lwmod@dividend+1,?___lwmod+1
  4739   004898  0012               	return		;funcret
  4740   00489A                     __end_of___lwmod:
  4741                           	callstack 0
  4742                           
  4743 ;; *************** function ___lwdiv *****************
  4744 ;; Defined at:
  4745 ;;		line 7 in file "C:\Program Files\Microchip\xc8\v2.40\pic\sources\c99\common\lwdiv.c"
  4746 ;; Parameters:    Size  Location     Type
  4747 ;;  dividend        2    1[COMRAM] unsigned int 
  4748 ;;  divisor         2    3[COMRAM] unsigned int 
  4749 ;; Auto vars:     Size  Location     Type
  4750 ;;  quotient        2    5[COMRAM] unsigned int 
  4751 ;;  counter         1    7[COMRAM] unsigned char 
  4752 ;; Return value:  Size  Location     Type
  4753 ;;                  2    1[COMRAM] unsigned int 
  4754 ;; Registers used:
  4755 ;;		wreg, status,2, status,0
  4756 ;; Tracked objects:
  4757 ;;		On entry : 0/0
  4758 ;;		On exit  : 0/0
  4759 ;;		Unchanged: 0/0
  4760 ;; Data sizes:     COMRAM   BANK5   BANK6   BANK7   BANK8   BANK9  BANK10  BANK11  BANK12  BANK13  BANK14  BANK15  BANK1
      +6  BANK17  BANK18  BANK19  BANK20  BANK21  BANK22  BANK23  BANK24  BANK25  BANK26  BANK27  BANK28  BANK29  BANK30  BANK3
      +1  BANK32  BANK33  BANK34  BANK35  BANK36
  4761 ;;      Params:         4       0       0       0       0       0       0       0       0       0       0       0       
      +0       0       0       0       0       0       0       0       0       0       0       0       0       0       0       
      +0       0       0       0       0       0
  4762 ;;      Locals:         3       0       0       0       0       0       0       0       0       0       0       0       
      +0       0       0       0       0       0       0       0       0       0       0       0       0       0       0       
      +0       0       0       0       0       0
  4763 ;;      Temps:          0       0       0       0       0       0       0       0       0       0       0       0       
      +0       0       0       0       0       0       0       0       0       0       0       0       0       0       0       
      +0       0       0       0       0       0
  4764 ;;      Totals:         7       0       0       0       0       0       0       0       0       0       0       0       
      +0       0       0       0       0       0       0       0       0       0       0       0       0       0       0       
      +0       0       0       0       0       0
  4765 ;;Total ram usage:        7 bytes
  4766 ;; Hardware stack levels used: 1
  4767 ;; Hardware stack levels required when called: 2
  4768 ;; This function calls:
  4769 ;;		Nothing
  4770 ;; This function is called by:
  4771 ;;		_toString
  4772 ;; This function uses a non-reentrant model
  4773 ;;
  4774                           
  4775                           	psect	text13
  4776   00474E                     __ptext13:
  4777                           	callstack 0
  4778   00474E                     ___lwdiv:
  4779                           	callstack 121
  4780   00474E  0E00               	movlw	0
  4781   004750  6E07               	movwf	(___lwdiv@quotient+1)^(0+1280),c
  4782   004752  0E00               	movlw	0
  4783   004754  6E06               	movwf	___lwdiv@quotient^(0+1280),c
  4784   004756  5004               	movf	___lwdiv@divisor^(0+1280),w,c
  4785   004758  1005               	iorwf	(___lwdiv@divisor+1)^(0+1280),w,c
  4786   00475A  B4D8               	btfsc	status,2,c
  4787   00475C  EFB2  F023         	goto	u1651
  4788   004760  EFB4  F023         	goto	u1650
  4789   004764                     u1651:
  4790   004764  EFDC  F023         	goto	l771
  4791   004768                     u1650:
  4792   004768  0E01               	movlw	1
  4793   00476A  6E08               	movwf	___lwdiv@counter^(0+1280),c
  4794   00476C  EFBC  F023         	goto	l2393
  4795   004770                     l2391:
  4796   004770  90D8               	bcf	status,0,c
  4797   004772  3604               	rlcf	___lwdiv@divisor^(0+1280),f,c
  4798   004774  3605               	rlcf	(___lwdiv@divisor+1)^(0+1280),f,c
  4799   004776  2A08               	incf	___lwdiv@counter^(0+1280),f,c
  4800   004778                     l2393:
  4801   004778  AE05               	btfss	(___lwdiv@divisor+1)^(0+1280),7,c
  4802   00477A  EFC1  F023         	goto	u1661
  4803   00477E  EFC3  F023         	goto	u1660
  4804   004782                     u1661:
  4805   004782  EFB8  F023         	goto	l2391
  4806   004786                     u1660:
  4807   004786                     l2395:
  4808   004786  90D8               	bcf	status,0,c
  4809   004788  3606               	rlcf	___lwdiv@quotient^(0+1280),f,c
  4810   00478A  3607               	rlcf	(___lwdiv@quotient+1)^(0+1280),f,c
  4811   00478C  5004               	movf	___lwdiv@divisor^(0+1280),w,c
  4812   00478E  5C02               	subwf	___lwdiv@dividend^(0+1280),w,c
  4813   004790  5005               	movf	(___lwdiv@divisor+1)^(0+1280),w,c
  4814   004792  5803               	subwfb	(___lwdiv@dividend+1)^(0+1280),w,c
  4815   004794  A0D8               	btfss	status,0,c
  4816   004796  EFCF  F023         	goto	u1671
  4817   00479A  EFD1  F023         	goto	u1670
  4818   00479E                     u1671:
  4819   00479E  EFD6  F023         	goto	l2403
  4820   0047A2                     u1670:
  4821   0047A2  5004               	movf	___lwdiv@divisor^(0+1280),w,c
  4822   0047A4  5E02               	subwf	___lwdiv@dividend^(0+1280),f,c
  4823   0047A6  5005               	movf	(___lwdiv@divisor+1)^(0+1280),w,c
  4824   0047A8  5A03               	subwfb	(___lwdiv@dividend+1)^(0+1280),f,c
  4825   0047AA  8006               	bsf	___lwdiv@quotient^(0+1280),0,c
  4826   0047AC                     l2403:
  4827   0047AC  90D8               	bcf	status,0,c
  4828   0047AE  3205               	rrcf	(___lwdiv@divisor+1)^(0+1280),f,c
  4829   0047B0  3204               	rrcf	___lwdiv@divisor^(0+1280),f,c
  4830   0047B2  2E08               	decfsz	___lwdiv@counter^(0+1280),f,c
  4831   0047B4  EFC3  F023         	goto	l2395
  4832   0047B8                     l771:
  4833   0047B8  C506  F502         	movff	___lwdiv@quotient,?___lwdiv
  4834   0047BC  C507  F503         	movff	___lwdiv@quotient+1,?___lwdiv+1
  4835   0047C0  0012               	return		;funcret
  4836   0047C2                     __end_of___lwdiv:
  4837                           	callstack 0
  4838                           
  4839 ;; *************** function ___fltol *****************
  4840 ;; Defined at:
  4841 ;;		line 43 in file "C:\Program Files\Microchip\xc8\v2.40\pic\sources\c99\common\fltol.c"
  4842 ;; Parameters:    Size  Location     Type
  4843 ;;  f1              4   22[BANK5 ] unsigned int 
  4844 ;; Auto vars:     Size  Location     Type
  4845 ;;  exp1            1   31[BANK5 ] unsigned char 
  4846 ;;  sign1           1   30[BANK5 ] unsigned char 
  4847 ;; Return value:  Size  Location     Type
  4848 ;;                  4   22[BANK5 ] long 
  4849 ;; Registers used:
  4850 ;;		wreg, status,2, status,0
  4851 ;; Tracked objects:
  4852 ;;		On entry : 0/0
  4853 ;;		On exit  : 0/0
  4854 ;;		Unchanged: 0/0
  4855 ;; Data sizes:     COMRAM   BANK5   BANK6   BANK7   BANK8   BANK9  BANK10  BANK11  BANK12  BANK13  BANK14  BANK15  BANK1
      +6  BANK17  BANK18  BANK19  BANK20  BANK21  BANK22  BANK23  BANK24  BANK25  BANK26  BANK27  BANK28  BANK29  BANK30  BANK3
      +1  BANK32  BANK33  BANK34  BANK35  BANK36
  4856 ;;      Params:         0       4       0       0       0       0       0       0       0       0       0       0       
      +0       0       0       0       0       0       0       0       0       0       0       0       0       0       0       
      +0       0       0       0       0       0
  4857 ;;      Locals:         0       2       0       0       0       0       0       0       0       0       0       0       
      +0       0       0       0       0       0       0       0       0       0       0       0       0       0       0       
      +0       0       0       0       0       0
  4858 ;;      Temps:          0       4       0       0       0       0       0       0       0       0       0       0       
      +0       0       0       0       0       0       0       0       0       0       0       0       0       0       0       
      +0       0       0       0       0       0
  4859 ;;      Totals:         0      10       0       0       0       0       0       0       0       0       0       0       
      +0       0       0       0       0       0       0       0       0       0       0       0       0       0       0       
      +0       0       0       0       0       0
  4860 ;;Total ram usage:       10 bytes
  4861 ;; Hardware stack levels used: 1
  4862 ;; Hardware stack levels required when called: 2
  4863 ;; This function calls:
  4864 ;;		Nothing
  4865 ;; This function is called by:
  4866 ;;		_LCDprintf
  4867 ;;		_main
  4868 ;; This function uses a non-reentrant model
  4869 ;;
  4870                           
  4871                           	psect	text14
  4872   0041F8                     __ptext14:
  4873                           	callstack 0
  4874   0041F8                     ___fltol:
  4875                           	callstack 124
  4876   0041F8  0105               	movlb	5	; () banked
  4877   0041FA  3578               	rlcf	(___fltol@f1+2)& (0+255),w,b
  4878   0041FC  3579               	rlcf	(___fltol@f1+3)& (0+255),w,b
  4879   0041FE  6F7F               	movwf	___fltol@exp1& (0+255),b
  4880   004200  517F               	movf	___fltol@exp1& (0+255),w,b
  4881   004202  A4D8               	btfss	status,2,c
  4882   004204  EF06  F021         	goto	u2441
  4883   004208  EF08  F021         	goto	u2440
  4884   00420C                     u2441:
  4885   00420C  EF12  F021         	goto	l2881
  4886   004210                     u2440:
  4887   004210                     l2877:
  4888                           
  4889                           ; BSR set to: 5
  4890   004210  0E00               	movlw	0
  4891   004212  6F76               	movwf	?___fltol& (0+255),b
  4892   004214  0E00               	movlw	0
  4893   004216  6F77               	movwf	(?___fltol+1)& (0+255),b
  4894   004218  0E00               	movlw	0
  4895   00421A  6F78               	movwf	(?___fltol+2)& (0+255),b
  4896   00421C  0E00               	movlw	0
  4897   00421E  6F79               	movwf	(?___fltol+3)& (0+255),b
  4898   004220  EF7F  F021         	goto	l577
  4899   004224                     l2881:
  4900                           
  4901                           ; BSR set to: 5
  4902   004224  C576  F57A         	movff	___fltol@f1,??___fltol
  4903   004228  C577  F57B         	movff	___fltol@f1+1,??___fltol+1
  4904   00422C  C578  F57C         	movff	___fltol@f1+2,??___fltol+2
  4905   004230  C579  F57D         	movff	___fltol@f1+3,??___fltol+3
  4906   004234  0E20               	movlw	32
  4907   004236  EF22  F021         	goto	u2450
  4908   00423A                     u2455:
  4909   00423A  90D8               	bcf	status,0,c
  4910   00423C  337D               	rrcf	(??___fltol+3)& (0+255),f,b
  4911   00423E  337C               	rrcf	(??___fltol+2)& (0+255),f,b
  4912   004240  337B               	rrcf	(??___fltol+1)& (0+255),f,b
  4913   004242  337A               	rrcf	??___fltol& (0+255),f,b
  4914   004244                     u2450:
  4915   004244  2EE8               	decfsz	wreg,f,c
  4916   004246  EF1D  F021         	goto	u2455
  4917   00424A  517A               	movf	??___fltol& (0+255),w,b
  4918   00424C  6F7E               	movwf	___fltol@sign1& (0+255),b
  4919   00424E                     
  4920                           ; BSR set to: 5
  4921   00424E  8F78               	bsf	(___fltol@f1+2)& (0+255),7,b
  4922   004250                     
  4923                           ; BSR set to: 5
  4924   004250  0EFF               	movlw	255
  4925   004252  1776               	andwf	___fltol@f1& (0+255),f,b
  4926   004254  0EFF               	movlw	255
  4927   004256  1777               	andwf	(___fltol@f1+1)& (0+255),f,b
  4928   004258  0EFF               	movlw	255
  4929   00425A  1778               	andwf	(___fltol@f1+2)& (0+255),f,b
  4930   00425C  0E00               	movlw	0
  4931   00425E  1779               	andwf	(___fltol@f1+3)& (0+255),f,b
  4932   004260                     
  4933                           ; BSR set to: 5
  4934   004260  0E96               	movlw	150
  4935   004262  5F7F               	subwf	___fltol@exp1& (0+255),f,b
  4936   004264                     
  4937                           ; BSR set to: 5
  4938   004264  BF7F               	btfsc	___fltol@exp1& (0+255),7,b
  4939   004266  EF39  F021         	goto	u2460
  4940   00426A  EF37  F021         	goto	u2461
  4941   00426E                     u2461:
  4942   00426E  EF4F  F021         	goto	l2901
  4943   004272                     u2460:
  4944   004272                     
  4945                           ; BSR set to: 5
  4946   004272  517F               	movf	___fltol@exp1& (0+255),w,b
  4947   004274  0A80               	xorlw	128
  4948   004276  0F97               	addlw	151
  4949   004278  B0D8               	btfsc	status,0,c
  4950   00427A  EF41  F021         	goto	u2471
  4951   00427E  EF43  F021         	goto	u2470
  4952   004282                     u2471:
  4953   004282  EF45  F021         	goto	l2897
  4954   004286                     u2470:
  4955   004286  EF08  F021         	goto	l2877
  4956   00428A                     l2897:
  4957                           
  4958                           ; BSR set to: 5
  4959   00428A  90D8               	bcf	status,0,c
  4960   00428C  3379               	rrcf	(___fltol@f1+3)& (0+255),f,b
  4961   00428E  3378               	rrcf	(___fltol@f1+2)& (0+255),f,b
  4962   004290  3377               	rrcf	(___fltol@f1+1)& (0+255),f,b
  4963   004292  3376               	rrcf	___fltol@f1& (0+255),f,b
  4964   004294                     
  4965                           ; BSR set to: 5
  4966   004294  3F7F               	incfsz	___fltol@exp1& (0+255),f,b
  4967   004296  EF45  F021         	goto	l2897
  4968   00429A  EF67  F021         	goto	l2911
  4969   00429E                     l2901:
  4970                           
  4971                           ; BSR set to: 5
  4972   00429E  0E1F               	movlw	31
  4973   0042A0  657F               	cpfsgt	___fltol@exp1& (0+255),b
  4974   0042A2  EF55  F021         	goto	u2481
  4975   0042A6  EF57  F021         	goto	u2480
  4976   0042AA                     u2481:
  4977   0042AA  EF5F  F021         	goto	l2909
  4978   0042AE                     u2480:
  4979   0042AE  EF08  F021         	goto	l2877
  4980   0042B2                     l2907:
  4981                           
  4982                           ; BSR set to: 5
  4983   0042B2  90D8               	bcf	status,0,c
  4984   0042B4  3776               	rlcf	___fltol@f1& (0+255),f,b
  4985   0042B6  3777               	rlcf	(___fltol@f1+1)& (0+255),f,b
  4986   0042B8  3778               	rlcf	(___fltol@f1+2)& (0+255),f,b
  4987   0042BA  3779               	rlcf	(___fltol@f1+3)& (0+255),f,b
  4988   0042BC  077F               	decf	___fltol@exp1& (0+255),f,b
  4989   0042BE                     l2909:
  4990                           
  4991                           ; BSR set to: 5
  4992   0042BE  517F               	movf	___fltol@exp1& (0+255),w,b
  4993   0042C0  A4D8               	btfss	status,2,c
  4994   0042C2  EF65  F021         	goto	u2491
  4995   0042C6  EF67  F021         	goto	u2490
  4996   0042CA                     u2491:
  4997   0042CA  EF59  F021         	goto	l2907
  4998   0042CE                     u2490:
  4999   0042CE                     l2911:
  5000                           
  5001                           ; BSR set to: 5
  5002   0042CE  517E               	movf	___fltol@sign1& (0+255),w,b
  5003   0042D0  B4D8               	btfsc	status,2,c
  5004   0042D2  EF6D  F021         	goto	u2501
  5005   0042D6  EF6F  F021         	goto	u2500
  5006   0042DA                     u2501:
  5007   0042DA  EF77  F021         	goto	l2915
  5008   0042DE                     u2500:
  5009   0042DE                     
  5010                           ; BSR set to: 5
  5011   0042DE  1F79               	comf	(___fltol@f1+3)& (0+255),f,b
  5012   0042E0  1F78               	comf	(___fltol@f1+2)& (0+255),f,b
  5013   0042E2  1F77               	comf	(___fltol@f1+1)& (0+255),f,b
  5014   0042E4  6D76               	negf	___fltol@f1& (0+255),b
  5015   0042E6  0E00               	movlw	0
  5016   0042E8  2377               	addwfc	(___fltol@f1+1)& (0+255),f,b
  5017   0042EA  2378               	addwfc	(___fltol@f1+2)& (0+255),f,b
  5018   0042EC  2379               	addwfc	(___fltol@f1+3)& (0+255),f,b
  5019   0042EE                     l2915:
  5020                           
  5021                           ; BSR set to: 5
  5022   0042EE  C576  F576         	movff	___fltol@f1,?___fltol
  5023   0042F2  C577  F577         	movff	___fltol@f1+1,?___fltol+1
  5024   0042F6  C578  F578         	movff	___fltol@f1+2,?___fltol+2
  5025   0042FA  C579  F579         	movff	___fltol@f1+3,?___fltol+3
  5026   0042FE                     l577:
  5027                           
  5028                           ; BSR set to: 5
  5029   0042FE  0012               	return		;funcret
  5030   004300                     __end_of___fltol:
  5031                           	callstack 0
  5032                           
  5033 ;; *************** function ___flmul *****************
  5034 ;; Defined at:
  5035 ;;		line 8 in file "C:\Program Files\Microchip\xc8\v2.40\pic\sources\c99\common\sprcmul.c"
  5036 ;; Parameters:    Size  Location     Type
  5037 ;;  b               4   64[COMRAM] long 
  5038 ;;  a               4   68[COMRAM] long 
  5039 ;; Auto vars:     Size  Location     Type
  5040 ;;  prod            4   83[COMRAM] struct .
  5041 ;;  grs             4   77[COMRAM] unsigned long 
  5042 ;;  temp            2   87[COMRAM] struct .
  5043 ;;  bexp            1   82[COMRAM] unsigned char 
  5044 ;;  aexp            1   81[COMRAM] unsigned char 
  5045 ;;  sign            1   76[COMRAM] unsigned char 
  5046 ;; Return value:  Size  Location     Type
  5047 ;;                  4   64[COMRAM] unsigned char 
  5048 ;; Registers used:
  5049 ;;		wreg, status,2, status,0, prodl, prodh
  5050 ;; Tracked objects:
  5051 ;;		On entry : 0/0
  5052 ;;		On exit  : 0/0
  5053 ;;		Unchanged: 0/0
  5054 ;; Data sizes:     COMRAM   BANK5   BANK6   BANK7   BANK8   BANK9  BANK10  BANK11  BANK12  BANK13  BANK14  BANK15  BANK1
      +6  BANK17  BANK18  BANK19  BANK20  BANK21  BANK22  BANK23  BANK24  BANK25  BANK26  BANK27  BANK28  BANK29  BANK30  BANK3
      +1  BANK32  BANK33  BANK34  BANK35  BANK36
  5055 ;;      Params:         8       0       0       0       0       0       0       0       0       0       0       0       
      +0       0       0       0       0       0       0       0       0       0       0       0       0       0       0       
      +0       0       0       0       0       0
  5056 ;;      Locals:        13       0       0       0       0       0       0       0       0       0       0       0       
      +0       0       0       0       0       0       0       0       0       0       0       0       0       0       0       
      +0       0       0       0       0       0
  5057 ;;      Temps:          4       0       0       0       0       0       0       0       0       0       0       0       
      +0       0       0       0       0       0       0       0       0       0       0       0       0       0       0       
      +0       0       0       0       0       0
  5058 ;;      Totals:        25       0       0       0       0       0       0       0       0       0       0       0       
      +0       0       0       0       0       0       0       0       0       0       0       0       0       0       0       
      +0       0       0       0       0       0
  5059 ;;Total ram usage:       25 bytes
  5060 ;; Hardware stack levels used: 1
  5061 ;; Hardware stack levels required when called: 2
  5062 ;; This function calls:
  5063 ;;		Nothing
  5064 ;; This function is called by:
  5065 ;;		_LCDprintf
  5066 ;;		_analogMap
  5067 ;; This function uses a non-reentrant model
  5068 ;;
  5069                           
  5070                           	psect	text15
  5071   002FE8                     __ptext15:
  5072                           	callstack 0
  5073   002FE8                     ___flmul:
  5074                           	callstack 123
  5075   002FE8  5044               	movf	(___flmul@b+3)^(0+1280),w,c
  5076   002FEA  0B80               	andlw	128
  5077   002FEC  6E4D               	movwf	___flmul@sign^(0+1280),c
  5078   002FEE  5044               	movf	(___flmul@b+3)^(0+1280),w,c
  5079   002FF0  2444               	addwf	(___flmul@b+3)^(0+1280),w,c
  5080   002FF2  6E53               	movwf	___flmul@bexp^(0+1280),c
  5081   002FF4  AE43               	btfss	(___flmul@b+2)^(0+1280),7,c
  5082   002FF6  EFFF  F017         	goto	u2131
  5083   002FFA  EF01  F018         	goto	u2130
  5084   002FFE                     u2131:
  5085   002FFE  EF02  F018         	goto	l2671
  5086   003002                     u2130:
  5087   003002  8053               	bsf	___flmul@bexp^(0+1280),0,c
  5088   003004                     l2671:
  5089   003004  5053               	movf	___flmul@bexp^(0+1280),w,c
  5090   003006  B4D8               	btfsc	status,2,c
  5091   003008  EF08  F018         	goto	u2141
  5092   00300C  EF0A  F018         	goto	u2140
  5093   003010                     u2141:
  5094   003010  EF1D  F018         	goto	l2679
  5095   003014                     u2140:
  5096   003014  2853               	incf	___flmul@bexp^(0+1280),w,c
  5097   003016  A4D8               	btfss	status,2,c
  5098   003018  EF10  F018         	goto	u2151
  5099   00301C  EF12  F018         	goto	u2150
  5100   003020                     u2151:
  5101   003020  EF1A  F018         	goto	l2677
  5102   003024                     u2150:
  5103   003024  0E00               	movlw	0
  5104   003026  6E41               	movwf	___flmul@b^(0+1280),c
  5105   003028  0E00               	movlw	0
  5106   00302A  6E42               	movwf	(___flmul@b+1)^(0+1280),c
  5107   00302C  0E00               	movlw	0
  5108   00302E  6E43               	movwf	(___flmul@b+2)^(0+1280),c
  5109   003030  0E00               	movlw	0
  5110   003032  6E44               	movwf	(___flmul@b+3)^(0+1280),c
  5111   003034                     l2677:
  5112   003034  8E43               	bsf	(___flmul@b+2)^(0+1280),7,c
  5113   003036  EF25  F018         	goto	l2681
  5114   00303A                     l2679:
  5115   00303A  0E00               	movlw	0
  5116   00303C  6E41               	movwf	___flmul@b^(0+1280),c
  5117   00303E  0E00               	movlw	0
  5118   003040  6E42               	movwf	(___flmul@b+1)^(0+1280),c
  5119   003042  0E00               	movlw	0
  5120   003044  6E43               	movwf	(___flmul@b+2)^(0+1280),c
  5121   003046  0E00               	movlw	0
  5122   003048  6E44               	movwf	(___flmul@b+3)^(0+1280),c
  5123   00304A                     l2681:
  5124   00304A  5048               	movf	(___flmul@a+3)^(0+1280),w,c
  5125   00304C  0B80               	andlw	128
  5126   00304E  1A4D               	xorwf	___flmul@sign^(0+1280),f,c
  5127   003050  5048               	movf	(___flmul@a+3)^(0+1280),w,c
  5128   003052  2448               	addwf	(___flmul@a+3)^(0+1280),w,c
  5129   003054  6E52               	movwf	___flmul@aexp^(0+1280),c
  5130   003056  AE47               	btfss	(___flmul@a+2)^(0+1280),7,c
  5131   003058  EF30  F018         	goto	u2161
  5132   00305C  EF32  F018         	goto	u2160
  5133   003060                     u2161:
  5134   003060  EF33  F018         	goto	l2689
  5135   003064                     u2160:
  5136   003064  8052               	bsf	___flmul@aexp^(0+1280),0,c
  5137   003066                     l2689:
  5138   003066  5052               	movf	___flmul@aexp^(0+1280),w,c
  5139   003068  B4D8               	btfsc	status,2,c
  5140   00306A  EF39  F018         	goto	u2171
  5141   00306E  EF3B  F018         	goto	u2170
  5142   003072                     u2171:
  5143   003072  EF4E  F018         	goto	l2697
  5144   003076                     u2170:
  5145   003076  2852               	incf	___flmul@aexp^(0+1280),w,c
  5146   003078  A4D8               	btfss	status,2,c
  5147   00307A  EF41  F018         	goto	u2181
  5148   00307E  EF43  F018         	goto	u2180
  5149   003082                     u2181:
  5150   003082  EF4B  F018         	goto	l2695
  5151   003086                     u2180:
  5152   003086  0E00               	movlw	0
  5153   003088  6E45               	movwf	___flmul@a^(0+1280),c
  5154   00308A  0E00               	movlw	0
  5155   00308C  6E46               	movwf	(___flmul@a+1)^(0+1280),c
  5156   00308E  0E00               	movlw	0
  5157   003090  6E47               	movwf	(___flmul@a+2)^(0+1280),c
  5158   003092  0E00               	movlw	0
  5159   003094  6E48               	movwf	(___flmul@a+3)^(0+1280),c
  5160   003096                     l2695:
  5161   003096  8E47               	bsf	(___flmul@a+2)^(0+1280),7,c
  5162   003098  EF56  F018         	goto	l894
  5163   00309C                     l2697:
  5164   00309C  0E00               	movlw	0
  5165   00309E  6E45               	movwf	___flmul@a^(0+1280),c
  5166   0030A0  0E00               	movlw	0
  5167   0030A2  6E46               	movwf	(___flmul@a+1)^(0+1280),c
  5168   0030A4  0E00               	movlw	0
  5169   0030A6  6E47               	movwf	(___flmul@a+2)^(0+1280),c
  5170   0030A8  0E00               	movlw	0
  5171   0030AA  6E48               	movwf	(___flmul@a+3)^(0+1280),c
  5172   0030AC                     l894:
  5173   0030AC  5052               	movf	___flmul@aexp^(0+1280),w,c
  5174   0030AE  B4D8               	btfsc	status,2,c
  5175   0030B0  EF5C  F018         	goto	u2191
  5176   0030B4  EF5E  F018         	goto	u2190
  5177   0030B8                     u2191:
  5178   0030B8  EF66  F018         	goto	l2701
  5179   0030BC                     u2190:
  5180   0030BC  5053               	movf	___flmul@bexp^(0+1280),w,c
  5181   0030BE  A4D8               	btfss	status,2,c
  5182   0030C0  EF64  F018         	goto	u2201
  5183   0030C4  EF66  F018         	goto	u2200
  5184   0030C8                     u2201:
  5185   0030C8  EF70  F018         	goto	l2705
  5186   0030CC                     u2200:
  5187   0030CC                     l2701:
  5188   0030CC  0E00               	movlw	0
  5189   0030CE  6E41               	movwf	?___flmul^(0+1280),c
  5190   0030D0  0E00               	movlw	0
  5191   0030D2  6E42               	movwf	(?___flmul+1)^(0+1280),c
  5192   0030D4  0E00               	movlw	0
  5193   0030D6  6E43               	movwf	(?___flmul+2)^(0+1280),c
  5194   0030D8  0E00               	movlw	0
  5195   0030DA  6E44               	movwf	(?___flmul+3)^(0+1280),c
  5196   0030DC  EF08  F01A         	goto	l898
  5197   0030E0                     l2705:
  5198   0030E0  5047               	movf	(___flmul@a+2)^(0+1280),w,c
  5199   0030E2  0241               	mulwf	___flmul@b^(0+1280),c
  5200   0030E4  C4F3 F558          	movff	prodl,___flmul@temp
  5201   0030E8  C4F4 F559          	movff	prodh,___flmul@temp+1
  5202   0030EC  5058               	movf	___flmul@temp^(0+1280),w,c
  5203   0030EE  6E4E               	movwf	___flmul@grs^(0+1280),c
  5204   0030F0  6A4F               	clrf	(___flmul@grs+1)^(0+1280),c
  5205   0030F2  6A50               	clrf	(___flmul@grs+2)^(0+1280),c
  5206   0030F4  6A51               	clrf	(___flmul@grs+3)^(0+1280),c
  5207   0030F6  5059               	movf	(___flmul@temp+1)^(0+1280),w,c
  5208   0030F8  6E54               	movwf	___flmul@prod^(0+1280),c
  5209   0030FA  6A55               	clrf	(___flmul@prod+1)^(0+1280),c
  5210   0030FC  6A56               	clrf	(___flmul@prod+2)^(0+1280),c
  5211   0030FE  6A57               	clrf	(___flmul@prod+3)^(0+1280),c
  5212   003100  5046               	movf	(___flmul@a+1)^(0+1280),w,c
  5213   003102  0242               	mulwf	(___flmul@b+1)^(0+1280),c
  5214   003104  C4F3 F558          	movff	prodl,___flmul@temp
  5215   003108  C4F4 F559          	movff	prodh,___flmul@temp+1
  5216   00310C  5058               	movf	___flmul@temp^(0+1280),w,c
  5217   00310E  264E               	addwf	___flmul@grs^(0+1280),f,c
  5218   003110  0E00               	movlw	0
  5219   003112  224F               	addwfc	(___flmul@grs+1)^(0+1280),f,c
  5220   003114  2250               	addwfc	(___flmul@grs+2)^(0+1280),f,c
  5221   003116  2251               	addwfc	(___flmul@grs+3)^(0+1280),f,c
  5222   003118  5059               	movf	(___flmul@temp+1)^(0+1280),w,c
  5223   00311A  2654               	addwf	___flmul@prod^(0+1280),f,c
  5224   00311C  0E00               	movlw	0
  5225   00311E  2255               	addwfc	(___flmul@prod+1)^(0+1280),f,c
  5226   003120  2256               	addwfc	(___flmul@prod+2)^(0+1280),f,c
  5227   003122  2257               	addwfc	(___flmul@prod+3)^(0+1280),f,c
  5228   003124  5045               	movf	___flmul@a^(0+1280),w,c
  5229   003126  0243               	mulwf	(___flmul@b+2)^(0+1280),c
  5230   003128  C4F3 F558          	movff	prodl,___flmul@temp
  5231   00312C  C4F4 F559          	movff	prodh,___flmul@temp+1
  5232   003130  5058               	movf	___flmul@temp^(0+1280),w,c
  5233   003132  264E               	addwf	___flmul@grs^(0+1280),f,c
  5234   003134  0E00               	movlw	0
  5235   003136  224F               	addwfc	(___flmul@grs+1)^(0+1280),f,c
  5236   003138  2250               	addwfc	(___flmul@grs+2)^(0+1280),f,c
  5237   00313A  2251               	addwfc	(___flmul@grs+3)^(0+1280),f,c
  5238   00313C  5059               	movf	(___flmul@temp+1)^(0+1280),w,c
  5239   00313E  2654               	addwf	___flmul@prod^(0+1280),f,c
  5240   003140  0E00               	movlw	0
  5241   003142  2255               	addwfc	(___flmul@prod+1)^(0+1280),f,c
  5242   003144  2256               	addwfc	(___flmul@prod+2)^(0+1280),f,c
  5243   003146  2257               	addwfc	(___flmul@prod+3)^(0+1280),f,c
  5244   003148  C550  F551         	movff	___flmul@grs+2,___flmul@grs+3
  5245   00314C  C54F  F550         	movff	___flmul@grs+1,___flmul@grs+2
  5246   003150  C54E  F54F         	movff	___flmul@grs,___flmul@grs+1
  5247   003154  6A4E               	clrf	___flmul@grs^(0+1280),c
  5248   003156  5045               	movf	___flmul@a^(0+1280),w,c
  5249   003158  0242               	mulwf	(___flmul@b+1)^(0+1280),c
  5250   00315A  C4F3 F558          	movff	prodl,___flmul@temp
  5251   00315E  C4F4 F559          	movff	prodh,___flmul@temp+1
  5252   003162  5058               	movf	___flmul@temp^(0+1280),w,c
  5253   003164  264E               	addwf	___flmul@grs^(0+1280),f,c
  5254   003166  5059               	movf	(___flmul@temp+1)^(0+1280),w,c
  5255   003168  224F               	addwfc	(___flmul@grs+1)^(0+1280),f,c
  5256   00316A  0E00               	movlw	0
  5257   00316C  2250               	addwfc	(___flmul@grs+2)^(0+1280),f,c
  5258   00316E  0E00               	movlw	0
  5259   003170  2251               	addwfc	(___flmul@grs+3)^(0+1280),f,c
  5260   003172  5046               	movf	(___flmul@a+1)^(0+1280),w,c
  5261   003174  0241               	mulwf	___flmul@b^(0+1280),c
  5262   003176  C4F3 F558          	movff	prodl,___flmul@temp
  5263   00317A  C4F4 F559          	movff	prodh,___flmul@temp+1
  5264   00317E  5058               	movf	___flmul@temp^(0+1280),w,c
  5265   003180  264E               	addwf	___flmul@grs^(0+1280),f,c
  5266   003182  5059               	movf	(___flmul@temp+1)^(0+1280),w,c
  5267   003184  224F               	addwfc	(___flmul@grs+1)^(0+1280),f,c
  5268   003186  0E00               	movlw	0
  5269   003188  2250               	addwfc	(___flmul@grs+2)^(0+1280),f,c
  5270   00318A  0E00               	movlw	0
  5271   00318C  2251               	addwfc	(___flmul@grs+3)^(0+1280),f,c
  5272   00318E  C550  F551         	movff	___flmul@grs+2,___flmul@grs+3
  5273   003192  C54F  F550         	movff	___flmul@grs+1,___flmul@grs+2
  5274   003196  C54E  F54F         	movff	___flmul@grs,___flmul@grs+1
  5275   00319A  6A4E               	clrf	___flmul@grs^(0+1280),c
  5276   00319C  5045               	movf	___flmul@a^(0+1280),w,c
  5277   00319E  0241               	mulwf	___flmul@b^(0+1280),c
  5278   0031A0  C4F3 F558          	movff	prodl,___flmul@temp
  5279   0031A4  C4F4 F559          	movff	prodh,___flmul@temp+1
  5280   0031A8  5058               	movf	___flmul@temp^(0+1280),w,c
  5281   0031AA  264E               	addwf	___flmul@grs^(0+1280),f,c
  5282   0031AC  5059               	movf	(___flmul@temp+1)^(0+1280),w,c
  5283   0031AE  224F               	addwfc	(___flmul@grs+1)^(0+1280),f,c
  5284   0031B0  0E00               	movlw	0
  5285   0031B2  2250               	addwfc	(___flmul@grs+2)^(0+1280),f,c
  5286   0031B4  0E00               	movlw	0
  5287   0031B6  2251               	addwfc	(___flmul@grs+3)^(0+1280),f,c
  5288   0031B8  5047               	movf	(___flmul@a+2)^(0+1280),w,c
  5289   0031BA  0242               	mulwf	(___flmul@b+1)^(0+1280),c
  5290   0031BC  C4F3 F558          	movff	prodl,___flmul@temp
  5291   0031C0  C4F4 F559          	movff	prodh,___flmul@temp+1
  5292   0031C4  5058               	movf	___flmul@temp^(0+1280),w,c
  5293   0031C6  2654               	addwf	___flmul@prod^(0+1280),f,c
  5294   0031C8  5059               	movf	(___flmul@temp+1)^(0+1280),w,c
  5295   0031CA  2255               	addwfc	(___flmul@prod+1)^(0+1280),f,c
  5296   0031CC  0E00               	movlw	0
  5297   0031CE  2256               	addwfc	(___flmul@prod+2)^(0+1280),f,c
  5298   0031D0  0E00               	movlw	0
  5299   0031D2  2257               	addwfc	(___flmul@prod+3)^(0+1280),f,c
  5300   0031D4  5046               	movf	(___flmul@a+1)^(0+1280),w,c
  5301   0031D6  0243               	mulwf	(___flmul@b+2)^(0+1280),c
  5302   0031D8  C4F3 F558          	movff	prodl,___flmul@temp
  5303   0031DC  C4F4 F559          	movff	prodh,___flmul@temp+1
  5304   0031E0  5058               	movf	___flmul@temp^(0+1280),w,c
  5305   0031E2  2654               	addwf	___flmul@prod^(0+1280),f,c
  5306   0031E4  5059               	movf	(___flmul@temp+1)^(0+1280),w,c
  5307   0031E6  2255               	addwfc	(___flmul@prod+1)^(0+1280),f,c
  5308   0031E8  0E00               	movlw	0
  5309   0031EA  2256               	addwfc	(___flmul@prod+2)^(0+1280),f,c
  5310   0031EC  0E00               	movlw	0
  5311   0031EE  2257               	addwfc	(___flmul@prod+3)^(0+1280),f,c
  5312   0031F0  5047               	movf	(___flmul@a+2)^(0+1280),w,c
  5313   0031F2  0243               	mulwf	(___flmul@b+2)^(0+1280),c
  5314   0031F4  C4F3 F558          	movff	prodl,___flmul@temp
  5315   0031F8  C4F4 F559          	movff	prodh,___flmul@temp+1
  5316   0031FC  5058               	movf	___flmul@temp^(0+1280),w,c
  5317   0031FE  6E49               	movwf	??___flmul^(0+1280),c
  5318   003200  5059               	movf	(___flmul@temp+1)^(0+1280),w,c
  5319   003202  6E4A               	movwf	(??___flmul+1)^(0+1280),c
  5320   003204  6A4B               	clrf	(??___flmul+2)^(0+1280),c
  5321   003206  6A4C               	clrf	(??___flmul+3)^(0+1280),c
  5322   003208  C54B  F54C         	movff	??___flmul+2,??___flmul+3
  5323   00320C  C54A  F54B         	movff	??___flmul+1,??___flmul+2
  5324   003210  C549  F54A         	movff	??___flmul,??___flmul+1
  5325   003214  6A49               	clrf	??___flmul^(0+1280),c
  5326   003216  5049               	movf	??___flmul^(0+1280),w,c
  5327   003218  2654               	addwf	___flmul@prod^(0+1280),f,c
  5328   00321A  504A               	movf	(??___flmul+1)^(0+1280),w,c
  5329   00321C  2255               	addwfc	(___flmul@prod+1)^(0+1280),f,c
  5330   00321E  504B               	movf	(??___flmul+2)^(0+1280),w,c
  5331   003220  2256               	addwfc	(___flmul@prod+2)^(0+1280),f,c
  5332   003222  504C               	movf	(??___flmul+3)^(0+1280),w,c
  5333   003224  2257               	addwfc	(___flmul@prod+3)^(0+1280),f,c
  5334   003226  C54E  F549         	movff	___flmul@grs,??___flmul
  5335   00322A  C54F  F54A         	movff	___flmul@grs+1,??___flmul+1
  5336   00322E  C550  F54B         	movff	___flmul@grs+2,??___flmul+2
  5337   003232  C551  F54C         	movff	___flmul@grs+3,??___flmul+3
  5338   003236  0E19               	movlw	25
  5339   003238  EF23  F019         	goto	u2210
  5340   00323C                     u2215:
  5341   00323C  90D8               	bcf	status,0,c
  5342   00323E  324C               	rrcf	(??___flmul+3)^(0+1280),f,c
  5343   003240  324B               	rrcf	(??___flmul+2)^(0+1280),f,c
  5344   003242  324A               	rrcf	(??___flmul+1)^(0+1280),f,c
  5345   003244  3249               	rrcf	??___flmul^(0+1280),f,c
  5346   003246                     u2210:
  5347   003246  2EE8               	decfsz	wreg,f,c
  5348   003248  EF1E  F019         	goto	u2215
  5349   00324C  5049               	movf	??___flmul^(0+1280),w,c
  5350   00324E  2654               	addwf	___flmul@prod^(0+1280),f,c
  5351   003250  504A               	movf	(??___flmul+1)^(0+1280),w,c
  5352   003252  2255               	addwfc	(___flmul@prod+1)^(0+1280),f,c
  5353   003254  504B               	movf	(??___flmul+2)^(0+1280),w,c
  5354   003256  2256               	addwfc	(___flmul@prod+2)^(0+1280),f,c
  5355   003258  504C               	movf	(??___flmul+3)^(0+1280),w,c
  5356   00325A  2257               	addwfc	(___flmul@prod+3)^(0+1280),f,c
  5357   00325C  C550  F551         	movff	___flmul@grs+2,___flmul@grs+3
  5358   003260  C54F  F550         	movff	___flmul@grs+1,___flmul@grs+2
  5359   003264  C54E  F54F         	movff	___flmul@grs,___flmul@grs+1
  5360   003268  6A4E               	clrf	___flmul@grs^(0+1280),c
  5361   00326A  5052               	movf	___flmul@aexp^(0+1280),w,c
  5362   00326C  C553  F549         	movff	___flmul@bexp,??___flmul
  5363   003270  6A4A               	clrf	(??___flmul+1)^(0+1280),c
  5364   003272  2649               	addwf	??___flmul^(0+1280),f,c
  5365   003274  0E00               	movlw	0
  5366   003276  224A               	addwfc	(??___flmul+1)^(0+1280),f,c
  5367   003278  0E82               	movlw	130
  5368   00327A  2449               	addwf	??___flmul^(0+1280),w,c
  5369   00327C  6E58               	movwf	___flmul@temp^(0+1280),c
  5370   00327E  0EFF               	movlw	255
  5371   003280  204A               	addwfc	(??___flmul+1)^(0+1280),w,c
  5372   003282  6E59               	movwf	(___flmul@temp+1)^(0+1280),c
  5373   003284  EF59  F019         	goto	l2753
  5374   003288                     l2747:
  5375   003288  90D8               	bcf	status,0,c
  5376   00328A  3654               	rlcf	___flmul@prod^(0+1280),f,c
  5377   00328C  3655               	rlcf	(___flmul@prod+1)^(0+1280),f,c
  5378   00328E  3656               	rlcf	(___flmul@prod+2)^(0+1280),f,c
  5379   003290  3657               	rlcf	(___flmul@prod+3)^(0+1280),f,c
  5380   003292  AE51               	btfss	(___flmul@grs+3)^(0+1280),7,c
  5381   003294  EF4E  F019         	goto	u2221
  5382   003298  EF50  F019         	goto	u2220
  5383   00329C                     u2221:
  5384   00329C  EF51  F019         	goto	l901
  5385   0032A0                     u2220:
  5386   0032A0  8054               	bsf	___flmul@prod^(0+1280),0,c
  5387   0032A2                     l901:
  5388   0032A2  90D8               	bcf	status,0,c
  5389   0032A4  364E               	rlcf	___flmul@grs^(0+1280),f,c
  5390   0032A6  364F               	rlcf	(___flmul@grs+1)^(0+1280),f,c
  5391   0032A8  3650               	rlcf	(___flmul@grs+2)^(0+1280),f,c
  5392   0032AA  3651               	rlcf	(___flmul@grs+3)^(0+1280),f,c
  5393   0032AC  0658               	decf	___flmul@temp^(0+1280),f,c
  5394   0032AE  A0D8               	btfss	status,0,c
  5395   0032B0  0659               	decf	(___flmul@temp+1)^(0+1280),f,c
  5396   0032B2                     l2753:
  5397   0032B2  AE56               	btfss	(___flmul@prod+2)^(0+1280),7,c
  5398   0032B4  EF5E  F019         	goto	u2231
  5399   0032B8  EF60  F019         	goto	u2230
  5400   0032BC                     u2231:
  5401   0032BC  EF44  F019         	goto	l2747
  5402   0032C0                     u2230:
  5403   0032C0  0E00               	movlw	0
  5404   0032C2  6E52               	movwf	___flmul@aexp^(0+1280),c
  5405   0032C4  AE51               	btfss	(___flmul@grs+3)^(0+1280),7,c
  5406   0032C6  EF67  F019         	goto	u2241
  5407   0032CA  EF69  F019         	goto	u2240
  5408   0032CE                     u2241:
  5409   0032CE  EF8D  F019         	goto	l903
  5410   0032D2                     u2240:
  5411   0032D2  0EFF               	movlw	255
  5412   0032D4  144E               	andwf	___flmul@grs^(0+1280),w,c
  5413   0032D6  6E49               	movwf	??___flmul^(0+1280),c
  5414   0032D8  0EFF               	movlw	255
  5415   0032DA  144F               	andwf	(___flmul@grs+1)^(0+1280),w,c
  5416   0032DC  6E4A               	movwf	(??___flmul+1)^(0+1280),c
  5417   0032DE  0EFF               	movlw	255
  5418   0032E0  1450               	andwf	(___flmul@grs+2)^(0+1280),w,c
  5419   0032E2  6E4B               	movwf	(??___flmul+2)^(0+1280),c
  5420   0032E4  0E7F               	movlw	127
  5421   0032E6  1451               	andwf	(___flmul@grs+3)^(0+1280),w,c
  5422   0032E8  6E4C               	movwf	(??___flmul+3)^(0+1280),c
  5423   0032EA  5049               	movf	??___flmul^(0+1280),w,c
  5424   0032EC  104A               	iorwf	(??___flmul+1)^(0+1280),w,c
  5425   0032EE  104B               	iorwf	(??___flmul+2)^(0+1280),w,c
  5426   0032F0  104C               	iorwf	(??___flmul+3)^(0+1280),w,c
  5427   0032F2  B4D8               	btfsc	status,2,c
  5428   0032F4  EF7E  F019         	goto	u2251
  5429   0032F8  EF80  F019         	goto	u2250
  5430   0032FC                     u2251:
  5431   0032FC  EF84  F019         	goto	l904
  5432   003300                     u2250:
  5433   003300                     l2761:
  5434   003300  0E01               	movlw	1
  5435   003302  6E52               	movwf	___flmul@aexp^(0+1280),c
  5436   003304  EF8D  F019         	goto	l903
  5437   003308                     l904:
  5438   003308  A054               	btfss	___flmul@prod^(0+1280),0,c
  5439   00330A  EF89  F019         	goto	u2261
  5440   00330E  EF8B  F019         	goto	u2260
  5441   003312                     u2261:
  5442   003312  EF8D  F019         	goto	l903
  5443   003316                     u2260:
  5444   003316  EF80  F019         	goto	l2761
  5445   00331A                     l903:
  5446   00331A  5052               	movf	___flmul@aexp^(0+1280),w,c
  5447   00331C  B4D8               	btfsc	status,2,c
  5448   00331E  EF93  F019         	goto	u2271
  5449   003322  EF95  F019         	goto	u2270
  5450   003326                     u2271:
  5451   003326  EFB9  F019         	goto	l2773
  5452   00332A                     u2270:
  5453   00332A  0E01               	movlw	1
  5454   00332C  2654               	addwf	___flmul@prod^(0+1280),f,c
  5455   00332E  0E00               	movlw	0
  5456   003330  2255               	addwfc	(___flmul@prod+1)^(0+1280),f,c
  5457   003332  2256               	addwfc	(___flmul@prod+2)^(0+1280),f,c
  5458   003334  2257               	addwfc	(___flmul@prod+3)^(0+1280),f,c
  5459   003336  A057               	btfss	(___flmul@prod+3)^(0+1280),0,c
  5460   003338  EFA0  F019         	goto	u2281
  5461   00333C  EFA2  F019         	goto	u2280
  5462   003340                     u2281:
  5463   003340  EFB9  F019         	goto	l2773
  5464   003344                     u2280:
  5465   003344  C554  F549         	movff	___flmul@prod,??___flmul
  5466   003348  C555  F54A         	movff	___flmul@prod+1,??___flmul+1
  5467   00334C  C556  F54B         	movff	___flmul@prod+2,??___flmul+2
  5468   003350  C557  F54C         	movff	___flmul@prod+3,??___flmul+3
  5469   003354  344C               	rlcf	(??___flmul+3)^(0+1280),w,c
  5470   003356  324C               	rrcf	(??___flmul+3)^(0+1280),f,c
  5471   003358  324B               	rrcf	(??___flmul+2)^(0+1280),f,c
  5472   00335A  324A               	rrcf	(??___flmul+1)^(0+1280),f,c
  5473   00335C  3249               	rrcf	??___flmul^(0+1280),f,c
  5474   00335E  C549  F554         	movff	??___flmul,___flmul@prod
  5475   003362  C54A  F555         	movff	??___flmul+1,___flmul@prod+1
  5476   003366  C54B  F556         	movff	??___flmul+2,___flmul@prod+2
  5477   00336A  C54C  F557         	movff	??___flmul+3,___flmul@prod+3
  5478   00336E  4A58               	infsnz	___flmul@temp^(0+1280),f,c
  5479   003370  2A59               	incf	(___flmul@temp+1)^(0+1280),f,c
  5480   003372                     l2773:
  5481   003372  BE59               	btfsc	(___flmul@temp+1)^(0+1280),7,c
  5482   003374  EFC4  F019         	goto	u2291
  5483   003378  5059               	movf	(___flmul@temp+1)^(0+1280),w,c
  5484   00337A  E108               	bnz	u2290
  5485   00337C  2858               	incf	___flmul@temp^(0+1280),w,c
  5486   00337E  A0D8               	btfss	status,0,c
  5487   003380  EFC4  F019         	goto	u2291
  5488   003384  EFC6  F019         	goto	u2290
  5489   003388                     u2291:
  5490   003388  EFD0  F019         	goto	l2777
  5491   00338C                     u2290:
  5492   00338C  0E00               	movlw	0
  5493   00338E  6E54               	movwf	___flmul@prod^(0+1280),c
  5494   003390  0E00               	movlw	0
  5495   003392  6E55               	movwf	(___flmul@prod+1)^(0+1280),c
  5496   003394  0E80               	movlw	128
  5497   003396  6E56               	movwf	(___flmul@prod+2)^(0+1280),c
  5498   003398  0E7F               	movlw	127
  5499   00339A  6E57               	movwf	(___flmul@prod+3)^(0+1280),c
  5500   00339C  EFFE  F019         	goto	l2789
  5501   0033A0                     l2777:
  5502   0033A0  BE59               	btfsc	(___flmul@temp+1)^(0+1280),7,c
  5503   0033A2  EFDD  F019         	goto	u2300
  5504   0033A6  5059               	movf	(___flmul@temp+1)^(0+1280),w,c
  5505   0033A8  E106               	bnz	u2301
  5506   0033AA  0458               	decf	___flmul@temp^(0+1280),w,c
  5507   0033AC  B0D8               	btfsc	status,0,c
  5508   0033AE  EFDB  F019         	goto	u2301
  5509   0033B2  EFDD  F019         	goto	u2300
  5510   0033B6                     u2301:
  5511   0033B6  EFE9  F019         	goto	l911
  5512   0033BA                     u2300:
  5513   0033BA  0E00               	movlw	0
  5514   0033BC  6E54               	movwf	___flmul@prod^(0+1280),c
  5515   0033BE  0E00               	movlw	0
  5516   0033C0  6E55               	movwf	(___flmul@prod+1)^(0+1280),c
  5517   0033C2  0E00               	movlw	0
  5518   0033C4  6E56               	movwf	(___flmul@prod+2)^(0+1280),c
  5519   0033C6  0E00               	movlw	0
  5520   0033C8  6E57               	movwf	(___flmul@prod+3)^(0+1280),c
  5521   0033CA  0E00               	movlw	0
  5522   0033CC  6E4D               	movwf	___flmul@sign^(0+1280),c
  5523   0033CE  EFFE  F019         	goto	l2789
  5524   0033D2                     l911:
  5525   0033D2  C558  F553         	movff	___flmul@temp,___flmul@bexp
  5526   0033D6  0EFF               	movlw	255
  5527   0033D8  1654               	andwf	___flmul@prod^(0+1280),f,c
  5528   0033DA  0EFF               	movlw	255
  5529   0033DC  1655               	andwf	(___flmul@prod+1)^(0+1280),f,c
  5530   0033DE  0E7F               	movlw	127
  5531   0033E0  1656               	andwf	(___flmul@prod+2)^(0+1280),f,c
  5532   0033E2  0E00               	movlw	0
  5533   0033E4  1657               	andwf	(___flmul@prod+3)^(0+1280),f,c
  5534   0033E6  A053               	btfss	___flmul@bexp^(0+1280),0,c
  5535   0033E8  EFF8  F019         	goto	u2311
  5536   0033EC  EFFA  F019         	goto	u2310
  5537   0033F0                     u2311:
  5538   0033F0  EFFB  F019         	goto	l2787
  5539   0033F4                     u2310:
  5540   0033F4  8E56               	bsf	(___flmul@prod+2)^(0+1280),7,c
  5541   0033F6                     l2787:
  5542   0033F6  90D8               	bcf	status,0,c
  5543   0033F8  3053               	rrcf	___flmul@bexp^(0+1280),w,c
  5544   0033FA  6E57               	movwf	(___flmul@prod+3)^(0+1280),c
  5545   0033FC                     l2789:
  5546   0033FC  504D               	movf	___flmul@sign^(0+1280),w,c
  5547   0033FE  1257               	iorwf	(___flmul@prod+3)^(0+1280),f,c
  5548   003400  C554  F541         	movff	___flmul@prod,?___flmul
  5549   003404  C555  F542         	movff	___flmul@prod+1,?___flmul+1
  5550   003408  C556  F543         	movff	___flmul@prod+2,?___flmul+2
  5551   00340C  C557  F544         	movff	___flmul@prod+3,?___flmul+3
  5552   003410                     l898:
  5553   003410  0012               	return		;funcret
  5554   003412                     __end_of___flmul:
  5555                           	callstack 0
  5556                           
  5557 ;; *************** function ___awmod *****************
  5558 ;; Defined at:
  5559 ;;		line 7 in file "C:\Program Files\Microchip\xc8\v2.40\pic\sources\c99\common\awmod.c"
  5560 ;; Parameters:    Size  Location     Type
  5561 ;;  dividend        2    1[COMRAM] int 
  5562 ;;  divisor         2    3[COMRAM] int 
  5563 ;; Auto vars:     Size  Location     Type
  5564 ;;  sign            1    6[COMRAM] unsigned char 
  5565 ;;  counter         1    5[COMRAM] unsigned char 
  5566 ;; Return value:  Size  Location     Type
  5567 ;;                  2    1[COMRAM] int 
  5568 ;; Registers used:
  5569 ;;		wreg, status,2, status,0
  5570 ;; Tracked objects:
  5571 ;;		On entry : 0/0
  5572 ;;		On exit  : 0/0
  5573 ;;		Unchanged: 0/0
  5574 ;; Data sizes:     COMRAM   BANK5   BANK6   BANK7   BANK8   BANK9  BANK10  BANK11  BANK12  BANK13  BANK14  BANK15  BANK1
      +6  BANK17  BANK18  BANK19  BANK20  BANK21  BANK22  BANK23  BANK24  BANK25  BANK26  BANK27  BANK28  BANK29  BANK30  BANK3
      +1  BANK32  BANK33  BANK34  BANK35  BANK36
  5575 ;;      Params:         4       0       0       0       0       0       0       0       0       0       0       0       
      +0       0       0       0       0       0       0       0       0       0       0       0       0       0       0       
      +0       0       0       0       0       0
  5576 ;;      Locals:         2       0       0       0       0       0       0       0       0       0       0       0       
      +0       0       0       0       0       0       0       0       0       0       0       0       0       0       0       
      +0       0       0       0       0       0
  5577 ;;      Temps:          0       0       0       0       0       0       0       0       0       0       0       0       
      +0       0       0       0       0       0       0       0       0       0       0       0       0       0       0       
      +0       0       0       0       0       0
  5578 ;;      Totals:         6       0       0       0       0       0       0       0       0       0       0       0       
      +0       0       0       0       0       0       0       0       0       0       0       0       0       0       0       
      +0       0       0       0       0       0
  5579 ;;Total ram usage:        6 bytes
  5580 ;; Hardware stack levels used: 1
  5581 ;; Hardware stack levels required when called: 2
  5582 ;; This function calls:
  5583 ;;		Nothing
  5584 ;; This function is called by:
  5585 ;;		_LCDprintf
  5586 ;;		_main
  5587 ;; This function uses a non-reentrant model
  5588 ;;
  5589                           
  5590                           	psect	text16
  5591   0045B2                     __ptext16:
  5592                           	callstack 0
  5593   0045B2                     ___awmod:
  5594                           	callstack 124
  5595   0045B2  0E00               	movlw	0
  5596   0045B4  6E07               	movwf	___awmod@sign^(0+1280),c
  5597   0045B6  BE03               	btfsc	(___awmod@dividend+1)^(0+1280),7,c
  5598   0045B8  EFE2  F022         	goto	u2380
  5599   0045BC  EFE0  F022         	goto	u2381
  5600   0045C0                     u2381:
  5601   0045C0  EFE8  F022         	goto	l2847
  5602   0045C4                     u2380:
  5603   0045C4  6C02               	negf	___awmod@dividend^(0+1280),c
  5604   0045C6  1E03               	comf	(___awmod@dividend+1)^(0+1280),f,c
  5605   0045C8  B0D8               	btfsc	status,0,c
  5606   0045CA  2A03               	incf	(___awmod@dividend+1)^(0+1280),f,c
  5607   0045CC  0E01               	movlw	1
  5608   0045CE  6E07               	movwf	___awmod@sign^(0+1280),c
  5609   0045D0                     l2847:
  5610   0045D0  BE05               	btfsc	(___awmod@divisor+1)^(0+1280),7,c
  5611   0045D2  EFEF  F022         	goto	u2390
  5612   0045D6  EFED  F022         	goto	u2391
  5613   0045DA                     u2391:
  5614   0045DA  EFF3  F022         	goto	l2851
  5615   0045DE                     u2390:
  5616   0045DE  6C04               	negf	___awmod@divisor^(0+1280),c
  5617   0045E0  1E05               	comf	(___awmod@divisor+1)^(0+1280),f,c
  5618   0045E2  B0D8               	btfsc	status,0,c
  5619   0045E4  2A05               	incf	(___awmod@divisor+1)^(0+1280),f,c
  5620   0045E6                     l2851:
  5621   0045E6  5004               	movf	___awmod@divisor^(0+1280),w,c
  5622   0045E8  1005               	iorwf	(___awmod@divisor+1)^(0+1280),w,c
  5623   0045EA  B4D8               	btfsc	status,2,c
  5624   0045EC  EFFA  F022         	goto	u2401
  5625   0045F0  EFFC  F022         	goto	u2400
  5626   0045F4                     u2401:
  5627   0045F4  EF20  F023         	goto	l2867
  5628   0045F8                     u2400:
  5629   0045F8  0E01               	movlw	1
  5630   0045FA  6E06               	movwf	___awmod@counter^(0+1280),c
  5631   0045FC  EF04  F023         	goto	l2857
  5632   004600                     l2855:
  5633   004600  90D8               	bcf	status,0,c
  5634   004602  3604               	rlcf	___awmod@divisor^(0+1280),f,c
  5635   004604  3605               	rlcf	(___awmod@divisor+1)^(0+1280),f,c
  5636   004606  2A06               	incf	___awmod@counter^(0+1280),f,c
  5637   004608                     l2857:
  5638   004608  AE05               	btfss	(___awmod@divisor+1)^(0+1280),7,c
  5639   00460A  EF09  F023         	goto	u2411
  5640   00460E  EF0B  F023         	goto	u2410
  5641   004612                     u2411:
  5642   004612  EF00  F023         	goto	l2855
  5643   004616                     u2410:
  5644   004616                     l2859:
  5645   004616  5004               	movf	___awmod@divisor^(0+1280),w,c
  5646   004618  5C02               	subwf	___awmod@dividend^(0+1280),w,c
  5647   00461A  5005               	movf	(___awmod@divisor+1)^(0+1280),w,c
  5648   00461C  5803               	subwfb	(___awmod@dividend+1)^(0+1280),w,c
  5649   00461E  A0D8               	btfss	status,0,c
  5650   004620  EF14  F023         	goto	u2421
  5651   004624  EF16  F023         	goto	u2420
  5652   004628                     u2421:
  5653   004628  EF1A  F023         	goto	l2863
  5654   00462C                     u2420:
  5655   00462C  5004               	movf	___awmod@divisor^(0+1280),w,c
  5656   00462E  5E02               	subwf	___awmod@dividend^(0+1280),f,c
  5657   004630  5005               	movf	(___awmod@divisor+1)^(0+1280),w,c
  5658   004632  5A03               	subwfb	(___awmod@dividend+1)^(0+1280),f,c
  5659   004634                     l2863:
  5660   004634  90D8               	bcf	status,0,c
  5661   004636  3205               	rrcf	(___awmod@divisor+1)^(0+1280),f,c
  5662   004638  3204               	rrcf	___awmod@divisor^(0+1280),f,c
  5663   00463A  2E06               	decfsz	___awmod@counter^(0+1280),f,c
  5664   00463C  EF0B  F023         	goto	l2859
  5665   004640                     l2867:
  5666   004640  5007               	movf	___awmod@sign^(0+1280),w,c
  5667   004642  B4D8               	btfsc	status,2,c
  5668   004644  EF26  F023         	goto	u2431
  5669   004648  EF28  F023         	goto	u2430
  5670   00464C                     u2431:
  5671   00464C  EF2C  F023         	goto	l2871
  5672   004650                     u2430:
  5673   004650  6C02               	negf	___awmod@dividend^(0+1280),c
  5674   004652  1E03               	comf	(___awmod@dividend+1)^(0+1280),f,c
  5675   004654  B0D8               	btfsc	status,0,c
  5676   004656  2A03               	incf	(___awmod@dividend+1)^(0+1280),f,c
  5677   004658                     l2871:
  5678   004658  C502  F502         	movff	___awmod@dividend,?___awmod
  5679   00465C  C503  F503         	movff	___awmod@dividend+1,?___awmod+1
  5680   004660  0012               	return		;funcret
  5681   004662                     __end_of___awmod:
  5682                           	callstack 0
  5683                           
  5684 ;; *************** function ___awdiv *****************
  5685 ;; Defined at:
  5686 ;;		line 7 in file "C:\Program Files\Microchip\xc8\v2.40\pic\sources\c99\common\awdiv.c"
  5687 ;; Parameters:    Size  Location     Type
  5688 ;;  dividend        2    1[COMRAM] int 
  5689 ;;  divisor         2    3[COMRAM] int 
  5690 ;; Auto vars:     Size  Location     Type
  5691 ;;  quotient        2    7[COMRAM] int 
  5692 ;;  sign            1    6[COMRAM] unsigned char 
  5693 ;;  counter         1    5[COMRAM] unsigned char 
  5694 ;; Return value:  Size  Location     Type
  5695 ;;                  2    1[COMRAM] int 
  5696 ;; Registers used:
  5697 ;;		wreg, status,2, status,0
  5698 ;; Tracked objects:
  5699 ;;		On entry : 0/0
  5700 ;;		On exit  : 0/0
  5701 ;;		Unchanged: 0/0
  5702 ;; Data sizes:     COMRAM   BANK5   BANK6   BANK7   BANK8   BANK9  BANK10  BANK11  BANK12  BANK13  BANK14  BANK15  BANK1
      +6  BANK17  BANK18  BANK19  BANK20  BANK21  BANK22  BANK23  BANK24  BANK25  BANK26  BANK27  BANK28  BANK29  BANK30  BANK3
      +1  BANK32  BANK33  BANK34  BANK35  BANK36
  5703 ;;      Params:         4       0       0       0       0       0       0       0       0       0       0       0       
      +0       0       0       0       0       0       0       0       0       0       0       0       0       0       0       
      +0       0       0       0       0       0
  5704 ;;      Locals:         4       0       0       0       0       0       0       0       0       0       0       0       
      +0       0       0       0       0       0       0       0       0       0       0       0       0       0       0       
      +0       0       0       0       0       0
  5705 ;;      Temps:          0       0       0       0       0       0       0       0       0       0       0       0       
      +0       0       0       0       0       0       0       0       0       0       0       0       0       0       0       
      +0       0       0       0       0       0
  5706 ;;      Totals:         8       0       0       0       0       0       0       0       0       0       0       0       
      +0       0       0       0       0       0       0       0       0       0       0       0       0       0       0       
      +0       0       0       0       0       0
  5707 ;;Total ram usage:        8 bytes
  5708 ;; Hardware stack levels used: 1
  5709 ;; Hardware stack levels required when called: 2
  5710 ;; This function calls:
  5711 ;;		Nothing
  5712 ;; This function is called by:
  5713 ;;		_LCDprintf
  5714 ;; This function uses a non-reentrant model
  5715 ;;
  5716                           
  5717                           	psect	text17
  5718   0044EE                     __ptext17:
  5719                           	callstack 0
  5720   0044EE                     ___awdiv:
  5721                           	callstack 122
  5722   0044EE  0E00               	movlw	0
  5723   0044F0  6E07               	movwf	___awdiv@sign^(0+1280),c
  5724   0044F2  BE05               	btfsc	(___awdiv@divisor+1)^(0+1280),7,c
  5725   0044F4  EF80  F022         	goto	u2320
  5726   0044F8  EF7E  F022         	goto	u2321
  5727   0044FC                     u2321:
  5728   0044FC  EF86  F022         	goto	l2803
  5729   004500                     u2320:
  5730   004500  6C04               	negf	___awdiv@divisor^(0+1280),c
  5731   004502  1E05               	comf	(___awdiv@divisor+1)^(0+1280),f,c
  5732   004504  B0D8               	btfsc	status,0,c
  5733   004506  2A05               	incf	(___awdiv@divisor+1)^(0+1280),f,c
  5734   004508  0E01               	movlw	1
  5735   00450A  6E07               	movwf	___awdiv@sign^(0+1280),c
  5736   00450C                     l2803:
  5737   00450C  BE03               	btfsc	(___awdiv@dividend+1)^(0+1280),7,c
  5738   00450E  EF8D  F022         	goto	u2330
  5739   004512  EF8B  F022         	goto	u2331
  5740   004516                     u2331:
  5741   004516  EF93  F022         	goto	l2809
  5742   00451A                     u2330:
  5743   00451A  6C02               	negf	___awdiv@dividend^(0+1280),c
  5744   00451C  1E03               	comf	(___awdiv@dividend+1)^(0+1280),f,c
  5745   00451E  B0D8               	btfsc	status,0,c
  5746   004520  2A03               	incf	(___awdiv@dividend+1)^(0+1280),f,c
  5747   004522  0E01               	movlw	1
  5748   004524  1A07               	xorwf	___awdiv@sign^(0+1280),f,c
  5749   004526                     l2809:
  5750   004526  0E00               	movlw	0
  5751   004528  6E09               	movwf	(___awdiv@quotient+1)^(0+1280),c
  5752   00452A  0E00               	movlw	0
  5753   00452C  6E08               	movwf	___awdiv@quotient^(0+1280),c
  5754   00452E  5004               	movf	___awdiv@divisor^(0+1280),w,c
  5755   004530  1005               	iorwf	(___awdiv@divisor+1)^(0+1280),w,c
  5756   004532  B4D8               	btfsc	status,2,c
  5757   004534  EF9E  F022         	goto	u2341
  5758   004538  EFA0  F022         	goto	u2340
  5759   00453C                     u2341:
  5760   00453C  EFC8  F022         	goto	l2831
  5761   004540                     u2340:
  5762   004540  0E01               	movlw	1
  5763   004542  6E06               	movwf	___awdiv@counter^(0+1280),c
  5764   004544  EFA8  F022         	goto	l2817
  5765   004548                     l2815:
  5766   004548  90D8               	bcf	status,0,c
  5767   00454A  3604               	rlcf	___awdiv@divisor^(0+1280),f,c
  5768   00454C  3605               	rlcf	(___awdiv@divisor+1)^(0+1280),f,c
  5769   00454E  2A06               	incf	___awdiv@counter^(0+1280),f,c
  5770   004550                     l2817:
  5771   004550  AE05               	btfss	(___awdiv@divisor+1)^(0+1280),7,c
  5772   004552  EFAD  F022         	goto	u2351
  5773   004556  EFAF  F022         	goto	u2350
  5774   00455A                     u2351:
  5775   00455A  EFA4  F022         	goto	l2815
  5776   00455E                     u2350:
  5777   00455E                     l2819:
  5778   00455E  90D8               	bcf	status,0,c
  5779   004560  3608               	rlcf	___awdiv@quotient^(0+1280),f,c
  5780   004562  3609               	rlcf	(___awdiv@quotient+1)^(0+1280),f,c
  5781   004564  5004               	movf	___awdiv@divisor^(0+1280),w,c
  5782   004566  5C02               	subwf	___awdiv@dividend^(0+1280),w,c
  5783   004568  5005               	movf	(___awdiv@divisor+1)^(0+1280),w,c
  5784   00456A  5803               	subwfb	(___awdiv@dividend+1)^(0+1280),w,c
  5785   00456C  A0D8               	btfss	status,0,c
  5786   00456E  EFBB  F022         	goto	u2361
  5787   004572  EFBD  F022         	goto	u2360
  5788   004576                     u2361:
  5789   004576  EFC2  F022         	goto	l2827
  5790   00457A                     u2360:
  5791   00457A  5004               	movf	___awdiv@divisor^(0+1280),w,c
  5792   00457C  5E02               	subwf	___awdiv@dividend^(0+1280),f,c
  5793   00457E  5005               	movf	(___awdiv@divisor+1)^(0+1280),w,c
  5794   004580  5A03               	subwfb	(___awdiv@dividend+1)^(0+1280),f,c
  5795   004582  8008               	bsf	___awdiv@quotient^(0+1280),0,c
  5796   004584                     l2827:
  5797   004584  90D8               	bcf	status,0,c
  5798   004586  3205               	rrcf	(___awdiv@divisor+1)^(0+1280),f,c
  5799   004588  3204               	rrcf	___awdiv@divisor^(0+1280),f,c
  5800   00458A  2E06               	decfsz	___awdiv@counter^(0+1280),f,c
  5801   00458C  EFAF  F022         	goto	l2819
  5802   004590                     l2831:
  5803   004590  5007               	movf	___awdiv@sign^(0+1280),w,c
  5804   004592  B4D8               	btfsc	status,2,c
  5805   004594  EFCE  F022         	goto	u2371
  5806   004598  EFD0  F022         	goto	u2370
  5807   00459C                     u2371:
  5808   00459C  EFD4  F022         	goto	l2835
  5809   0045A0                     u2370:
  5810   0045A0  6C08               	negf	___awdiv@quotient^(0+1280),c
  5811   0045A2  1E09               	comf	(___awdiv@quotient+1)^(0+1280),f,c
  5812   0045A4  B0D8               	btfsc	status,0,c
  5813   0045A6  2A09               	incf	(___awdiv@quotient+1)^(0+1280),f,c
  5814   0045A8                     l2835:
  5815   0045A8  C508  F502         	movff	___awdiv@quotient,?___awdiv
  5816   0045AC  C509  F503         	movff	___awdiv@quotient+1,?___awdiv+1
  5817   0045B0  0012               	return		;funcret
  5818   0045B2                     __end_of___awdiv:
  5819                           	callstack 0
  5820                           
  5821 ;; *************** function _LCDprints *****************
  5822 ;; Defined at:
  5823 ;;		line 86 in file "C:/Users/a_hui/OneDrive - Camosun College/term2/ecet165_embedded_mc/labs/ecet165-labs/lab6/lcd18f.c
      +"
  5824 ;; Parameters:    Size  Location     Type
  5825 ;;  c               2   18[COMRAM] PTR unsigned char 
  5826 ;;		 -> current_time.meridian(1), current_time.seconds(1), current_time.minutes(1), current_time.hours(1), 
  5827 ;;		 -> LCDprintf@f_string(20), ?_LCDprintf(1), toString@string(6), 
  5828 ;; Auto vars:     Size  Location     Type
  5829 ;;		None
  5830 ;; Return value:  Size  Location     Type
  5831 ;;                  1    wreg      void 
  5832 ;; Registers used:
  5833 ;;		wreg, fsr2l, fsr2h, status,2, status,0, cstack
  5834 ;; Tracked objects:
  5835 ;;		On entry : 0/0
  5836 ;;		On exit  : 0/0
  5837 ;;		Unchanged: 0/0
  5838 ;; Data sizes:     COMRAM   BANK5   BANK6   BANK7   BANK8   BANK9  BANK10  BANK11  BANK12  BANK13  BANK14  BANK15  BANK1
      +6  BANK17  BANK18  BANK19  BANK20  BANK21  BANK22  BANK23  BANK24  BANK25  BANK26  BANK27  BANK28  BANK29  BANK30  BANK3
      +1  BANK32  BANK33  BANK34  BANK35  BANK36
  5839 ;;      Params:         2       0       0       0       0       0       0       0       0       0       0       0       
      +0       0       0       0       0       0       0       0       0       0       0       0       0       0       0       
      +0       0       0       0       0       0
  5840 ;;      Locals:         0       0       0       0       0       0       0       0       0       0       0       0       
      +0       0       0       0       0       0       0       0       0       0       0       0       0       0       0       
      +0       0       0       0       0       0
  5841 ;;      Temps:          0       0       0       0       0       0       0       0       0       0       0       0       
      +0       0       0       0       0       0       0       0       0       0       0       0       0       0       0       
      +0       0       0       0       0       0
  5842 ;;      Totals:         2       0       0       0       0       0       0       0       0       0       0       0       
      +0       0       0       0       0       0       0       0       0       0       0       0       0       0       0       
      +0       0       0       0       0       0
  5843 ;;Total ram usage:        2 bytes
  5844 ;; Hardware stack levels used: 1
  5845 ;; Hardware stack levels required when called: 3
  5846 ;; This function calls:
  5847 ;;		_LCDprintc
  5848 ;; This function is called by:
  5849 ;;		_LCDprintf
  5850 ;; This function uses a non-reentrant model
  5851 ;;
  5852                           
  5853                           	psect	text18
  5854   00489A                     __ptext18:
  5855                           	callstack 0
  5856   00489A                     _LCDprints:
  5857                           	callstack 121
  5858   00489A                     
  5859                           ;C:/Users/a_hui/OneDrive - Camosun College/term2/ecet165_embedded_mc/labs/ecet165-labs/l
      +                          ab6/lcd18f.c: 88:     ANSELD = 0x0; TRISD = 0x0; WPUD = 0xFF; LATDbits.LATD7 = 1; _delay
      +                          ((unsigned long)((1)*(64000000/4000000.0)));
  5860   00489A  0E00               	movlw	0
  5861   00489C  0104               	movlb	4	; () banked
  5862   00489E  6F18               	movwf	24,b	;volatile
  5863   0048A0  0E00               	movlw	0
  5864   0048A2  6EC9               	movwf	201,c	;volatile
  5865   0048A4                     
  5866                           ; BSR set to: 4
  5867   0048A4  6919               	setf	25,b	;volatile
  5868   0048A6                     
  5869                           ; BSR set to: 4
  5870   0048A6  8EC1               	bsf	193,7,c	;volatile
  5871   0048A8                     
  5872                           ; BSR set to: 4
  5873   0048A8  0E05               	movlw	5
  5874   0048AA                     u3347:
  5875   0048AA  2EE8               	decfsz	wreg,f,c
  5876   0048AC  D7FE               	bra	u3347
  5877   0048AE  F000               	nop	
  5878   0048B0                     
  5879                           ;C:/Users/a_hui/OneDrive - Camosun College/term2/ecet165_embedded_mc/labs/ecet165-labs/l
      +                          ab6/lcd18f.c: 91:     LATDbits.LATD4 = 1;
  5880   0048B0  88C1               	bsf	193,4,c	;volatile
  5881   0048B2                     
  5882                           ;C:/Users/a_hui/OneDrive - Camosun College/term2/ecet165_embedded_mc/labs/ecet165-labs/l
      +                          ab6/lcd18f.c: 92:     LATDbits.LATD5 = 0;
  5883   0048B2  9AC1               	bcf	193,5,c	;volatile
  5884   0048B4                     
  5885                           ;C:/Users/a_hui/OneDrive - Camosun College/term2/ecet165_embedded_mc/labs/ecet165-labs/l
      +                          ab6/lcd18f.c: 94:     _delay((unsigned long)((1)*(64000000/4000000.0)));
  5886   0048B4  0E05               	movlw	5
  5887   0048B6                     u3357:
  5888   0048B6  2EE8               	decfsz	wreg,f,c
  5889   0048B8  D7FE               	bra	u3357
  5890   0048BA  F000               	nop	
  5891                           
  5892                           ;C:/Users/a_hui/OneDrive - Camosun College/term2/ecet165_embedded_mc/labs/ecet165-labs/l
      +                          ab6/lcd18f.c: 98:     while(*c != 0x0){
  5893   0048BC  EF69  F024         	goto	l2441
  5894   0048C0                     l2437:
  5895                           
  5896                           ;C:/Users/a_hui/OneDrive - Camosun College/term2/ecet165_embedded_mc/labs/ecet165-labs/l
      +                          ab6/lcd18f.c: 100:         LCDprintc(*c++);
  5897   0048C0  C513  F4D9         	movff	LCDprints@c,fsr2l
  5898   0048C4  C514  F4DA         	movff	LCDprints@c+1,fsr2h
  5899   0048C8  50DF               	movf	indf2,w,c
  5900   0048CA  EC31  F023         	call	_LCDprintc
  5901   0048CE  4A13               	infsnz	LCDprints@c^(0+1280),f,c
  5902   0048D0  2A14               	incf	(LCDprints@c+1)^(0+1280),f,c
  5903   0048D2                     l2441:
  5904                           
  5905                           ;C:/Users/a_hui/OneDrive - Camosun College/term2/ecet165_embedded_mc/labs/ecet165-labs/l
      +                          ab6/lcd18f.c: 98:     while(*c != 0x0){
  5906   0048D2  C513  F4D9         	movff	LCDprints@c,fsr2l
  5907   0048D6  C514  F4DA         	movff	LCDprints@c+1,fsr2h
  5908   0048DA  50DF               	movf	indf2,w,c
  5909   0048DC  A4D8               	btfss	status,2,c
  5910   0048DE  EF73  F024         	goto	u1711
  5911   0048E2  EF75  F024         	goto	u1710
  5912   0048E6                     u1711:
  5913   0048E6  EF60  F024         	goto	l2437
  5914   0048EA                     u1710:
  5915   0048EA  0012               	return		;funcret
  5916   0048EC                     __end_of_LCDprints:
  5917                           	callstack 0
  5918                           
  5919 ;; *************** function _LCDprintc *****************
  5920 ;; Defined at:
  5921 ;;		line 71 in file "C:/Users/a_hui/OneDrive - Camosun College/term2/ecet165_embedded_mc/labs/ecet165-labs/lab6/lcd18f.c
      +"
  5922 ;; Parameters:    Size  Location     Type
  5923 ;;  c               1    wreg     unsigned char 
  5924 ;; Auto vars:     Size  Location     Type
  5925 ;;  c               1    2[COMRAM] unsigned char 
  5926 ;; Return value:  Size  Location     Type
  5927 ;;                  1    wreg      void 
  5928 ;; Registers used:
  5929 ;;		wreg, status,2, status,0
  5930 ;; Tracked objects:
  5931 ;;		On entry : 0/0
  5932 ;;		On exit  : 0/0
  5933 ;;		Unchanged: 0/0
  5934 ;; Data sizes:     COMRAM   BANK5   BANK6   BANK7   BANK8   BANK9  BANK10  BANK11  BANK12  BANK13  BANK14  BANK15  BANK1
      +6  BANK17  BANK18  BANK19  BANK20  BANK21  BANK22  BANK23  BANK24  BANK25  BANK26  BANK27  BANK28  BANK29  BANK30  BANK3
      +1  BANK32  BANK33  BANK34  BANK35  BANK36
  5935 ;;      Params:         0       0       0       0       0       0       0       0       0       0       0       0       
      +0       0       0       0       0       0       0       0       0       0       0       0       0       0       0       
      +0       0       0       0       0       0
  5936 ;;      Locals:         1       0       0       0       0       0       0       0       0       0       0       0       
      +0       0       0       0       0       0       0       0       0       0       0       0       0       0       0       
      +0       0       0       0       0       0
  5937 ;;      Temps:          1       0       0       0       0       0       0       0       0       0       0       0       
      +0       0       0       0       0       0       0       0       0       0       0       0       0       0       0       
      +0       0       0       0       0       0
  5938 ;;      Totals:         2       0       0       0       0       0       0       0       0       0       0       0       
      +0       0       0       0       0       0       0       0       0       0       0       0       0       0       0       
      +0       0       0       0       0       0
  5939 ;;Total ram usage:        2 bytes
  5940 ;; Hardware stack levels used: 1
  5941 ;; Hardware stack levels required when called: 2
  5942 ;; This function calls:
  5943 ;;		Nothing
  5944 ;; This function is called by:
  5945 ;;		_LCDprints
  5946 ;;		_LCDprintf
  5947 ;;		_main
  5948 ;;		_LCDreturn
  5949 ;; This function uses a non-reentrant model
  5950 ;;
  5951                           
  5952                           	psect	text19
  5953   004662                     __ptext19:
  5954                           	callstack 0
  5955   004662                     _LCDprintc:
  5956                           	callstack 121
  5957                           
  5958                           ;incstack = 0
  5959                           ;LCDprintc@c stored from wreg
  5960   004662  6E03               	movwf	LCDprintc@c^(0+1280),c
  5961   004664                     
  5962                           ;C:/Users/a_hui/OneDrive - Camosun College/term2/ecet165_embedded_mc/labs/ecet165-labs/l
      +                          ab6/lcd18f.c: 72:     ANSELD = 0x0; TRISD = 0x0; WPUD = 0xFF; LATDbits.LATD7 = 1; _delay
      +                          ((unsigned long)((1)*(64000000/4000000.0)));
  5963   004664  0E00               	movlw	0
  5964   004666  0104               	movlb	4	; () banked
  5965   004668  6F18               	movwf	24,b	;volatile
  5966   00466A  0E00               	movlw	0
  5967   00466C  6EC9               	movwf	201,c	;volatile
  5968   00466E                     
  5969                           ; BSR set to: 4
  5970   00466E  6919               	setf	25,b	;volatile
  5971   004670                     
  5972                           ; BSR set to: 4
  5973   004670  8EC1               	bsf	193,7,c	;volatile
  5974   004672                     
  5975                           ; BSR set to: 4
  5976   004672  0E05               	movlw	5
  5977   004674                     u3367:
  5978   004674  2EE8               	decfsz	wreg,f,c
  5979   004676  D7FE               	bra	u3367
  5980   004678  F000               	nop	
  5981   00467A                     
  5982                           ;C:/Users/a_hui/OneDrive - Camosun College/term2/ecet165_embedded_mc/labs/ecet165-labs/l
      +                          ab6/lcd18f.c: 73:     LATDbits.LATD4 = 1;
  5983   00467A  88C1               	bsf	193,4,c	;volatile
  5984   00467C                     
  5985                           ;C:/Users/a_hui/OneDrive - Camosun College/term2/ecet165_embedded_mc/labs/ecet165-labs/l
      +                          ab6/lcd18f.c: 74:     LATDbits.LATD5 = 0;
  5986   00467C  9AC1               	bcf	193,5,c	;volatile
  5987   00467E                     
  5988                           ;C:/Users/a_hui/OneDrive - Camosun College/term2/ecet165_embedded_mc/labs/ecet165-labs/l
      +                          ab6/lcd18f.c: 77:     LATD = (LATD & 0xF0)|(c>>4);
  5989   00467E  C503  F502         	movff	LCDprintc@c,??_LCDprintc
  5990   004682  3A02               	swapf	??_LCDprintc^(0+1280),f,c
  5991   004684  0E0F               	movlw	15
  5992   004686  1602               	andwf	??_LCDprintc^(0+1280),f,c
  5993   004688  50C1               	movf	193,w,c	;volatile
  5994   00468A  0BF0               	andlw	240
  5995   00468C  1002               	iorwf	??_LCDprintc^(0+1280),w,c
  5996   00468E  6EC1               	movwf	193,c	;volatile
  5997   004690                     
  5998                           ;C:/Users/a_hui/OneDrive - Camosun College/term2/ecet165_embedded_mc/labs/ecet165-labs/l
      +                          ab6/lcd18f.c: 78:     _delay((unsigned long)((1)*(64000000/4000000.0)));
  5999   004690  0E05               	movlw	5
  6000   004692                     u3377:
  6001   004692  2EE8               	decfsz	wreg,f,c
  6002   004694  D7FE               	bra	u3377
  6003   004696  F000               	nop	
  6004   004698                     
  6005                           ;C:/Users/a_hui/OneDrive - Camosun College/term2/ecet165_embedded_mc/labs/ecet165-labs/l
      +                          ab6/lcd18f.c: 79:     LATDbits.LATD6 = 1; _delay((unsigned long)((1)*(64000000/4000000.0
      +                          ))); LATDbits.LATD6 = 0;
  6006   004698  8CC1               	bsf	193,6,c	;volatile
  6007   00469A  0E05               	movlw	5
  6008   00469C                     u3387:
  6009   00469C  2EE8               	decfsz	wreg,f,c
  6010   00469E  D7FE               	bra	u3387
  6011   0046A0  F000               	nop	
  6012   0046A2  9CC1               	bcf	193,6,c	;volatile
  6013   0046A4                     
  6014                           ;C:/Users/a_hui/OneDrive - Camosun College/term2/ecet165_embedded_mc/labs/ecet165-labs/l
      +                          ab6/lcd18f.c: 80:     LATD = (LATD & 0xF0)|(c & 0x0F);
  6015   0046A4  C503  F502         	movff	LCDprintc@c,??_LCDprintc
  6016   0046A8  0E0F               	movlw	15
  6017   0046AA  1602               	andwf	??_LCDprintc^(0+1280),f,c
  6018   0046AC  50C1               	movf	193,w,c	;volatile
  6019   0046AE  0BF0               	andlw	240
  6020   0046B0  1002               	iorwf	??_LCDprintc^(0+1280),w,c
  6021   0046B2  6EC1               	movwf	193,c	;volatile
  6022   0046B4                     
  6023                           ;C:/Users/a_hui/OneDrive - Camosun College/term2/ecet165_embedded_mc/labs/ecet165-labs/l
      +                          ab6/lcd18f.c: 81:     _delay((unsigned long)((1)*(64000000/4000000.0)));
  6024   0046B4  0E05               	movlw	5
  6025   0046B6                     u3397:
  6026   0046B6  2EE8               	decfsz	wreg,f,c
  6027   0046B8  D7FE               	bra	u3397
  6028   0046BA  F000               	nop	
  6029   0046BC                     
  6030                           ;C:/Users/a_hui/OneDrive - Camosun College/term2/ecet165_embedded_mc/labs/ecet165-labs/l
      +                          ab6/lcd18f.c: 82:     LATDbits.LATD6 = 1; _delay((unsigned long)((1)*(64000000/4000000.0
      +                          ))); LATDbits.LATD6 = 0;
  6031   0046BC  8CC1               	bsf	193,6,c	;volatile
  6032   0046BE  0E05               	movlw	5
  6033   0046C0                     u3407:
  6034   0046C0  2EE8               	decfsz	wreg,f,c
  6035   0046C2  D7FE               	bra	u3407
  6036   0046C4  F000               	nop	
  6037   0046C6  9CC1               	bcf	193,6,c	;volatile
  6038   0046C8                     
  6039                           ;C:/Users/a_hui/OneDrive - Camosun College/term2/ecet165_embedded_mc/labs/ecet165-labs/l
      +                          ab6/lcd18f.c: 83:     _delay((unsigned long)((5)*(64000000/4000.0)));
  6040   0046C8  0E68               	movlw	104
  6041   0046CA  6E02               	movwf	??_LCDprintc^(0+1280),c
  6042   0046CC  0EE4               	movlw	228
  6043   0046CE                     u3417:
  6044   0046CE  2EE8               	decfsz	wreg,f,c
  6045   0046D0  D7FE               	bra	u3417
  6046   0046D2  2E02               	decfsz	??_LCDprintc^(0+1280),f,c
  6047   0046D4  D7FC               	bra	u3417
  6048   0046D6  D000               	nop2	
  6049   0046D8  0012               	return		;funcret
  6050   0046DA                     __end_of_LCDprintc:
  6051                           	callstack 0
  6052                           
  6053 ;; *************** function _RTCinit *****************
  6054 ;; Defined at:
  6055 ;;		line 29 in file "C:/Users/a_hui/OneDrive - Camosun College/term2/ecet165_embedded_mc/labs/ecet165-labs/lab9/RealTime
      +Clock.c"
  6056 ;; Parameters:    Size  Location     Type
  6057 ;;		None
  6058 ;; Auto vars:     Size  Location     Type
  6059 ;;		None
  6060 ;; Return value:  Size  Location     Type
  6061 ;;                  1    wreg      void 
  6062 ;; Registers used:
  6063 ;;		wreg, status,2, cstack
  6064 ;; Tracked objects:
  6065 ;;		On entry : 0/0
  6066 ;;		On exit  : 0/0
  6067 ;;		Unchanged: 0/0
  6068 ;; Data sizes:     COMRAM   BANK5   BANK6   BANK7   BANK8   BANK9  BANK10  BANK11  BANK12  BANK13  BANK14  BANK15  BANK1
      +6  BANK17  BANK18  BANK19  BANK20  BANK21  BANK22  BANK23  BANK24  BANK25  BANK26  BANK27  BANK28  BANK29  BANK30  BANK3
      +1  BANK32  BANK33  BANK34  BANK35  BANK36
  6069 ;;      Params:         0       0       0       0       0       0       0       0       0       0       0       0       
      +0       0       0       0       0       0       0       0       0       0       0       0       0       0       0       
      +0       0       0       0       0       0
  6070 ;;      Locals:         0       0       0       0       0       0       0       0       0       0       0       0       
      +0       0       0       0       0       0       0       0       0       0       0       0       0       0       0       
      +0       0       0       0       0       0
  6071 ;;      Temps:          0       0       0       0       0       0       0       0       0       0       0       0       
      +0       0       0       0       0       0       0       0       0       0       0       0       0       0       0       
      +0       0       0       0       0       0
  6072 ;;      Totals:         0       0       0       0       0       0       0       0       0       0       0       0       
      +0       0       0       0       0       0       0       0       0       0       0       0       0       0       0       
      +0       0       0       0       0       0
  6073 ;;Total ram usage:        0 bytes
  6074 ;; Hardware stack levels used: 1
  6075 ;; Hardware stack levels required when called: 3
  6076 ;; This function calls:
  6077 ;;		_timerInit
  6078 ;; This function is called by:
  6079 ;;		_main
  6080 ;; This function uses a non-reentrant model
  6081 ;;
  6082                           
  6083                           	psect	text20
  6084   0049E4                     __ptext20:
  6085                           	callstack 0
  6086   0049E4                     _RTCinit:
  6087                           	callstack 123
  6088   0049E4                     
  6089                           ;C:/Users/a_hui/OneDrive - Camosun College/term2/ecet165_embedded_mc/labs/ecet165-labs/l
      +                          ab9/RealTimeClock.c: 31:     nSetRTC = 1;
  6090   0049E4  0E01               	movlw	1
  6091   0049E6  0105               	movlb	5	; () banked
  6092   0049E8  6FEE               	movwf	_nSetRTC& (0+255),b
  6093   0049EA                     
  6094                           ; BSR set to: 5
  6095                           ;C:/Users/a_hui/OneDrive - Camosun College/term2/ecet165_embedded_mc/labs/ecet165-labs/l
      +                          ab9/RealTimeClock.c: 33:     timerInit();
  6096   0049EA  ECE2  F024         	call	_timerInit	;wreg free
  6097   0049EE                     
  6098                           ;C:/Users/a_hui/OneDrive - Camosun College/term2/ecet165_embedded_mc/labs/ecet165-labs/l
      +                          ab9/RealTimeClock.c: 36:     TRISBbits.TRISB4 = 1;
  6099   0049EE  88C7               	bsf	199,4,c	;volatile
  6100   0049F0                     
  6101                           ;C:/Users/a_hui/OneDrive - Camosun College/term2/ecet165_embedded_mc/labs/ecet165-labs/l
      +                          ab9/RealTimeClock.c: 37:     ANSELBbits.ANSELB4 = 0;
  6102   0049F0  0104               	movlb	4	; () banked
  6103   0049F2  9908               	bcf	8,4,b	;volatile
  6104   0049F4                     
  6105                           ; BSR set to: 4
  6106                           ;C:/Users/a_hui/OneDrive - Camosun College/term2/ecet165_embedded_mc/labs/ecet165-labs/l
      +                          ab9/RealTimeClock.c: 38:     WPUBbits.WPUB4 = 1;
  6107   0049F4  8909               	bsf	9,4,b	;volatile
  6108   0049F6                     
  6109                           ; BSR set to: 4
  6110                           ;C:/Users/a_hui/OneDrive - Camosun College/term2/ecet165_embedded_mc/labs/ecet165-labs/l
      +                          ab9/RealTimeClock.c: 42:     INTCON0bits.IPEN = 1;
  6111   0049F6  8AD6               	bsf	214,5,c	;volatile
  6112   0049F8                     
  6113                           ; BSR set to: 4
  6114                           ;C:/Users/a_hui/OneDrive - Camosun College/term2/ecet165_embedded_mc/labs/ecet165-labs/l
      +                          ab9/RealTimeClock.c: 45:     PIE0bits.IOCIE = 1;
  6115   0049F8  8E9E               	bsf	158,7,c	;volatile
  6116   0049FA                     
  6117                           ; BSR set to: 4
  6118                           ;C:/Users/a_hui/OneDrive - Camosun College/term2/ecet165_embedded_mc/labs/ecet165-labs/l
      +                          ab9/RealTimeClock.c: 46:     IOCBN4 = 1;
  6119   0049FA  890E               	bsf	14,4,b	;volatile
  6120   0049FC                     
  6121                           ; BSR set to: 4
  6122                           ;C:/Users/a_hui/OneDrive - Camosun College/term2/ecet165_embedded_mc/labs/ecet165-labs/l
      +                          ab9/RealTimeClock.c: 47:     IOCBF = 0x00;
  6123   0049FC  0E00               	movlw	0
  6124   0049FE  6F0F               	movwf	15,b	;volatile
  6125   004A00                     
  6126                           ; BSR set to: 4
  6127   004A00  0012               	return		;funcret
  6128   004A02                     __end_of_RTCinit:
  6129                           	callstack 0
  6130                           
  6131 ;; *************** function _timerInit *****************
  6132 ;; Defined at:
  6133 ;;		line 4 in file "C:/Users/a_hui/OneDrive - Camosun College/term2/ecet165_embedded_mc/labs/ecet165-labs/lab8/timer0.c"
  6134 ;; Parameters:    Size  Location     Type
  6135 ;;		None
  6136 ;; Auto vars:     Size  Location     Type
  6137 ;;		None
  6138 ;; Return value:  Size  Location     Type
  6139 ;;                  1    wreg      void 
  6140 ;; Registers used:
  6141 ;;		wreg, status,2
  6142 ;; Tracked objects:
  6143 ;;		On entry : 0/0
  6144 ;;		On exit  : 0/0
  6145 ;;		Unchanged: 0/0
  6146 ;; Data sizes:     COMRAM   BANK5   BANK6   BANK7   BANK8   BANK9  BANK10  BANK11  BANK12  BANK13  BANK14  BANK15  BANK1
      +6  BANK17  BANK18  BANK19  BANK20  BANK21  BANK22  BANK23  BANK24  BANK25  BANK26  BANK27  BANK28  BANK29  BANK30  BANK3
      +1  BANK32  BANK33  BANK34  BANK35  BANK36
  6147 ;;      Params:         0       0       0       0       0       0       0       0       0       0       0       0       
      +0       0       0       0       0       0       0       0       0       0       0       0       0       0       0       
      +0       0       0       0       0       0
  6148 ;;      Locals:         0       0       0       0       0       0       0       0       0       0       0       0       
      +0       0       0       0       0       0       0       0       0       0       0       0       0       0       0       
      +0       0       0       0       0       0
  6149 ;;      Temps:          0       0       0       0       0       0       0       0       0       0       0       0       
      +0       0       0       0       0       0       0       0       0       0       0       0       0       0       0       
      +0       0       0       0       0       0
  6150 ;;      Totals:         0       0       0       0       0       0       0       0       0       0       0       0       
      +0       0       0       0       0       0       0       0       0       0       0       0       0       0       0       
      +0       0       0       0       0       0
  6151 ;;Total ram usage:        0 bytes
  6152 ;; Hardware stack levels used: 1
  6153 ;; Hardware stack levels required when called: 2
  6154 ;; This function calls:
  6155 ;;		Nothing
  6156 ;; This function is called by:
  6157 ;;		_RTCinit
  6158 ;; This function uses a non-reentrant model
  6159 ;;
  6160                           
  6161                           	psect	text21
  6162   0049C4                     __ptext21:
  6163                           	callstack 0
  6164   0049C4                     _timerInit:
  6165                           	callstack 123
  6166   0049C4                     
  6167                           ;C:/Users/a_hui/OneDrive - Camosun College/term2/ecet165_embedded_mc/labs/ecet165-labs/l
      +                          ab8/timer0.c: 5:     T0CON0 = 0b10001001;
  6168   0049C4  0E89               	movlw	137
  6169   0049C6  0103               	movlb	3	; () banked
  6170   0049C8  6F1A               	movwf	26,b	;volatile
  6171                           
  6172                           ;C:/Users/a_hui/OneDrive - Camosun College/term2/ecet165_embedded_mc/labs/ecet165-labs/l
      +                          ab8/timer0.c: 6:     T0CON1 = 0b10110001;
  6173   0049CA  0EB1               	movlw	177
  6174   0049CC  6F1B               	movwf	27,b	;volatile
  6175                           
  6176                           ;C:/Users/a_hui/OneDrive - Camosun College/term2/ecet165_embedded_mc/labs/ecet165-labs/l
      +                          ab8/timer0.c: 7:     TMR0H = 0xF9;
  6177   0049CE  0EF9               	movlw	249
  6178   0049D0  6F19               	movwf	25,b	;volatile
  6179                           
  6180                           ;C:/Users/a_hui/OneDrive - Camosun College/term2/ecet165_embedded_mc/labs/ecet165-labs/l
      +                          ab8/timer0.c: 8:     tick_count = 0;
  6181   0049D2  0E00               	movlw	0
  6182   0049D4  0105               	movlb	5	; () banked
  6183   0049D6  6FF5               	movwf	_tick_count& (0+255),b	;volatile
  6184   0049D8                     
  6185                           ; BSR set to: 5
  6186                           ;C:/Users/a_hui/OneDrive - Camosun College/term2/ecet165_embedded_mc/labs/ecet165-labs/l
      +                          ab8/timer0.c: 11:     INTCON0bits.GIE = 1;
  6187   0049D8  8ED6               	bsf	214,7,c	;volatile
  6188   0049DA                     
  6189                           ; BSR set to: 5
  6190                           ;C:/Users/a_hui/OneDrive - Camosun College/term2/ecet165_embedded_mc/labs/ecet165-labs/l
      +                          ab8/timer0.c: 14:     PIE3bits.TMR0IE = 1;
  6191   0049DA  8EA1               	bsf	161,7,c	;volatile
  6192   0049DC                     
  6193                           ; BSR set to: 5
  6194                           ;C:/Users/a_hui/OneDrive - Camosun College/term2/ecet165_embedded_mc/labs/ecet165-labs/l
      +                          ab8/timer0.c: 17:     PIR3bits.TMR0IF = 0;
  6195   0049DC  9EB1               	bcf	177,7,c	;volatile
  6196   0049DE                     
  6197                           ; BSR set to: 5
  6198                           ;C:/Users/a_hui/OneDrive - Camosun College/term2/ecet165_embedded_mc/labs/ecet165-labs/l
      +                          ab8/timer0.c: 20:     IPR3bits.TMR0IP = 1;
  6199   0049DE  0103               	movlb	3	; () banked
  6200   0049E0  8F65               	bsf	101,7,b	;volatile
  6201   0049E2                     
  6202                           ; BSR set to: 3
  6203   0049E2  0012               	return		;funcret
  6204   0049E4                     __end_of_timerInit:
  6205                           	callstack 0
  6206                           
  6207 ;; *************** function _LCDinit *****************
  6208 ;; Defined at:
  6209 ;;		line 34 in file "C:/Users/a_hui/OneDrive - Camosun College/term2/ecet165_embedded_mc/labs/ecet165-labs/lab6/lcd18f.c
      +"
  6210 ;; Parameters:    Size  Location     Type
  6211 ;;		None
  6212 ;; Auto vars:     Size  Location     Type
  6213 ;;		None
  6214 ;; Return value:  Size  Location     Type
  6215 ;;                  1    wreg      void 
  6216 ;; Registers used:
  6217 ;;		wreg, status,2, status,0, cstack
  6218 ;; Tracked objects:
  6219 ;;		On entry : 0/0
  6220 ;;		On exit  : 0/0
  6221 ;;		Unchanged: 0/0
  6222 ;; Data sizes:     COMRAM   BANK5   BANK6   BANK7   BANK8   BANK9  BANK10  BANK11  BANK12  BANK13  BANK14  BANK15  BANK1
      +6  BANK17  BANK18  BANK19  BANK20  BANK21  BANK22  BANK23  BANK24  BANK25  BANK26  BANK27  BANK28  BANK29  BANK30  BANK3
      +1  BANK32  BANK33  BANK34  BANK35  BANK36
  6223 ;;      Params:         0       0       0       0       0       0       0       0       0       0       0       0       
      +0       0       0       0       0       0       0       0       0       0       0       0       0       0       0       
      +0       0       0       0       0       0
  6224 ;;      Locals:         0       0       0       0       0       0       0       0       0       0       0       0       
      +0       0       0       0       0       0       0       0       0       0       0       0       0       0       0       
      +0       0       0       0       0       0
  6225 ;;      Temps:          2       0       0       0       0       0       0       0       0       0       0       0       
      +0       0       0       0       0       0       0       0       0       0       0       0       0       0       0       
      +0       0       0       0       0       0
  6226 ;;      Totals:         2       0       0       0       0       0       0       0       0       0       0       0       
      +0       0       0       0       0       0       0       0       0       0       0       0       0       0       0       
      +0       0       0       0       0       0
  6227 ;;Total ram usage:        2 bytes
  6228 ;; Hardware stack levels used: 1
  6229 ;; Hardware stack levels required when called: 3
  6230 ;; This function calls:
  6231 ;;		_LCDinstruct
  6232 ;; This function is called by:
  6233 ;;		_main
  6234 ;; This function uses a non-reentrant model
  6235 ;;
  6236                           
  6237                           	psect	text22
  6238   004404                     __ptext22:
  6239                           	callstack 0
  6240   004404                     _LCDinit:
  6241                           	callstack 123
  6242   004404                     
  6243                           ;C:/Users/a_hui/OneDrive - Camosun College/term2/ecet165_embedded_mc/labs/ecet165-labs/l
      +                          ab6/lcd18f.c: 35:     _delay((unsigned long)((50)*(64000000/4000.0)));
  6244   004404  0E05               	movlw	5
  6245   004406  6E05               	movwf	(??_LCDinit+1)^(0+1280),c
  6246   004408  0E0F               	movlw	15
  6247   00440A  6E04               	movwf	??_LCDinit^(0+1280),c
  6248   00440C  0EF1               	movlw	241
  6249   00440E                     u3427:
  6250   00440E  2EE8               	decfsz	wreg,f,c
  6251   004410  D7FE               	bra	u3427
  6252   004412  2E04               	decfsz	??_LCDinit^(0+1280),f,c
  6253   004414  D7FC               	bra	u3427
  6254   004416  2E05               	decfsz	(??_LCDinit+1)^(0+1280),f,c
  6255   004418  D7FA               	bra	u3427
  6256   00441A  F000               	nop	
  6257   00441C                     
  6258                           ;C:/Users/a_hui/OneDrive - Camosun College/term2/ecet165_embedded_mc/labs/ecet165-labs/l
      +                          ab6/lcd18f.c: 37:     ANSELD = 0x0; TRISD = 0x0; WPUD = 0xFF; LATDbits.LATD7 = 1; _delay
      +                          ((unsigned long)((1)*(64000000/4000000.0)));
  6259   00441C  0E00               	movlw	0
  6260   00441E  0104               	movlb	4	; () banked
  6261   004420  6F18               	movwf	24,b	;volatile
  6262   004422                     
  6263                           ; BSR set to: 4
  6264   004422  0E00               	movlw	0
  6265   004424  6EC9               	movwf	201,c	;volatile
  6266   004426                     
  6267                           ; BSR set to: 4
  6268   004426  6919               	setf	25,b	;volatile
  6269   004428                     
  6270                           ; BSR set to: 4
  6271   004428  8EC1               	bsf	193,7,c	;volatile
  6272   00442A  0E05               	movlw	5
  6273   00442C                     u3437:
  6274   00442C  2EE8               	decfsz	wreg,f,c
  6275   00442E  D7FE               	bra	u3437
  6276   004430  F000               	nop	
  6277   004432                     
  6278                           ;C:/Users/a_hui/OneDrive - Camosun College/term2/ecet165_embedded_mc/labs/ecet165-labs/l
      +                          ab6/lcd18f.c: 39:     LATDbits.LATD4 = 0;
  6279   004432  98C1               	bcf	193,4,c	;volatile
  6280   004434                     
  6281                           ;C:/Users/a_hui/OneDrive - Camosun College/term2/ecet165_embedded_mc/labs/ecet165-labs/l
      +                          ab6/lcd18f.c: 40:     LATDbits.LATD5 = 0;
  6282   004434  9AC1               	bcf	193,5,c	;volatile
  6283                           
  6284                           ;C:/Users/a_hui/OneDrive - Camosun College/term2/ecet165_embedded_mc/labs/ecet165-labs/l
      +                          ab6/lcd18f.c: 42:     _delay((unsigned long)((1)*(64000000/4000000.0)));
  6285   004436  0E05               	movlw	5
  6286   004438                     u3447:
  6287   004438  2EE8               	decfsz	wreg,f,c
  6288   00443A  D7FE               	bra	u3447
  6289   00443C  F000               	nop	
  6290   00443E                     
  6291                           ;C:/Users/a_hui/OneDrive - Camosun College/term2/ecet165_embedded_mc/labs/ecet165-labs/l
      +                          ab6/lcd18f.c: 45:     LATD = (LATD & 0xF0) | 0x03;
  6292   00443E  50C1               	movf	193,w,c	;volatile
  6293   004440  0BF0               	andlw	240
  6294   004442  0903               	iorlw	3
  6295   004444  6EC1               	movwf	193,c	;volatile
  6296   004446                     
  6297                           ;C:/Users/a_hui/OneDrive - Camosun College/term2/ecet165_embedded_mc/labs/ecet165-labs/l
      +                          ab6/lcd18f.c: 46:     LATDbits.LATD6 = 1; _delay((unsigned long)((1)*(64000000/4000000.0
      +                          ))); LATDbits.LATD6 = 0;
  6298   004446  8CC1               	bsf	193,6,c	;volatile
  6299   004448  0E05               	movlw	5
  6300   00444A                     u3457:
  6301   00444A  2EE8               	decfsz	wreg,f,c
  6302   00444C  D7FE               	bra	u3457
  6303   00444E  F000               	nop	
  6304   004450  9CC1               	bcf	193,6,c	;volatile
  6305   004452                     
  6306                           ;C:/Users/a_hui/OneDrive - Camosun College/term2/ecet165_embedded_mc/labs/ecet165-labs/l
      +                          ab6/lcd18f.c: 47:     _delay((unsigned long)((5)*(64000000/4000.0)));
  6307   004452  0E68               	movlw	104
  6308   004454  6E04               	movwf	??_LCDinit^(0+1280),c
  6309   004456  0EE4               	movlw	228
  6310   004458                     u3467:
  6311   004458  2EE8               	decfsz	wreg,f,c
  6312   00445A  D7FE               	bra	u3467
  6313   00445C  2E04               	decfsz	??_LCDinit^(0+1280),f,c
  6314   00445E  D7FC               	bra	u3467
  6315   004460  D000               	nop2	
  6316   004462                     
  6317                           ;C:/Users/a_hui/OneDrive - Camosun College/term2/ecet165_embedded_mc/labs/ecet165-labs/l
      +                          ab6/lcd18f.c: 49:     LATD = (LATD & 0xF0) | 0x03;
  6318   004462  50C1               	movf	193,w,c	;volatile
  6319   004464  0BF0               	andlw	240
  6320   004466  0903               	iorlw	3
  6321   004468  6EC1               	movwf	193,c	;volatile
  6322   00446A                     
  6323                           ;C:/Users/a_hui/OneDrive - Camosun College/term2/ecet165_embedded_mc/labs/ecet165-labs/l
      +                          ab6/lcd18f.c: 50:     LATDbits.LATD6 = 1; _delay((unsigned long)((1)*(64000000/4000000.0
      +                          ))); LATDbits.LATD6 = 0;
  6324   00446A  8CC1               	bsf	193,6,c	;volatile
  6325   00446C  0E05               	movlw	5
  6326   00446E                     u3477:
  6327   00446E  2EE8               	decfsz	wreg,f,c
  6328   004470  D7FE               	bra	u3477
  6329   004472  F000               	nop	
  6330   004474  9CC1               	bcf	193,6,c	;volatile
  6331                           
  6332                           ;C:/Users/a_hui/OneDrive - Camosun College/term2/ecet165_embedded_mc/labs/ecet165-labs/l
      +                          ab6/lcd18f.c: 51:     _delay((unsigned long)((5)*(64000000/4000.0)));
  6333   004476  0E68               	movlw	104
  6334   004478  6E04               	movwf	??_LCDinit^(0+1280),c
  6335   00447A  0EE4               	movlw	228
  6336   00447C                     u3487:
  6337   00447C  2EE8               	decfsz	wreg,f,c
  6338   00447E  D7FE               	bra	u3487
  6339   004480  2E04               	decfsz	??_LCDinit^(0+1280),f,c
  6340   004482  D7FC               	bra	u3487
  6341   004484  D000               	nop2	
  6342   004486                     
  6343                           ;C:/Users/a_hui/OneDrive - Camosun College/term2/ecet165_embedded_mc/labs/ecet165-labs/l
      +                          ab6/lcd18f.c: 53:     LATD = (LATD & 0xF0) | 0x03;
  6344   004486  50C1               	movf	193,w,c	;volatile
  6345   004488  0BF0               	andlw	240
  6346   00448A  0903               	iorlw	3
  6347   00448C  6EC1               	movwf	193,c	;volatile
  6348   00448E                     
  6349                           ;C:/Users/a_hui/OneDrive - Camosun College/term2/ecet165_embedded_mc/labs/ecet165-labs/l
      +                          ab6/lcd18f.c: 54:     LATDbits.LATD6 = 1; _delay((unsigned long)((1)*(64000000/4000000.0
      +                          ))); LATDbits.LATD6 = 0;
  6350   00448E  8CC1               	bsf	193,6,c	;volatile
  6351   004490  0E05               	movlw	5
  6352   004492                     u3497:
  6353   004492  2EE8               	decfsz	wreg,f,c
  6354   004494  D7FE               	bra	u3497
  6355   004496  F000               	nop	
  6356   004498  9CC1               	bcf	193,6,c	;volatile
  6357   00449A                     
  6358                           ;C:/Users/a_hui/OneDrive - Camosun College/term2/ecet165_embedded_mc/labs/ecet165-labs/l
      +                          ab6/lcd18f.c: 55:     _delay((unsigned long)((5)*(64000000/4000.0)));
  6359   00449A  0E68               	movlw	104
  6360   00449C  6E04               	movwf	??_LCDinit^(0+1280),c
  6361   00449E  0EE4               	movlw	228
  6362   0044A0                     u3507:
  6363   0044A0  2EE8               	decfsz	wreg,f,c
  6364   0044A2  D7FE               	bra	u3507
  6365   0044A4  2E04               	decfsz	??_LCDinit^(0+1280),f,c
  6366   0044A6  D7FC               	bra	u3507
  6367   0044A8  D000               	nop2	
  6368   0044AA                     
  6369                           ;C:/Users/a_hui/OneDrive - Camosun College/term2/ecet165_embedded_mc/labs/ecet165-labs/l
      +                          ab6/lcd18f.c: 58:     LATD = (LATD & 0xF0) | 0x02;
  6370   0044AA  50C1               	movf	193,w,c	;volatile
  6371   0044AC  0BF0               	andlw	240
  6372   0044AE  0902               	iorlw	2
  6373   0044B0  6EC1               	movwf	193,c	;volatile
  6374   0044B2                     
  6375                           ;C:/Users/a_hui/OneDrive - Camosun College/term2/ecet165_embedded_mc/labs/ecet165-labs/l
      +                          ab6/lcd18f.c: 59:     LATDbits.LATD6 = 1; _delay((unsigned long)((1)*(64000000/4000000.0
      +                          ))); LATDbits.LATD6 = 0;
  6376   0044B2  8CC1               	bsf	193,6,c	;volatile
  6377   0044B4  0E05               	movlw	5
  6378   0044B6                     u3517:
  6379   0044B6  2EE8               	decfsz	wreg,f,c
  6380   0044B8  D7FE               	bra	u3517
  6381   0044BA  F000               	nop	
  6382   0044BC  9CC1               	bcf	193,6,c	;volatile
  6383                           
  6384                           ;C:/Users/a_hui/OneDrive - Camosun College/term2/ecet165_embedded_mc/labs/ecet165-labs/l
      +                          ab6/lcd18f.c: 60:     _delay((unsigned long)((5)*(64000000/4000.0)));
  6385   0044BE  0E68               	movlw	104
  6386   0044C0  6E04               	movwf	??_LCDinit^(0+1280),c
  6387   0044C2  0EE4               	movlw	228
  6388   0044C4                     u3527:
  6389   0044C4  2EE8               	decfsz	wreg,f,c
  6390   0044C6  D7FE               	bra	u3527
  6391   0044C8  2E04               	decfsz	??_LCDinit^(0+1280),f,c
  6392   0044CA  D7FC               	bra	u3527
  6393   0044CC  D000               	nop2	
  6394   0044CE                     
  6395                           ;C:/Users/a_hui/OneDrive - Camosun College/term2/ecet165_embedded_mc/labs/ecet165-labs/l
      +                          ab6/lcd18f.c: 63:     LCDinstruct(0x28);
  6396   0044CE  0E28               	movlw	40
  6397   0044D0  ECE1  F023         	call	_LCDinstruct
  6398   0044D4                     
  6399                           ;C:/Users/a_hui/OneDrive - Camosun College/term2/ecet165_embedded_mc/labs/ecet165-labs/l
      +                          ab6/lcd18f.c: 64:     LCDinstruct(0x08);
  6400   0044D4  0E08               	movlw	8
  6401   0044D6  ECE1  F023         	call	_LCDinstruct
  6402   0044DA                     
  6403                           ;C:/Users/a_hui/OneDrive - Camosun College/term2/ecet165_embedded_mc/labs/ecet165-labs/l
      +                          ab6/lcd18f.c: 65:     LCDinstruct(0x0F);
  6404   0044DA  0E0F               	movlw	15
  6405   0044DC  ECE1  F023         	call	_LCDinstruct
  6406   0044E0                     
  6407                           ;C:/Users/a_hui/OneDrive - Camosun College/term2/ecet165_embedded_mc/labs/ecet165-labs/l
      +                          ab6/lcd18f.c: 66:     LCDinstruct(0x01);
  6408   0044E0  0E01               	movlw	1
  6409   0044E2  ECE1  F023         	call	_LCDinstruct
  6410   0044E6                     
  6411                           ;C:/Users/a_hui/OneDrive - Camosun College/term2/ecet165_embedded_mc/labs/ecet165-labs/l
      +                          ab6/lcd18f.c: 67:     LCDinstruct(0x06);
  6412   0044E6  0E06               	movlw	6
  6413   0044E8  ECE1  F023         	call	_LCDinstruct
  6414   0044EC  0012               	return		;funcret
  6415   0044EE                     __end_of_LCDinit:
  6416                           	callstack 0
  6417                           
  6418 ;; *************** function _LCDgoto *****************
  6419 ;; Defined at:
  6420 ;;		line 107 in file "C:/Users/a_hui/OneDrive - Camosun College/term2/ecet165_embedded_mc/labs/ecet165-labs/lab6/lcd18f.
      +c"
  6421 ;; Parameters:    Size  Location     Type
  6422 ;;  pos             1    wreg     unsigned char 
  6423 ;; Auto vars:     Size  Location     Type
  6424 ;;  pos             1    3[COMRAM] unsigned char 
  6425 ;; Return value:  Size  Location     Type
  6426 ;;                  1    wreg      void 
  6427 ;; Registers used:
  6428 ;;		wreg, status,2, status,0, cstack
  6429 ;; Tracked objects:
  6430 ;;		On entry : 0/0
  6431 ;;		On exit  : 0/0
  6432 ;;		Unchanged: 0/0
  6433 ;; Data sizes:     COMRAM   BANK5   BANK6   BANK7   BANK8   BANK9  BANK10  BANK11  BANK12  BANK13  BANK14  BANK15  BANK1
      +6  BANK17  BANK18  BANK19  BANK20  BANK21  BANK22  BANK23  BANK24  BANK25  BANK26  BANK27  BANK28  BANK29  BANK30  BANK3
      +1  BANK32  BANK33  BANK34  BANK35  BANK36
  6434 ;;      Params:         0       0       0       0       0       0       0       0       0       0       0       0       
      +0       0       0       0       0       0       0       0       0       0       0       0       0       0       0       
      +0       0       0       0       0       0
  6435 ;;      Locals:         1       0       0       0       0       0       0       0       0       0       0       0       
      +0       0       0       0       0       0       0       0       0       0       0       0       0       0       0       
      +0       0       0       0       0       0
  6436 ;;      Temps:          0       0       0       0       0       0       0       0       0       0       0       0       
      +0       0       0       0       0       0       0       0       0       0       0       0       0       0       0       
      +0       0       0       0       0       0
  6437 ;;      Totals:         1       0       0       0       0       0       0       0       0       0       0       0       
      +0       0       0       0       0       0       0       0       0       0       0       0       0       0       0       
      +0       0       0       0       0       0
  6438 ;;Total ram usage:        1 bytes
  6439 ;; Hardware stack levels used: 1
  6440 ;; Hardware stack levels required when called: 3
  6441 ;; This function calls:
  6442 ;;		_LCDinstruct
  6443 ;; This function is called by:
  6444 ;;		_main
  6445 ;;		_LCDreturn
  6446 ;; This function uses a non-reentrant model
  6447 ;;
  6448                           
  6449                           	psect	text23
  6450   004A3A                     __ptext23:
  6451                           	callstack 0
  6452   004A3A                     _LCDgoto:
  6453                           	callstack 123
  6454                           
  6455                           ;incstack = 0
  6456                           ;LCDgoto@pos stored from wreg
  6457   004A3A  6E04               	movwf	LCDgoto@pos^(0+1280),c
  6458   004A3C                     
  6459                           ;C:/Users/a_hui/OneDrive - Camosun College/term2/ecet165_embedded_mc/labs/ecet165-labs/l
      +                          ab6/lcd18f.c: 108:     LCDinstruct(0x80+pos);
  6460   004A3C  5004               	movf	LCDgoto@pos^(0+1280),w,c
  6461   004A3E  0F80               	addlw	128
  6462   004A40  ECE1  F023         	call	_LCDinstruct
  6463   004A44  0012               	return		;funcret
  6464   004A46                     __end_of_LCDgoto:
  6465                           	callstack 0
  6466                           
  6467 ;; *************** function _LCDinstruct *****************
  6468 ;; Defined at:
  6469 ;;		line 15 in file "C:/Users/a_hui/OneDrive - Camosun College/term2/ecet165_embedded_mc/labs/ecet165-labs/lab6/lcd18f.c
      +"
  6470 ;; Parameters:    Size  Location     Type
  6471 ;;  instr           1    wreg     unsigned char 
  6472 ;; Auto vars:     Size  Location     Type
  6473 ;;  instr           1    2[COMRAM] unsigned char 
  6474 ;; Return value:  Size  Location     Type
  6475 ;;                  1    wreg      void 
  6476 ;; Registers used:
  6477 ;;		wreg, status,2, status,0
  6478 ;; Tracked objects:
  6479 ;;		On entry : 0/0
  6480 ;;		On exit  : 0/0
  6481 ;;		Unchanged: 0/0
  6482 ;; Data sizes:     COMRAM   BANK5   BANK6   BANK7   BANK8   BANK9  BANK10  BANK11  BANK12  BANK13  BANK14  BANK15  BANK1
      +6  BANK17  BANK18  BANK19  BANK20  BANK21  BANK22  BANK23  BANK24  BANK25  BANK26  BANK27  BANK28  BANK29  BANK30  BANK3
      +1  BANK32  BANK33  BANK34  BANK35  BANK36
  6483 ;;      Params:         0       0       0       0       0       0       0       0       0       0       0       0       
      +0       0       0       0       0       0       0       0       0       0       0       0       0       0       0       
      +0       0       0       0       0       0
  6484 ;;      Locals:         1       0       0       0       0       0       0       0       0       0       0       0       
      +0       0       0       0       0       0       0       0       0       0       0       0       0       0       0       
      +0       0       0       0       0       0
  6485 ;;      Temps:          1       0       0       0       0       0       0       0       0       0       0       0       
      +0       0       0       0       0       0       0       0       0       0       0       0       0       0       0       
      +0       0       0       0       0       0
  6486 ;;      Totals:         2       0       0       0       0       0       0       0       0       0       0       0       
      +0       0       0       0       0       0       0       0       0       0       0       0       0       0       0       
      +0       0       0       0       0       0
  6487 ;;Total ram usage:        2 bytes
  6488 ;; Hardware stack levels used: 1
  6489 ;; Hardware stack levels required when called: 2
  6490 ;; This function calls:
  6491 ;;		Nothing
  6492 ;; This function is called by:
  6493 ;;		_LCDinit
  6494 ;;		_LCDgoto
  6495 ;;		_main
  6496 ;;		_RTCupdate
  6497 ;; This function uses a non-reentrant model
  6498 ;;
  6499                           
  6500                           	psect	text24
  6501   0047C2                     __ptext24:
  6502                           	callstack 0
  6503   0047C2                     _LCDinstruct:
  6504                           	callstack 123
  6505                           
  6506                           ;incstack = 0
  6507                           ;LCDinstruct@instr stored from wreg
  6508   0047C2  6E03               	movwf	LCDinstruct@instr^(0+1280),c
  6509   0047C4                     
  6510                           ;C:/Users/a_hui/OneDrive - Camosun College/term2/ecet165_embedded_mc/labs/ecet165-labs/l
      +                          ab6/lcd18f.c: 17:     ANSELD = 0x0; TRISD = 0x0; WPUD = 0xFF; LATDbits.LATD7 = 1; _delay
      +                          ((unsigned long)((1)*(64000000/4000000.0)));
  6511   0047C4  0E00               	movlw	0
  6512   0047C6  0104               	movlb	4	; () banked
  6513   0047C8  6F18               	movwf	24,b	;volatile
  6514   0047CA  0E00               	movlw	0
  6515   0047CC  6EC9               	movwf	201,c	;volatile
  6516   0047CE                     
  6517                           ; BSR set to: 4
  6518   0047CE  6919               	setf	25,b	;volatile
  6519   0047D0                     
  6520                           ; BSR set to: 4
  6521   0047D0  8EC1               	bsf	193,7,c	;volatile
  6522   0047D2                     
  6523                           ; BSR set to: 4
  6524   0047D2  0E05               	movlw	5
  6525   0047D4                     u3537:
  6526   0047D4  2EE8               	decfsz	wreg,f,c
  6527   0047D6  D7FE               	bra	u3537
  6528   0047D8  F000               	nop	
  6529   0047DA                     
  6530                           ;C:/Users/a_hui/OneDrive - Camosun College/term2/ecet165_embedded_mc/labs/ecet165-labs/l
      +                          ab6/lcd18f.c: 20:     LATDbits.LATD5 = 0;
  6531   0047DA  9AC1               	bcf	193,5,c	;volatile
  6532   0047DC                     
  6533                           ;C:/Users/a_hui/OneDrive - Camosun College/term2/ecet165_embedded_mc/labs/ecet165-labs/l
      +                          ab6/lcd18f.c: 21:     LATDbits.LATD4 = 0;
  6534   0047DC  98C1               	bcf	193,4,c	;volatile
  6535   0047DE                     
  6536                           ;C:/Users/a_hui/OneDrive - Camosun College/term2/ecet165_embedded_mc/labs/ecet165-labs/l
      +                          ab6/lcd18f.c: 24:     LATD = (LATD & 0xF0)| (instr >> 4 & 0x0F);
  6537   0047DE  C503  F502         	movff	LCDinstruct@instr,??_LCDinstruct
  6538   0047E2  3A02               	swapf	??_LCDinstruct^(0+1280),f,c
  6539   0047E4  0E0F               	movlw	15
  6540   0047E6  1602               	andwf	??_LCDinstruct^(0+1280),f,c
  6541   0047E8  0E0F               	movlw	15
  6542   0047EA  1602               	andwf	??_LCDinstruct^(0+1280),f,c
  6543   0047EC  50C1               	movf	193,w,c	;volatile
  6544   0047EE  0BF0               	andlw	240
  6545   0047F0  1002               	iorwf	??_LCDinstruct^(0+1280),w,c
  6546   0047F2  6EC1               	movwf	193,c	;volatile
  6547   0047F4                     
  6548                           ;C:/Users/a_hui/OneDrive - Camosun College/term2/ecet165_embedded_mc/labs/ecet165-labs/l
      +                          ab6/lcd18f.c: 25:     LATDbits.LATD6 = 1; _delay((unsigned long)((1)*(64000000/4000000.0
      +                          ))); LATDbits.LATD6 = 0;
  6549   0047F4  8CC1               	bsf	193,6,c	;volatile
  6550   0047F6  0E05               	movlw	5
  6551   0047F8                     u3547:
  6552   0047F8  2EE8               	decfsz	wreg,f,c
  6553   0047FA  D7FE               	bra	u3547
  6554   0047FC  F000               	nop	
  6555   0047FE  9CC1               	bcf	193,6,c	;volatile
  6556   004800                     
  6557                           ;C:/Users/a_hui/OneDrive - Camosun College/term2/ecet165_embedded_mc/labs/ecet165-labs/l
      +                          ab6/lcd18f.c: 26:     _delay((unsigned long)((1)*(64000000/4000000.0)));
  6558   004800  0E05               	movlw	5
  6559   004802                     u3557:
  6560   004802  2EE8               	decfsz	wreg,f,c
  6561   004804  D7FE               	bra	u3557
  6562   004806  F000               	nop	
  6563   004808                     
  6564                           ;C:/Users/a_hui/OneDrive - Camosun College/term2/ecet165_embedded_mc/labs/ecet165-labs/l
      +                          ab6/lcd18f.c: 27:     LATD = (LATD & 0xF0)|(instr & 0x0F);
  6565   004808  C503  F502         	movff	LCDinstruct@instr,??_LCDinstruct
  6566   00480C  0E0F               	movlw	15
  6567   00480E  1602               	andwf	??_LCDinstruct^(0+1280),f,c
  6568   004810  50C1               	movf	193,w,c	;volatile
  6569   004812  0BF0               	andlw	240
  6570   004814  1002               	iorwf	??_LCDinstruct^(0+1280),w,c
  6571   004816  6EC1               	movwf	193,c	;volatile
  6572   004818                     
  6573                           ;C:/Users/a_hui/OneDrive - Camosun College/term2/ecet165_embedded_mc/labs/ecet165-labs/l
      +                          ab6/lcd18f.c: 28:     LATDbits.LATD6 = 1; _delay((unsigned long)((1)*(64000000/4000000.0
      +                          ))); LATDbits.LATD6 = 0;
  6574   004818  8CC1               	bsf	193,6,c	;volatile
  6575   00481A  0E05               	movlw	5
  6576   00481C                     u3567:
  6577   00481C  2EE8               	decfsz	wreg,f,c
  6578   00481E  D7FE               	bra	u3567
  6579   004820  F000               	nop	
  6580   004822  9CC1               	bcf	193,6,c	;volatile
  6581   004824                     
  6582                           ;C:/Users/a_hui/OneDrive - Camosun College/term2/ecet165_embedded_mc/labs/ecet165-labs/l
      +                          ab6/lcd18f.c: 29:     _delay((unsigned long)((5)*(64000000/4000.0)));
  6583   004824  0E68               	movlw	104
  6584   004826  6E02               	movwf	??_LCDinstruct^(0+1280),c
  6585   004828  0EE4               	movlw	228
  6586   00482A                     u3577:
  6587   00482A  2EE8               	decfsz	wreg,f,c
  6588   00482C  D7FE               	bra	u3577
  6589   00482E  2E02               	decfsz	??_LCDinstruct^(0+1280),f,c
  6590   004830  D7FC               	bra	u3577
  6591   004832  D000               	nop2	
  6592   004834  0012               	return		;funcret
  6593   004836                     __end_of_LCDinstruct:
  6594                           	callstack 0
  6595                           
  6596 ;; *************** function _setINT *****************
  6597 ;; Defined at:
  6598 ;;		line 88 in file "C:/Users/a_hui/OneDrive - Camosun College/term2/ecet165_embedded_mc/labs/ecet165-labs/lab9/RealTime
      +Clock.c"
  6599 ;; Parameters:    Size  Location     Type
  6600 ;;		None
  6601 ;; Auto vars:     Size  Location     Type
  6602 ;;		None
  6603 ;; Return value:  Size  Location     Type
  6604 ;;                  1    wreg      void 
  6605 ;; Registers used:
  6606 ;;		wreg, status,2
  6607 ;; Tracked objects:
  6608 ;;		On entry : 0/0
  6609 ;;		On exit  : 0/0
  6610 ;;		Unchanged: 0/0
  6611 ;; Data sizes:     COMRAM   BANK5   BANK6   BANK7   BANK8   BANK9  BANK10  BANK11  BANK12  BANK13  BANK14  BANK15  BANK1
      +6  BANK17  BANK18  BANK19  BANK20  BANK21  BANK22  BANK23  BANK24  BANK25  BANK26  BANK27  BANK28  BANK29  BANK30  BANK3
      +1  BANK32  BANK33  BANK34  BANK35  BANK36
  6612 ;;      Params:         0       0       0       0       0       0       0       0       0       0       0       0       
      +0       0       0       0       0       0       0       0       0       0       0       0       0       0       0       
      +0       0       0       0       0       0
  6613 ;;      Locals:         0       0       0       0       0       0       0       0       0       0       0       0       
      +0       0       0       0       0       0       0       0       0       0       0       0       0       0       0       
      +0       0       0       0       0       0
  6614 ;;      Temps:          1       0       0       0       0       0       0       0       0       0       0       0       
      +0       0       0       0       0       0       0       0       0       0       0       0       0       0       0       
      +0       0       0       0       0       0
  6615 ;;      Totals:         1       0       0       0       0       0       0       0       0       0       0       0       
      +0       0       0       0       0       0       0       0       0       0       0       0       0       0       0       
      +0       0       0       0       0       0
  6616 ;;Total ram usage:        1 bytes
  6617 ;; Hardware stack levels used: 1
  6618 ;; Hardware stack levels required when called: 1
  6619 ;; This function calls:
  6620 ;;		Nothing
  6621 ;; This function is called by:
  6622 ;;		Interrupt level 1
  6623 ;; This function uses a non-reentrant model
  6624 ;;
  6625                           
  6626                           	psect	text25
  6627   004A20                     __ptext25:
  6628                           	callstack 0
  6629   004A20                     _setINT:
  6630                           	callstack 121
  6631                           
  6632                           ;incstack = 0
  6633   004A20  C4D8 F501          	movff	status,??_setINT
  6634   004A24                     
  6635                           ;C:/Users/a_hui/OneDrive - Camosun College/term2/ecet165_embedded_mc/labs/ecet165-labs/l
      +                          ab9/RealTimeClock.c: 89:     IOCBN4 = 0;
  6636   004A24  0104               	movlb	4	; () banked
  6637   004A26  990E               	bcf	14,4,b	;volatile
  6638                           
  6639                           ;C:/Users/a_hui/OneDrive - Camosun College/term2/ecet165_embedded_mc/labs/ecet165-labs/l
      +                          ab9/RealTimeClock.c: 90:     IOCBF4 = 0;
  6640   004A28  990F               	bcf	15,4,b	;volatile
  6641                           
  6642                           ;C:/Users/a_hui/OneDrive - Camosun College/term2/ecet165_embedded_mc/labs/ecet165-labs/l
      +                          ab9/RealTimeClock.c: 91:     T0CON0bits.EN = 0;
  6643   004A2A  0103               	movlb	3	; () banked
  6644   004A2C  9F1A               	bcf	26,7,b	;volatile
  6645   004A2E                     
  6646                           ; BSR set to: 3
  6647                           ;C:/Users/a_hui/OneDrive - Camosun College/term2/ecet165_embedded_mc/labs/ecet165-labs/l
      +                          ab9/RealTimeClock.c: 92:     nSetRTC = 0;
  6648   004A2E  0E00               	movlw	0
  6649   004A30  0105               	movlb	5	; () banked
  6650   004A32  6FEE               	movwf	_nSetRTC& (0+255),b
  6651   004A34                     
  6652                           ; BSR set to: 5
  6653   004A34  C501  F4D8         	movff	??_setINT,status
  6654   004A38  0011               	retfie		f
  6655   004A3A                     __end_of_setINT:
  6656                           	callstack 0
  6657                           
  6658 ;; *************** function _tickINT *****************
  6659 ;; Defined at:
  6660 ;;		line 28 in file "C:/Users/a_hui/OneDrive - Camosun College/term2/ecet165_embedded_mc/labs/ecet165-labs/lab8/timer0.c
      +"
  6661 ;; Parameters:    Size  Location     Type
  6662 ;;		None
  6663 ;; Auto vars:     Size  Location     Type
  6664 ;;		None
  6665 ;; Return value:  Size  Location     Type
  6666 ;;                  1    wreg      void 
  6667 ;; Registers used:
  6668 ;;		status,2, status,0
  6669 ;; Tracked objects:
  6670 ;;		On entry : 0/0
  6671 ;;		On exit  : 0/0
  6672 ;;		Unchanged: 0/0
  6673 ;; Data sizes:     COMRAM   BANK5   BANK6   BANK7   BANK8   BANK9  BANK10  BANK11  BANK12  BANK13  BANK14  BANK15  BANK1
      +6  BANK17  BANK18  BANK19  BANK20  BANK21  BANK22  BANK23  BANK24  BANK25  BANK26  BANK27  BANK28  BANK29  BANK30  BANK3
      +1  BANK32  BANK33  BANK34  BANK35  BANK36
  6674 ;;      Params:         0       0       0       0       0       0       0       0       0       0       0       0       
      +0       0       0       0       0       0       0       0       0       0       0       0       0       0       0       
      +0       0       0       0       0       0
  6675 ;;      Locals:         0       0       0       0       0       0       0       0       0       0       0       0       
      +0       0       0       0       0       0       0       0       0       0       0       0       0       0       0       
      +0       0       0       0       0       0
  6676 ;;      Temps:          0       0       0       0       0       0       0       0       0       0       0       0       
      +0       0       0       0       0       0       0       0       0       0       0       0       0       0       0       
      +0       0       0       0       0       0
  6677 ;;      Totals:         0       0       0       0       0       0       0       0       0       0       0       0       
      +0       0       0       0       0       0       0       0       0       0       0       0       0       0       0       
      +0       0       0       0       0       0
  6678 ;;Total ram usage:        0 bytes
  6679 ;; Hardware stack levels used: 1
  6680 ;; This function calls:
  6681 ;;		Nothing
  6682 ;; This function is called by:
  6683 ;;		Interrupt level 2
  6684 ;; This function uses a non-reentrant model
  6685 ;;
  6686                           
  6687                           	psect	text26
  6688   004A48                     __ptext26:
  6689                           	callstack 0
  6690   004A48                     _tickINT:
  6691                           	callstack 121
  6692   004A48                     
  6693                           ;C:/Users/a_hui/OneDrive - Camosun College/term2/ecet165_embedded_mc/labs/ecet165-labs/l
      +                          ab8/timer0.c: 29:     PIR3bits.TMR0IF = 0;
  6694   004A48  9EB1               	bcf	177,7,c	;volatile
  6695   004A4A                     
  6696                           ;C:/Users/a_hui/OneDrive - Camosun College/term2/ecet165_embedded_mc/labs/ecet165-labs/l
      +                          ab8/timer0.c: 30:     tick_count++;
  6697   004A4A  0105               	movlb	5	; () banked
  6698   004A4C  2BF5               	incf	_tick_count& (0+255),f,b	;volatile
  6699   004A4E                     
  6700                           ; BSR set to: 5
  6701   004A4E  0011               	retfie		f
  6702   004A50                     __end_of_tickINT:
  6703                           	callstack 0
  6704                           
  6705 ;; *************** function _defaultINT *****************
  6706 ;; Defined at:
  6707 ;;		line 34 in file "C:/Users/a_hui/OneDrive - Camosun College/term2/ecet165_embedded_mc/labs/ecet165-labs/lab8/timer0.c
      +"
  6708 ;; Parameters:    Size  Location     Type
  6709 ;;		None
  6710 ;; Auto vars:     Size  Location     Type
  6711 ;;		None
  6712 ;; Return value:  Size  Location     Type
  6713 ;;                  1    wreg      void 
  6714 ;; Registers used:
  6715 ;;		None
  6716 ;; Tracked objects:
  6717 ;;		On entry : 0/0
  6718 ;;		On exit  : 0/0
  6719 ;;		Unchanged: 0/0
  6720 ;; Data sizes:     COMRAM   BANK5   BANK6   BANK7   BANK8   BANK9  BANK10  BANK11  BANK12  BANK13  BANK14  BANK15  BANK1
      +6  BANK17  BANK18  BANK19  BANK20  BANK21  BANK22  BANK23  BANK24  BANK25  BANK26  BANK27  BANK28  BANK29  BANK30  BANK3
      +1  BANK32  BANK33  BANK34  BANK35  BANK36
  6721 ;;      Params:         0       0       0       0       0       0       0       0       0       0       0       0       
      +0       0       0       0       0       0       0       0       0       0       0       0       0       0       0       
      +0       0       0       0       0       0
  6722 ;;      Locals:         0       0       0       0       0       0       0       0       0       0       0       0       
      +0       0       0       0       0       0       0       0       0       0       0       0       0       0       0       
      +0       0       0       0       0       0
  6723 ;;      Temps:          0       0       0       0       0       0       0       0       0       0       0       0       
      +0       0       0       0       0       0       0       0       0       0       0       0       0       0       0       
      +0       0       0       0       0       0
  6724 ;;      Totals:         0       0       0       0       0       0       0       0       0       0       0       0       
      +0       0       0       0       0       0       0       0       0       0       0       0       0       0       0       
      +0       0       0       0       0       0
  6725 ;;Total ram usage:        0 bytes
  6726 ;; Hardware stack levels used: 1
  6727 ;; This function calls:
  6728 ;;		Nothing
  6729 ;; This function is called by:
  6730 ;;		Interrupt level 2
  6731 ;; This function uses a non-reentrant model
  6732 ;;
  6733                           
  6734                           	psect	text27
  6735   004A50                     __ptext27:
  6736                           	callstack 0
  6737   004A50                     _defaultINT:
  6738                           	callstack 121
  6739   004A50  0011               	retfie		f
  6740   004A52                     __end_of_defaultINT:
  6741                           	callstack 0
  6742                           
  6743                           ;
  6744                           ; Interrupt Vector Table @ 0x8
  6745                           ;
  6746                           
  6747                           	psect	ivt0x8
  6748   000008                     __pivt0x8:
  6749                           	callstack 0
  6750   000008                     ivt0x8_base:
  6751                           	callstack 0
  6752                           
  6753                           ; Vector 0 : SWINT
  6754   000008  1294               	dw	_defaultINT shr (0+2)
  6755                           
  6756                           ; Vector 1 : HLVD
  6757   00000A  1294               	dw	_defaultINT shr (0+2)
  6758                           
  6759                           ; Vector 2 : OSF
  6760   00000C  1294               	dw	_defaultINT shr (0+2)
  6761                           
  6762                           ; Vector 3 : CSW
  6763   00000E  1294               	dw	_defaultINT shr (0+2)
  6764                           
  6765                           ; Vector 4 : Undefined
  6766   000010  0040               	dw	ivt0x8_undefint shr (0+2)
  6767                           
  6768                           ; Vector 5 : CLC1
  6769   000012  1294               	dw	_defaultINT shr (0+2)
  6770                           
  6771                           ; Vector 6 : Undefined
  6772   000014  0040               	dw	ivt0x8_undefint shr (0+2)
  6773                           
  6774                           ; Vector 7 : IOC
  6775   000016  1288               	dw	_setINT shr (0+2)
  6776                           
  6777                           ; Vector 8 : INT0
  6778   000018  1294               	dw	_defaultINT shr (0+2)
  6779                           
  6780                           ; Vector 9 : ZCD
  6781   00001A  1294               	dw	_defaultINT shr (0+2)
  6782                           
  6783                           ; Vector 10 : AD
  6784   00001C  1294               	dw	_defaultINT shr (0+2)
  6785                           
  6786                           ; Vector 11 : ACT
  6787   00001E  1294               	dw	_defaultINT shr (0+2)
  6788                           
  6789                           ; Vector 12 : CMP1
  6790   000020  1294               	dw	_defaultINT shr (0+2)
  6791                           
  6792                           ; Vector 13 : SMT1
  6793   000022  1294               	dw	_defaultINT shr (0+2)
  6794                           
  6795                           ; Vector 14 : SMT1PRA
  6796   000024  1294               	dw	_defaultINT shr (0+2)
  6797                           
  6798                           ; Vector 15 : SMT1PRW
  6799   000026  1294               	dw	_defaultINT shr (0+2)
  6800                           
  6801                           ; Vector 16 : ADT
  6802   000028  1294               	dw	_defaultINT shr (0+2)
  6803                           
  6804                           ; Vector 17 : Undefined
  6805   00002A  0040               	dw	ivt0x8_undefint shr (0+2)
  6806                           
  6807                           ; Vector 18 : Undefined
  6808   00002C  0040               	dw	ivt0x8_undefint shr (0+2)
  6809                           
  6810                           ; Vector 19 : Undefined
  6811   00002E  0040               	dw	ivt0x8_undefint shr (0+2)
  6812                           
  6813                           ; Vector 20 : DMA1SCNT
  6814   000030  1294               	dw	_defaultINT shr (0+2)
  6815                           
  6816                           ; Vector 21 : DMA1DCNT
  6817   000032  1294               	dw	_defaultINT shr (0+2)
  6818                           
  6819                           ; Vector 22 : DMA1OR
  6820   000034  1294               	dw	_defaultINT shr (0+2)
  6821                           
  6822                           ; Vector 23 : DMA1A
  6823   000036  1294               	dw	_defaultINT shr (0+2)
  6824                           
  6825                           ; Vector 24 : SPI1RX
  6826   000038  1294               	dw	_defaultINT shr (0+2)
  6827                           
  6828                           ; Vector 25 : SPI1TX
  6829   00003A  1294               	dw	_defaultINT shr (0+2)
  6830                           
  6831                           ; Vector 26 : SPI1
  6832   00003C  1294               	dw	_defaultINT shr (0+2)
  6833                           
  6834                           ; Vector 27 : TMR2
  6835   00003E  1294               	dw	_defaultINT shr (0+2)
  6836                           
  6837                           ; Vector 28 : TMR1
  6838   000040  1294               	dw	_defaultINT shr (0+2)
  6839                           
  6840                           ; Vector 29 : TMR1G
  6841   000042  1294               	dw	_defaultINT shr (0+2)
  6842                           
  6843                           ; Vector 30 : CCP1
  6844   000044  1294               	dw	_defaultINT shr (0+2)
  6845                           
  6846                           ; Vector 31 : TMR0
  6847   000046  1292               	dw	_tickINT shr (0+2)
  6848                           
  6849                           ; Vector 32 : U1RX
  6850   000048  1294               	dw	_defaultINT shr (0+2)
  6851                           
  6852                           ; Vector 33 : U1TX
  6853   00004A  1294               	dw	_defaultINT shr (0+2)
  6854                           
  6855                           ; Vector 34 : U1E
  6856   00004C  1294               	dw	_defaultINT shr (0+2)
  6857                           
  6858                           ; Vector 35 : U1
  6859   00004E  1294               	dw	_defaultINT shr (0+2)
  6860                           
  6861                           ; Vector 36 : Undefined
  6862   000050  0040               	dw	ivt0x8_undefint shr (0+2)
  6863                           
  6864                           ; Vector 37 : Undefined
  6865   000052  0040               	dw	ivt0x8_undefint shr (0+2)
  6866                           
  6867                           ; Vector 38 : PWM1PR
  6868   000054  1294               	dw	_defaultINT shr (0+2)
  6869                           
  6870                           ; Vector 39 : PWM1
  6871   000056  1294               	dw	_defaultINT shr (0+2)
  6872                           
  6873                           ; Vector 40 : SPI2RX
  6874   000058  1294               	dw	_defaultINT shr (0+2)
  6875                           
  6876                           ; Vector 41 : SPI2TX
  6877   00005A  1294               	dw	_defaultINT shr (0+2)
  6878                           
  6879                           ; Vector 42 : SPI2
  6880   00005C  1294               	dw	_defaultINT shr (0+2)
  6881                           
  6882                           ; Vector 43 : Undefined
  6883   00005E  0040               	dw	ivt0x8_undefint shr (0+2)
  6884                           
  6885                           ; Vector 44 : TMR3
  6886   000060  1294               	dw	_defaultINT shr (0+2)
  6887                           
  6888                           ; Vector 45 : TMR3G
  6889   000062  1294               	dw	_defaultINT shr (0+2)
  6890                           
  6891                           ; Vector 46 : PWM2PR
  6892   000064  1294               	dw	_defaultINT shr (0+2)
  6893                           
  6894                           ; Vector 47 : PWM2
  6895   000066  1294               	dw	_defaultINT shr (0+2)
  6896                           
  6897                           ; Vector 48 : INT1
  6898   000068  1294               	dw	_defaultINT shr (0+2)
  6899                           
  6900                           ; Vector 49 : CLC2
  6901   00006A  1294               	dw	_defaultINT shr (0+2)
  6902                           
  6903                           ; Vector 50 : CWG1
  6904   00006C  1294               	dw	_defaultINT shr (0+2)
  6905                           
  6906                           ; Vector 51 : NCO1
  6907   00006E  1294               	dw	_defaultINT shr (0+2)
  6908                           
  6909                           ; Vector 52 : DMA2SCNT
  6910   000070  1294               	dw	_defaultINT shr (0+2)
  6911                           
  6912                           ; Vector 53 : DMA2DCNT
  6913   000072  1294               	dw	_defaultINT shr (0+2)
  6914                           
  6915                           ; Vector 54 : DMA2OR
  6916   000074  1294               	dw	_defaultINT shr (0+2)
  6917                           
  6918                           ; Vector 55 : DMA2A
  6919   000076  1294               	dw	_defaultINT shr (0+2)
  6920                           
  6921                           ; Vector 56 : I2C1RX
  6922   000078  1294               	dw	_defaultINT shr (0+2)
  6923                           
  6924                           ; Vector 57 : I2C1TX
  6925   00007A  1294               	dw	_defaultINT shr (0+2)
  6926                           
  6927                           ; Vector 58 : I2C1
  6928   00007C  1294               	dw	_defaultINT shr (0+2)
  6929                           
  6930                           ; Vector 59 : I2C1E
  6931   00007E  1294               	dw	_defaultINT shr (0+2)
  6932                           
  6933                           ; Vector 60 : Undefined
  6934   000080  0040               	dw	ivt0x8_undefint shr (0+2)
  6935                           
  6936                           ; Vector 61 : CLC3
  6937   000082  1294               	dw	_defaultINT shr (0+2)
  6938                           
  6939                           ; Vector 62 : PWM3PR
  6940   000084  1294               	dw	_defaultINT shr (0+2)
  6941                           
  6942                           ; Vector 63 : PWM3
  6943   000086  1294               	dw	_defaultINT shr (0+2)
  6944                           
  6945                           ; Vector 64 : U2RX
  6946   000088  1294               	dw	_defaultINT shr (0+2)
  6947                           
  6948                           ; Vector 65 : U2TX
  6949   00008A  1294               	dw	_defaultINT shr (0+2)
  6950                           
  6951                           ; Vector 66 : U2E
  6952   00008C  1294               	dw	_defaultINT shr (0+2)
  6953                           
  6954                           ; Vector 67 : U2
  6955   00008E  1294               	dw	_defaultINT shr (0+2)
  6956                           
  6957                           ; Vector 68 : TMR5
  6958   000090  1294               	dw	_defaultINT shr (0+2)
  6959                           
  6960                           ; Vector 69 : TMR5G
  6961   000092  1294               	dw	_defaultINT shr (0+2)
  6962                           
  6963                           ; Vector 70 : CCP2
  6964   000094  1294               	dw	_defaultINT shr (0+2)
  6965                           
  6966                           ; Vector 71 : SCAN
  6967   000096  1294               	dw	_defaultINT shr (0+2)
  6968                           
  6969                           ; Vector 72 : U3RX
  6970   000098  1294               	dw	_defaultINT shr (0+2)
  6971                           
  6972                           ; Vector 73 : U3TX
  6973   00009A  1294               	dw	_defaultINT shr (0+2)
  6974                           
  6975                           ; Vector 74 : U3E
  6976   00009C  1294               	dw	_defaultINT shr (0+2)
  6977                           
  6978                           ; Vector 75 : U3
  6979   00009E  1294               	dw	_defaultINT shr (0+2)
  6980                           
  6981                           ; Vector 76 : Undefined
  6982   0000A0  0040               	dw	ivt0x8_undefint shr (0+2)
  6983                           
  6984                           ; Vector 77 : CLC4
  6985   0000A2  1294               	dw	_defaultINT shr (0+2)
  6986                           
  6987                           ; Vector 78 : Undefined
  6988   0000A4  0040               	dw	ivt0x8_undefint shr (0+2)
  6989                           
  6990                           ; Vector 79 : Undefined
  6991   0000A6  0040               	dw	ivt0x8_undefint shr (0+2)
  6992                           
  6993                           ; Vector 80 : INT2
  6994   0000A8  1294               	dw	_defaultINT shr (0+2)
  6995                           
  6996                           ; Vector 81 : CLC5
  6997   0000AA  1294               	dw	_defaultINT shr (0+2)
  6998                           
  6999                           ; Vector 82 : CWG2
  7000   0000AC  1294               	dw	_defaultINT shr (0+2)
  7001                           
  7002                           ; Vector 83 : NCO2
  7003   0000AE  1294               	dw	_defaultINT shr (0+2)
  7004                           
  7005                           ; Vector 84 : DMA3SCNT
  7006   0000B0  1294               	dw	_defaultINT shr (0+2)
  7007                           
  7008                           ; Vector 85 : DMA3DCNT
  7009   0000B2  1294               	dw	_defaultINT shr (0+2)
  7010                           
  7011                           ; Vector 86 : DMA3OR
  7012   0000B4  1294               	dw	_defaultINT shr (0+2)
  7013                           
  7014                           ; Vector 87 : DMA3A
  7015   0000B6  1294               	dw	_defaultINT shr (0+2)
  7016                           
  7017                           ; Vector 88 : CCP3
  7018   0000B8  1294               	dw	_defaultINT shr (0+2)
  7019                           
  7020                           ; Vector 89 : CLC6
  7021   0000BA  1294               	dw	_defaultINT shr (0+2)
  7022                           
  7023                           ; Vector 90 : CWG3
  7024   0000BC  1294               	dw	_defaultINT shr (0+2)
  7025                           
  7026                           ; Vector 91 : TMR4
  7027   0000BE  1294               	dw	_defaultINT shr (0+2)
  7028                           
  7029                           ; Vector 92 : DMA4SCNT
  7030   0000C0  1294               	dw	_defaultINT shr (0+2)
  7031                           
  7032                           ; Vector 93 : DMA4DCNT
  7033   0000C2  1294               	dw	_defaultINT shr (0+2)
  7034                           
  7035                           ; Vector 94 : DMA4OR
  7036   0000C4  1294               	dw	_defaultINT shr (0+2)
  7037                           
  7038                           ; Vector 95 : DMA4A
  7039   0000C6  1294               	dw	_defaultINT shr (0+2)
  7040                           
  7041                           ; Vector 96 : U4RX
  7042   0000C8  1294               	dw	_defaultINT shr (0+2)
  7043                           
  7044                           ; Vector 97 : U4TX
  7045   0000CA  1294               	dw	_defaultINT shr (0+2)
  7046                           
  7047                           ; Vector 98 : U4E
  7048   0000CC  1294               	dw	_defaultINT shr (0+2)
  7049                           
  7050                           ; Vector 99 : U4
  7051   0000CE  1294               	dw	_defaultINT shr (0+2)
  7052                           
  7053                           ; Vector 100 : DMA5SCNT
  7054   0000D0  1294               	dw	_defaultINT shr (0+2)
  7055                           
  7056                           ; Vector 101 : DMA5DCNT
  7057   0000D2  1294               	dw	_defaultINT shr (0+2)
  7058                           
  7059                           ; Vector 102 : DMA5OR
  7060   0000D4  1294               	dw	_defaultINT shr (0+2)
  7061                           
  7062                           ; Vector 103 : DMA5A
  7063   0000D6  1294               	dw	_defaultINT shr (0+2)
  7064                           
  7065                           ; Vector 104 : U5RX
  7066   0000D8  1294               	dw	_defaultINT shr (0+2)
  7067                           
  7068                           ; Vector 105 : U5TX
  7069   0000DA  1294               	dw	_defaultINT shr (0+2)
  7070                           
  7071                           ; Vector 106 : U5E
  7072   0000DC  1294               	dw	_defaultINT shr (0+2)
  7073                           
  7074                           ; Vector 107 : U5
  7075   0000DE  1294               	dw	_defaultINT shr (0+2)
  7076                           
  7077                           ; Vector 108 : DMA6SCNT
  7078   0000E0  1294               	dw	_defaultINT shr (0+2)
  7079                           
  7080                           ; Vector 109 : DMA6DCNT
  7081   0000E2  1294               	dw	_defaultINT shr (0+2)
  7082                           
  7083                           ; Vector 110 : DMA6OR
  7084   0000E4  1294               	dw	_defaultINT shr (0+2)
  7085                           
  7086                           ; Vector 111 : DMA6A
  7087   0000E6  1294               	dw	_defaultINT shr (0+2)
  7088                           
  7089                           ; Vector 112 : Undefined
  7090   0000E8  0040               	dw	ivt0x8_undefint shr (0+2)
  7091                           
  7092                           ; Vector 113 : CLC7
  7093   0000EA  1294               	dw	_defaultINT shr (0+2)
  7094                           
  7095                           ; Vector 114 : CMP2
  7096   0000EC  1294               	dw	_defaultINT shr (0+2)
  7097                           
  7098                           ; Vector 115 : NCO3
  7099   0000EE  1294               	dw	_defaultINT shr (0+2)
  7100                           
  7101                           ; Vector 116 : Undefined
  7102   0000F0  0040               	dw	ivt0x8_undefint shr (0+2)
  7103                           
  7104                           ; Vector 117 : Undefined
  7105   0000F2  0040               	dw	ivt0x8_undefint shr (0+2)
  7106                           
  7107                           ; Vector 118 : Undefined
  7108   0000F4  0040               	dw	ivt0x8_undefint shr (0+2)
  7109                           
  7110                           ; Vector 119 : Undefined
  7111   0000F6  0040               	dw	ivt0x8_undefint shr (0+2)
  7112                           
  7113                           ; Vector 120 : NVM
  7114   0000F8  1294               	dw	_defaultINT shr (0+2)
  7115                           
  7116                           ; Vector 121 : CLC8
  7117   0000FA  1294               	dw	_defaultINT shr (0+2)
  7118                           
  7119                           ; Vector 122 : CRC
  7120   0000FC  1294               	dw	_defaultINT shr (0+2)
  7121                           
  7122                           ; Vector 123 : TMR6
  7123   0000FE  1294               	dw	_defaultINT shr (0+2)
  7124   000100                     ivt0x8_undefint:
  7125                           	callstack 0
  7126   000100  00FF               	reset	
  7127                           
  7128                           	psect	rparam
  7129   000000                     
  7130                           	psect	idloc
  7131                           
  7132                           ;Config register IDLOC0 @ 0x200000
  7133                           ;	unspecified, using default values
  7134   200000                     	org	2097152
  7135   200000  FFFF               	dw	65535
  7136                           
  7137                           ;Config register IDLOC1 @ 0x200002
  7138                           ;	unspecified, using default values
  7139   200002                     	org	2097154
  7140   200002  FFFF               	dw	65535
  7141                           
  7142                           ;Config register IDLOC2 @ 0x200004
  7143                           ;	unspecified, using default values
  7144   200004                     	org	2097156
  7145   200004  FFFF               	dw	65535
  7146                           
  7147                           ;Config register IDLOC3 @ 0x200006
  7148                           ;	unspecified, using default values
  7149   200006                     	org	2097158
  7150   200006  FFFF               	dw	65535
  7151                           
  7152                           ;Config register IDLOC4 @ 0x200008
  7153                           ;	unspecified, using default values
  7154   200008                     	org	2097160
  7155   200008  FFFF               	dw	65535
  7156                           
  7157                           ;Config register IDLOC5 @ 0x20000A
  7158                           ;	unspecified, using default values
  7159   20000A                     	org	2097162
  7160   20000A  FFFF               	dw	65535
  7161                           
  7162                           ;Config register IDLOC6 @ 0x20000C
  7163                           ;	unspecified, using default values
  7164   20000C                     	org	2097164
  7165   20000C  FFFF               	dw	65535
  7166                           
  7167                           ;Config register IDLOC7 @ 0x20000E
  7168                           ;	unspecified, using default values
  7169   20000E                     	org	2097166
  7170   20000E  FFFF               	dw	65535
  7171                           
  7172                           ;Config register IDLOC8 @ 0x200010
  7173                           ;	unspecified, using default values
  7174   200010                     	org	2097168
  7175   200010  FFFF               	dw	65535
  7176                           
  7177                           ;Config register IDLOC9 @ 0x200012
  7178                           ;	unspecified, using default values
  7179   200012                     	org	2097170
  7180   200012  FFFF               	dw	65535
  7181                           
  7182                           ;Config register IDLOC10 @ 0x200014
  7183                           ;	unspecified, using default values
  7184   200014                     	org	2097172
  7185   200014  FFFF               	dw	65535
  7186                           
  7187                           ;Config register IDLOC11 @ 0x200016
  7188                           ;	unspecified, using default values
  7189   200016                     	org	2097174
  7190   200016  FFFF               	dw	65535
  7191                           
  7192                           ;Config register IDLOC12 @ 0x200018
  7193                           ;	unspecified, using default values
  7194   200018                     	org	2097176
  7195   200018  FFFF               	dw	65535
  7196                           
  7197                           ;Config register IDLOC13 @ 0x20001A
  7198                           ;	unspecified, using default values
  7199   20001A                     	org	2097178
  7200   20001A  FFFF               	dw	65535
  7201                           
  7202                           ;Config register IDLOC14 @ 0x20001C
  7203                           ;	unspecified, using default values
  7204   20001C                     	org	2097180
  7205   20001C  FFFF               	dw	65535
  7206                           
  7207                           ;Config register IDLOC15 @ 0x20001E
  7208                           ;	unspecified, using default values
  7209   20001E                     	org	2097182
  7210   20001E  FFFF               	dw	65535
  7211                           
  7212                           ;Config register IDLOC16 @ 0x200020
  7213                           ;	unspecified, using default values
  7214   200020                     	org	2097184
  7215   200020  FFFF               	dw	65535
  7216                           
  7217                           ;Config register IDLOC17 @ 0x200022
  7218                           ;	unspecified, using default values
  7219   200022                     	org	2097186
  7220   200022  FFFF               	dw	65535
  7221                           
  7222                           ;Config register IDLOC18 @ 0x200024
  7223                           ;	unspecified, using default values
  7224   200024                     	org	2097188
  7225   200024  FFFF               	dw	65535
  7226                           
  7227                           ;Config register IDLOC19 @ 0x200026
  7228                           ;	unspecified, using default values
  7229   200026                     	org	2097190
  7230   200026  FFFF               	dw	65535
  7231                           
  7232                           ;Config register IDLOC20 @ 0x200028
  7233                           ;	unspecified, using default values
  7234   200028                     	org	2097192
  7235   200028  FFFF               	dw	65535
  7236                           
  7237                           ;Config register IDLOC21 @ 0x20002A
  7238                           ;	unspecified, using default values
  7239   20002A                     	org	2097194
  7240   20002A  FFFF               	dw	65535
  7241                           
  7242                           ;Config register IDLOC22 @ 0x20002C
  7243                           ;	unspecified, using default values
  7244   20002C                     	org	2097196
  7245   20002C  FFFF               	dw	65535
  7246                           
  7247                           ;Config register IDLOC23 @ 0x20002E
  7248                           ;	unspecified, using default values
  7249   20002E                     	org	2097198
  7250   20002E  FFFF               	dw	65535
  7251                           
  7252                           ;Config register IDLOC24 @ 0x200030
  7253                           ;	unspecified, using default values
  7254   200030                     	org	2097200
  7255   200030  FFFF               	dw	65535
  7256                           
  7257                           ;Config register IDLOC25 @ 0x200032
  7258                           ;	unspecified, using default values
  7259   200032                     	org	2097202
  7260   200032  FFFF               	dw	65535
  7261                           
  7262                           ;Config register IDLOC26 @ 0x200034
  7263                           ;	unspecified, using default values
  7264   200034                     	org	2097204
  7265   200034  FFFF               	dw	65535
  7266                           
  7267                           ;Config register IDLOC27 @ 0x200036
  7268                           ;	unspecified, using default values
  7269   200036                     	org	2097206
  7270   200036  FFFF               	dw	65535
  7271                           
  7272                           ;Config register IDLOC28 @ 0x200038
  7273                           ;	unspecified, using default values
  7274   200038                     	org	2097208
  7275   200038  FFFF               	dw	65535
  7276                           
  7277                           ;Config register IDLOC29 @ 0x20003A
  7278                           ;	unspecified, using default values
  7279   20003A                     	org	2097210
  7280   20003A  FFFF               	dw	65535
  7281                           
  7282                           ;Config register IDLOC30 @ 0x20003C
  7283                           ;	unspecified, using default values
  7284   20003C                     	org	2097212
  7285   20003C  FFFF               	dw	65535
  7286                           
  7287                           ;Config register IDLOC31 @ 0x20003E
  7288                           ;	unspecified, using default values
  7289   20003E                     	org	2097214
  7290   20003E  FFFF               	dw	65535
  7291                           
  7292                           	psect	config
  7293                           
  7294                           ;Config register CONFIG1 @ 0x300000
  7295                           ;	External Oscillator Selection
  7296                           ;	FEXTOSC = OFF, Oscillator not enabled
  7297                           ;	Reset Oscillator Selection
  7298                           ;	RSTOSC = HFINTOSC_64MHZ, HFINTOSC with HFFRQ = 64 MHz and CDIV = 1:1
  7299   300000                     	org	3145728
  7300   300000  8C                 	db	140
  7301                           
  7302                           ;Config register CONFIG2 @ 0x300001
  7303                           ;	Clock out Enable bit
  7304                           ;	CLKOUTEN = OFF, CLKOUT function is disabled
  7305                           ;	PRLOCKED One-Way Set Enable bit
  7306                           ;	PR1WAY = ON, PRLOCKED bit can be cleared and set only once
  7307                           ;	Clock Switch Enable bit
  7308                           ;	CSWEN = ON, Writing to NOSC and NDIV is allowed
  7309                           ;	Fail-Safe Clock Monitor Enable bit
  7310                           ;	FCMEN = ON, Fail-Safe Clock Monitor enabled
  7311   300001                     	org	3145729
  7312   300001  FF                 	db	255
  7313                           
  7314                           ;Config register CONFIG3 @ 0x300002
  7315                           ;	MCLR Enable bit
  7316                           ;	MCLRE = EXTMCLR, If LVP = 0, MCLR pin is MCLR; If LVP = 1, RE3 pin function is MCLR
  7317                           ;	Power-up timer selection bits
  7318                           ;	PWRTS = PWRT_OFF, PWRT is disabled
  7319                           ;	Multi-vector enable bit
  7320                           ;	MVECEN = ON, Multi-vector enabled, Vector table used for interrupts
  7321                           ;	IVTLOCK bit One-way set enable bit
  7322                           ;	IVT1WAY = OFF, IVTLOCKED bit can be cleared and set repeatedly
  7323                           ;	Low Power BOR Enable bit
  7324                           ;	LPBOREN = OFF, Low-Power BOR disabled
  7325                           ;	Brown-out Reset Enable bits
  7326                           ;	BOREN = SBORDIS, Brown-out Reset enabled , SBOREN bit is ignored
  7327   300002                     	org	3145730
  7328   300002  EF                 	db	239
  7329                           
  7330                           ;Config register CONFIG4 @ 0x300003
  7331                           ;	Brown-out Reset Voltage Selection bits
  7332                           ;	BORV = VBOR_1P9, Brown-out Reset Voltage (VBOR) set to 1.9V
  7333                           ;	ZCD Disable bit
  7334                           ;	ZCD = OFF, ZCD module is disabled. ZCD can be enabled by setting the ZCDSEN bit of ZCD
      +                          CON
  7335                           ;	PPSLOCK bit One-Way Set Enable bit
  7336                           ;	PPS1WAY = ON, PPSLOCKED bit can be cleared and set only once; PPS registers remain loc
      +                          ked after one clear/set cycle
  7337                           ;	Stack Full/Underflow Reset Enable bit
  7338                           ;	STVREN = ON, Stack full/underflow will cause Reset
  7339                           ;	Low Voltage Programming Enable bit
  7340                           ;	LVP = ON, Low voltage programming enabled. MCLR/VPP pin function is MCLR. MCLRE config
      +                          uration bit is ignored
  7341                           ;	Extended Instruction Set Enable bit
  7342                           ;	XINST = OFF, Extended Instruction Set and Indexed Addressing Mode disabled
  7343   300003                     	org	3145731
  7344   300003  FF                 	db	255
  7345                           
  7346                           ;Config register CONFIG5 @ 0x300004
  7347                           ;	WDT Period selection bits
  7348                           ;	WDTCPS = WDTCPS_31, Divider ratio 1:65536; software control of WDTPS
  7349                           ;	WDT operating mode
  7350                           ;	WDTE = OFF, WDT Disabled; SWDTEN is ignored
  7351   300004                     	org	3145732
  7352   300004  9F                 	db	159
  7353                           
  7354                           ;Config register CONFIG6 @ 0x300005
  7355                           ;	WDT Window Select bits
  7356                           ;	WDTCWS = WDTCWS_7, window always open (100%); software control; keyed access not requi
      +                          red
  7357                           ;	WDT input clock selector
  7358                           ;	WDTCCS = SC, Software Control
  7359   300005                     	org	3145733
  7360   300005  FF                 	db	255
  7361                           
  7362                           ;Config register CONFIG7 @ 0x300006
  7363                           ;	Boot Block Size selection bits
  7364                           ;	BBSIZE = BBSIZE_512, Boot Block size is 512 words
  7365                           ;	Boot Block enable bit
  7366                           ;	BBEN = OFF, Boot block disabled
  7367                           ;	Storage Area Flash enable bit
  7368                           ;	SAFEN = OFF, SAF disabled
  7369                           ;	Background Debugger
  7370                           ;	DEBUG = OFF, Background Debugger disabled
  7371   300006                     	org	3145734
  7372   300006  FF                 	db	255
  7373                           
  7374                           ;Config register CONFIG8 @ 0x300007
  7375                           ;	Boot Block Write Protection bit
  7376                           ;	WRTB = OFF, Boot Block not Write protected
  7377                           ;	Configuration Register Write Protection bit
  7378                           ;	WRTC = OFF, Configuration registers not Write protected
  7379                           ;	Data EEPROM Write Protection bit
  7380                           ;	WRTD = OFF, Data EEPROM not Write protected
  7381                           ;	SAF Write protection bit
  7382                           ;	WRTSAF = OFF, SAF not Write Protected
  7383                           ;	Application Block write protection bit
  7384                           ;	WRTAPP = OFF, Application Block not write protected
  7385   300007                     	org	3145735
  7386   300007  FF                 	db	255
  7387                           
  7388                           ;Config register CONFIG10 @ 0x300009
  7389                           ;	PFM and Data EEPROM Code Protection bit
  7390                           ;	CP = OFF, PFM and Data EEPROM code protection disabled
  7391   300009                     	org	3145737
  7392   300009  FF                 	db	255
  7393                           tosu	equ	0x4FF
  7394                           tosh	equ	0x4FE
  7395                           tosl	equ	0x4FD
  7396                           stkptr	equ	0x4FC
  7397                           pclatu	equ	0x4FB
  7398                           pclath	equ	0x4FA
  7399                           pcl	equ	0x4F9
  7400                           tblptru	equ	0x4F8
  7401                           tblptrh	equ	0x4F7
  7402                           tblptrl	equ	0x4F6
  7403                           tablat	equ	0x4F5
  7404                           prodh	equ	0x4F4
  7405                           prodl	equ	0x4F3
  7406                           indf0	equ	0x4EF
  7407                           postinc0	equ	0x4EE
  7408                           postdec0	equ	0x4ED
  7409                           preinc0	equ	0x4EC
  7410                           plusw0	equ	0x4EB
  7411                           fsr0h	equ	0x4EA
  7412                           fsr0l	equ	0x4E9
  7413                           wreg	equ	0x4E8
  7414                           indf1	equ	0x4E7
  7415                           postinc1	equ	0x4E6
  7416                           postdec1	equ	0x4E5
  7417                           preinc1	equ	0x4E4
  7418                           plusw1	equ	0x4E3
  7419                           fsr1h	equ	0x4E2
  7420                           fsr1l	equ	0x4E1
  7421                           bsr	equ	0x4E0
  7422                           indf2	equ	0x4DF
  7423                           postinc2	equ	0x4DE
  7424                           postdec2	equ	0x4DD
  7425                           preinc2	equ	0x4DC
  7426                           plusw2	equ	0x4DB
  7427                           fsr2h	equ	0x4DA
  7428                           fsr2l	equ	0x4D9
  7429                           status	equ	0x4D8

Data Sizes:
    Strings     32
    Constant    0
    Data        29
    BSS         27
    Persistent  0
    Stack       0

Auto Spaces:
    Space          Size  Autos    Used
    COMRAM           95     93      93
    BANK5           160    114     150
    BANK6           256      0      20
    BANK7           256      0       0
    BANK8           256      0       0
    BANK9           256      0       0
    BANK10          256      0       0
    BANK11          256      0       0
    BANK12          256      0       0
    BANK13          256      0       0
    BANK14          256      0       0
    BANK15          256      0       0
    BANK16          256      0       0
    BANK17          256      0       0
    BANK18          256      0       0
    BANK19          256      0       0
    BANK20          256      0       0
    BANK21          256      0       0
    BANK22          256      0       0
    BANK23          256      0       0
    BANK24          256      0       0
    BANK25          256      0       0
    BANK26          256      0       0
    BANK27          256      0       0
    BANK28          256      0       0
    BANK29          256      0       0
    BANK30          256      0       0
    BANK31          256      0       0
    BANK32          256      0       0
    BANK33          256      0       0
    BANK34          256      0       0
    BANK35          256      0       0
    BANK36          256      0       0

Pointer List with Targets:

    RTCupdate@current_time	PTR struct realtime size(2) Largest target is 4
		 -> main@current_time(BANK5[4]), 

    LCDprintf@shell	PTR unsigned char  size(2) Largest target is 16
		 -> STR_3(CODE[16]), STR_2(CODE[7]), STR_1(CODE[9]), 

    LCDprintf@args	PTR void [1] size(2) Largest target is 1
		 -> ?_LCDprintf(BANK5[1]), 

    sp__toString	PTR unsigned char  size(2) Largest target is 6
		 -> toString@string(COMRAM[6]), 

    LCDprints@c	PTR unsigned char  size(2) Largest target is 20
		 -> current_time.meridian(COMRAM[1]), current_time.seconds(COMRAM[1]), current_time.minutes(COMRAM[1]), current_time.hours(COMRAM[1]), 
		 -> LCDprintf@f_string(BANK5[20]), ?_LCDprintf(BANK5[1]), toString@string(COMRAM[6]), 


Critical Paths under _main in COMRAM

    _main->_analogMap
    _analogMap->___flmul
    ___flsub->___fladd
    ___fladd->___fldiv
    ___fldiv->___xxtofl
    _toString->___lwdiv
    ___fltol->_analogMap
    ___flmul->___flsub
    _LCDprints->_toString
    _LCDinit->_LCDinstruct
    _LCDgoto->_LCDinstruct

Critical Paths under _setINT in COMRAM

    None.

Critical Paths under _tickINT in COMRAM

    None.

Critical Paths under _defaultINT in COMRAM

    None.

Critical Paths under _main in BANK5

    _main->_RTCupdate
    _RTCupdate->_LCDprintf
    _LCDprintf->___fltol
    ___fltol->_analogMap

Critical Paths under _setINT in BANK5

    None.

Critical Paths under _tickINT in BANK5

    None.

Critical Paths under _defaultINT in BANK5

    None.

Critical Paths under _main in BANK6

    None.

Critical Paths under _setINT in BANK6

    None.

Critical Paths under _tickINT in BANK6

    None.

Critical Paths under _defaultINT in BANK6

    None.

Critical Paths under _main in BANK7

    None.

Critical Paths under _setINT in BANK7

    None.

Critical Paths under _tickINT in BANK7

    None.

Critical Paths under _defaultINT in BANK7

    None.

Critical Paths under _main in BANK8

    None.

Critical Paths under _setINT in BANK8

    None.

Critical Paths under _tickINT in BANK8

    None.

Critical Paths under _defaultINT in BANK8

    None.

Critical Paths under _main in BANK9

    None.

Critical Paths under _setINT in BANK9

    None.

Critical Paths under _tickINT in BANK9

    None.

Critical Paths under _defaultINT in BANK9

    None.

Critical Paths under _main in BANK10

    None.

Critical Paths under _setINT in BANK10

    None.

Critical Paths under _tickINT in BANK10

    None.

Critical Paths under _defaultINT in BANK10

    None.

Critical Paths under _main in BANK11

    None.

Critical Paths under _setINT in BANK11

    None.

Critical Paths under _tickINT in BANK11

    None.

Critical Paths under _defaultINT in BANK11

    None.

Critical Paths under _main in BANK12

    None.

Critical Paths under _setINT in BANK12

    None.

Critical Paths under _tickINT in BANK12

    None.

Critical Paths under _defaultINT in BANK12

    None.

Critical Paths under _main in BANK13

    None.

Critical Paths under _setINT in BANK13

    None.

Critical Paths under _tickINT in BANK13

    None.

Critical Paths under _defaultINT in BANK13

    None.

Critical Paths under _main in BANK14

    None.

Critical Paths under _setINT in BANK14

    None.

Critical Paths under _tickINT in BANK14

    None.

Critical Paths under _defaultINT in BANK14

    None.

Critical Paths under _main in BANK15

    None.

Critical Paths under _setINT in BANK15

    None.

Critical Paths under _tickINT in BANK15

    None.

Critical Paths under _defaultINT in BANK15

    None.

Critical Paths under _main in BANK16

    None.

Critical Paths under _setINT in BANK16

    None.

Critical Paths under _tickINT in BANK16

    None.

Critical Paths under _defaultINT in BANK16

    None.

Critical Paths under _main in BANK17

    None.

Critical Paths under _setINT in BANK17

    None.

Critical Paths under _tickINT in BANK17

    None.

Critical Paths under _defaultINT in BANK17

    None.

Critical Paths under _main in BANK18

    None.

Critical Paths under _setINT in BANK18

    None.

Critical Paths under _tickINT in BANK18

    None.

Critical Paths under _defaultINT in BANK18

    None.

Critical Paths under _main in BANK19

    None.

Critical Paths under _setINT in BANK19

    None.

Critical Paths under _tickINT in BANK19

    None.

Critical Paths under _defaultINT in BANK19

    None.

Critical Paths under _main in BANK20

    None.

Critical Paths under _setINT in BANK20

    None.

Critical Paths under _tickINT in BANK20

    None.

Critical Paths under _defaultINT in BANK20

    None.

Critical Paths under _main in BANK21

    None.

Critical Paths under _setINT in BANK21

    None.

Critical Paths under _tickINT in BANK21

    None.

Critical Paths under _defaultINT in BANK21

    None.

Critical Paths under _main in BANK22

    None.

Critical Paths under _setINT in BANK22

    None.

Critical Paths under _tickINT in BANK22

    None.

Critical Paths under _defaultINT in BANK22

    None.

Critical Paths under _main in BANK23

    None.

Critical Paths under _setINT in BANK23

    None.

Critical Paths under _tickINT in BANK23

    None.

Critical Paths under _defaultINT in BANK23

    None.

Critical Paths under _main in BANK24

    None.

Critical Paths under _setINT in BANK24

    None.

Critical Paths under _tickINT in BANK24

    None.

Critical Paths under _defaultINT in BANK24

    None.

Critical Paths under _main in BANK25

    None.

Critical Paths under _setINT in BANK25

    None.

Critical Paths under _tickINT in BANK25

    None.

Critical Paths under _defaultINT in BANK25

    None.

Critical Paths under _main in BANK26

    None.

Critical Paths under _setINT in BANK26

    None.

Critical Paths under _tickINT in BANK26

    None.

Critical Paths under _defaultINT in BANK26

    None.

Critical Paths under _main in BANK27

    None.

Critical Paths under _setINT in BANK27

    None.

Critical Paths under _tickINT in BANK27

    None.

Critical Paths under _defaultINT in BANK27

    None.

Critical Paths under _main in BANK28

    None.

Critical Paths under _setINT in BANK28

    None.

Critical Paths under _tickINT in BANK28

    None.

Critical Paths under _defaultINT in BANK28

    None.

Critical Paths under _main in BANK29

    None.

Critical Paths under _setINT in BANK29

    None.

Critical Paths under _tickINT in BANK29

    None.

Critical Paths under _defaultINT in BANK29

    None.

Critical Paths under _main in BANK30

    None.

Critical Paths under _setINT in BANK30

    None.

Critical Paths under _tickINT in BANK30

    None.

Critical Paths under _defaultINT in BANK30

    None.

Critical Paths under _main in BANK31

    None.

Critical Paths under _setINT in BANK31

    None.

Critical Paths under _tickINT in BANK31

    None.

Critical Paths under _defaultINT in BANK31

    None.

Critical Paths under _main in BANK32

    None.

Critical Paths under _setINT in BANK32

    None.

Critical Paths under _tickINT in BANK32

    None.

Critical Paths under _defaultINT in BANK32

    None.

Critical Paths under _main in BANK33

    None.

Critical Paths under _setINT in BANK33

    None.

Critical Paths under _tickINT in BANK33

    None.

Critical Paths under _defaultINT in BANK33

    None.

Critical Paths under _main in BANK34

    None.

Critical Paths under _setINT in BANK34

    None.

Critical Paths under _tickINT in BANK34

    None.

Critical Paths under _defaultINT in BANK34

    None.

Critical Paths under _main in BANK35

    None.

Critical Paths under _setINT in BANK35

    None.

Critical Paths under _tickINT in BANK35

    None.

Critical Paths under _defaultINT in BANK35

    None.

Critical Paths under _main in BANK36

    None.

Critical Paths under _setINT in BANK36

    None.

Critical Paths under _tickINT in BANK36

    None.

Critical Paths under _defaultINT in BANK36

    None.

Call Graph Tables:

 ---------------------------------------------------------------------------------
 (Depth) Function   	        Calls       Base Space   Used Autos Params    Refs
 ---------------------------------------------------------------------------------
 (0) _main                                                27    27      0   31077
                                             87 BANK5     27    27      0
                            _LCDgoto
                            _LCDinit
                        _LCDinstruct
                          _LCDprintc
                          _LCDprintf
                            _RTCinit
                          _RTCupdate
                            ___awmod
                            ___fltol
                          _analogMap
                         _analogRead
                            _keyScan
 ---------------------------------------------------------------------------------
 (1) _keyScan                                             22    22      0     187
                                              1 COMRAM    22    22      0
 ---------------------------------------------------------------------------------
 (1) _analogRead                                          11     2      9     480
                                              1 COMRAM    11     2      9
 ---------------------------------------------------------------------------------
 (1) _analogMap                                           26    12     14   11172
                                             89 COMRAM     4     4      0
                                              0 BANK5     22     8     14
                            ___fladd
                            ___fldiv
                             ___flge
                            ___flmul
                            ___flsub
                           ___xxtofl
                         _analogRead (ARG)
 ---------------------------------------------------------------------------------
 (2) ___xxtofl                                            14    10      4     626
                                              1 COMRAM    14    10      4
 ---------------------------------------------------------------------------------
 (2) ___flsub                                              8     0      8    3041
                                             56 COMRAM     8     0      8
                            ___fladd
                            ___fldiv (ARG)
                           ___xxtofl (ARG)
 ---------------------------------------------------------------------------------
 (3) ___fladd                                             16     8      8    2414
                                             40 COMRAM    16     8      8
                            ___fldiv (ARG)
                           ___xxtofl (ARG)
 ---------------------------------------------------------------------------------
 (2) ___flge                                              12     4      8     334
                                              1 COMRAM    12     4      8
 ---------------------------------------------------------------------------------
 (2) ___fldiv                                             25    17      8    1551
                                             15 COMRAM    25    17      8
                           ___xxtofl (ARG)
 ---------------------------------------------------------------------------------
 (1) _RTCupdate                                            8     6      2    7863
                                             79 BANK5      8     6      2
                        _LCDinstruct
                          _LCDprintf
 ---------------------------------------------------------------------------------
 (2) _LCDprintf                                           47    37     10    7367
                                             32 BANK5     47    37     10
                          _LCDprintc
                          _LCDprints
                            ___awdiv
                            ___awmod
                            ___flmul
                            ___fltol
                           _toString
 ---------------------------------------------------------------------------------
 (3) _toString                                            10     7      3     961
                                              8 COMRAM    10     7      3
                            ___lwdiv
                            ___lwmod
 ---------------------------------------------------------------------------------
 (4) ___lwmod                                              5     1      4     311
                                              1 COMRAM     5     1      4
 ---------------------------------------------------------------------------------
 (4) ___lwdiv                                              7     3      4     314
                                              1 COMRAM     7     3      4
 ---------------------------------------------------------------------------------
 (1) ___fltol                                             10     6      4     381
                                             22 BANK5     10     6      4
                          _analogMap (ARG)
                         _analogRead (ARG)
 ---------------------------------------------------------------------------------
 (2) ___flmul                                             25    17      8    2048
                                             64 COMRAM    25    17      8
                            ___fladd (ARG)
                            ___fldiv (ARG)
                            ___flsub (ARG)
                           ___xxtofl (ARG)
 ---------------------------------------------------------------------------------
 (1) ___awmod                                              6     2      4    2272
                                              1 COMRAM     6     2      4
 ---------------------------------------------------------------------------------
 (3) ___awdiv                                              8     4      4     452
                                              1 COMRAM     8     4      4
 ---------------------------------------------------------------------------------
 (3) _LCDprints                                            2     0      2     317
                                             18 COMRAM     2     0      2
                          _LCDprintc
                           _toString (ARG)
 ---------------------------------------------------------------------------------
 (4) _LCDprintc                                            2     2      0      44
                                              1 COMRAM     2     2      0
 ---------------------------------------------------------------------------------
 (1) _RTCinit                                              0     0      0       0
                          _timerInit
 ---------------------------------------------------------------------------------
 (2) _timerInit                                            0     0      0       0
 ---------------------------------------------------------------------------------
 (1) _LCDinit                                              2     2      0      44
                                              3 COMRAM     2     2      0
                        _LCDinstruct
 ---------------------------------------------------------------------------------
 (1) _LCDgoto                                              1     1      0      66
                                              3 COMRAM     1     1      0
                        _LCDinstruct
 ---------------------------------------------------------------------------------
 (2) _LCDinstruct                                          2     2      0      44
                                              1 COMRAM     2     2      0
 ---------------------------------------------------------------------------------
 Estimated maximum stack depth 4
 ---------------------------------------------------------------------------------
 (Depth) Function   	        Calls       Base Space   Used Autos Params    Refs
 ---------------------------------------------------------------------------------
 (5) _setINT                                               1     1      0       0
                                              0 COMRAM     1     1      0
 ---------------------------------------------------------------------------------
 Estimated maximum stack depth 5
 ---------------------------------------------------------------------------------
 (Depth) Function   	        Calls       Base Space   Used Autos Params    Refs
 ---------------------------------------------------------------------------------
 (6) _tickINT                                              0     0      0       0
 ---------------------------------------------------------------------------------
 Estimated maximum stack depth 6
 ---------------------------------------------------------------------------------
 (Depth) Function   	        Calls       Base Space   Used Autos Params    Refs
 ---------------------------------------------------------------------------------
 (6) _defaultINT                                           0     0      0       0
 ---------------------------------------------------------------------------------
 Estimated maximum stack depth 6
 ---------------------------------------------------------------------------------

 Call Graph Graphs:

 _main (ROOT)
   _LCDgoto
     _LCDinstruct
   _LCDinit
     _LCDinstruct
   _LCDinstruct
   _LCDprintc
   _LCDprintf
     _LCDprintc
     _LCDprints
       _LCDprintc
       _toString (ARG)
         ___lwdiv
         ___lwmod
     ___awdiv
     ___awmod
     ___flmul
       ___fladd (ARG)
         ___fldiv (ARG)
           ___xxtofl (ARG)
         ___xxtofl (ARG)
       ___fldiv (ARG)
       ___flsub (ARG)
         ___fladd
         ___fldiv (ARG)
         ___xxtofl (ARG)
       ___xxtofl (ARG)
     ___fltol
       _analogMap (ARG)
         ___fladd
         ___fldiv
         ___flge
         ___flmul
         ___flsub
         ___xxtofl
         _analogRead (ARG)
       _analogRead (ARG)
     _toString
   _RTCinit
     _timerInit
   _RTCupdate
     _LCDinstruct
     _LCDprintf
   ___awmod
   ___fltol
   _analogMap
   _analogRead
   _keyScan

 _setINT (ROOT)

 _tickINT (ROOT)

 _defaultINT (ROOT)

 Address spaces:
Name               Size   Autos  Total    Cost      Usage
BIGRAM            1FFF      0       0      70        0.0%
EEDATA             400      0       0       0        0.0%
BITBIGSFRllll      319      0       0      90        0.0%
BITBIGSFR_1        100      0       0      69        0.0%
BITBANK36          100      0       0      67        0.0%
BANK36             100      0       0      68        0.0%
BITBANK35          100      0       0      65        0.0%
BANK35             100      0       0      66        0.0%
BITBANK34          100      0       0      63        0.0%
BANK34             100      0       0      64        0.0%
BITBANK33          100      0       0      61        0.0%
BANK33             100      0       0      62        0.0%
BITBANK32          100      0       0      59        0.0%
BANK32             100      0       0      60        0.0%
BITBANK31          100      0       0      57        0.0%
BANK31             100      0       0      58        0.0%
BITBANK30          100      0       0      55        0.0%
BANK30             100      0       0      56        0.0%
BITBANK29          100      0       0      53        0.0%
BANK29             100      0       0      54        0.0%
BITBANK28          100      0       0      51        0.0%
BANK28             100      0       0      52        0.0%
BITBANK27          100      0       0      49        0.0%
BANK27             100      0       0      50        0.0%
BITBANK26          100      0       0      46        0.0%
BANK26             100      0       0      47        0.0%
BITBANK25          100      0       0      44        0.0%
BANK25             100      0       0      45        0.0%
BITBANK24          100      0       0      42        0.0%
BANK24             100      0       0      43        0.0%
BITBANK23          100      0       0      40        0.0%
BANK23             100      0       0      41        0.0%
BITBANK22          100      0       0      38        0.0%
BANK22             100      0       0      39        0.0%
BITBANK21          100      0       0      36        0.0%
BANK21             100      0       0      37        0.0%
BITBANK20          100      0       0      34        0.0%
BANK20             100      0       0      35        0.0%
BITBANK19          100      0       0      32        0.0%
BANK19             100      0       0      33        0.0%
BITBANK18          100      0       0      30        0.0%
BANK18             100      0       0      31        0.0%
BITBANK17          100      0       0      28        0.0%
BANK17             100      0       0      29        0.0%
BITBANK16          100      0       0      26        0.0%
BANK16             100      0       0      27        0.0%
BITBANK15          100      0       0      24        0.0%
BANK15             100      0       0      25        0.0%
BITBANK14          100      0       0      22        0.0%
BANK14             100      0       0      23        0.0%
BITBANK13          100      0       0      20        0.0%
BANK13             100      0       0      21        0.0%
BITBANK12          100      0       0      18        0.0%
BANK12             100      0       0      19        0.0%
BITBANK11          100      0       0      16        0.0%
BANK11             100      0       0      17        0.0%
BITBANK10          100      0       0      14        0.0%
BANK10             100      0       0      15        0.0%
BITBANK9           100      0       0      12        0.0%
BANK9              100      0       0      13        0.0%
BITBANK8           100      0       0      10        0.0%
BANK8              100      0       0      11        0.0%
BITBANK7           100      0       0       8        0.0%
BANK7              100      0       0       9        0.0%
BITBANK6           100      0       0       6        0.0%
BANK6              100      0      14       7        7.8%
BITBANK5            A0      0       0       4        0.0%
BANK5               A0     72      96       5       93.8%
BITBIGSFRlllhh      84      0       0      88        0.0%
BITBIGSFRhlllh      74      0       0      81        0.0%
BITCOMRAM           5F      0       0       0        0.0%
COMRAM              5F     5D      5D       1       97.9%
BITBIGSFRlllhl      49      0       0      89        0.0%
BITBIGSFRhhh        29      0       0      71        0.0%
BITBIGSFRhllhhh      F      0       0      78        0.0%
BITBIGSFRhllhhl      F      0       0      79        0.0%
BITBIGSFRhllll       E      0       0      82        0.0%
BITBIGSFRlhl         C      0       0      86        0.0%
BITBIGSFRlhhhh       8      0       0      83        0.0%
BITBIGSFRhhlhl       7      0       0      73        0.0%
BITBIGSFRlhhl        7      0       0      85        0.0%
BITBIGSFRllh         6      0       0      87        0.0%
BITBIGSFRlhhhl       4      0       0      84        0.0%
BITBIGSFRhhlhh       2      0       0      72        0.0%
BITBIGSFRhlhlh       2      0       0      76        0.0%
BITBIGSFRhllhl       2      0       0      80        0.0%
BITBIGSFRhlhh        1      0       0      75        0.0%
BITBIGSFRhlhll       1      0       0      77        0.0%
BITBIGSFRhhll        1      0       0      74        0.0%
BIGSFR_1             0      0       0     200        0.0%
BIGSFR               0      0       0     200        0.0%
BITSFR_6             0      0       0     200        0.0%
SFR_6                0      0       0     200        0.0%
BITSFR_5             0      0       0     200        0.0%
SFR_5                0      0       0     200        0.0%
BITSFR_4             0      0       0     200        0.0%
SFR_4                0      0       0     200        0.0%
BITSFR_3             0      0       0     200        0.0%
SFR_3                0      0       0     200        0.0%
BITSFR_2             0      0       0     200        0.0%
SFR_2                0      0       0     200        0.0%
BITSFR_1             0      0       0     200        0.0%
SFR_1                0      0       0     200        0.0%
BITSFR               0      0       0     200        0.0%
SFR                  0      0       0     200        0.0%
STACK                0      0       0       2        0.0%
NULL                 0      0       0       0        0.0%
ABS                  0      0     107      48        0.0%
DATA                 0      0     107       3        0.0%
CODE                 0      0       0       0        0.0%


Microchip Technology PIC18 Macro Assembler V2.40 build 20220703182018 
Symbol Table                                                                                   Mon Apr 03 18:44:10 2023

             ___fldiv@aexp 0528               ___fldiv@bexp 0527               ___fldiv@sign 0520  
                       l22 44EC                         l31 48EA                         l25 46D8  
                       l34 4A44                         l19 4834                         l47 474C  
                       l73 37C4                         l91 3D76                         l84 495C  
                       l87 497C               ___awdiv@sign 0507                        l200 4A00  
                      l213 40AA                        l142 2B0E                        l511 45B0  
                      l248 41F6                        l267 49E2                        l524 4660  
                      l550 4402                        l545 43BC                        l810 2CCA  
                      l901 32A2                        l911 33D2                        l903 331A  
                      l904 3308                        l808 2D16                        l577 42FE  
                      l825 2E30                        l817 2FE6                        l809 2D04  
                      l834 2F00                        l850 49C2                        l771 47B8  
                      l835 2EEE                        l781 4890                        l862 3B5E  
                      l942 3E66                        l935 3DCE                        l864 39BE  
                      l873 3A04                        l778 47C0                        l938 3F2A  
                      l875 3A7C                        l867 3982                        l788 4898  
                      l876 3A6A                        l949 3EC2                        l894 30AC  
                      l898 3410               ___awmod@sign 0507                        prod 0004F3  
                      wreg 0004E8               ___flmul@aexp 0552               ___flmul@bexp 0553  
             ___flmul@sign 054D               ___flmul@temp 0558               ___flmul@prod 0554  
             ___fltol@exp1 057F                       l3001 3678                       l3011 3760  
                     l3003 36BE                       l3005 370A                       l3013 3764  
                     l3101 3936                       l3031 49DC                       l3015 3772  
                     l3007 371E                       l3023 37A4                       l3111 3980  
                     l3103 3946                       l3033 49DE                       l3025 49C4  
                     l2401 47AA                       l3017 377E                       l3009 3744  
                     l3121 39CE                       l3113 398C                       l3105 394E  
                     l3041 37E0                       l3027 49D8                       l2403 47AC  
                     l2411 4850                       l3019 378C                       l3123 39E4  
                     l3131 3A14                       l3115 39AA                       l3107 395E  
                     l3051 3814                       l3043 37E2                       l3211 3DF4  
                     l3203 3D7A                       l3301 44E0                       l3029 49DA  
                     l2405 47B2                       l2421 488A                       l2413 4858  
                     l3133 3A22                       l3125 39EA                       l3117 39AC  
                     l3109 3972                       l3061 3846                       l3045 37F2  
                     l3053 381C                       l3037 37C6                       l2501 2BF0  
                     l3221 3E4E                       l3205 3D8A                       l3303 44E6  
                     l2351 466E                       l2431 48B0                       l2423 489A  
                     l2415 4866                       l2407 4836                       l3143 3A8C  
                     l3151 3AD4                       l3135 3A26                       l3127 39F4  
                     l3119 39BC                       l3071 387A                       l3063 3848  
                     l3055 382C                       l3047 3802                       l3039 37D2  
                     l2511 2C2C                       l2503 2BF8                       l3231 3EB2  
                     l3223 3E50                       l3215 3E08                       l3207 3D98  
                     l3311 4938                       l2361 467E                       l2353 4670  
                     l2441 48D2                       l2433 48B2                       l2425 48A4  
                     l2417 487C                       l2409 4848                       l3161 3B3E  
                     l3153 3AEE                       l3145 3A98                       l3137 3A34  
                     l3129 3A02                       l3081 38C0                       l3065 3858  
                     l3073 3882                       l3057 3832                       l3049 3812  
                     l2601 2E56                       l2521 2C40                       l2513 2C30  
                     l2505 2C08                       l3241 3F0A                       l3233 3ED0  
                     l3225 3E5C                       l3217 3E10                       l3209 3DDE  
                     l3321 496A                       l3313 4942                       l3401 40D8  
                     l3307 4A3C                       l3251 441C                       l2371 46A4  
                     l2363 4690                       l2355 4672                       l2435 48B4  
                     l2427 48A6                       l2419 4884                       l2451 46FC  
                     l2443 46DA                       l3163 3B4C                       l3155 3B04  
                     l3147 3AA6                       l3139 3A62                       l3091 38E8  
                     l3083 38C4                       l3075 3892                       l3067 3868  
                     l3059 3838                       l2611 2E84                       l2531 2C54  
                     l2523 2C44                       l2515 2C34                       l2507 2C1A  
                     l3243 3F18                       l3235 3ED2                       l3227 3E98  
                     l3219 3E1C                       l3315 4944                       l3411 4122  
                     l3403 40E0                       l3261 4434                       l3253 4422  
                     l3341 49E4                       l2381 46C8                       l2373 46B4  
                     l2365 4698                       l2357 467A                       l2349 4664  
                     l2437 48C0                       l2429 48A8                       l2701 30CC  
                     l2453 4722                       l2445 46E6                       l3165 3B52  
                     l3157 3B1E                       l3149 3AD0                       l3077 38A8  
                     l3069 3878                       l3181 4300                       l2613 2E92  
                     l2605 2E6A                       l2621 2EB0                       l2533 2C58  
                     l2525 2C48                       l2517 2C38                       l2509 2C28  
                     l2541 2C68                       l3245 3F1A                       l3237 3ED6  
                     l3229 3EA4                       l3325 3B60                       l3317 4958  
                     l3413 4126                       l3421 415C                       l3405 40E4  
                     l3501 27F0                       l3271 4452                       l3263 443E  
                     l3255 4426                       l3351 49F6                       l3343 49EA  
                     l2375 46BC                       l2367 469A                       l2359 467C  
                     l2439 48CE                       l2711 310C                       l2391 4770  
                     l2455 473E                       l2447 46EA                       l3167 3B54  
                     l3159 3B3A                       l3095 38FC                       l3079 38B8  
                     l3087 38D8                       l3191 438A                       l3183 432E  
                     l2615 2E9A                       l2607 2E74                       l2623 2EBE  
                     l2551 2CD8                       l2543 2C6C                       l2535 2C5C  
                     l2527 2C4C                       l2519 2C3C                       l2471 2B54  
                     l2463 2B28                       l3175 497E                       l3239 3EFA  
                     l3327 3B92                       l3335 3C86                       l3319 495A  
                     l3431 418C                       l3423 416C                       l3415 414A  
                     l3407 40F6                       l3511 2858                       l3503 282A  
                     l3281 448E                       l3273 4462                       l3265 4446  
                     l3257 4428                       l3249 4404                       l3353 49F8  
                     l3345 49EE                       l2377 46BE                       l2369 46A2  
                     l2801 4508                       l2721 3156                       l2713 3118  
                     l2705 30E0                       l2393 4778                       l2385 474E  
                     l3361 3F3E                       l3097 3916                       l3089 38E8  
                     l3193 439C                       l3185 433E                       l2633 2F10  
                     l2641 2F66                       l2625 2EC2                       l2617 2E9E  
                     l2609 2E82                       l2561 2D02                       l2553 2CE4  
                     l2545 2C96                       l2537 2C60                       l2529 2C50  
                     l2481 2B8E                       l2473 2B64                       l2465 2B34  
                     l3177 498E                       l3337 3D42                       l3329 3C4E  
                     l3433 4190                       l3425 416E                       l3417 4152  
                     l3409 4112                       l3521 28A0                       l3513 2864  
                     l3505 283C                       l3291 44B2                       l3283 4490  
                     l3275 446A                       l3267 4448                       l3259 4432  
                     l3355 49FA                       l3347 49F0                       l2379 46C6  
                     l2811 452E                       l2803 450C                       l2731 31A8  
                     l2723 3162                       l2715 3130                       l2707 30EC  
                     l2395 4786                       l2387 4756                       l2459 4744  
                     l3371 3FB6                       l3363 3F42                       l3099 3926  
                     l3195 43AA                       l3187 436C                       l2651 2FB8  
                     l2643 2F76                       l2635 2F1C                       l2627 2ED0  
                     l2619 2EAE                       l2571 2D58                       l2563 2D24  
                     l2555 2CE8                       l2547 2CB2                       l2539 2C64  
                     l2491 2BBC                       l2483 2B94                       l2475 2B74  
                     l2467 2B42                       l3435 41AC                       l3427 4172  
                     l3419 415A                       l3531 28D0                       l3523 28B2  
                     l3515 2874                       l3507 2842                       l3293 44BC  
                     l3285 4498                       l3277 4474                       l3269 4450  
                     l3357 49FC                       l3349 49F4                       l2821 4564  
                     l2813 4540                       l2805 451A                       l2741 3226  
                     l2733 31B8                       l2725 3172                       l2717 313C  
                     l2709 30F6                       l2901 429E                       l2397 478C  
                     l2389 4768                       l3381 401E                       l3373 3FC0  
                     l3365 3F50                       l3197 43FA                       l3189 437C  
                     l2661 2FD6                       l2653 2FBE                       l2645 2F86  
                     l2637 2F2A                       l2629 2EE6                       l2581 2D92  
                     l2573 2D66                       l2565 2D34                       l2557 2CF6  
                     l2549 2CC2                       l2493 2BBE                       l2485 2BA6  
                     l2477 2B76                       l2469 2B44                       l3437 41AE  
                     l3429 417A                       l3541 2944                       l3533 28D8  
                     l3525 28BE                       l3517 2880                       l3509 284C  
                     l3295 44CE                       l3287 449A                       l3279 4486  
                     l2823 457A                       l2815 4548                       l2831 4590  
                     l2807 4522                       l2751 32A0                       l2743 325C  
                     l2735 31D4                       l2727 317E                       l2719 3148  
                     l2671 3004                       l2911 42CE                       l2399 47A2  
                     l3383 402A                       l3375 3FD8                       l3367 3F6C  
                     l3359 3F2C                       l3199 4400                       l2655 2FC0  
                     l2647 2FA6                       l2639 2F64                       l2591 2DFE  
                     l2583 2D94                       l2575 2D74                       l2559 2CF8  
                     l2495 2BCE                       l2487 2BA8                       l2479 2B7E  
                     l3439 41D8                       l3391 40AC                       l3711 2AD8  
                     l3551 299A                       l3543 294A                       l3535 28E4  
                     l3527 28C6                       l3519 2898                       l2921 47CE  
                     l3297 44D4                       l3289 44AA                       l2833 45A0  
                     l2825 4582                       l2817 4550                       l2809 4526  
                     l2841 45B6                       l2761 3300                       l2753 32B2  
                     l2745 326A                       l2737 31E0                       l2729 318E  
                     l2681 304A                       l2673 3014                       l2665 2FE8  
                     l2913 42DE                       l3385 4032                       l3377 3FF0  
                     l3369 3FA6                       l2657 2FC6                       l2649 2FAA  
                     l2593 2E00                       l2585 2D9E                       l2577 2D80  
                     l2569 2D48                       l2497 2BDE                       l2489 2BAE  
                     l3393 40B8                       l3553 29BE                       l3545 2968  
                     l3537 2908                       l3529 28CA                       l3481 264A  
                     l2931 47DE                       l2923 47D0                       l3299 44DA  
                     l2835 45A8                       l2827 4584                       l2819 455E  
                     l2851 45E6                       l2843 45C4                       l2771 336E  
                     l2755 32C0                       l2747 3288                       l2739 31FC  
                     l2691 3076                       l2683 3050                       l2675 3024  
                     l2667 2FF4                       l2915 42EE                       l2907 42B2  
                     l3379 4000                       l3387 4042                       l2659 2FD4  
                     l2595 2E10                       l2579 2D84                       l2587 2DA4  
                     l2499 2BEE                       l3395 40CA                       l3571 2A64  
                     l3563 29FE                       l3555 29D6                       l3547 296E  
                     l3539 292C                       l3707 2804                       l3491 27A0  
                     l3483 2650                       l3475 2622                       l2941 4808  
                     l2933 47F4                       l2925 47D2                       l2829 458A  
                     l2861 462C                       l2853 45F8                       l2845 45CC  
                     l2781 33D6                       l2765 332A                       l2773 3372  
                     l2757 32C4                       l2749 3292                       l2693 3086  
                     l2685 3056                       l2677 3034                       l2669 3002  
                     l2909 42BE                       l3389 4048                       l2589 2DCA  
                     l2597 2E20                       l3397 40D0                       l3709 2AA6  
                     l3573 2A7C                       l3565 2A22                       l3557 29DC  
                     l3549 2976                       l3493 27C2                       l3485 2658  
                     l3477 2634                       l2943 4818                       l2935 47F6  
                     l2927 47DA                       l2919 47C4                       l2871 4658  
                     l2863 4634                       l2855 4600                       l2847 45D0  
                     l2839 45B2                       l2791 3400                       l2783 33E6  
                     l2775 338C                       l2767 3336                       l2759 32D2  
                     l2695 3096                       l2687 3064                       l2679 303A  
                     l2599 2E46                       l3399 40D4                       l3567 2A46  
                     l3559 29F4                       l3583 2AC4                       l3495 27C8  
                     l3487 26FE                       l3479 2646                       l2945 481A  
                     l2937 47FE                       l2929 47DC            __end_of_LCDinit 44EE  
                     l2865 463A                       l2857 4608                       l2849 45DE  
                     l2785 33F4                       l2777 33A0                       l2769 3344  
                     l2697 309C                       l2689 3066                       l2881 4224  
                     l2961 345E                       l2953 3412                       l3569 2A5E  
                     l3585 2B0E                       l3497 27E0                       l3489 279A  
                     l2947 4822                       l2939 4800                       l2795 44EE  
                     l2859 4616                       l2867 4640                       l2787 33F6  
                     l2779 33BA                       l2699 30BC                       l2891 4272  
                     l2883 424E                       l2875 41F8                       l2971 34E0  
                     l2963 348A                       l2955 3420                       l3579 2A86  
                     l2949 4824                       l2797 44F2                       l2869 4650  
                     l2789 33FC                       l2885 4250                       l2877 4210  
                     l2981 3570                       l2973 3520                       l2965 349E  
                     l2957 3440            __end_of_LCDgoto 4A46                       l2799 4500  
                     l2887 4260                       l2991 35D6                       l2975 352A  
                     l2967 34A8                       l2959 3454                       l2897 428A  
                     l2889 4264                       l2993 35DE                       l2985 357E  
                     l2977 3536                       l2969 34B4                       l2899 4294  
                     l2995 3612                       l2987 35AA                       l2979 3562  
                     l2997 3616                       l2989 35B6                       l2999 365C  
                     STR_1 2611                       STR_2 261A                       STR_3 2601  
                     u2000 2EAE                       u2001 2EAA                       u2010 2EBE  
                     u2011 2EBA                       u2100 2FA6                       u2020 2ED0  
                     u2101 2FA2                       u2021 2ECC                       u2110 2FB8  
                     u2030 2EE6                       u2111 2FB4                       u2031 2EE2  
                     u2200 30CC                       u2120 2FD4                       u2040 2EFC  
                     u3000 3B92                       u2201 30C8                       u2121 2FD0  
                     u2041 2EF8                       u3001 3B8E                       u2210 3246  
                     u2130 3002                       u3010 3F3E                       u2050 2F10  
                     u2131 2FFE                       u3011 3F3A                       u2051 2F0C  
                     u2300 33BA                       u2220 32A0                       u2140 3014  
                     u3020 3F6C                       u2060 2F2A                       u2301 33B6  
                     u2221 329C                       u2141 3010                       u3021 3F68  
                     u2061 2F26                       u2310 33F4                       u2230 32C0  
                     u2150 3024                       u3030 3FA6                       u2070 2F64  
                     u3110 416C                       u2311 33F0                       u2231 32BC  
                     u2215 323C                       u2151 3020                       u3031 3FA2  
                     u2071 2F60                       u3111 4168                       u2320 4500  
                     u2400 45F8                       u2240 32D2                       u2160 3064  
                     u3040 3FD8                       u2080 2F76                       u3120 418C  
                     u3104 413E                       u3200 2714                       _LATD 0004C1  
                     u2321 44FC                       u2401 45F4                       u2241 32CE  
                     u2161 3060                       u3041 3FD4                       u2081 2F72  
                     u3121 4188                       u3105 4138                       u3201 270A  
                     u2330 451A                       u2410 4616                       u2250 3300  
                     u2170 3076                       u3050 3FF0                       u2090 2F86  
                     u3210 2734                       _LATF 0004C3                       u2331 4516  
                     u2411 4612                       u2251 32FC                       u2171 3072  
                     u3051 3FEC                       u2091 2F82                       u3211 272C  
                     u2340 4540                       u2420 462C                       u2260 3316  
                     u2180 3086                       u2500 42DE                       u1700 487C  
                     u3060 401E                       u3140 41D8                       u3220 283C  
                     u2341 453C                       u2421 4628                       u2261 3312  
                     u2181 3082                       u2501 42DA                       u1701 4878  
                     u3061 401A                       u3141 41D4                       u3221 2838  
                     u1710 48EA                       u2350 455E                       u2430 4650  
                     u2270 332A                       u2190 30BC                       u2510 3440  
                     u3134 41C4                       u3230 2874                       u1711 48E6  
                     u2351 455A                       u2431 464C                       u2271 3326  
                     u2191 30B8                       u2511 343C                       u3135 41BE  
                     u3071 40C2                       u3231 2870                       u2360 457A  
                     u2280 3344                       u2440 4210                       u2600 37C4  
                     u2520 348A                       u1800 2BDE                       u3080 40F6  
                     u3240 28B2                       u3208 2718                       u2361 4576  
                     u2281 3340                       u2441 420C                       u1721 46E0  
                     u2601 37C0                       u2521 3486                       u1801 2BDA  
                     u3081 40F2                       u3241 28AE                       u2370 45A0  
                     u2290 338C                       u2450 4244                       u1650 4768  
                     u1730 46F8                       u2530 34E0                       u2610 37E0  
                     u1810 2C1A                       u3090 4122                       u3250 2908  
                     u3218 2738                       u2371 459C                       u2291 3388  
                     u1651 4764                       u1731 46F4                       u2531 34DC  
                     u2611 37DC                       u1811 2C16                       u3091 411E  
                     u3307 4100                       u3251 2904                       u3171 263E  
                     u2380 45C4                       u2460 4272                       u1660 4786  
                     u2540 3562                       u2700 3980                       u2620 37F2  
                     u1900 2D34                       u1820 2C28                       u1740 2B42  
                     u3260 299A                       u3180 269E                       u2381 45C0  
                     u2461 426E                       u1661 4782                       u2541 355E  
                     u2701 397C                       u2621 37EE                       u1901 2D30  
                     u1821 2C24                       u1741 2B3E                       u3317 414C  
                     u3261 2996                       u3181 2696                       u2390 45DE  
                     u2470 4286                       u1670 47A2                       u2550 35AA  
                     u2710 39AA                       u2630 3802                       u1910 2D66  
                     u1830 2C96                       u1750 2B54                       u3270 2A22  
                     u3190 26C2                       u3407 46C0                       u2391 45DA  
                     u2471 4282                       u2455 423A                       u1671 479E  
                     u2551 35A6                       u2711 39A6                       u2631 37FE  
                     u1911 2D62                       u1831 2C92                       u1751 2B50  
                     u3327 4174                       u3271 2A1E                       u3191 26B8  
                     u2480 42AE                       u1680 4848                       u2800 3AA6  
                     u2720 39CE                       u2640 3846                       u1920 2D74  
                     u1840 2CAE                       u1760 2B64                       u3280 2B20  
                     u3417 46CE                       u2481 42AA                       u1681 4844  
                     u2561 35B0                       u2801 3AA2                       u2721 39CA  
                     u2641 3842                       u1921 2D70                       u1841 2CA8  
                     u1761 2B60                       u3337 419A                       u3281 2B1C  
                     u2490 42CE                       u1690 4866                       u2570 365C  
                     u2810 3AEE                       u2730 39E4                       u2650 3858  
                     u1930 2D92                       u1850 2CB0                       u1770 2BA6  
                     u3507 44A0                       u3427 440E                       u3347 48AA  
                     u2491 42CA                       u1691 4862                       u2571 3658  
                     u2811 3AEA                       u2731 39E0                       u2651 3854  
                     u1931 2D8E                       u1771 2BA2                       u2580 370A  
                     u2820 3B1E                       u2740 3A02                       u2660 3868  
                     u1940 2DCA                       u1860 2CD8                       u1780 2BBC  
                     u2900 3D98                       u3188 26A2                       u3517 44B6  
                     u3437 442C                       u3357 48B6                       u2581 3706  
                     u2821 3B1A                       u2741 39FE                       u2661 3864  
                     u1941 2DC6                       u1861 2CD4                       u1781 2BB8  
                     u2901 3D94                       u2590 3772                       u2830 3B4C  
                     u2750 3A22                       u2670 38A8                       u1950 2E10  
                     u1870 2CF6                       u1790 2BCE                       u2910 3DF4  
                     u3198 26C6                       u3527 44C4                       u3447 4438  
                     u3367 4674                       u2591 376E                       u2831 3B48  
                     u2751 3A1E                       u2671 38A4                       u1951 2E0C  
                     u1871 2CF2                       u1791 2BCA                       u2911 3DF0  
                     u2760 3A34                       u2680 38E8                       u2840 432E  
                     u1960 2E46                       u1880 2D16                       u2920 3E4A  
                     u3537 47D4                       u3457 444A                       u3377 4692  
                     u2761 3A30                       u2681 38E4                       u2841 432A  
                     u1961 2E42                       u1881 2D12                       u2921 3E46  
                     u3297 40DA                       u2770 3A62                       u2690 395E  
                     u2850 436C                       u1970 2E56                       u1890 2D24  
                     u2930 3E94                       u3547 47F8                       u3467 4458  
                     u3387 469C                       u2771 3A5E                       u2691 395A  
                     u2851 4368                       u1971 2E52                       u1891 2D20  
                     u2931 3E90                       u2780 3A78                       u2860 438A  
                     u1980 2E82                       u2940 3EB2                       u3557 4802  
                     u3477 446E                       u3397 46B6                       u2781 3A74  
                     u2861 4386                       u1981 2E7E                       u2941 3EAE  
                     u2790 3A8C                       u2870 43AA                       u1990 2E92  
                     u2950 3EC2                       u3567 481C                       u3487 447C  
                     u2791 3A88                       u2871 43A6                       u1991 2E8E  
                     u2951 3EBE                       u2880 43FA                       u2960 3ED0  
                     u3577 482A                       u3497 4492                       u2881 43F6  
                     u2961 3ECC                       u2970 3F0A                       u2890 3D8A  
                     u2971 3F06                       u2891 3D86                       u2980 3F18  
                     u2981 3F14                       u2990 496A                       u2991 4966  
              main@indexer 05B9                       _WPUD 000419                       _WPUF 000429  
                     _main 2622                       fsr2h 0004DA                       indf2 0004DF  
                     fsr1l 0004E1                       fsr2l 0004D9            __end_of_RTCinit 4A02  
                     prodh 0004F4                       prodl 0004F3                       start 0102  
          ___fldiv@new_exp 0521               ___param_bank 000000               ?_LCDinstruct 0501  
            ___fltol@sign1 057E            __end_of___fladd 2FE8                      ?_main 0501  
                    _ADPCH 0003EC            __end_of___fldiv 3B60            __end_of___awdiv 45B2  
          __end_of___awmod 4662            __end_of___flmul 3412            __end_of___flsub 49C4  
          __end_of___fltol 4300            ___awdiv@divisor 0504                      _IOCBF 00040F  
          __end_of___lwdiv 47C2                      i1l218 4A34            __end_of___lwmod 489A  
                    i2l272 4A4E                      i2l277 4A50            ___awdiv@counter 0506  
                    _TMR0H 000319                      _PORTF 0004D3                      _TRISD 0004C9  
                    _TRISF 0004CB            __end_of_keyScan 41F8            __end_of_tickINT 4A50  
         LCDprintf@f_input 05A6                      tablat 0004F5               main@position 05CC  
                    plusw1 0004E3                      plusw2 0004DB                      status 0004D8  
         LCDprintf@indexer 05AC                keyScan@cols 0516            __initialization 48EC  
             __end_of_main 2B28             _analogMap$1286 056E             _analogMap$1287 0572  
                   ??_main 05B7              __activetblptr 000003        analogMap@analog_max 0562  
      analogMap@analog_min 0564                  ??_LCDinit 0504                  ??_LCDgoto 0504  
                   _ADRESH 0003EB                     _ADRESL 0003EA           ___awdiv@dividend 0502  
                   _ANSELD 000418                     _ANSELF 000428                     _T0CON0 00031A  
                   _T0CON1 00031B          __end_of_LCDprintc 46DA          __end_of_LCDprintf 37C6  
        __end_of_LCDprints 48EC                  ??_RTCinit 0502                     _IOCBF4 00207C  
                   _IOCBN4 002074                     i1l3605 4A24                     i1l3607 4A2E  
                   i2l2227 4A50                     i2l3611 4A48                     i2l3613 4A4A  
         __end_of___xxtofl 3F2C                     ___flge 4300                  ??___fladd 0531  
                ??___fldiv 0518                  ??___awdiv 0506                  ??___awmod 0506  
                ??___flmul 0549                  ??___flsub 0541                  ??___fltol 057A  
                ??___lwdiv 0506                  ??___lwmod 0506                     _setINT 4A20  
                   clear_0 4912                     clear_1 491E           ___awdiv@quotient 0508  
          ___awmod@divisor 0504                     isa$std 000001            ___awmod@counter 0506  
                ??_keyScan 0502           __end_of_toString 474E                  ??_tickINT 0501  
             __mediumconst 0000          LCDprintf@f_string 0591                     tblptrh 0004F7  
                   tblptrl 0004F6                     tblptru 0004F8          __end_of_RTCupdate 40AC  
               ___flge@ff1 0502                 ___flge@ff2 0506               ___xxtofl@arg 050C  
             ___xxtofl@exp 050B               ___xxtofl@val 0502                 __accesstop 0560  
  __end_of__initialization 4932              ___rparam_used 000001                 ___fltol@f1 0576  
           __pcstackCOMRAM 0501               __pidataBANK5 4A02              _RTCupdate$510 05B5  
           ivt0x8_undefint 0100                 __pbssBANK5 05EF                 __pbssBANK6 0600  
      analogMap@sensor_max 0566        analogMap@sensor_min 056A                 _defaultINT 4A50  
               _analogRead 4938                    IVTBASEH 00045E                    IVTBASEL 00045D  
                  IVTBASEU 00045F                    ?___flge 0502                    ?_setINT 0501  
                ?___xxtofl 0502                    _LCDinit 4404                    _LCDgoto 4A3A  
                  _RTCinit 49E4          __end_of_analogMap 3D78                    __Hparam 0000  
                  __Lparam 0000                  ?_toString 0509                    ___fladd 2B28  
                  ___fldiv 37C6  analogRead@pin_designation 050A                    ___awdiv 44EE  
                  ___awmod 45B2                    ___flmul 2FE8                    ___flsub 497E  
                  ___fltol 41F8                    ___lwdiv 474E                    ___lwmod 4836  
             __psmallconst 2600                    _nSetRTC 05EE                    __pcinit 48EC  
                  __ramtop 2600                    __ptext0 2622                    __ptext1 40AC  
                  __ptext2 4938                    __ptext3 3B60                    __ptext4 3D78  
                  __ptext5 497E                    __ptext6 2B28                    __ptext7 4300  
                  __ptext8 37C6                    __ptext9 3F2C                    _keyScan 40AC  
               ??___xxtofl 0506           ___awmod@dividend 0502                    _tickINT 4A48  
                  main@key 05CD                    main@lux 05CB       end_of_initialization 4932  
            keyScan@F16784 05D2                ?_defaultINT 0501           LCDinstruct@instr 0503  
              ?_analogRead 0502                  _LCDprintc 4662                  _LCDprintf 3412  
                _LCDprints 489A          __end_of_timerInit 49E4                 _tick_count 05F5  
               ??_toString 050C                    postdec1 0004E5                    postdec2 0004DD  
                  postinc0 0004EE                    postinc2 0004DE                 main@F16831 05E2  
       analogRead@pin_tris 0506                ___fladd@grs 0538              keyScan@lookup 0505  
            ___xxtofl@sign 050A                  _TRISAbits 0004C6                  _TRISBbits 0004C7  
              ___fldiv@grs 0523                ___fldiv@rem 051C            LCDprintf@F16825 0600  
              ___flmul@grs 054E                  _RTCupdate 3F2C           main@current_time 05CE  
               ?_LCDprintc 0501                 ?_LCDprintf 0580                 ?_LCDprints 0513  
           __end_of___flge 4404             __end_of_setINT 4A3A        start_initialization 48EC  
  analogMap@analog_reading 0560                 ivt0x8_base 0008                 ?_RTCupdate 05AF  
               LCDgoto@pos 0504                   ??___flge 050A                 LCDprintc@c 0503  
              __pdataBANK5 05D2                 LCDprintf@i 05A5                 LCDprints@c 0513  
                 ??_setINT 0501              ??_LCDinstruct 0502                  ___fladd@a 052D  
                ___fladd@b 0529                  ___fldiv@a 0514                  ___fldiv@b 0510  
                ___flmul@a 0545                  ___flmul@b 0541                   ?_LCDinit 0501  
                 ?_LCDgoto 0501                  ___flsub@a 053D                  ___flsub@b 0539  
           toString@F16815 05EF              __pcstackBANK5 0560                   ?_RTCinit 0501  
              ??_LCDprintc 0502                ??_LCDprintf 058A                ??_LCDprints 0515  
                _analogMap 3B60           ___lwdiv@dividend 0502                   ?___fladd 0529  
                 ?___fldiv 0510                   ?___awdiv 0502                   ?___awmod 0502  
                 ?___flmul 0541                   ?___flsub 0539                   ?___fltol 0576  
                 ?___lwdiv 0502                   ?___lwmod 0502             toString@length 050B  
           toString@number 0509             toString@string 050C                   ?_keyScan 0501  
              __smallconst 2600                   ?_tickINT 0501      RTCupdate@current_time 05AF  
      __end_of_LCDinstruct 4836           ___lwdiv@quotient 0506               ??_defaultINT 0501  
              ??_RTCupdate 05B1                   _LATDbits 0004C1               ??_analogRead 050B  
                 _PIE0bits 00049E                   _IPR3bits 000365                   _PIE3bits 0004A1  
               ?_analogMap 0560                   _PIR3bits 0004B1                  _timerInit 49C4  
               _ADCON0bits 0003F3         __end_of_defaultINT 4A52                   _WPUBbits 000409  
       __end_of_analogRead 497E                _INTCON0bits 0004D6                  copy_data0 4900  
           LCDprintf@f_int 05AA             LCDprintf@shell 0580                   __Hrparam 0000  
                 __Lrparam 0000                 ?_timerInit 0501                _LCDinstruct 47C2  
               _ANSELAbits 000400                 _ANSELBbits 000408                   ___xxtofl 3D78  
               _T0CON0bits 00031A                   _main$296 05C9                   __pivt0x8 0008  
          ___lwdiv@divisor 0504            ___lwdiv@counter 0508                   __ptext10 3412  
                 __ptext11 46DA                   __ptext20 49E4                   __ptext12 4836  
                 __ptext21 49C4                   __ptext13 474E                   __ptext22 4404  
                 __ptext14 41F8                   __ptext23 4A3A                   __ptext15 2FE8  
                 __ptext24 47C2                   __ptext16 45B2                   __ptext25 4A20  
                 __ptext17 44EE                   __ptext26 4A48                   __ptext18 489A  
                 __ptext27 4A50                   __ptext19 4662                ??_analogMap 055A  
                toString@i 0512                   _toString 46DA                   isa$xinst 000000  
            LCDprintf@args 05AD                   intlevel1 0000                   intlevel2 0000  
          main@pot_voltage 05C5           ___lwmod@dividend 0502                ??_timerInit 0502  
      analogRead@pin_ansel 0502            keyScan@colshift 0515            ___lwmod@divisor 0504  
          ___lwmod@counter 0506              ___fladd@signs 0535               ___fladd@aexp 0536  
             ___fladd@bexp 0537            keyScan@rowshift 0517  
