

Microchip MPLAB XC8 Assembler V2.40 build 20220703182018 
                                                                                               Mon Apr 03 07:42:42 2023

Microchip MPLAB XC8 C Compiler v2.40 (Free license) build 20220703182018 Og1 
     1                           	processor	18F57Q43
     2                           	fnconf	rparam,??,?,0
     3                           	pagewidth 120
     4                           	opt	flic
     5                           	psect	idataCOMRAM,global,class=CODE,delta=1,noexec
     6                           	psect	smallconst,global,reloc=2,class=SMALLCONST,delta=1,noexec
     7                           	psect	cinit,global,reloc=2,class=CODE,delta=1
     8                           	psect	bssCOMRAM,global,class=COMRAM,space=1,delta=1,lowdata,noexec
     9                           	psect	dataCOMRAM,global,class=COMRAM,space=1,delta=1,lowdata,noexec
    10                           	psect	bssBANK5,global,class=BANK5,space=1,delta=1,lowdata,noexec
    11                           	psect	cstackBANK5,global,class=BANK5,space=1,delta=1,lowdata,noexec
    12                           	psect	cstackCOMRAM,global,class=COMRAM,space=1,delta=1,lowdata,noexec
    13                           	psect	text0,global,reloc=2,class=CODE,delta=1
    14                           	psect	text1,global,reloc=2,class=CODE,delta=1
    15                           	psect	text2,global,reloc=2,class=CODE,delta=1
    16                           	psect	text3,global,reloc=2,class=CODE,delta=1,group=1
    17                           	psect	text4,global,reloc=2,class=CODE,delta=1,group=1
    18                           	psect	text5,global,reloc=2,class=CODE,delta=1,group=1
    19                           	psect	text6,global,reloc=2,class=CODE,delta=1,group=1
    20                           	psect	text7,global,reloc=2,class=CODE,delta=1,group=1
    21                           	psect	text8,global,reloc=2,class=CODE,delta=1
    22                           	psect	text9,global,reloc=2,class=CODE,delta=1
    23                           	psect	text10,global,reloc=2,class=CODE,delta=1,group=1
    24                           	psect	text11,global,reloc=2,class=CODE,delta=1,group=1
    25                           	psect	text12,global,reloc=2,class=CODE,delta=1
    26                           	psect	text13,global,reloc=2,class=CODE,delta=1
    27                           	psect	text14,global,reloc=2,class=CODE,delta=1
    28                           	psect	text15,global,reloc=2,class=CODE,delta=1
    29                           	psect	text16,global,reloc=4,class=CODE,delta=1
    30                           	psect	ivt0x8,global,reloc=2,class=CODE,delta=1,noexec,keep,optim=
    31                           	psect	intsave_regs,global,class=BIGRAM,space=1,delta=1,noexec
    32                           	psect	rparam,global,class=COMRAM,space=1,delta=1,noexec
    33                           	psect	idloc,global,abs,ovrld,class=IDLOC,space=5,delta=1,noexec
    34                           	psect	config,global,abs,ovrld,class=CONFIG,space=4,delta=1,noexec
    35   000000                     
    36                           ; Generated 09/02/2023 GMT
    37                           ; 
    38                           ; Copyright © 2023, Microchip Technology Inc. and its subsidiaries ("Microchip")
    39                           ; All rights reserved.
    40                           ; 
    41                           ; This software is developed by Microchip Technology Inc. and its subsidiaries ("Microch
      +                          ip").
    42                           ; 
    43                           ; Redistribution and use in source and binary forms, with or without modification, are
    44                           ; permitted provided that the following conditions are met:
    45                           ; 
    46                           ;     1. Redistributions of source code must retain the above copyright notice, this lis
      +                          t of
    47                           ;        conditions and the following disclaimer.
    48                           ; 
    49                           ;     2. Redistributions in binary form must reproduce the above copyright notice, this 
      +                          list
    50                           ;        of conditions and the following disclaimer in the documentation and/or other
    51                           ;        materials provided with the distribution. Publication is not required when
    52                           ;        this file is used in an embedded application.
    53                           ; 
    54                           ;     3. Microchip's name may not be used to endorse or promote products derived from th
      +                          is
    55                           ;        software without specific prior written permission.
    56                           ; 
    57                           ; THIS SOFTWARE IS PROVIDED BY MICROCHIP "AS IS" AND ANY EXPRESS OR IMPLIED WARRANTIES,
    58                           ; INCLUDING, BUT NOT LIMITED TO, THE IMPLIED WARRANTIES OF MERCHANTABILITY AND FITNESS F
      +                          OR
    59                           ; PURPOSE ARE DISCLAIMED.  IN NO EVENT SHALL MICROCHIP BE LIABLE FOR ANY DIRECT, INDIREC
      +                          T,
    60                           ; INCIDENTAL, SPECIAL, EXEMPLARY, OR CONSEQUENTIAL DAMAGES (INCLUDING BUT NOT LIMITED TO
    61                           ; PROCUREMENT OF SUBSTITUTE GOODS OR SERVICES; LOSS OF USE, DATA OR PROFITS; OR BUSINESS
    62                           ; INTERRUPTION) HOWSOEVER CAUSED AND ON ANY THEORY OF LIABILITY, WHETHER IN CONTRACT, ST
      +                          RICT
    63                           ; LIABILITY, OR TORT (INCLUDING NEGLIGENCE OR OTHERWISE) ARISING IN ANY WAY OUT OF THE U
      +                          SE OF
    64                           ; THIS SOFTWARE, EVEN IF ADVISED OF THE POSSIBILITY OF SUCH DAMAGE.
    65                           ; 
    66                           ; 
    67                           ; Code-generator required, PIC18F57Q43 Definitions
    68                           ; 
    69                           ; SFR Addresses
    70   000000                     
    71                           	psect	idataCOMRAM
    72   003C0C                     __pidataCOMRAM:
    73                           	callstack 0
    74                           
    75                           ;initializer for _nSetRTC
    76   003C0C  01                 	db	1
    77   000000                     _IOCBF4	set	8316
    78   000000                     _LATD	set	1217
    79   000000                     _T0CON0bits	set	794
    80   000000                     _ANSELBbits	set	1032
    81   000000                     _TRISBbits	set	1223
    82   000000                     _TRISD	set	1225
    83   000000                     _INTCON0bits	set	1238
    84   000000                     _PIE0bits	set	1182
    85   000000                     _WPUBbits	set	1033
    86   000000                     _IOCBN4	set	8308
    87   000000                     _LATDbits	set	1217
    88   000000                     _ANSELD	set	1048
    89   000000                     _IOCBF	set	1039
    90   000000                     _ADRESL	set	1002
    91   000000                     _ADRESH	set	1003
    92   000000                     _ADPCH	set	1004
    93   000000                     _ADCON0bits	set	1011
    94   000000                     _WPUD	set	1049
    95   000000                     _TRISAbits	set	1222
    96   000000                     _ANSELAbits	set	1024
    97                           
    98                           	psect	smallconst
    99   002600                     __psmallconst:
   100                           	callstack 0
   101   002600  00                 	db	0
   102   002601                     
   103                           ; BSR set to: 3
   104   002601  25                 	db	37
   105   002602  69                 	db	105	;'i'
   106   002603  32                 	db	50	;'2'
   107   002604  3A                 	db	58	;':'
   108   002605  25                 	db	37
   109   002606  69                 	db	105	;'i'
   110   002607  32                 	db	50	;'2'
   111   002608  3A                 	db	58	;':'
   112   002609  25                 	db	37
   113   00260A  69                 	db	105	;'i'
   114   00260B  32                 	db	50	;'2'
   115   00260C  20                 	db	32
   116   00260D  25                 	db	37
   117   00260E  63                 	db	99	;'c'
   118   00260F  6D                 	db	109	;'m'
   119   002610  00                 	db	0
   120   002611                     STR_2:
   121                           
   122                           ; BSR set to: 3
   123   002611  25                 	db	37
   124   002612  69                 	db	105	;'i'
   125   002613  33                 	db	51	;'3'
   126   002614  00                 	db	0
   127   002615  00                 	db	0	; dummy byte at the end
   128   000000                     
   129                           ; #config settings
   130                           
   131                           	psect	cinit
   132   003BB6                     __pcinit:
   133                           	callstack 0
   134   003BB6                     start_initialization:
   135                           	callstack 0
   136   003BB6                     __initialization:
   137                           	callstack 0
   138                           
   139                           ; Initialize objects allocated to COMRAM (1 bytes)
   140                           ; load TBLPTR registers with __pidataCOMRAM
   141   003BB6  0E0C               	movlw	low __pidataCOMRAM
   142   003BB8  6EF6               	movwf	tblptrl,c
   143   003BBA  0E3C               	movlw	high __pidataCOMRAM
   144   003BBC  6EF7               	movwf	tblptrh,c
   145   003BBE  0E00               	movlw	low (__pidataCOMRAM shr (0+16))
   146   003BC0  6EF8               	movwf	tblptru,c
   147   003BC2  0009               	tblrd		*+	;fetch initializer
   148   003BC4  C4F5 F55D          	movff	tablat,__pdataCOMRAM
   149                           
   150                           ; Clear objects allocated to BANK5 (14 bytes)
   151   003BC8  EE01  F17A         	lfsr	0,__pbssBANK5
   152   003BCC  0E0E               	movlw	14
   153   003BCE                     clear_0:
   154   003BCE  6AEE               	clrf	postinc0,c
   155   003BD0  06E8               	decf	wreg,f,c
   156   003BD2  E1FD               	bnz	clear_0
   157                           
   158                           ; Clear objects allocated to COMRAM (1 bytes)
   159   003BD4  6A5C               	clrf	__pbssCOMRAM& (0+255),c
   160                           
   161                           ;
   162                           ; Setup IVTBASE
   163                           ;
   164   003BD6  0104               	movlb	4
   165   003BD8  0E08               	movlw	(ivt0x8_base shr 0)& (0+255)
   166   003BDA  6F5D               	movwf	93,b
   167   003BDC  0E00               	movlw	(ivt0x8_base shr (0+8))& (0+255)
   168   003BDE  6F5E               	movwf	94,b
   169   003BE0  0E00               	movlw	(ivt0x8_base shr (0+16))& (0+255)
   170   003BE2  6F5F               	movwf	95,b
   171   003BE4                     end_of_initialization:
   172                           	callstack 0
   173   003BE4                     __end_of__initialization:
   174                           	callstack 0
   175   003BE4  0E00               	movlw	low (__Lsmallconst shr (0+16))
   176   003BE6  6EF8               	movwf	tblptru,c
   177   003BE8  0E26               	movlw	high __Lsmallconst
   178   003BEA  6EF7               	movwf	tblptrh,c
   179   003BEC  0100               	movlb	0
   180   003BEE  EFE3  F01B         	goto	_main	;jump to C main() function
   181                           
   182                           	psect	bssCOMRAM
   183   00055C                     __pbssCOMRAM:
   184                           	callstack 0
   185   00055C                     _tick_count:
   186                           	callstack 0
   187   00055C                     	ds	1
   188                           
   189                           	psect	dataCOMRAM
   190   00055D                     __pdataCOMRAM:
   191                           	callstack 0
   192   00055D                     _nSetRTC:
   193                           	callstack 0
   194   00055D                     	ds	1
   195                           
   196                           	psect	bssBANK5
   197   00057A                     __pbssBANK5:
   198                           	callstack 0
   199   00057A                     	ds	8
   200   000582                     	ds	6
   201                           
   202                           	psect	cstackBANK5
   203   000560                     __pcstackBANK5:
   204                           	callstack 0
   205   000560                     ?_analogMap:
   206                           	callstack 0
   207   000560                     analogMap@analog_reading:
   208                           	callstack 0
   209                           
   210                           ; 2 bytes @ 0x0
   211   000560                     	ds	2
   212   000562                     analogMap@analog_max:
   213                           	callstack 0
   214                           
   215                           ; 2 bytes @ 0x2
   216   000562                     	ds	2
   217   000564                     analogMap@analog_min:
   218                           	callstack 0
   219                           
   220                           ; 2 bytes @ 0x4
   221   000564                     	ds	2
   222   000566                     analogMap@sensor_max:
   223                           	callstack 0
   224                           
   225                           ; 4 bytes @ 0x6
   226   000566                     	ds	4
   227   00056A                     analogMap@sensor_min:
   228                           	callstack 0
   229                           
   230                           ; 4 bytes @ 0xA
   231   00056A                     	ds	4
   232   00056E                     ??_analogMap:
   233                           
   234                           ; 1 bytes @ 0xE
   235   00056E                     	ds	4
   236   000572                     _analogMap$1116:
   237                           	callstack 0
   238                           
   239                           ; 4 bytes @ 0x12
   240   000572                     	ds	4
   241   000576                     main@pot_voltage:
   242                           	callstack 0
   243                           
   244                           ; 4 bytes @ 0x16
   245   000576                     	ds	4
   246                           
   247                           	psect	cstackCOMRAM
   248   000501                     __pcstackCOMRAM:
   249                           	callstack 0
   250   000501                     ??_setINT:
   251   000501                     
   252                           ; 1 bytes @ 0x0
   253   000501                     	ds	1
   254   000502                     ??_LCDinstruct:
   255   000502                     ??_LCDprintc:
   256   000502                     ?_analogRead:
   257                           	callstack 0
   258   000502                     ?___lwdiv:
   259                           	callstack 0
   260   000502                     ?___lwmod:
   261                           	callstack 0
   262   000502                     ?___xxtofl:
   263                           	callstack 0
   264   000502                     ___lwdiv@dividend:
   265                           	callstack 0
   266   000502                     ___lwmod@dividend:
   267                           	callstack 0
   268   000502                     analogRead@pin_ansel:
   269                           	callstack 0
   270   000502                     ___xxtofl@val:
   271                           	callstack 0
   272                           
   273                           ; 4 bytes @ 0x1
   274   000502                     	ds	1
   275   000503                     LCDinstruct@instr:
   276                           	callstack 0
   277   000503                     LCDprintc@c:
   278                           	callstack 0
   279                           
   280                           ; 1 bytes @ 0x2
   281   000503                     	ds	1
   282   000504                     ??_LCDinit:
   283   000504                     ___lwdiv@divisor:
   284                           	callstack 0
   285   000504                     ___lwmod@divisor:
   286                           	callstack 0
   287                           
   288                           ; 2 bytes @ 0x3
   289   000504                     	ds	2
   290   000506                     ??___xxtofl:
   291   000506                     ___lwmod@counter:
   292                           	callstack 0
   293   000506                     ___lwdiv@quotient:
   294                           	callstack 0
   295   000506                     analogRead@pin_tris:
   296                           	callstack 0
   297                           
   298                           ; 4 bytes @ 0x5
   299   000506                     	ds	2
   300   000508                     ___lwdiv@counter:
   301                           	callstack 0
   302                           
   303                           ; 1 bytes @ 0x7
   304   000508                     	ds	1
   305   000509                     ?_toString:
   306                           	callstack 0
   307   000509                     toString@number:
   308                           	callstack 0
   309                           
   310                           ; 2 bytes @ 0x8
   311   000509                     	ds	1
   312   00050A                     analogRead@pin_designation:
   313                           	callstack 0
   314   00050A                     ___xxtofl@sign:
   315                           	callstack 0
   316                           
   317                           ; 1 bytes @ 0x9
   318   00050A                     	ds	1
   319   00050B                     ??_analogRead:
   320   00050B                     toString@length:
   321                           	callstack 0
   322   00050B                     ___xxtofl@exp:
   323                           	callstack 0
   324                           
   325                           ; 1 bytes @ 0xA
   326   00050B                     	ds	1
   327   00050C                     ___xxtofl@arg:
   328                           	callstack 0
   329   00050C                     toString@string:
   330                           	callstack 0
   331                           
   332                           ; 6 bytes @ 0xB
   333   00050C                     	ds	4
   334   000510                     ?___fldiv:
   335                           	callstack 0
   336   000510                     ___fldiv@b:
   337                           	callstack 0
   338                           
   339                           ; 4 bytes @ 0xF
   340   000510                     	ds	2
   341   000512                     toString@i:
   342                           	callstack 0
   343                           
   344                           ; 1 bytes @ 0x11
   345   000512                     	ds	1
   346   000513                     LCDprints@c:
   347                           	callstack 0
   348                           
   349                           ; 2 bytes @ 0x12
   350   000513                     	ds	1
   351   000514                     ___fldiv@a:
   352                           	callstack 0
   353                           
   354                           ; 4 bytes @ 0x13
   355   000514                     	ds	1
   356   000515                     ?_LCDprintf:
   357                           	callstack 0
   358   000515                     LCDprintf@shell:
   359                           	callstack 0
   360                           
   361                           ; 2 bytes @ 0x14
   362   000515                     	ds	3
   363   000518                     ??___fldiv:
   364                           
   365                           ; 1 bytes @ 0x17
   366   000518                     	ds	3
   367   00051B                     ??_LCDprintf:
   368                           
   369                           ; 1 bytes @ 0x1A
   370   00051B                     	ds	1
   371   00051C                     ___fldiv@rem:
   372                           	callstack 0
   373                           
   374                           ; 4 bytes @ 0x1B
   375   00051C                     	ds	1
   376   00051D                     LCDprintf@args:
   377                           	callstack 0
   378                           
   379                           ; 2 bytes @ 0x1C
   380   00051D                     	ds	3
   381   000520                     ___fldiv@sign:
   382                           	callstack 0
   383                           
   384                           ; 1 bytes @ 0x1F
   385   000520                     	ds	1
   386   000521                     ___fldiv@new_exp:
   387                           	callstack 0
   388                           
   389                           ; 2 bytes @ 0x20
   390   000521                     	ds	2
   391   000523                     ___fldiv@grs:
   392                           	callstack 0
   393                           
   394                           ; 4 bytes @ 0x22
   395   000523                     	ds	4
   396   000527                     ___fldiv@bexp:
   397                           	callstack 0
   398                           
   399                           ; 1 bytes @ 0x26
   400   000527                     	ds	1
   401   000528                     ___fldiv@aexp:
   402                           	callstack 0
   403                           
   404                           ; 1 bytes @ 0x27
   405   000528                     	ds	1
   406   000529                     ?___fladd:
   407                           	callstack 0
   408   000529                     ___fladd@b:
   409                           	callstack 0
   410                           
   411                           ; 4 bytes @ 0x28
   412   000529                     	ds	4
   413   00052D                     ___fladd@a:
   414                           	callstack 0
   415                           
   416                           ; 4 bytes @ 0x2C
   417   00052D                     	ds	4
   418   000531                     ??___fladd:
   419                           
   420                           ; 1 bytes @ 0x30
   421   000531                     	ds	4
   422   000535                     ___fladd@signs:
   423                           	callstack 0
   424                           
   425                           ; 1 bytes @ 0x34
   426   000535                     	ds	1
   427   000536                     ___fladd@aexp:
   428                           	callstack 0
   429                           
   430                           ; 1 bytes @ 0x35
   431   000536                     	ds	1
   432   000537                     ___fladd@bexp:
   433                           	callstack 0
   434                           
   435                           ; 1 bytes @ 0x36
   436   000537                     	ds	1
   437   000538                     ___fladd@grs:
   438                           	callstack 0
   439                           
   440                           ; 1 bytes @ 0x37
   441   000538                     	ds	1
   442   000539                     ?___flsub:
   443                           	callstack 0
   444   000539                     ___flsub@b:
   445                           	callstack 0
   446                           
   447                           ; 4 bytes @ 0x38
   448   000539                     	ds	4
   449   00053D                     ___flsub@a:
   450                           	callstack 0
   451                           
   452                           ; 4 bytes @ 0x3C
   453   00053D                     	ds	4
   454   000541                     ?___flmul:
   455                           	callstack 0
   456   000541                     ___flmul@b:
   457                           	callstack 0
   458                           
   459                           ; 4 bytes @ 0x40
   460   000541                     	ds	4
   461   000545                     ___flmul@a:
   462                           	callstack 0
   463                           
   464                           ; 4 bytes @ 0x44
   465   000545                     	ds	4
   466   000549                     ??___flmul:
   467                           
   468                           ; 1 bytes @ 0x48
   469   000549                     	ds	4
   470   00054D                     ___flmul@sign:
   471                           	callstack 0
   472                           
   473                           ; 1 bytes @ 0x4C
   474   00054D                     	ds	1
   475   00054E                     ___flmul@grs:
   476                           	callstack 0
   477                           
   478                           ; 4 bytes @ 0x4D
   479   00054E                     	ds	4
   480   000552                     ___flmul@aexp:
   481                           	callstack 0
   482                           
   483                           ; 1 bytes @ 0x51
   484   000552                     	ds	1
   485   000553                     ___flmul@bexp:
   486                           	callstack 0
   487                           
   488                           ; 1 bytes @ 0x52
   489   000553                     	ds	1
   490   000554                     ___flmul@prod:
   491                           	callstack 0
   492                           
   493                           ; 4 bytes @ 0x53
   494   000554                     	ds	4
   495   000558                     ___flmul@temp:
   496                           	callstack 0
   497                           
   498                           ; 2 bytes @ 0x57
   499   000558                     	ds	2
   500   00055A                     ??_main:
   501                           
   502                           ; 1 bytes @ 0x59
   503   00055A                     	ds	2
   504                           
   505 ;;
   506 ;;Main: autosize = 0, tempsize = 2, incstack = 0, save=0
   507 ;;
   508 ;; *************** function _main *****************
   509 ;; Defined at:
   510 ;;		line 24 in file "C:/Users/a_hui/OneDrive - Camosun College/term2/ecet165_embedded_mc/labs/ecet165-labs/lab11/analogT
      +est.c"
   511 ;; Parameters:    Size  Location     Type
   512 ;;		None
   513 ;; Auto vars:     Size  Location     Type
   514 ;;  pot_voltage     4   22[BANK5 ] PTR unsigned char [4]
   515 ;; Return value:  Size  Location     Type
   516 ;;                  1    wreg      void 
   517 ;; Registers used:
   518 ;;		wreg, fsr2l, fsr2h, status,2, status,0, tblptrl, tblptrh, tblptru, prodl, prodh, cstack
   519 ;; Tracked objects:
   520 ;;		On entry : 0/0
   521 ;;		On exit  : 0/0
   522 ;;		Unchanged: 0/0
   523 ;; Data sizes:     COMRAM   BANK5   BANK6   BANK7   BANK8   BANK9  BANK10  BANK11  BANK12  BANK13  BANK14  BANK15  BANK1
      +6  BANK17  BANK18  BANK19  BANK20  BANK21  BANK22  BANK23  BANK24  BANK25  BANK26  BANK27  BANK28  BANK29  BANK30  BANK3
      +1  BANK32  BANK33  BANK34  BANK35  BANK36
   524 ;;      Params:         0       0       0       0       0       0       0       0       0       0       0       0       
      +0       0       0       0       0       0       0       0       0       0       0       0       0       0       0       
      +0       0       0       0       0       0
   525 ;;      Locals:         0       4       0       0       0       0       0       0       0       0       0       0       
      +0       0       0       0       0       0       0       0       0       0       0       0       0       0       0       
      +0       0       0       0       0       0
   526 ;;      Temps:          2       0       0       0       0       0       0       0       0       0       0       0       
      +0       0       0       0       0       0       0       0       0       0       0       0       0       0       0       
      +0       0       0       0       0       0
   527 ;;      Totals:         2       4       0       0       0       0       0       0       0       0       0       0       
      +0       0       0       0       0       0       0       0       0       0       0       0       0       0       0       
      +0       0       0       0       0       0
   528 ;;Total ram usage:        6 bytes
   529 ;; Hardware stack levels required when called: 4
   530 ;; This function calls:
   531 ;;		_LCDinit
   532 ;;		_LCDinstruct
   533 ;;		_LCDprintf
   534 ;;		_analogMap
   535 ;;		_analogRead
   536 ;; This function is called by:
   537 ;;		Startup code after reset
   538 ;; This function uses a non-reentrant model
   539 ;;
   540                           
   541                           	psect	text0
   542   0037C6                     __ptext0:
   543                           	callstack 0
   544   0037C6                     _main:
   545                           	callstack 123
   546   0037C6                     
   547                           ;C:/Users/a_hui/OneDrive - Camosun College/term2/ecet165_embedded_mc/labs/ecet165-labs/l
      +                          ab11/analogTest.c: 27:     LCDinit();
   548   0037C6  EC6E  F01B         	call	_LCDinit	;wreg free
   549   0037CA                     l148:
   550                           
   551                           ;C:/Users/a_hui/OneDrive - Camosun College/term2/ecet165_embedded_mc/labs/ecet165-labs/l
      +                          ab11/analogTest.c: 34:         LCDinstruct(0x02);
   552   0037CA  0E02               	movlw	2
   553   0037CC  EC00  F01D         	call	_LCDinstruct
   554   0037D0                     
   555                           ;C:/Users/a_hui/OneDrive - Camosun College/term2/ecet165_embedded_mc/labs/ecet165-labs/l
      +                          ab11/analogTest.c: 35:         pot_voltage = analogMap(analogRead(ANSELAbits.ANSELA3, TR
      +                          ISAbits.TRISA3, 0x03), 4000, 0, 5.00, 0.00);
   556   0037D0  0104               	movlb	4	; () banked
   557   0037D2  B700               	btfsc	0,3,b	;volatile
   558   0037D4  EFEE  F01B         	goto	u2411
   559   0037D8  EFF2  F01B         	goto	u2410
   560   0037DC                     u2411:
   561   0037DC  6A5A               	clrf	??_main^(0+1280),c
   562   0037DE  2A5A               	incf	??_main^(0+1280),f,c
   563   0037E0  EFF3  F01B         	goto	u2418
   564   0037E4                     u2410:
   565   0037E4  6A5A               	clrf	??_main^(0+1280),c
   566   0037E6                     u2418:
   567   0037E6  505A               	movf	??_main^(0+1280),w,c
   568   0037E8  6E02               	movwf	analogRead@pin_ansel^(0+1280),c
   569   0037EA  6A03               	clrf	(analogRead@pin_ansel+1)^(0+1280),c
   570   0037EC  6A04               	clrf	(analogRead@pin_ansel+2)^(0+1280),c
   571   0037EE  6A05               	clrf	(analogRead@pin_ansel+3)^(0+1280),c
   572   0037F0  B6C6               	btfsc	198,3,c	;volatile
   573   0037F2  EFFD  F01B         	goto	u2421
   574   0037F6  EF01  F01C         	goto	u2420
   575   0037FA                     u2421:
   576   0037FA  6A5B               	clrf	(??_main+1)^(0+1280),c
   577   0037FC  2A5B               	incf	(??_main+1)^(0+1280),f,c
   578   0037FE  EF02  F01C         	goto	u2428
   579   003802                     u2420:
   580   003802  6A5B               	clrf	(??_main+1)^(0+1280),c
   581   003804                     u2428:
   582   003804  505B               	movf	(??_main+1)^(0+1280),w,c
   583   003806  6E06               	movwf	analogRead@pin_tris^(0+1280),c
   584   003808  6A07               	clrf	(analogRead@pin_tris+1)^(0+1280),c
   585   00380A  6A08               	clrf	(analogRead@pin_tris+2)^(0+1280),c
   586   00380C  6A09               	clrf	(analogRead@pin_tris+3)^(0+1280),c
   587   00380E  0E03               	movlw	3
   588   003810  6E0A               	movwf	analogRead@pin_designation^(0+1280),c
   589   003812  EC95  F01D         	call	_analogRead	;wreg free
   590   003816  C502  F560         	movff	?_analogRead,analogMap@analog_reading
   591   00381A  C503  F561         	movff	?_analogRead+1,analogMap@analog_reading+1
   592   00381E  0E0F               	movlw	15
   593   003820  0105               	movlb	5	; () banked
   594   003822  6F63               	movwf	(analogMap@analog_max+1)& (0+255),b
   595   003824  0EA0               	movlw	160
   596   003826  6F62               	movwf	analogMap@analog_max& (0+255),b
   597   003828  0E00               	movlw	0
   598   00382A  6F65               	movwf	(analogMap@analog_min+1)& (0+255),b
   599   00382C  0E00               	movlw	0
   600   00382E  6F64               	movwf	analogMap@analog_min& (0+255),b
   601   003830  0E00               	movlw	0
   602   003832  6F66               	movwf	analogMap@sensor_max& (0+255),b
   603   003834  0E00               	movlw	0
   604   003836  6F67               	movwf	(analogMap@sensor_max+1)& (0+255),b
   605   003838  0EA0               	movlw	160
   606   00383A  6F68               	movwf	(analogMap@sensor_max+2)& (0+255),b
   607   00383C  0E40               	movlw	64
   608   00383E  6F69               	movwf	(analogMap@sensor_max+3)& (0+255),b
   609   003840  0E00               	movlw	0
   610   003842  6F6A               	movwf	analogMap@sensor_min& (0+255),b
   611   003844  0E00               	movlw	0
   612   003846  6F6B               	movwf	(analogMap@sensor_min+1)& (0+255),b
   613   003848  0E00               	movlw	0
   614   00384A  6F6C               	movwf	(analogMap@sensor_min+2)& (0+255),b
   615   00384C  0E00               	movlw	0
   616   00384E  6F6D               	movwf	(analogMap@sensor_min+3)& (0+255),b
   617   003850  ECF5  F01A         	call	_analogMap	;wreg free
   618   003854  C560  F576         	movff	?_analogMap,main@pot_voltage
   619   003858  C561  F577         	movff	?_analogMap+1,main@pot_voltage+1
   620   00385C  C562  F578         	movff	?_analogMap+2,main@pot_voltage+2
   621   003860  C563  F579         	movff	?_analogMap+3,main@pot_voltage+3
   622   003864                     
   623                           ;C:/Users/a_hui/OneDrive - Camosun College/term2/ecet165_embedded_mc/labs/ecet165-labs/l
      +                          ab11/analogTest.c: 36:         LCDprintf("%i3", pot_voltage);
   624   003864  0E11               	movlw	low STR_2
   625   003866  6E15               	movwf	LCDprintf@shell^(0+1280),c
   626   003868  0E26               	movlw	high STR_2
   627   00386A  6E16               	movwf	(LCDprintf@shell+1)^(0+1280),c
   628   00386C  C576  F517         	movff	main@pot_voltage,?_LCDprintf+2
   629   003870  C577  F518         	movff	main@pot_voltage+1,?_LCDprintf+3
   630   003874  C578  F519         	movff	main@pot_voltage+2,?_LCDprintf+4
   631   003878  C579  F51A         	movff	main@pot_voltage+3,?_LCDprintf+5
   632   00387C  EC27  F01A         	call	_LCDprintf	;wreg free
   633   003880                     
   634                           ;C:/Users/a_hui/OneDrive - Camosun College/term2/ecet165_embedded_mc/labs/ecet165-labs/l
      +                          ab11/analogTest.c: 37:         _delay((unsigned long)((1000)*(64000000/4000.0)));
   635   003880  0E52               	movlw	82
   636   003882  6E5B               	movwf	(??_main+1)^(0+1280),c
   637   003884  0E2B               	movlw	43
   638   003886  6E5A               	movwf	??_main^(0+1280),c
   639   003888  0E00               	movlw	0
   640   00388A                     u2437:
   641   00388A  2EE8               	decfsz	wreg,f,c
   642   00388C  D7FE               	bra	u2437
   643   00388E  2E5A               	decfsz	??_main^(0+1280),f,c
   644   003890  D7FC               	bra	u2437
   645   003892  2E5B               	decfsz	(??_main+1)^(0+1280),f,c
   646   003894  D7FA               	bra	u2437
   647   003896  D000               	nop2	
   648   003898  EFE5  F01B         	goto	l148
   649   00389C  EF81  F000         	goto	start
   650   0038A0                     __end_of_main:
   651                           	callstack 0
   652                           
   653 ;; *************** function _analogRead *****************
   654 ;; Defined at:
   655 ;;		line 30 in file "C:/Users/a_hui/OneDrive - Camosun College/term2/ecet165_embedded_mc/labs/ecet165-labs/lab11/analog1
      +8f.c"
   656 ;; Parameters:    Size  Location     Type
   657 ;;  pin_ansel       4    1[COMRAM] unsigned long 
   658 ;;  pin_tris        4    5[COMRAM] unsigned long 
   659 ;;  pin_designat    1    9[COMRAM] unsigned char 
   660 ;; Auto vars:     Size  Location     Type
   661 ;;		None
   662 ;; Return value:  Size  Location     Type
   663 ;;                  2    1[COMRAM] unsigned int 
   664 ;; Registers used:
   665 ;;		wreg, status,2, status,0
   666 ;; Tracked objects:
   667 ;;		On entry : 0/0
   668 ;;		On exit  : 0/0
   669 ;;		Unchanged: 0/0
   670 ;; Data sizes:     COMRAM   BANK5   BANK6   BANK7   BANK8   BANK9  BANK10  BANK11  BANK12  BANK13  BANK14  BANK15  BANK1
      +6  BANK17  BANK18  BANK19  BANK20  BANK21  BANK22  BANK23  BANK24  BANK25  BANK26  BANK27  BANK28  BANK29  BANK30  BANK3
      +1  BANK32  BANK33  BANK34  BANK35  BANK36
   671 ;;      Params:         9       0       0       0       0       0       0       0       0       0       0       0       
      +0       0       0       0       0       0       0       0       0       0       0       0       0       0       0       
      +0       0       0       0       0       0
   672 ;;      Locals:         0       0       0       0       0       0       0       0       0       0       0       0       
      +0       0       0       0       0       0       0       0       0       0       0       0       0       0       0       
      +0       0       0       0       0       0
   673 ;;      Temps:          2       0       0       0       0       0       0       0       0       0       0       0       
      +0       0       0       0       0       0       0       0       0       0       0       0       0       0       0       
      +0       0       0       0       0       0
   674 ;;      Totals:        11       0       0       0       0       0       0       0       0       0       0       0       
      +0       0       0       0       0       0       0       0       0       0       0       0       0       0       0       
      +0       0       0       0       0       0
   675 ;;Total ram usage:       11 bytes
   676 ;; Hardware stack levels used: 1
   677 ;; Hardware stack levels required when called: 1
   678 ;; This function calls:
   679 ;;		Nothing
   680 ;; This function is called by:
   681 ;;		_main
   682 ;; This function uses a non-reentrant model
   683 ;;
   684                           
   685                           	psect	text1
   686   003B2A                     __ptext1:
   687                           	callstack 0
   688   003B2A                     _analogRead:
   689                           	callstack 125
   690   003B2A                     
   691                           ;C:/Users/a_hui/OneDrive - Camosun College/term2/ecet165_embedded_mc/labs/ecet165-labs/l
      +                          ab11/analog18f.c: 32:      ADCON0bits.FM = 1;
   692   003B2A  0103               	movlb	3	; () banked
   693   003B2C  51F3               	movf	243,w,b	;volatile
   694   003B2E  0BF3               	andlw	-13
   695   003B30  0904               	iorlw	4
   696   003B32  6FF3               	movwf	243,b	;volatile
   697   003B34                     
   698                           ; BSR set to: 3
   699                           ;C:/Users/a_hui/OneDrive - Camosun College/term2/ecet165_embedded_mc/labs/ecet165-labs/l
      +                          ab11/analog18f.c: 33:      ADCON0bits.CS = 1;
   700   003B34  89F3               	bsf	243,4,b	;volatile
   701   003B36                     
   702                           ; BSR set to: 3
   703                           ;C:/Users/a_hui/OneDrive - Camosun College/term2/ecet165_embedded_mc/labs/ecet165-labs/l
      +                          ab11/analog18f.c: 34:      ADPCH = pin_designation;
   704   003B36  C50A  F3EC         	movff	analogRead@pin_designation,1004	;volatile
   705                           
   706                           ;C:/Users/a_hui/OneDrive - Camosun College/term2/ecet165_embedded_mc/labs/ecet165-labs/l
      +                          ab11/analog18f.c: 36:      pin_ansel = 1;
   707   003B3A  0E01               	movlw	1
   708   003B3C  6E02               	movwf	analogRead@pin_ansel^(0+1280),c
   709   003B3E  0E00               	movlw	0
   710   003B40  6E03               	movwf	(analogRead@pin_ansel+1)^(0+1280),c
   711   003B42  0E00               	movlw	0
   712   003B44  6E04               	movwf	(analogRead@pin_ansel+2)^(0+1280),c
   713   003B46  0E00               	movlw	0
   714   003B48  6E05               	movwf	(analogRead@pin_ansel+3)^(0+1280),c
   715   003B4A                     
   716                           ; BSR set to: 3
   717                           ;C:/Users/a_hui/OneDrive - Camosun College/term2/ecet165_embedded_mc/labs/ecet165-labs/l
      +                          ab11/analog18f.c: 37:      ADCON0bits.ON = 1;
   718   003B4A  8FF3               	bsf	243,7,b	;volatile
   719   003B4C                     
   720                           ; BSR set to: 3
   721                           ;C:/Users/a_hui/OneDrive - Camosun College/term2/ecet165_embedded_mc/labs/ecet165-labs/l
      +                          ab11/analog18f.c: 39:      ADCON0bits.GO = 1;
   722   003B4C  81F3               	bsf	243,0,b	;volatile
   723   003B4E                     l121:
   724                           
   725                           ; BSR set to: 3
   726                           ;C:/Users/a_hui/OneDrive - Camosun College/term2/ecet165_embedded_mc/labs/ecet165-labs/l
      +                          ab11/analog18f.c: 40:      while(ADCON0bits.GO)
   727   003B4E  B1F3               	btfsc	243,0,b	;volatile
   728   003B50  EFAC  F01D         	goto	u2281
   729   003B54  EFAE  F01D         	goto	u2280
   730   003B58                     u2281:
   731   003B58  EFA7  F01D         	goto	l121
   732   003B5C                     u2280:
   733   003B5C                     
   734                           ; BSR set to: 3
   735                           ;C:/Users/a_hui/OneDrive - Camosun College/term2/ecet165_embedded_mc/labs/ecet165-labs/l
      +                          ab11/analog18f.c: 42:      return ((ADRESH<<8)+ADRESL);
   736   003B5C  51EB               	movf	235,w,b	;volatile
   737   003B5E  6E0C               	movwf	(??_analogRead+1)^(0+1280),c
   738   003B60  6A0B               	clrf	??_analogRead^(0+1280),c
   739   003B62  51EA               	movf	234,w,b	;volatile
   740   003B64  240B               	addwf	??_analogRead^(0+1280),w,c
   741   003B66  6E02               	movwf	?_analogRead^(0+1280),c
   742   003B68  0E00               	movlw	0
   743   003B6A  200C               	addwfc	(??_analogRead+1)^(0+1280),w,c
   744   003B6C  6E03               	movwf	(?_analogRead+1)^(0+1280),c
   745   003B6E                     
   746                           ; BSR set to: 3
   747   003B6E  0012               	return		;funcret
   748   003B70                     __end_of_analogRead:
   749                           	callstack 0
   750                           
   751 ;; *************** function _analogMap *****************
   752 ;; Defined at:
   753 ;;		line 57 in file "C:/Users/a_hui/OneDrive - Camosun College/term2/ecet165_embedded_mc/labs/ecet165-labs/lab11/analog1
      +8f.c"
   754 ;; Parameters:    Size  Location     Type
   755 ;;  analog_readi    2    0[BANK5 ] unsigned int 
   756 ;;  analog_max      2    2[BANK5 ] unsigned int 
   757 ;;  analog_min      2    4[BANK5 ] unsigned int 
   758 ;;  sensor_max      4    6[BANK5 ] unsigned int 
   759 ;;  sensor_min      4   10[BANK5 ] unsigned int 
   760 ;; Auto vars:     Size  Location     Type
   761 ;;		None
   762 ;; Return value:  Size  Location     Type
   763 ;;                  4    0[BANK5 ] unsigned int 
   764 ;; Registers used:
   765 ;;		wreg, status,2, status,0, prodl, prodh, cstack
   766 ;; Tracked objects:
   767 ;;		On entry : 0/0
   768 ;;		On exit  : 0/0
   769 ;;		Unchanged: 0/0
   770 ;; Data sizes:     COMRAM   BANK5   BANK6   BANK7   BANK8   BANK9  BANK10  BANK11  BANK12  BANK13  BANK14  BANK15  BANK1
      +6  BANK17  BANK18  BANK19  BANK20  BANK21  BANK22  BANK23  BANK24  BANK25  BANK26  BANK27  BANK28  BANK29  BANK30  BANK3
      +1  BANK32  BANK33  BANK34  BANK35  BANK36
   771 ;;      Params:         0      14       0       0       0       0       0       0       0       0       0       0       
      +0       0       0       0       0       0       0       0       0       0       0       0       0       0       0       
      +0       0       0       0       0       0
   772 ;;      Locals:         0       4       0       0       0       0       0       0       0       0       0       0       
      +0       0       0       0       0       0       0       0       0       0       0       0       0       0       0       
      +0       0       0       0       0       0
   773 ;;      Temps:          0       4       0       0       0       0       0       0       0       0       0       0       
      +0       0       0       0       0       0       0       0       0       0       0       0       0       0       0       
      +0       0       0       0       0       0
   774 ;;      Totals:         0      22       0       0       0       0       0       0       0       0       0       0       
      +0       0       0       0       0       0       0       0       0       0       0       0       0       0       0       
      +0       0       0       0       0       0
   775 ;;Total ram usage:       22 bytes
   776 ;; Hardware stack levels used: 1
   777 ;; Hardware stack levels required when called: 3
   778 ;; This function calls:
   779 ;;		___fladd
   780 ;;		___fldiv
   781 ;;		___flmul
   782 ;;		___flsub
   783 ;;		___xxtofl
   784 ;; This function is called by:
   785 ;;		_main
   786 ;; This function uses a non-reentrant model
   787 ;;
   788                           
   789                           	psect	text2
   790   0035EA                     __ptext2:
   791                           	callstack 0
   792   0035EA                     _analogMap:
   793                           	callstack 123
   794   0035EA                     
   795                           ;C:/Users/a_hui/OneDrive - Camosun College/term2/ecet165_embedded_mc/labs/ecet165-labs/l
      +                          ab11/analog18f.c: 58:             unsigned int analog_reading,;C:/Users/a_hui/OneDrive -
      +                           Camosun College/term2/ecet165_embedded_mc/labs/ecet165-labs/lab11/analog18f.c: 59:     
      +                                  unsigned int analog_max,;C:/Users/a_hui/OneDrive - Camosun College/term2/ecet165
      +                          _embedded_mc/labs/ecet165-labs/lab11/analog18f.c: 60:             unsigned int analog_mi
      +                          n,;C:/Users/a_hui/OneDrive - Camosun College/term2/ecet165_embedded_mc/labs/ecet165-labs
      +                          /lab11/analog18f.c: 61:             double sensor_max,
   796   0035EA  C56A  F53D         	movff	analogMap@sensor_min,___flsub@a
   797   0035EE  C56B  F53E         	movff	analogMap@sensor_min+1,___flsub@a+1
   798   0035F2  C56C  F53F         	movff	analogMap@sensor_min+2,___flsub@a+2
   799   0035F6  C56D  F540         	movff	analogMap@sensor_min+3,___flsub@a+3
   800   0035FA  C566  F539         	movff	analogMap@sensor_max,___flsub@b
   801   0035FE  C567  F53A         	movff	analogMap@sensor_max+1,___flsub@b+1
   802   003602  C568  F53B         	movff	analogMap@sensor_max+2,___flsub@b+2
   803   003606  C569  F53C         	movff	analogMap@sensor_max+3,___flsub@b+3
   804   00360A  ECB8  F01D         	call	___flsub	;wreg free
   805   00360E  C539  F545         	movff	?___flsub,___flmul@a
   806   003612  C53A  F546         	movff	?___flsub+1,___flmul@a+1
   807   003616  C53B  F547         	movff	?___flsub+2,___flmul@a+2
   808   00361A  C53C  F548         	movff	?___flsub+3,___flmul@a+3
   809   00361E  0105               	movlb	5	; () banked
   810   003620  5164               	movf	analogMap@analog_min& (0+255),w,b
   811   003622  5D62               	subwf	analogMap@analog_max& (0+255),w,b
   812   003624  6F6E               	movwf	??_analogMap& (0+255),b
   813   003626  5165               	movf	(analogMap@analog_min+1)& (0+255),w,b
   814   003628  5963               	subwfb	(analogMap@analog_max+1)& (0+255),w,b
   815   00362A  6F6F               	movwf	(??_analogMap+1)& (0+255),b
   816   00362C  C56E  F502         	movff	??_analogMap,___xxtofl@val
   817   003630  C56F  F503         	movff	??_analogMap+1,___xxtofl@val+1
   818   003634  6A04               	clrf	(___xxtofl@val+2)^(0+1280),c
   819   003636  6A05               	clrf	(___xxtofl@val+3)^(0+1280),c
   820   003638  0E00               	movlw	0
   821   00363A  EC4D  F019         	call	___xxtofl
   822   00363E  C502  F514         	movff	?___xxtofl,___fldiv@a
   823   003642  C503  F515         	movff	?___xxtofl+1,___fldiv@a+1
   824   003646  C504  F516         	movff	?___xxtofl+2,___fldiv@a+2
   825   00364A  C505  F517         	movff	?___xxtofl+3,___fldiv@a+3
   826   00364E  0105               	movlb	5	; () banked
   827   003650  5164               	movf	analogMap@analog_min& (0+255),w,b
   828   003652  5D60               	subwf	analogMap@analog_reading& (0+255),w,b
   829   003654  6F70               	movwf	(??_analogMap+2)& (0+255),b
   830   003656  5165               	movf	(analogMap@analog_min+1)& (0+255),w,b
   831   003658  5961               	subwfb	(analogMap@analog_reading+1)& (0+255),w,b
   832   00365A  6F71               	movwf	(??_analogMap+3)& (0+255),b
   833   00365C  C570  F502         	movff	??_analogMap+2,___xxtofl@val
   834   003660  C571  F503         	movff	??_analogMap+3,___xxtofl@val+1
   835   003664  6A04               	clrf	(___xxtofl@val+2)^(0+1280),c
   836   003666  6A05               	clrf	(___xxtofl@val+3)^(0+1280),c
   837   003668  0E00               	movlw	0
   838   00366A  EC4D  F019         	call	___xxtofl
   839   00366E  C502  F510         	movff	?___xxtofl,___fldiv@b
   840   003672  C503  F511         	movff	?___xxtofl+1,___fldiv@b+1
   841   003676  C504  F512         	movff	?___xxtofl+2,___fldiv@b+2
   842   00367A  C505  F513         	movff	?___xxtofl+3,___fldiv@b+3
   843   00367E  EC80  F017         	call	___fldiv	;wreg free
   844   003682  C510  F541         	movff	?___fldiv,___flmul@b
   845   003686  C511  F542         	movff	?___fldiv+1,___flmul@b+1
   846   00368A  C512  F543         	movff	?___fldiv+2,___flmul@b+2
   847   00368E  C513  F544         	movff	?___fldiv+3,___flmul@b+3
   848   003692  EC6B  F015         	call	___flmul	;wreg free
   849   003696  C541  F572         	movff	?___flmul,_analogMap$1116
   850   00369A  C542  F573         	movff	?___flmul+1,_analogMap$1116+1
   851   00369E  C543  F574         	movff	?___flmul+2,_analogMap$1116+2
   852   0036A2  C544  F575         	movff	?___flmul+3,_analogMap$1116+3
   853   0036A6                     
   854                           ;C:/Users/a_hui/OneDrive - Camosun College/term2/ecet165_embedded_mc/labs/ecet165-labs/l
      +                          ab11/analog18f.c: 58:             unsigned int analog_reading,;C:/Users/a_hui/OneDrive -
      +                           Camosun College/term2/ecet165_embedded_mc/labs/ecet165-labs/lab11/analog18f.c: 59:     
      +                                  unsigned int analog_max,;C:/Users/a_hui/OneDrive - Camosun College/term2/ecet165
      +                          _embedded_mc/labs/ecet165-labs/lab11/analog18f.c: 60:             unsigned int analog_mi
      +                          n,;C:/Users/a_hui/OneDrive - Camosun College/term2/ecet165_embedded_mc/labs/ecet165-labs
      +                          /lab11/analog18f.c: 61:             double sensor_max,
   855   0036A6  C572  F529         	movff	_analogMap$1116,___fladd@b
   856   0036AA  C573  F52A         	movff	_analogMap$1116+1,___fladd@b+1
   857   0036AE  C574  F52B         	movff	_analogMap$1116+2,___fladd@b+2
   858   0036B2  C575  F52C         	movff	_analogMap$1116+3,___fladd@b+3
   859   0036B6  C56A  F52D         	movff	analogMap@sensor_min,___fladd@a
   860   0036BA  C56B  F52E         	movff	analogMap@sensor_min+1,___fladd@a+1
   861   0036BE  C56C  F52F         	movff	analogMap@sensor_min+2,___fladd@a+2
   862   0036C2  C56D  F530         	movff	analogMap@sensor_min+3,___fladd@a+3
   863   0036C6  EC0B  F013         	call	___fladd	;wreg free
   864   0036CA  C529  F560         	movff	?___fladd,?_analogMap
   865   0036CE  C52A  F561         	movff	?___fladd+1,?_analogMap+1
   866   0036D2  C52B  F562         	movff	?___fladd+2,?_analogMap+2
   867   0036D6  C52C  F563         	movff	?___fladd+3,?_analogMap+3
   868   0036DA  0012               	return		;funcret
   869   0036DC                     __end_of_analogMap:
   870                           	callstack 0
   871                           
   872 ;; *************** function ___xxtofl *****************
   873 ;; Defined at:
   874 ;;		line 10 in file "C:\Program Files\Microchip\xc8\v2.40\pic\sources\c99\common\xxtofl.c"
   875 ;; Parameters:    Size  Location     Type
   876 ;;  sign            1    wreg     unsigned char 
   877 ;;  val             4    1[COMRAM] long 
   878 ;; Auto vars:     Size  Location     Type
   879 ;;  sign            1    9[COMRAM] unsigned char 
   880 ;;  arg             4   11[COMRAM] unsigned long 
   881 ;;  exp             1   10[COMRAM] unsigned char 
   882 ;; Return value:  Size  Location     Type
   883 ;;                  4    1[COMRAM] unsigned char 
   884 ;; Registers used:
   885 ;;		wreg, status,2, status,0
   886 ;; Tracked objects:
   887 ;;		On entry : 0/0
   888 ;;		On exit  : 0/0
   889 ;;		Unchanged: 0/0
   890 ;; Data sizes:     COMRAM   BANK5   BANK6   BANK7   BANK8   BANK9  BANK10  BANK11  BANK12  BANK13  BANK14  BANK15  BANK1
      +6  BANK17  BANK18  BANK19  BANK20  BANK21  BANK22  BANK23  BANK24  BANK25  BANK26  BANK27  BANK28  BANK29  BANK30  BANK3
      +1  BANK32  BANK33  BANK34  BANK35  BANK36
   891 ;;      Params:         4       0       0       0       0       0       0       0       0       0       0       0       
      +0       0       0       0       0       0       0       0       0       0       0       0       0       0       0       
      +0       0       0       0       0       0
   892 ;;      Locals:         6       0       0       0       0       0       0       0       0       0       0       0       
      +0       0       0       0       0       0       0       0       0       0       0       0       0       0       0       
      +0       0       0       0       0       0
   893 ;;      Temps:          4       0       0       0       0       0       0       0       0       0       0       0       
      +0       0       0       0       0       0       0       0       0       0       0       0       0       0       0       
      +0       0       0       0       0       0
   894 ;;      Totals:        14       0       0       0       0       0       0       0       0       0       0       0       
      +0       0       0       0       0       0       0       0       0       0       0       0       0       0       0       
      +0       0       0       0       0       0
   895 ;;Total ram usage:       14 bytes
   896 ;; Hardware stack levels used: 1
   897 ;; Hardware stack levels required when called: 1
   898 ;; This function calls:
   899 ;;		Nothing
   900 ;; This function is called by:
   901 ;;		_analogMap
   902 ;; This function uses a non-reentrant model
   903 ;;
   904                           
   905                           	psect	text3
   906   00329A                     __ptext3:
   907                           	callstack 0
   908   00329A                     ___xxtofl:
   909                           	callstack 124
   910                           
   911                           ;incstack = 0
   912                           ;___xxtofl@sign stored from wreg
   913   00329A  6E0A               	movwf	___xxtofl@sign^(0+1280),c
   914   00329C  500A               	movf	___xxtofl@sign^(0+1280),w,c
   915   00329E  B4D8               	btfsc	status,2,c
   916   0032A0  EF54  F019         	goto	u2111
   917   0032A4  EF56  F019         	goto	u2110
   918   0032A8                     u2111:
   919   0032A8  EF78  F019         	goto	l809
   920   0032AC                     u2110:
   921   0032AC  BE05               	btfsc	(___xxtofl@val+3)^(0+1280),7,c
   922   0032AE  EF5D  F019         	goto	u2120
   923   0032B2  EF5B  F019         	goto	u2121
   924   0032B6                     u2121:
   925   0032B6  EF78  F019         	goto	l809
   926   0032BA                     u2120:
   927   0032BA  C502  F506         	movff	___xxtofl@val,??___xxtofl
   928   0032BE  C503  F507         	movff	___xxtofl@val+1,??___xxtofl+1
   929   0032C2  C504  F508         	movff	___xxtofl@val+2,??___xxtofl+2
   930   0032C6  C505  F509         	movff	___xxtofl@val+3,??___xxtofl+3
   931   0032CA  1E06               	comf	??___xxtofl^(0+1280),f,c
   932   0032CC  1E07               	comf	(??___xxtofl+1)^(0+1280),f,c
   933   0032CE  1E08               	comf	(??___xxtofl+2)^(0+1280),f,c
   934   0032D0  1E09               	comf	(??___xxtofl+3)^(0+1280),f,c
   935   0032D2  2A06               	incf	??___xxtofl^(0+1280),f,c
   936   0032D4  0E00               	movlw	0
   937   0032D6  2207               	addwfc	(??___xxtofl+1)^(0+1280),f,c
   938   0032D8  2208               	addwfc	(??___xxtofl+2)^(0+1280),f,c
   939   0032DA  2209               	addwfc	(??___xxtofl+3)^(0+1280),f,c
   940   0032DC  C506  F50C         	movff	??___xxtofl,___xxtofl@arg
   941   0032E0  C507  F50D         	movff	??___xxtofl+1,___xxtofl@arg+1
   942   0032E4  C508  F50E         	movff	??___xxtofl+2,___xxtofl@arg+2
   943   0032E8  C509  F50F         	movff	??___xxtofl+3,___xxtofl@arg+3
   944   0032EC  EF80  F019         	goto	l2345
   945   0032F0                     l809:
   946   0032F0  C502  F50C         	movff	___xxtofl@val,___xxtofl@arg
   947   0032F4  C503  F50D         	movff	___xxtofl@val+1,___xxtofl@arg+1
   948   0032F8  C504  F50E         	movff	___xxtofl@val+2,___xxtofl@arg+2
   949   0032FC  C505  F50F         	movff	___xxtofl@val+3,___xxtofl@arg+3
   950   003300                     l2345:
   951   003300  5002               	movf	___xxtofl@val^(0+1280),w,c
   952   003302  1003               	iorwf	(___xxtofl@val+1)^(0+1280),w,c
   953   003304  1004               	iorwf	(___xxtofl@val+2)^(0+1280),w,c
   954   003306  1005               	iorwf	(___xxtofl@val+3)^(0+1280),w,c
   955   003308  A4D8               	btfss	status,2,c
   956   00330A  EF89  F019         	goto	u2131
   957   00330E  EF8B  F019         	goto	u2130
   958   003312                     u2131:
   959   003312  EF95  F019         	goto	l2351
   960   003316                     u2130:
   961   003316  0E00               	movlw	0
   962   003318  6E02               	movwf	?___xxtofl^(0+1280),c
   963   00331A  0E00               	movlw	0
   964   00331C  6E03               	movwf	(?___xxtofl+1)^(0+1280),c
   965   00331E  0E00               	movlw	0
   966   003320  6E04               	movwf	(?___xxtofl+2)^(0+1280),c
   967   003322  0E00               	movlw	0
   968   003324  6E05               	movwf	(?___xxtofl+3)^(0+1280),c
   969   003326  EF26  F01A         	goto	l812
   970   00332A                     l2351:
   971   00332A  0E96               	movlw	150
   972   00332C  6E0B               	movwf	___xxtofl@exp^(0+1280),c
   973   00332E  EF9F  F019         	goto	l2355
   974   003332                     l2353:
   975   003332  2A0B               	incf	___xxtofl@exp^(0+1280),f,c
   976   003334  90D8               	bcf	status,0,c
   977   003336  320F               	rrcf	(___xxtofl@arg+3)^(0+1280),f,c
   978   003338  320E               	rrcf	(___xxtofl@arg+2)^(0+1280),f,c
   979   00333A  320D               	rrcf	(___xxtofl@arg+1)^(0+1280),f,c
   980   00333C  320C               	rrcf	___xxtofl@arg^(0+1280),f,c
   981   00333E                     l2355:
   982   00333E  0E00               	movlw	0
   983   003340  140C               	andwf	___xxtofl@arg^(0+1280),w,c
   984   003342  6E06               	movwf	??___xxtofl^(0+1280),c
   985   003344  0E00               	movlw	0
   986   003346  140D               	andwf	(___xxtofl@arg+1)^(0+1280),w,c
   987   003348  6E07               	movwf	(??___xxtofl+1)^(0+1280),c
   988   00334A  0E00               	movlw	0
   989   00334C  140E               	andwf	(___xxtofl@arg+2)^(0+1280),w,c
   990   00334E  6E08               	movwf	(??___xxtofl+2)^(0+1280),c
   991   003350  0EFE               	movlw	254
   992   003352  140F               	andwf	(___xxtofl@arg+3)^(0+1280),w,c
   993   003354  6E09               	movwf	(??___xxtofl+3)^(0+1280),c
   994   003356  5006               	movf	??___xxtofl^(0+1280),w,c
   995   003358  1007               	iorwf	(??___xxtofl+1)^(0+1280),w,c
   996   00335A  1008               	iorwf	(??___xxtofl+2)^(0+1280),w,c
   997   00335C  1009               	iorwf	(??___xxtofl+3)^(0+1280),w,c
   998   00335E  A4D8               	btfss	status,2,c
   999   003360  EFB4  F019         	goto	u2141
  1000   003364  EFB6  F019         	goto	u2140
  1001   003368                     u2141:
  1002   003368  EF99  F019         	goto	l2353
  1003   00336C                     u2140:
  1004   00336C  EFC4  F019         	goto	l816
  1005   003370                     l2357:
  1006   003370  2A0B               	incf	___xxtofl@exp^(0+1280),f,c
  1007   003372  0E01               	movlw	1
  1008   003374  260C               	addwf	___xxtofl@arg^(0+1280),f,c
  1009   003376  0E00               	movlw	0
  1010   003378  220D               	addwfc	(___xxtofl@arg+1)^(0+1280),f,c
  1011   00337A  220E               	addwfc	(___xxtofl@arg+2)^(0+1280),f,c
  1012   00337C  220F               	addwfc	(___xxtofl@arg+3)^(0+1280),f,c
  1013   00337E  90D8               	bcf	status,0,c
  1014   003380  320F               	rrcf	(___xxtofl@arg+3)^(0+1280),f,c
  1015   003382  320E               	rrcf	(___xxtofl@arg+2)^(0+1280),f,c
  1016   003384  320D               	rrcf	(___xxtofl@arg+1)^(0+1280),f,c
  1017   003386  320C               	rrcf	___xxtofl@arg^(0+1280),f,c
  1018   003388                     l816:
  1019   003388  0E00               	movlw	0
  1020   00338A  140C               	andwf	___xxtofl@arg^(0+1280),w,c
  1021   00338C  6E06               	movwf	??___xxtofl^(0+1280),c
  1022   00338E  0E00               	movlw	0
  1023   003390  140D               	andwf	(___xxtofl@arg+1)^(0+1280),w,c
  1024   003392  6E07               	movwf	(??___xxtofl+1)^(0+1280),c
  1025   003394  0E00               	movlw	0
  1026   003396  140E               	andwf	(___xxtofl@arg+2)^(0+1280),w,c
  1027   003398  6E08               	movwf	(??___xxtofl+2)^(0+1280),c
  1028   00339A  0EFF               	movlw	255
  1029   00339C  140F               	andwf	(___xxtofl@arg+3)^(0+1280),w,c
  1030   00339E  6E09               	movwf	(??___xxtofl+3)^(0+1280),c
  1031   0033A0  5006               	movf	??___xxtofl^(0+1280),w,c
  1032   0033A2  1007               	iorwf	(??___xxtofl+1)^(0+1280),w,c
  1033   0033A4  1008               	iorwf	(??___xxtofl+2)^(0+1280),w,c
  1034   0033A6  1009               	iorwf	(??___xxtofl+3)^(0+1280),w,c
  1035   0033A8  A4D8               	btfss	status,2,c
  1036   0033AA  EFD9  F019         	goto	u2151
  1037   0033AE  EFDB  F019         	goto	u2150
  1038   0033B2                     u2151:
  1039   0033B2  EFB8  F019         	goto	l2357
  1040   0033B6                     u2150:
  1041   0033B6  EFE3  F019         	goto	l2365
  1042   0033BA                     l2363:
  1043   0033BA  060B               	decf	___xxtofl@exp^(0+1280),f,c
  1044   0033BC  90D8               	bcf	status,0,c
  1045   0033BE  360C               	rlcf	___xxtofl@arg^(0+1280),f,c
  1046   0033C0  360D               	rlcf	(___xxtofl@arg+1)^(0+1280),f,c
  1047   0033C2  360E               	rlcf	(___xxtofl@arg+2)^(0+1280),f,c
  1048   0033C4  360F               	rlcf	(___xxtofl@arg+3)^(0+1280),f,c
  1049   0033C6                     l2365:
  1050   0033C6  BE0E               	btfsc	(___xxtofl@arg+2)^(0+1280),7,c
  1051   0033C8  EFE8  F019         	goto	u2161
  1052   0033CC  EFEA  F019         	goto	u2160
  1053   0033D0                     u2161:
  1054   0033D0  EFF2  F019         	goto	l823
  1055   0033D4                     u2160:
  1056   0033D4  0E02               	movlw	2
  1057   0033D6  600B               	cpfslt	___xxtofl@exp^(0+1280),c
  1058   0033D8  EFF0  F019         	goto	u2171
  1059   0033DC  EFF2  F019         	goto	u2170
  1060   0033E0                     u2171:
  1061   0033E0  EFDD  F019         	goto	l2363
  1062   0033E4                     u2170:
  1063   0033E4                     l823:
  1064   0033E4  B00B               	btfsc	___xxtofl@exp^(0+1280),0,c
  1065   0033E6  EFF7  F019         	goto	u2181
  1066   0033EA  EFF9  F019         	goto	u2180
  1067   0033EE                     u2181:
  1068   0033EE  EFFA  F019         	goto	l2371
  1069   0033F2                     u2180:
  1070   0033F2  9E0E               	bcf	(___xxtofl@arg+2)^(0+1280),7,c
  1071   0033F4                     l2371:
  1072   0033F4  90D8               	bcf	status,0,c
  1073   0033F6  320B               	rrcf	___xxtofl@exp^(0+1280),f,c
  1074   0033F8  C50B  F506         	movff	___xxtofl@exp,??___xxtofl
  1075   0033FC  6A07               	clrf	(??___xxtofl+1)^(0+1280),c
  1076   0033FE  6A08               	clrf	(??___xxtofl+2)^(0+1280),c
  1077   003400  6A09               	clrf	(??___xxtofl+3)^(0+1280),c
  1078   003402  C506  F509         	movff	??___xxtofl,??___xxtofl+3
  1079   003406  6A08               	clrf	(??___xxtofl+2)^(0+1280),c
  1080   003408  6A07               	clrf	(??___xxtofl+1)^(0+1280),c
  1081   00340A  6A06               	clrf	??___xxtofl^(0+1280),c
  1082   00340C  5006               	movf	??___xxtofl^(0+1280),w,c
  1083   00340E  120C               	iorwf	___xxtofl@arg^(0+1280),f,c
  1084   003410  5007               	movf	(??___xxtofl+1)^(0+1280),w,c
  1085   003412  120D               	iorwf	(___xxtofl@arg+1)^(0+1280),f,c
  1086   003414  5008               	movf	(??___xxtofl+2)^(0+1280),w,c
  1087   003416  120E               	iorwf	(___xxtofl@arg+2)^(0+1280),f,c
  1088   003418  5009               	movf	(??___xxtofl+3)^(0+1280),w,c
  1089   00341A  120F               	iorwf	(___xxtofl@arg+3)^(0+1280),f,c
  1090   00341C  500A               	movf	___xxtofl@sign^(0+1280),w,c
  1091   00341E  B4D8               	btfsc	status,2,c
  1092   003420  EF14  F01A         	goto	u2191
  1093   003424  EF16  F01A         	goto	u2190
  1094   003428                     u2191:
  1095   003428  EF1E  F01A         	goto	l2381
  1096   00342C                     u2190:
  1097   00342C  BE05               	btfsc	(___xxtofl@val+3)^(0+1280),7,c
  1098   00342E  EF1D  F01A         	goto	u2200
  1099   003432  EF1B  F01A         	goto	u2201
  1100   003436                     u2201:
  1101   003436  EF1E  F01A         	goto	l2381
  1102   00343A                     u2200:
  1103   00343A  8E0F               	bsf	(___xxtofl@arg+3)^(0+1280),7,c
  1104   00343C                     l2381:
  1105   00343C  C50C  F502         	movff	___xxtofl@arg,?___xxtofl
  1106   003440  C50D  F503         	movff	___xxtofl@arg+1,?___xxtofl+1
  1107   003444  C50E  F504         	movff	___xxtofl@arg+2,?___xxtofl+2
  1108   003448  C50F  F505         	movff	___xxtofl@arg+3,?___xxtofl+3
  1109   00344C                     l812:
  1110   00344C  0012               	return		;funcret
  1111   00344E                     __end_of___xxtofl:
  1112                           	callstack 0
  1113                           
  1114 ;; *************** function ___flsub *****************
  1115 ;; Defined at:
  1116 ;;		line 245 in file "C:\Program Files\Microchip\xc8\v2.40\pic\sources\c99\common\sprcadd.c"
  1117 ;; Parameters:    Size  Location     Type
  1118 ;;  b               4   56[COMRAM] unsigned char 
  1119 ;;  a               4   60[COMRAM] unsigned char 
  1120 ;; Auto vars:     Size  Location     Type
  1121 ;;		None
  1122 ;; Return value:  Size  Location     Type
  1123 ;;                  4   56[COMRAM] unsigned char 
  1124 ;; Registers used:
  1125 ;;		wreg, status,2, status,0, cstack
  1126 ;; Tracked objects:
  1127 ;;		On entry : 0/0
  1128 ;;		On exit  : 0/0
  1129 ;;		Unchanged: 0/0
  1130 ;; Data sizes:     COMRAM   BANK5   BANK6   BANK7   BANK8   BANK9  BANK10  BANK11  BANK12  BANK13  BANK14  BANK15  BANK1
      +6  BANK17  BANK18  BANK19  BANK20  BANK21  BANK22  BANK23  BANK24  BANK25  BANK26  BANK27  BANK28  BANK29  BANK30  BANK3
      +1  BANK32  BANK33  BANK34  BANK35  BANK36
  1131 ;;      Params:         8       0       0       0       0       0       0       0       0       0       0       0       
      +0       0       0       0       0       0       0       0       0       0       0       0       0       0       0       
      +0       0       0       0       0       0
  1132 ;;      Locals:         0       0       0       0       0       0       0       0       0       0       0       0       
      +0       0       0       0       0       0       0       0       0       0       0       0       0       0       0       
      +0       0       0       0       0       0
  1133 ;;      Temps:          0       0       0       0       0       0       0       0       0       0       0       0       
      +0       0       0       0       0       0       0       0       0       0       0       0       0       0       0       
      +0       0       0       0       0       0
  1134 ;;      Totals:         8       0       0       0       0       0       0       0       0       0       0       0       
      +0       0       0       0       0       0       0       0       0       0       0       0       0       0       0       
      +0       0       0       0       0       0
  1135 ;;Total ram usage:        8 bytes
  1136 ;; Hardware stack levels used: 1
  1137 ;; Hardware stack levels required when called: 2
  1138 ;; This function calls:
  1139 ;;		___fladd
  1140 ;; This function is called by:
  1141 ;;		_analogMap
  1142 ;; This function uses a non-reentrant model
  1143 ;;
  1144                           
  1145                           	psect	text4
  1146   003B70                     __ptext4:
  1147                           	callstack 0
  1148   003B70                     ___flsub:
  1149                           	callstack 123
  1150   003B70  0E00               	movlw	0
  1151   003B72  1A3D               	xorwf	___flsub@a^(0+1280),f,c
  1152   003B74  0E00               	movlw	0
  1153   003B76  1A3E               	xorwf	(___flsub@a+1)^(0+1280),f,c
  1154   003B78  0E00               	movlw	0
  1155   003B7A  1A3F               	xorwf	(___flsub@a+2)^(0+1280),f,c
  1156   003B7C  0E80               	movlw	128
  1157   003B7E  1A40               	xorwf	(___flsub@a+3)^(0+1280),f,c
  1158   003B80  C539  F529         	movff	___flsub@b,___fladd@b
  1159   003B84  C53A  F52A         	movff	___flsub@b+1,___fladd@b+1
  1160   003B88  C53B  F52B         	movff	___flsub@b+2,___fladd@b+2
  1161   003B8C  C53C  F52C         	movff	___flsub@b+3,___fladd@b+3
  1162   003B90  C53D  F52D         	movff	___flsub@a,___fladd@a
  1163   003B94  C53E  F52E         	movff	___flsub@a+1,___fladd@a+1
  1164   003B98  C53F  F52F         	movff	___flsub@a+2,___fladd@a+2
  1165   003B9C  C540  F530         	movff	___flsub@a+3,___fladd@a+3
  1166   003BA0  EC0B  F013         	call	___fladd	;wreg free
  1167   003BA4  C529  F539         	movff	?___fladd,?___flsub
  1168   003BA8  C52A  F53A         	movff	?___fladd+1,?___flsub+1
  1169   003BAC  C52B  F53B         	movff	?___fladd+2,?___flsub+2
  1170   003BB0  C52C  F53C         	movff	?___fladd+3,?___flsub+3
  1171   003BB4  0012               	return		;funcret
  1172   003BB6                     __end_of___flsub:
  1173                           	callstack 0
  1174                           
  1175 ;; *************** function ___fladd *****************
  1176 ;; Defined at:
  1177 ;;		line 10 in file "C:\Program Files\Microchip\xc8\v2.40\pic\sources\c99\common\sprcadd.c"
  1178 ;; Parameters:    Size  Location     Type
  1179 ;;  b               4   40[COMRAM] unsigned char 
  1180 ;;  a               4   44[COMRAM] unsigned char 
  1181 ;; Auto vars:     Size  Location     Type
  1182 ;;  grs             1   55[COMRAM] unsigned char 
  1183 ;;  bexp            1   54[COMRAM] unsigned char 
  1184 ;;  aexp            1   53[COMRAM] unsigned char 
  1185 ;;  signs           1   52[COMRAM] unsigned char 
  1186 ;; Return value:  Size  Location     Type
  1187 ;;                  4   40[COMRAM] unsigned char 
  1188 ;; Registers used:
  1189 ;;		wreg, status,2, status,0
  1190 ;; Tracked objects:
  1191 ;;		On entry : 0/0
  1192 ;;		On exit  : 0/0
  1193 ;;		Unchanged: 0/0
  1194 ;; Data sizes:     COMRAM   BANK5   BANK6   BANK7   BANK8   BANK9  BANK10  BANK11  BANK12  BANK13  BANK14  BANK15  BANK1
      +6  BANK17  BANK18  BANK19  BANK20  BANK21  BANK22  BANK23  BANK24  BANK25  BANK26  BANK27  BANK28  BANK29  BANK30  BANK3
      +1  BANK32  BANK33  BANK34  BANK35  BANK36
  1195 ;;      Params:         8       0       0       0       0       0       0       0       0       0       0       0       
      +0       0       0       0       0       0       0       0       0       0       0       0       0       0       0       
      +0       0       0       0       0       0
  1196 ;;      Locals:         4       0       0       0       0       0       0       0       0       0       0       0       
      +0       0       0       0       0       0       0       0       0       0       0       0       0       0       0       
      +0       0       0       0       0       0
  1197 ;;      Temps:          4       0       0       0       0       0       0       0       0       0       0       0       
      +0       0       0       0       0       0       0       0       0       0       0       0       0       0       0       
      +0       0       0       0       0       0
  1198 ;;      Totals:        16       0       0       0       0       0       0       0       0       0       0       0       
      +0       0       0       0       0       0       0       0       0       0       0       0       0       0       0       
      +0       0       0       0       0       0
  1199 ;;Total ram usage:       16 bytes
  1200 ;; Hardware stack levels used: 1
  1201 ;; Hardware stack levels required when called: 1
  1202 ;; This function calls:
  1203 ;;		Nothing
  1204 ;; This function is called by:
  1205 ;;		_analogMap
  1206 ;;		___flsub
  1207 ;; This function uses a non-reentrant model
  1208 ;;
  1209                           
  1210                           	psect	text5
  1211   002616                     __ptext5:
  1212                           	callstack 0
  1213   002616                     ___fladd:
  1214                           	callstack 123
  1215   002616  502C               	movf	(___fladd@b+3)^(0+1280),w,c
  1216   002618  0B80               	andlw	128
  1217   00261A  6E35               	movwf	___fladd@signs^(0+1280),c
  1218   00261C  502C               	movf	(___fladd@b+3)^(0+1280),w,c
  1219   00261E  242C               	addwf	(___fladd@b+3)^(0+1280),w,c
  1220   002620  6E37               	movwf	___fladd@bexp^(0+1280),c
  1221   002622  AE2B               	btfss	(___fladd@b+2)^(0+1280),7,c
  1222   002624  EF16  F013         	goto	u1211
  1223   002628  EF18  F013         	goto	u1210
  1224   00262C                     u1211:
  1225   00262C  EF19  F013         	goto	l1757
  1226   002630                     u1210:
  1227   002630  8037               	bsf	___fladd@bexp^(0+1280),0,c
  1228   002632                     l1757:
  1229   002632  5037               	movf	___fladd@bexp^(0+1280),w,c
  1230   002634  B4D8               	btfsc	status,2,c
  1231   002636  EF1F  F013         	goto	u1221
  1232   00263A  EF21  F013         	goto	u1220
  1233   00263E                     u1221:
  1234   00263E  EF36  F013         	goto	l1767
  1235   002642                     u1220:
  1236   002642  2837               	incf	___fladd@bexp^(0+1280),w,c
  1237   002644  A4D8               	btfss	status,2,c
  1238   002646  EF27  F013         	goto	u1231
  1239   00264A  EF29  F013         	goto	u1230
  1240   00264E                     u1231:
  1241   00264E  EF31  F013         	goto	l1763
  1242   002652                     u1230:
  1243   002652  0E00               	movlw	0
  1244   002654  6E29               	movwf	___fladd@b^(0+1280),c
  1245   002656  0E00               	movlw	0
  1246   002658  6E2A               	movwf	(___fladd@b+1)^(0+1280),c
  1247   00265A  0E00               	movlw	0
  1248   00265C  6E2B               	movwf	(___fladd@b+2)^(0+1280),c
  1249   00265E  0E00               	movlw	0
  1250   002660  6E2C               	movwf	(___fladd@b+3)^(0+1280),c
  1251   002662                     l1763:
  1252   002662  8E2B               	bsf	(___fladd@b+2)^(0+1280),7,c
  1253   002664  0E00               	movlw	0
  1254   002666  6E2C               	movwf	(___fladd@b+3)^(0+1280),c
  1255   002668  EF3E  F013         	goto	l1769
  1256   00266C                     l1767:
  1257   00266C  0E00               	movlw	0
  1258   00266E  6E29               	movwf	___fladd@b^(0+1280),c
  1259   002670  0E00               	movlw	0
  1260   002672  6E2A               	movwf	(___fladd@b+1)^(0+1280),c
  1261   002674  0E00               	movlw	0
  1262   002676  6E2B               	movwf	(___fladd@b+2)^(0+1280),c
  1263   002678  0E00               	movlw	0
  1264   00267A  6E2C               	movwf	(___fladd@b+3)^(0+1280),c
  1265   00267C                     l1769:
  1266   00267C  5030               	movf	(___fladd@a+3)^(0+1280),w,c
  1267   00267E  0B80               	andlw	128
  1268   002680  6E36               	movwf	___fladd@aexp^(0+1280),c
  1269   002682  5035               	movf	___fladd@signs^(0+1280),w,c
  1270   002684  1836               	xorwf	___fladd@aexp^(0+1280),w,c
  1271   002686  B4D8               	btfsc	status,2,c
  1272   002688  EF48  F013         	goto	u1241
  1273   00268C  EF4A  F013         	goto	u1240
  1274   002690                     u1241:
  1275   002690  EF4B  F013         	goto	l1775
  1276   002694                     u1240:
  1277   002694  8C35               	bsf	___fladd@signs^(0+1280),6,c
  1278   002696                     l1775:
  1279   002696  5030               	movf	(___fladd@a+3)^(0+1280),w,c
  1280   002698  2430               	addwf	(___fladd@a+3)^(0+1280),w,c
  1281   00269A  6E36               	movwf	___fladd@aexp^(0+1280),c
  1282   00269C  AE2F               	btfss	(___fladd@a+2)^(0+1280),7,c
  1283   00269E  EF53  F013         	goto	u1251
  1284   0026A2  EF55  F013         	goto	u1250
  1285   0026A6                     u1251:
  1286   0026A6  EF56  F013         	goto	l1781
  1287   0026AA                     u1250:
  1288   0026AA  8036               	bsf	___fladd@aexp^(0+1280),0,c
  1289   0026AC                     l1781:
  1290   0026AC  5036               	movf	___fladd@aexp^(0+1280),w,c
  1291   0026AE  B4D8               	btfsc	status,2,c
  1292   0026B0  EF5C  F013         	goto	u1261
  1293   0026B4  EF5E  F013         	goto	u1260
  1294   0026B8                     u1261:
  1295   0026B8  EF73  F013         	goto	l1791
  1296   0026BC                     u1260:
  1297   0026BC  2836               	incf	___fladd@aexp^(0+1280),w,c
  1298   0026BE  A4D8               	btfss	status,2,c
  1299   0026C0  EF64  F013         	goto	u1271
  1300   0026C4  EF66  F013         	goto	u1270
  1301   0026C8                     u1271:
  1302   0026C8  EF6E  F013         	goto	l1787
  1303   0026CC                     u1270:
  1304   0026CC  0E00               	movlw	0
  1305   0026CE  6E2D               	movwf	___fladd@a^(0+1280),c
  1306   0026D0  0E00               	movlw	0
  1307   0026D2  6E2E               	movwf	(___fladd@a+1)^(0+1280),c
  1308   0026D4  0E00               	movlw	0
  1309   0026D6  6E2F               	movwf	(___fladd@a+2)^(0+1280),c
  1310   0026D8  0E00               	movlw	0
  1311   0026DA  6E30               	movwf	(___fladd@a+3)^(0+1280),c
  1312   0026DC                     l1787:
  1313   0026DC  8E2F               	bsf	(___fladd@a+2)^(0+1280),7,c
  1314   0026DE  0E00               	movlw	0
  1315   0026E0  6E30               	movwf	(___fladd@a+3)^(0+1280),c
  1316   0026E2  EF7B  F013         	goto	l1793
  1317   0026E6                     l1791:
  1318   0026E6  0E00               	movlw	0
  1319   0026E8  6E2D               	movwf	___fladd@a^(0+1280),c
  1320   0026EA  0E00               	movlw	0
  1321   0026EC  6E2E               	movwf	(___fladd@a+1)^(0+1280),c
  1322   0026EE  0E00               	movlw	0
  1323   0026F0  6E2F               	movwf	(___fladd@a+2)^(0+1280),c
  1324   0026F2  0E00               	movlw	0
  1325   0026F4  6E30               	movwf	(___fladd@a+3)^(0+1280),c
  1326   0026F6                     l1793:
  1327   0026F6  5037               	movf	___fladd@bexp^(0+1280),w,c
  1328   0026F8  5C36               	subwf	___fladd@aexp^(0+1280),w,c
  1329   0026FA  B0D8               	btfsc	status,0,c
  1330   0026FC  EF82  F013         	goto	u1281
  1331   002700  EF84  F013         	goto	u1280
  1332   002704                     u1281:
  1333   002704  EFAB  F013         	goto	l1829
  1334   002708                     u1280:
  1335   002708  AC35               	btfss	___fladd@signs^(0+1280),6,c
  1336   00270A  EF89  F013         	goto	u1291
  1337   00270E  EF8B  F013         	goto	u1290
  1338   002712                     u1291:
  1339   002712  EF8D  F013         	goto	l1799
  1340   002716                     u1290:
  1341   002716  0E80               	movlw	128
  1342   002718  1A35               	xorwf	___fladd@signs^(0+1280),f,c
  1343   00271A                     l1799:
  1344   00271A  C537  F538         	movff	___fladd@bexp,___fladd@grs
  1345   00271E  C536  F537         	movff	___fladd@aexp,___fladd@bexp
  1346   002722  C538  F536         	movff	___fladd@grs,___fladd@aexp
  1347   002726  C529  F538         	movff	___fladd@b,___fladd@grs
  1348   00272A  C52D  F529         	movff	___fladd@a,___fladd@b
  1349   00272E  C538  F52D         	movff	___fladd@grs,___fladd@a
  1350   002732  C52A  F538         	movff	___fladd@b+1,___fladd@grs
  1351   002736  C52E  F52A         	movff	___fladd@a+1,___fladd@b+1
  1352   00273A  C538  F52E         	movff	___fladd@grs,___fladd@a+1
  1353   00273E  C52B  F538         	movff	___fladd@b+2,___fladd@grs
  1354   002742  C52F  F52B         	movff	___fladd@a+2,___fladd@b+2
  1355   002746  C538  F52F         	movff	___fladd@grs,___fladd@a+2
  1356   00274A  C52C  F538         	movff	___fladd@b+3,___fladd@grs
  1357   00274E  C530  F52C         	movff	___fladd@a+3,___fladd@b+3
  1358   002752  C538  F530         	movff	___fladd@grs,___fladd@a+3
  1359   002756                     l1829:
  1360   002756  0E00               	movlw	0
  1361   002758  6E38               	movwf	___fladd@grs^(0+1280),c
  1362   00275A  5037               	movf	___fladd@bexp^(0+1280),w,c
  1363   00275C  C536  F531         	movff	___fladd@aexp,??___fladd
  1364   002760  6A32               	clrf	(??___fladd+1)^(0+1280),c
  1365   002762  5E31               	subwf	??___fladd^(0+1280),f,c
  1366   002764  0E00               	movlw	0
  1367   002766  5A32               	subwfb	(??___fladd+1)^(0+1280),f,c
  1368   002768  BE32               	btfsc	(??___fladd+1)^(0+1280),7,c
  1369   00276A  EFC0  F013         	goto	u1301
  1370   00276E  5032               	movf	(??___fladd+1)^(0+1280),w,c
  1371   002770  E109               	bnz	u1300
  1372   002772  0E1A               	movlw	26
  1373   002774  5C31               	subwf	??___fladd^(0+1280),w,c
  1374   002776  A0D8               	btfss	status,0,c
  1375   002778  EFC0  F013         	goto	u1301
  1376   00277C  EFC2  F013         	goto	u1300
  1377   002780                     u1301:
  1378   002780  EFF9  F013         	goto	l683
  1379   002784                     u1300:
  1380   002784  5029               	movf	___fladd@b^(0+1280),w,c
  1381   002786  102A               	iorwf	(___fladd@b+1)^(0+1280),w,c
  1382   002788  102B               	iorwf	(___fladd@b+2)^(0+1280),w,c
  1383   00278A  102C               	iorwf	(___fladd@b+3)^(0+1280),w,c
  1384   00278C  A4D8               	btfss	status,2,c
  1385   00278E  EFCB  F013         	goto	u1311
  1386   002792  EFCE  F013         	goto	u1310
  1387   002796                     u1311:
  1388   002796  0E01               	movlw	1
  1389   002798  EFCF  F013         	goto	u1320
  1390   00279C                     u1310:
  1391   00279C  0E00               	movlw	0
  1392   00279E                     u1320:
  1393   00279E  6E38               	movwf	___fladd@grs^(0+1280),c
  1394   0027A0  0E00               	movlw	0
  1395   0027A2  6E29               	movwf	___fladd@b^(0+1280),c
  1396   0027A4  0E00               	movlw	0
  1397   0027A6  6E2A               	movwf	(___fladd@b+1)^(0+1280),c
  1398   0027A8  0E00               	movlw	0
  1399   0027AA  6E2B               	movwf	(___fladd@b+2)^(0+1280),c
  1400   0027AC  0E00               	movlw	0
  1401   0027AE  6E2C               	movwf	(___fladd@b+3)^(0+1280),c
  1402   0027B0  C536  F537         	movff	___fladd@aexp,___fladd@bexp
  1403   0027B4  EF02  F014         	goto	l682
  1404   0027B8                     l684:
  1405   0027B8  A038               	btfss	___fladd@grs^(0+1280),0,c
  1406   0027BA  EFE1  F013         	goto	u1331
  1407   0027BE  EFE3  F013         	goto	u1330
  1408   0027C2                     u1331:
  1409   0027C2  EFE9  F013         	goto	l1841
  1410   0027C6                     u1330:
  1411   0027C6  90D8               	bcf	status,0,c
  1412   0027C8  3038               	rrcf	___fladd@grs^(0+1280),w,c
  1413   0027CA  0901               	iorlw	1
  1414   0027CC  6E38               	movwf	___fladd@grs^(0+1280),c
  1415   0027CE  EFEB  F013         	goto	l1843
  1416   0027D2                     l1841:
  1417   0027D2  90D8               	bcf	status,0,c
  1418   0027D4  3238               	rrcf	___fladd@grs^(0+1280),f,c
  1419   0027D6                     l1843:
  1420   0027D6  A029               	btfss	___fladd@b^(0+1280),0,c
  1421   0027D8  EFF0  F013         	goto	u1341
  1422   0027DC  EFF2  F013         	goto	u1340
  1423   0027E0                     u1341:
  1424   0027E0  EFF3  F013         	goto	l1847
  1425   0027E4                     u1340:
  1426   0027E4  8E38               	bsf	___fladd@grs^(0+1280),7,c
  1427   0027E6                     l1847:
  1428   0027E6  342C               	rlcf	(___fladd@b+3)^(0+1280),w,c
  1429   0027E8  322C               	rrcf	(___fladd@b+3)^(0+1280),f,c
  1430   0027EA  322B               	rrcf	(___fladd@b+2)^(0+1280),f,c
  1431   0027EC  322A               	rrcf	(___fladd@b+1)^(0+1280),f,c
  1432   0027EE  3229               	rrcf	___fladd@b^(0+1280),f,c
  1433   0027F0  2A37               	incf	___fladd@bexp^(0+1280),f,c
  1434   0027F2                     l683:
  1435   0027F2  5036               	movf	___fladd@aexp^(0+1280),w,c
  1436   0027F4  5C37               	subwf	___fladd@bexp^(0+1280),w,c
  1437   0027F6  A0D8               	btfss	status,0,c
  1438   0027F8  EF00  F014         	goto	u1351
  1439   0027FC  EF02  F014         	goto	u1350
  1440   002800                     u1351:
  1441   002800  EFDC  F013         	goto	l684
  1442   002804                     u1350:
  1443   002804                     l682:
  1444   002804  BC35               	btfsc	___fladd@signs^(0+1280),6,c
  1445   002806  EF07  F014         	goto	u1361
  1446   00280A  EF09  F014         	goto	u1360
  1447   00280E                     u1361:
  1448   00280E  EF49  F014         	goto	l1875
  1449   002812                     u1360:
  1450   002812  5037               	movf	___fladd@bexp^(0+1280),w,c
  1451   002814  A4D8               	btfss	status,2,c
  1452   002816  EF0F  F014         	goto	u1371
  1453   00281A  EF11  F014         	goto	u1370
  1454   00281E                     u1371:
  1455   00281E  EF1B  F014         	goto	l1857
  1456   002822                     u1370:
  1457   002822  0E00               	movlw	0
  1458   002824  6E29               	movwf	?___fladd^(0+1280),c
  1459   002826  0E00               	movlw	0
  1460   002828  6E2A               	movwf	(?___fladd+1)^(0+1280),c
  1461   00282A  0E00               	movlw	0
  1462   00282C  6E2B               	movwf	(?___fladd+2)^(0+1280),c
  1463   00282E  0E00               	movlw	0
  1464   002830  6E2C               	movwf	(?___fladd+3)^(0+1280),c
  1465   002832  EF6A  F015         	goto	l691
  1466   002836                     l1857:
  1467   002836  502D               	movf	___fladd@a^(0+1280),w,c
  1468   002838  2629               	addwf	___fladd@b^(0+1280),f,c
  1469   00283A  502E               	movf	(___fladd@a+1)^(0+1280),w,c
  1470   00283C  222A               	addwfc	(___fladd@b+1)^(0+1280),f,c
  1471   00283E  502F               	movf	(___fladd@a+2)^(0+1280),w,c
  1472   002840  222B               	addwfc	(___fladd@b+2)^(0+1280),f,c
  1473   002842  5030               	movf	(___fladd@a+3)^(0+1280),w,c
  1474   002844  222C               	addwfc	(___fladd@b+3)^(0+1280),f,c
  1475   002846  A02C               	btfss	(___fladd@b+3)^(0+1280),0,c
  1476   002848  EF28  F014         	goto	u1381
  1477   00284C  EF2A  F014         	goto	u1380
  1478   002850                     u1381:
  1479   002850  EFD6  F014         	goto	l1911
  1480   002854                     u1380:
  1481   002854  A038               	btfss	___fladd@grs^(0+1280),0,c
  1482   002856  EF2F  F014         	goto	u1391
  1483   00285A  EF31  F014         	goto	u1390
  1484   00285E                     u1391:
  1485   00285E  EF37  F014         	goto	l1865
  1486   002862                     u1390:
  1487   002862  90D8               	bcf	status,0,c
  1488   002864  3038               	rrcf	___fladd@grs^(0+1280),w,c
  1489   002866  0901               	iorlw	1
  1490   002868  6E38               	movwf	___fladd@grs^(0+1280),c
  1491   00286A  EF39  F014         	goto	l1867
  1492   00286E                     l1865:
  1493   00286E  90D8               	bcf	status,0,c
  1494   002870  3238               	rrcf	___fladd@grs^(0+1280),f,c
  1495   002872                     l1867:
  1496   002872  A029               	btfss	___fladd@b^(0+1280),0,c
  1497   002874  EF3E  F014         	goto	u1401
  1498   002878  EF40  F014         	goto	u1400
  1499   00287C                     u1401:
  1500   00287C  EF41  F014         	goto	l1871
  1501   002880                     u1400:
  1502   002880  8E38               	bsf	___fladd@grs^(0+1280),7,c
  1503   002882                     l1871:
  1504   002882  342C               	rlcf	(___fladd@b+3)^(0+1280),w,c
  1505   002884  322C               	rrcf	(___fladd@b+3)^(0+1280),f,c
  1506   002886  322B               	rrcf	(___fladd@b+2)^(0+1280),f,c
  1507   002888  322A               	rrcf	(___fladd@b+1)^(0+1280),f,c
  1508   00288A  3229               	rrcf	___fladd@b^(0+1280),f,c
  1509   00288C  2A37               	incf	___fladd@bexp^(0+1280),f,c
  1510   00288E  EFD6  F014         	goto	l1911
  1511   002892                     l1875:
  1512   002892  502D               	movf	___fladd@a^(0+1280),w,c
  1513   002894  5C29               	subwf	___fladd@b^(0+1280),w,c
  1514   002896  502E               	movf	(___fladd@a+1)^(0+1280),w,c
  1515   002898  582A               	subwfb	(___fladd@b+1)^(0+1280),w,c
  1516   00289A  502F               	movf	(___fladd@a+2)^(0+1280),w,c
  1517   00289C  582B               	subwfb	(___fladd@b+2)^(0+1280),w,c
  1518   00289E  502C               	movf	(___fladd@b+3)^(0+1280),w,c
  1519   0028A0  0A80               	xorlw	128
  1520   0028A2  6E31               	movwf	??___fladd^(0+1280),c
  1521   0028A4  5030               	movf	(___fladd@a+3)^(0+1280),w,c
  1522   0028A6  0A80               	xorlw	128
  1523   0028A8  5831               	subwfb	??___fladd^(0+1280),w,c
  1524   0028AA  B0D8               	btfsc	status,0,c
  1525   0028AC  EF5A  F014         	goto	u1411
  1526   0028B0  EF5C  F014         	goto	u1410
  1527   0028B4                     u1411:
  1528   0028B4  EF87  F014         	goto	l1885
  1529   0028B8                     u1410:
  1530   0028B8  5029               	movf	___fladd@b^(0+1280),w,c
  1531   0028BA  5C2D               	subwf	___fladd@a^(0+1280),w,c
  1532   0028BC  6E31               	movwf	??___fladd^(0+1280),c
  1533   0028BE  502A               	movf	(___fladd@b+1)^(0+1280),w,c
  1534   0028C0  582E               	subwfb	(___fladd@a+1)^(0+1280),w,c
  1535   0028C2  6E32               	movwf	(??___fladd+1)^(0+1280),c
  1536   0028C4  502B               	movf	(___fladd@b+2)^(0+1280),w,c
  1537   0028C6  582F               	subwfb	(___fladd@a+2)^(0+1280),w,c
  1538   0028C8  6E33               	movwf	(??___fladd+2)^(0+1280),c
  1539   0028CA  502C               	movf	(___fladd@b+3)^(0+1280),w,c
  1540   0028CC  5830               	subwfb	(___fladd@a+3)^(0+1280),w,c
  1541   0028CE  6E34               	movwf	(??___fladd+3)^(0+1280),c
  1542   0028D0  0EFF               	movlw	255
  1543   0028D2  2431               	addwf	??___fladd^(0+1280),w,c
  1544   0028D4  6E29               	movwf	___fladd@b^(0+1280),c
  1545   0028D6  0EFF               	movlw	255
  1546   0028D8  2032               	addwfc	(??___fladd+1)^(0+1280),w,c
  1547   0028DA  6E2A               	movwf	(___fladd@b+1)^(0+1280),c
  1548   0028DC  0EFF               	movlw	255
  1549   0028DE  2033               	addwfc	(??___fladd+2)^(0+1280),w,c
  1550   0028E0  6E2B               	movwf	(___fladd@b+2)^(0+1280),c
  1551   0028E2  0EFF               	movlw	255
  1552   0028E4  2034               	addwfc	(??___fladd+3)^(0+1280),w,c
  1553   0028E6  6E2C               	movwf	(___fladd@b+3)^(0+1280),c
  1554   0028E8  0E80               	movlw	128
  1555   0028EA  1A35               	xorwf	___fladd@signs^(0+1280),f,c
  1556   0028EC  6C38               	negf	___fladd@grs^(0+1280),c
  1557   0028EE  5038               	movf	___fladd@grs^(0+1280),w,c
  1558   0028F0  A4D8               	btfss	status,2,c
  1559   0028F2  EF7D  F014         	goto	u1421
  1560   0028F6  EF7F  F014         	goto	u1420
  1561   0028FA                     u1421:
  1562   0028FA  EF8F  F014         	goto	l699
  1563   0028FE                     u1420:
  1564   0028FE  0E01               	movlw	1
  1565   002900  2629               	addwf	___fladd@b^(0+1280),f,c
  1566   002902  0E00               	movlw	0
  1567   002904  222A               	addwfc	(___fladd@b+1)^(0+1280),f,c
  1568   002906  222B               	addwfc	(___fladd@b+2)^(0+1280),f,c
  1569   002908  222C               	addwfc	(___fladd@b+3)^(0+1280),f,c
  1570   00290A  EF8F  F014         	goto	l699
  1571   00290E                     l1885:
  1572   00290E  502D               	movf	___fladd@a^(0+1280),w,c
  1573   002910  5E29               	subwf	___fladd@b^(0+1280),f,c
  1574   002912  502E               	movf	(___fladd@a+1)^(0+1280),w,c
  1575   002914  5A2A               	subwfb	(___fladd@b+1)^(0+1280),f,c
  1576   002916  502F               	movf	(___fladd@a+2)^(0+1280),w,c
  1577   002918  5A2B               	subwfb	(___fladd@b+2)^(0+1280),f,c
  1578   00291A  5030               	movf	(___fladd@a+3)^(0+1280),w,c
  1579   00291C  5A2C               	subwfb	(___fladd@b+3)^(0+1280),f,c
  1580   00291E                     l699:
  1581   00291E  5029               	movf	___fladd@b^(0+1280),w,c
  1582   002920  102A               	iorwf	(___fladd@b+1)^(0+1280),w,c
  1583   002922  102B               	iorwf	(___fladd@b+2)^(0+1280),w,c
  1584   002924  102C               	iorwf	(___fladd@b+3)^(0+1280),w,c
  1585   002926  A4D8               	btfss	status,2,c
  1586   002928  EF98  F014         	goto	u1431
  1587   00292C  EF9A  F014         	goto	u1430
  1588   002930                     u1431:
  1589   002930  EFCF  F014         	goto	l1909
  1590   002934                     u1430:
  1591   002934  5038               	movf	___fladd@grs^(0+1280),w,c
  1592   002936  A4D8               	btfss	status,2,c
  1593   002938  EFA0  F014         	goto	u1441
  1594   00293C  EFA2  F014         	goto	u1440
  1595   002940                     u1441:
  1596   002940  EFCF  F014         	goto	l1909
  1597   002944                     u1440:
  1598   002944  0E00               	movlw	0
  1599   002946  6E29               	movwf	?___fladd^(0+1280),c
  1600   002948  0E00               	movlw	0
  1601   00294A  6E2A               	movwf	(?___fladd+1)^(0+1280),c
  1602   00294C  0E00               	movlw	0
  1603   00294E  6E2B               	movwf	(?___fladd+2)^(0+1280),c
  1604   002950  0E00               	movlw	0
  1605   002952  6E2C               	movwf	(?___fladd+3)^(0+1280),c
  1606   002954  EF6A  F015         	goto	l691
  1607   002958                     l1893:
  1608   002958  90D8               	bcf	status,0,c
  1609   00295A  3629               	rlcf	___fladd@b^(0+1280),f,c
  1610   00295C  362A               	rlcf	(___fladd@b+1)^(0+1280),f,c
  1611   00295E  362B               	rlcf	(___fladd@b+2)^(0+1280),f,c
  1612   002960  362C               	rlcf	(___fladd@b+3)^(0+1280),f,c
  1613   002962  AE38               	btfss	___fladd@grs^(0+1280),7,c
  1614   002964  EFB6  F014         	goto	u1451
  1615   002968  EFB8  F014         	goto	u1450
  1616   00296C                     u1451:
  1617   00296C  EFB9  F014         	goto	l1899
  1618   002970                     u1450:
  1619   002970  8029               	bsf	___fladd@b^(0+1280),0,c
  1620   002972                     l1899:
  1621   002972  A038               	btfss	___fladd@grs^(0+1280),0,c
  1622   002974  EFBE  F014         	goto	u1461
  1623   002978  EFC0  F014         	goto	u1460
  1624   00297C                     u1461:
  1625   00297C  EFC4  F014         	goto	l1903
  1626   002980                     u1460:
  1627   002980  80D8               	bsf	status,0,c
  1628   002982  3638               	rlcf	___fladd@grs^(0+1280),f,c
  1629   002984  EFC6  F014         	goto	l1905
  1630   002988                     l1903:
  1631   002988  90D8               	bcf	status,0,c
  1632   00298A  3638               	rlcf	___fladd@grs^(0+1280),f,c
  1633   00298C                     l1905:
  1634   00298C  5037               	movf	___fladd@bexp^(0+1280),w,c
  1635   00298E  B4D8               	btfsc	status,2,c
  1636   002990  EFCC  F014         	goto	u1471
  1637   002994  EFCE  F014         	goto	u1470
  1638   002998                     u1471:
  1639   002998  EFCF  F014         	goto	l1909
  1640   00299C                     u1470:
  1641   00299C  0637               	decf	___fladd@bexp^(0+1280),f,c
  1642   00299E                     l1909:
  1643   00299E  AE2B               	btfss	(___fladd@b+2)^(0+1280),7,c
  1644   0029A0  EFD4  F014         	goto	u1481
  1645   0029A4  EFD6  F014         	goto	u1480
  1646   0029A8                     u1481:
  1647   0029A8  EFAC  F014         	goto	l1893
  1648   0029AC                     u1480:
  1649   0029AC                     l1911:
  1650   0029AC  0E00               	movlw	0
  1651   0029AE  6E36               	movwf	___fladd@aexp^(0+1280),c
  1652   0029B0  AE38               	btfss	___fladd@grs^(0+1280),7,c
  1653   0029B2  EFDD  F014         	goto	u1491
  1654   0029B6  EFDF  F014         	goto	u1490
  1655   0029BA                     u1491:
  1656   0029BA  EFF7  F014         	goto	l708
  1657   0029BE                     u1490:
  1658   0029BE  C538  F531         	movff	___fladd@grs,??___fladd
  1659   0029C2  0E7F               	movlw	127
  1660   0029C4  1631               	andwf	??___fladd^(0+1280),f,c
  1661   0029C6  B4D8               	btfsc	status,2,c
  1662   0029C8  EFE8  F014         	goto	u1501
  1663   0029CC  EFEA  F014         	goto	u1500
  1664   0029D0                     u1501:
  1665   0029D0  EFEE  F014         	goto	l709
  1666   0029D4                     u1500:
  1667   0029D4                     l1917:
  1668   0029D4  0E01               	movlw	1
  1669   0029D6  6E36               	movwf	___fladd@aexp^(0+1280),c
  1670   0029D8  EFF7  F014         	goto	l708
  1671   0029DC                     l709:
  1672   0029DC  A029               	btfss	___fladd@b^(0+1280),0,c
  1673   0029DE  EFF3  F014         	goto	u1511
  1674   0029E2  EFF5  F014         	goto	u1510
  1675   0029E6                     u1511:
  1676   0029E6  EFF7  F014         	goto	l708
  1677   0029EA                     u1510:
  1678   0029EA  EFEA  F014         	goto	l1917
  1679   0029EE                     l708:
  1680   0029EE  5036               	movf	___fladd@aexp^(0+1280),w,c
  1681   0029F0  B4D8               	btfsc	status,2,c
  1682   0029F2  EFFD  F014         	goto	u1521
  1683   0029F6  EFFF  F014         	goto	u1520
  1684   0029FA                     u1521:
  1685   0029FA  EF2A  F015         	goto	l1929
  1686   0029FE                     u1520:
  1687   0029FE  0E01               	movlw	1
  1688   002A00  2629               	addwf	___fladd@b^(0+1280),f,c
  1689   002A02  0E00               	movlw	0
  1690   002A04  222A               	addwfc	(___fladd@b+1)^(0+1280),f,c
  1691   002A06  222B               	addwfc	(___fladd@b+2)^(0+1280),f,c
  1692   002A08  222C               	addwfc	(___fladd@b+3)^(0+1280),f,c
  1693   002A0A  A02C               	btfss	(___fladd@b+3)^(0+1280),0,c
  1694   002A0C  EF0A  F015         	goto	u1531
  1695   002A10  EF0C  F015         	goto	u1530
  1696   002A14                     u1531:
  1697   002A14  EF2A  F015         	goto	l1929
  1698   002A18                     u1530:
  1699   002A18  C529  F531         	movff	___fladd@b,??___fladd
  1700   002A1C  C52A  F532         	movff	___fladd@b+1,??___fladd+1
  1701   002A20  C52B  F533         	movff	___fladd@b+2,??___fladd+2
  1702   002A24  C52C  F534         	movff	___fladd@b+3,??___fladd+3
  1703   002A28  3434               	rlcf	(??___fladd+3)^(0+1280),w,c
  1704   002A2A  3234               	rrcf	(??___fladd+3)^(0+1280),f,c
  1705   002A2C  3233               	rrcf	(??___fladd+2)^(0+1280),f,c
  1706   002A2E  3232               	rrcf	(??___fladd+1)^(0+1280),f,c
  1707   002A30  3231               	rrcf	??___fladd^(0+1280),f,c
  1708   002A32  C531  F529         	movff	??___fladd,___fladd@b
  1709   002A36  C532  F52A         	movff	??___fladd+1,___fladd@b+1
  1710   002A3A  C533  F52B         	movff	??___fladd+2,___fladd@b+2
  1711   002A3E  C534  F52C         	movff	??___fladd+3,___fladd@b+3
  1712   002A42  2837               	incf	___fladd@bexp^(0+1280),w,c
  1713   002A44  B4D8               	btfsc	status,2,c
  1714   002A46  EF27  F015         	goto	u1541
  1715   002A4A  EF29  F015         	goto	u1540
  1716   002A4E                     u1541:
  1717   002A4E  EF2A  F015         	goto	l1929
  1718   002A52                     u1540:
  1719   002A52  2A37               	incf	___fladd@bexp^(0+1280),f,c
  1720   002A54                     l1929:
  1721   002A54  2837               	incf	___fladd@bexp^(0+1280),w,c
  1722   002A56  B4D8               	btfsc	status,2,c
  1723   002A58  EF30  F015         	goto	u1551
  1724   002A5C  EF32  F015         	goto	u1550
  1725   002A60                     u1551:
  1726   002A60  EF3A  F015         	goto	l1933
  1727   002A64                     u1550:
  1728   002A64  5037               	movf	___fladd@bexp^(0+1280),w,c
  1729   002A66  A4D8               	btfss	status,2,c
  1730   002A68  EF38  F015         	goto	u1561
  1731   002A6C  EF3A  F015         	goto	u1560
  1732   002A70                     u1561:
  1733   002A70  EF4C  F015         	goto	l1937
  1734   002A74                     u1560:
  1735   002A74                     l1933:
  1736   002A74  0E00               	movlw	0
  1737   002A76  6E29               	movwf	___fladd@b^(0+1280),c
  1738   002A78  0E00               	movlw	0
  1739   002A7A  6E2A               	movwf	(___fladd@b+1)^(0+1280),c
  1740   002A7C  0E00               	movlw	0
  1741   002A7E  6E2B               	movwf	(___fladd@b+2)^(0+1280),c
  1742   002A80  0E00               	movlw	0
  1743   002A82  6E2C               	movwf	(___fladd@b+3)^(0+1280),c
  1744   002A84  5037               	movf	___fladd@bexp^(0+1280),w,c
  1745   002A86  A4D8               	btfss	status,2,c
  1746   002A88  EF48  F015         	goto	u1571
  1747   002A8C  EF4A  F015         	goto	u1570
  1748   002A90                     u1571:
  1749   002A90  EF4C  F015         	goto	l1937
  1750   002A94                     u1570:
  1751   002A94  0E00               	movlw	0
  1752   002A96  6E35               	movwf	___fladd@signs^(0+1280),c
  1753   002A98                     l1937:
  1754   002A98  A037               	btfss	___fladd@bexp^(0+1280),0,c
  1755   002A9A  EF51  F015         	goto	u1581
  1756   002A9E  EF53  F015         	goto	u1580
  1757   002AA2                     u1581:
  1758   002AA2  EF56  F015         	goto	l1941
  1759   002AA6                     u1580:
  1760   002AA6  8E2B               	bsf	(___fladd@b+2)^(0+1280),7,c
  1761   002AA8  EF57  F015         	goto	l1943
  1762   002AAC                     l1941:
  1763   002AAC  9E2B               	bcf	(___fladd@b+2)^(0+1280),7,c
  1764   002AAE                     l1943:
  1765   002AAE  90D8               	bcf	status,0,c
  1766   002AB0  3037               	rrcf	___fladd@bexp^(0+1280),w,c
  1767   002AB2  6E2C               	movwf	(___fladd@b+3)^(0+1280),c
  1768   002AB4  AE35               	btfss	___fladd@signs^(0+1280),7,c
  1769   002AB6  EF5F  F015         	goto	u1591
  1770   002ABA  EF61  F015         	goto	u1590
  1771   002ABE                     u1591:
  1772   002ABE  EF62  F015         	goto	l1949
  1773   002AC2                     u1590:
  1774   002AC2  8E2C               	bsf	(___fladd@b+3)^(0+1280),7,c
  1775   002AC4                     l1949:
  1776   002AC4  C529  F529         	movff	___fladd@b,?___fladd
  1777   002AC8  C52A  F52A         	movff	___fladd@b+1,?___fladd+1
  1778   002ACC  C52B  F52B         	movff	___fladd@b+2,?___fladd+2
  1779   002AD0  C52C  F52C         	movff	___fladd@b+3,?___fladd+3
  1780   002AD4                     l691:
  1781   002AD4  0012               	return		;funcret
  1782   002AD6                     __end_of___fladd:
  1783                           	callstack 0
  1784                           
  1785 ;; *************** function ___flmul *****************
  1786 ;; Defined at:
  1787 ;;		line 8 in file "C:\Program Files\Microchip\xc8\v2.40\pic\sources\c99\common\sprcmul.c"
  1788 ;; Parameters:    Size  Location     Type
  1789 ;;  b               4   64[COMRAM] unsigned char 
  1790 ;;  a               4   68[COMRAM] unsigned char 
  1791 ;; Auto vars:     Size  Location     Type
  1792 ;;  prod            4   83[COMRAM] struct .
  1793 ;;  grs             4   77[COMRAM] unsigned long 
  1794 ;;  temp            2   87[COMRAM] struct .
  1795 ;;  bexp            1   82[COMRAM] unsigned char 
  1796 ;;  aexp            1   81[COMRAM] unsigned char 
  1797 ;;  sign            1   76[COMRAM] unsigned char 
  1798 ;; Return value:  Size  Location     Type
  1799 ;;                  4   64[COMRAM] unsigned char 
  1800 ;; Registers used:
  1801 ;;		wreg, status,2, status,0, prodl, prodh
  1802 ;; Tracked objects:
  1803 ;;		On entry : 0/0
  1804 ;;		On exit  : 0/0
  1805 ;;		Unchanged: 0/0
  1806 ;; Data sizes:     COMRAM   BANK5   BANK6   BANK7   BANK8   BANK9  BANK10  BANK11  BANK12  BANK13  BANK14  BANK15  BANK1
      +6  BANK17  BANK18  BANK19  BANK20  BANK21  BANK22  BANK23  BANK24  BANK25  BANK26  BANK27  BANK28  BANK29  BANK30  BANK3
      +1  BANK32  BANK33  BANK34  BANK35  BANK36
  1807 ;;      Params:         8       0       0       0       0       0       0       0       0       0       0       0       
      +0       0       0       0       0       0       0       0       0       0       0       0       0       0       0       
      +0       0       0       0       0       0
  1808 ;;      Locals:        13       0       0       0       0       0       0       0       0       0       0       0       
      +0       0       0       0       0       0       0       0       0       0       0       0       0       0       0       
      +0       0       0       0       0       0
  1809 ;;      Temps:          4       0       0       0       0       0       0       0       0       0       0       0       
      +0       0       0       0       0       0       0       0       0       0       0       0       0       0       0       
      +0       0       0       0       0       0
  1810 ;;      Totals:        25       0       0       0       0       0       0       0       0       0       0       0       
      +0       0       0       0       0       0       0       0       0       0       0       0       0       0       0       
      +0       0       0       0       0       0
  1811 ;;Total ram usage:       25 bytes
  1812 ;; Hardware stack levels used: 1
  1813 ;; Hardware stack levels required when called: 1
  1814 ;; This function calls:
  1815 ;;		Nothing
  1816 ;; This function is called by:
  1817 ;;		_analogMap
  1818 ;; This function uses a non-reentrant model
  1819 ;;
  1820                           
  1821                           	psect	text6
  1822   002AD6                     __ptext6:
  1823                           	callstack 0
  1824   002AD6                     ___flmul:
  1825                           	callstack 124
  1826   002AD6  5044               	movf	(___flmul@b+3)^(0+1280),w,c
  1827   002AD8  0B80               	andlw	128
  1828   002ADA  6E4D               	movwf	___flmul@sign^(0+1280),c
  1829   002ADC  5044               	movf	(___flmul@b+3)^(0+1280),w,c
  1830   002ADE  2444               	addwf	(___flmul@b+3)^(0+1280),w,c
  1831   002AE0  6E53               	movwf	___flmul@bexp^(0+1280),c
  1832   002AE2  AE43               	btfss	(___flmul@b+2)^(0+1280),7,c
  1833   002AE4  EF76  F015         	goto	u1921
  1834   002AE8  EF78  F015         	goto	u1920
  1835   002AEC                     u1921:
  1836   002AEC  EF79  F015         	goto	l2209
  1837   002AF0                     u1920:
  1838   002AF0  8053               	bsf	___flmul@bexp^(0+1280),0,c
  1839   002AF2                     l2209:
  1840   002AF2  5053               	movf	___flmul@bexp^(0+1280),w,c
  1841   002AF4  B4D8               	btfsc	status,2,c
  1842   002AF6  EF7F  F015         	goto	u1931
  1843   002AFA  EF81  F015         	goto	u1930
  1844   002AFE                     u1931:
  1845   002AFE  EF94  F015         	goto	l2217
  1846   002B02                     u1930:
  1847   002B02  2853               	incf	___flmul@bexp^(0+1280),w,c
  1848   002B04  A4D8               	btfss	status,2,c
  1849   002B06  EF87  F015         	goto	u1941
  1850   002B0A  EF89  F015         	goto	u1940
  1851   002B0E                     u1941:
  1852   002B0E  EF91  F015         	goto	l2215
  1853   002B12                     u1940:
  1854   002B12  0E00               	movlw	0
  1855   002B14  6E41               	movwf	___flmul@b^(0+1280),c
  1856   002B16  0E00               	movlw	0
  1857   002B18  6E42               	movwf	(___flmul@b+1)^(0+1280),c
  1858   002B1A  0E00               	movlw	0
  1859   002B1C  6E43               	movwf	(___flmul@b+2)^(0+1280),c
  1860   002B1E  0E00               	movlw	0
  1861   002B20  6E44               	movwf	(___flmul@b+3)^(0+1280),c
  1862   002B22                     l2215:
  1863   002B22  8E43               	bsf	(___flmul@b+2)^(0+1280),7,c
  1864   002B24  EF9C  F015         	goto	l2219
  1865   002B28                     l2217:
  1866   002B28  0E00               	movlw	0
  1867   002B2A  6E41               	movwf	___flmul@b^(0+1280),c
  1868   002B2C  0E00               	movlw	0
  1869   002B2E  6E42               	movwf	(___flmul@b+1)^(0+1280),c
  1870   002B30  0E00               	movlw	0
  1871   002B32  6E43               	movwf	(___flmul@b+2)^(0+1280),c
  1872   002B34  0E00               	movlw	0
  1873   002B36  6E44               	movwf	(___flmul@b+3)^(0+1280),c
  1874   002B38                     l2219:
  1875   002B38  5048               	movf	(___flmul@a+3)^(0+1280),w,c
  1876   002B3A  0B80               	andlw	128
  1877   002B3C  1A4D               	xorwf	___flmul@sign^(0+1280),f,c
  1878   002B3E  5048               	movf	(___flmul@a+3)^(0+1280),w,c
  1879   002B40  2448               	addwf	(___flmul@a+3)^(0+1280),w,c
  1880   002B42  6E52               	movwf	___flmul@aexp^(0+1280),c
  1881   002B44  AE47               	btfss	(___flmul@a+2)^(0+1280),7,c
  1882   002B46  EFA7  F015         	goto	u1951
  1883   002B4A  EFA9  F015         	goto	u1950
  1884   002B4E                     u1951:
  1885   002B4E  EFAA  F015         	goto	l2227
  1886   002B52                     u1950:
  1887   002B52  8052               	bsf	___flmul@aexp^(0+1280),0,c
  1888   002B54                     l2227:
  1889   002B54  5052               	movf	___flmul@aexp^(0+1280),w,c
  1890   002B56  B4D8               	btfsc	status,2,c
  1891   002B58  EFB0  F015         	goto	u1961
  1892   002B5C  EFB2  F015         	goto	u1960
  1893   002B60                     u1961:
  1894   002B60  EFC5  F015         	goto	l2235
  1895   002B64                     u1960:
  1896   002B64  2852               	incf	___flmul@aexp^(0+1280),w,c
  1897   002B66  A4D8               	btfss	status,2,c
  1898   002B68  EFB8  F015         	goto	u1971
  1899   002B6C  EFBA  F015         	goto	u1970
  1900   002B70                     u1971:
  1901   002B70  EFC2  F015         	goto	l2233
  1902   002B74                     u1970:
  1903   002B74  0E00               	movlw	0
  1904   002B76  6E45               	movwf	___flmul@a^(0+1280),c
  1905   002B78  0E00               	movlw	0
  1906   002B7A  6E46               	movwf	(___flmul@a+1)^(0+1280),c
  1907   002B7C  0E00               	movlw	0
  1908   002B7E  6E47               	movwf	(___flmul@a+2)^(0+1280),c
  1909   002B80  0E00               	movlw	0
  1910   002B82  6E48               	movwf	(___flmul@a+3)^(0+1280),c
  1911   002B84                     l2233:
  1912   002B84  8E47               	bsf	(___flmul@a+2)^(0+1280),7,c
  1913   002B86  EFCD  F015         	goto	l768
  1914   002B8A                     l2235:
  1915   002B8A  0E00               	movlw	0
  1916   002B8C  6E45               	movwf	___flmul@a^(0+1280),c
  1917   002B8E  0E00               	movlw	0
  1918   002B90  6E46               	movwf	(___flmul@a+1)^(0+1280),c
  1919   002B92  0E00               	movlw	0
  1920   002B94  6E47               	movwf	(___flmul@a+2)^(0+1280),c
  1921   002B96  0E00               	movlw	0
  1922   002B98  6E48               	movwf	(___flmul@a+3)^(0+1280),c
  1923   002B9A                     l768:
  1924   002B9A  5052               	movf	___flmul@aexp^(0+1280),w,c
  1925   002B9C  B4D8               	btfsc	status,2,c
  1926   002B9E  EFD3  F015         	goto	u1981
  1927   002BA2  EFD5  F015         	goto	u1980
  1928   002BA6                     u1981:
  1929   002BA6  EFDD  F015         	goto	l2239
  1930   002BAA                     u1980:
  1931   002BAA  5053               	movf	___flmul@bexp^(0+1280),w,c
  1932   002BAC  A4D8               	btfss	status,2,c
  1933   002BAE  EFDB  F015         	goto	u1991
  1934   002BB2  EFDD  F015         	goto	u1990
  1935   002BB6                     u1991:
  1936   002BB6  EFE7  F015         	goto	l2243
  1937   002BBA                     u1990:
  1938   002BBA                     l2239:
  1939   002BBA  0E00               	movlw	0
  1940   002BBC  6E41               	movwf	?___flmul^(0+1280),c
  1941   002BBE  0E00               	movlw	0
  1942   002BC0  6E42               	movwf	(?___flmul+1)^(0+1280),c
  1943   002BC2  0E00               	movlw	0
  1944   002BC4  6E43               	movwf	(?___flmul+2)^(0+1280),c
  1945   002BC6  0E00               	movlw	0
  1946   002BC8  6E44               	movwf	(?___flmul+3)^(0+1280),c
  1947   002BCA  EF7F  F017         	goto	l772
  1948   002BCE                     l2243:
  1949   002BCE  5047               	movf	(___flmul@a+2)^(0+1280),w,c
  1950   002BD0  0241               	mulwf	___flmul@b^(0+1280),c
  1951   002BD2  C4F3 F558          	movff	prodl,___flmul@temp
  1952   002BD6  C4F4 F559          	movff	prodh,___flmul@temp+1
  1953   002BDA  5058               	movf	___flmul@temp^(0+1280),w,c
  1954   002BDC  6E4E               	movwf	___flmul@grs^(0+1280),c
  1955   002BDE  6A4F               	clrf	(___flmul@grs+1)^(0+1280),c
  1956   002BE0  6A50               	clrf	(___flmul@grs+2)^(0+1280),c
  1957   002BE2  6A51               	clrf	(___flmul@grs+3)^(0+1280),c
  1958   002BE4  5059               	movf	(___flmul@temp+1)^(0+1280),w,c
  1959   002BE6  6E54               	movwf	___flmul@prod^(0+1280),c
  1960   002BE8  6A55               	clrf	(___flmul@prod+1)^(0+1280),c
  1961   002BEA  6A56               	clrf	(___flmul@prod+2)^(0+1280),c
  1962   002BEC  6A57               	clrf	(___flmul@prod+3)^(0+1280),c
  1963   002BEE  5046               	movf	(___flmul@a+1)^(0+1280),w,c
  1964   002BF0  0242               	mulwf	(___flmul@b+1)^(0+1280),c
  1965   002BF2  C4F3 F558          	movff	prodl,___flmul@temp
  1966   002BF6  C4F4 F559          	movff	prodh,___flmul@temp+1
  1967   002BFA  5058               	movf	___flmul@temp^(0+1280),w,c
  1968   002BFC  264E               	addwf	___flmul@grs^(0+1280),f,c
  1969   002BFE  0E00               	movlw	0
  1970   002C00  224F               	addwfc	(___flmul@grs+1)^(0+1280),f,c
  1971   002C02  2250               	addwfc	(___flmul@grs+2)^(0+1280),f,c
  1972   002C04  2251               	addwfc	(___flmul@grs+3)^(0+1280),f,c
  1973   002C06  5059               	movf	(___flmul@temp+1)^(0+1280),w,c
  1974   002C08  2654               	addwf	___flmul@prod^(0+1280),f,c
  1975   002C0A  0E00               	movlw	0
  1976   002C0C  2255               	addwfc	(___flmul@prod+1)^(0+1280),f,c
  1977   002C0E  2256               	addwfc	(___flmul@prod+2)^(0+1280),f,c
  1978   002C10  2257               	addwfc	(___flmul@prod+3)^(0+1280),f,c
  1979   002C12  5045               	movf	___flmul@a^(0+1280),w,c
  1980   002C14  0243               	mulwf	(___flmul@b+2)^(0+1280),c
  1981   002C16  C4F3 F558          	movff	prodl,___flmul@temp
  1982   002C1A  C4F4 F559          	movff	prodh,___flmul@temp+1
  1983   002C1E  5058               	movf	___flmul@temp^(0+1280),w,c
  1984   002C20  264E               	addwf	___flmul@grs^(0+1280),f,c
  1985   002C22  0E00               	movlw	0
  1986   002C24  224F               	addwfc	(___flmul@grs+1)^(0+1280),f,c
  1987   002C26  2250               	addwfc	(___flmul@grs+2)^(0+1280),f,c
  1988   002C28  2251               	addwfc	(___flmul@grs+3)^(0+1280),f,c
  1989   002C2A  5059               	movf	(___flmul@temp+1)^(0+1280),w,c
  1990   002C2C  2654               	addwf	___flmul@prod^(0+1280),f,c
  1991   002C2E  0E00               	movlw	0
  1992   002C30  2255               	addwfc	(___flmul@prod+1)^(0+1280),f,c
  1993   002C32  2256               	addwfc	(___flmul@prod+2)^(0+1280),f,c
  1994   002C34  2257               	addwfc	(___flmul@prod+3)^(0+1280),f,c
  1995   002C36  C550  F551         	movff	___flmul@grs+2,___flmul@grs+3
  1996   002C3A  C54F  F550         	movff	___flmul@grs+1,___flmul@grs+2
  1997   002C3E  C54E  F54F         	movff	___flmul@grs,___flmul@grs+1
  1998   002C42  6A4E               	clrf	___flmul@grs^(0+1280),c
  1999   002C44  5045               	movf	___flmul@a^(0+1280),w,c
  2000   002C46  0242               	mulwf	(___flmul@b+1)^(0+1280),c
  2001   002C48  C4F3 F558          	movff	prodl,___flmul@temp
  2002   002C4C  C4F4 F559          	movff	prodh,___flmul@temp+1
  2003   002C50  5058               	movf	___flmul@temp^(0+1280),w,c
  2004   002C52  264E               	addwf	___flmul@grs^(0+1280),f,c
  2005   002C54  5059               	movf	(___flmul@temp+1)^(0+1280),w,c
  2006   002C56  224F               	addwfc	(___flmul@grs+1)^(0+1280),f,c
  2007   002C58  0E00               	movlw	0
  2008   002C5A  2250               	addwfc	(___flmul@grs+2)^(0+1280),f,c
  2009   002C5C  0E00               	movlw	0
  2010   002C5E  2251               	addwfc	(___flmul@grs+3)^(0+1280),f,c
  2011   002C60  5046               	movf	(___flmul@a+1)^(0+1280),w,c
  2012   002C62  0241               	mulwf	___flmul@b^(0+1280),c
  2013   002C64  C4F3 F558          	movff	prodl,___flmul@temp
  2014   002C68  C4F4 F559          	movff	prodh,___flmul@temp+1
  2015   002C6C  5058               	movf	___flmul@temp^(0+1280),w,c
  2016   002C6E  264E               	addwf	___flmul@grs^(0+1280),f,c
  2017   002C70  5059               	movf	(___flmul@temp+1)^(0+1280),w,c
  2018   002C72  224F               	addwfc	(___flmul@grs+1)^(0+1280),f,c
  2019   002C74  0E00               	movlw	0
  2020   002C76  2250               	addwfc	(___flmul@grs+2)^(0+1280),f,c
  2021   002C78  0E00               	movlw	0
  2022   002C7A  2251               	addwfc	(___flmul@grs+3)^(0+1280),f,c
  2023   002C7C  C550  F551         	movff	___flmul@grs+2,___flmul@grs+3
  2024   002C80  C54F  F550         	movff	___flmul@grs+1,___flmul@grs+2
  2025   002C84  C54E  F54F         	movff	___flmul@grs,___flmul@grs+1
  2026   002C88  6A4E               	clrf	___flmul@grs^(0+1280),c
  2027   002C8A  5045               	movf	___flmul@a^(0+1280),w,c
  2028   002C8C  0241               	mulwf	___flmul@b^(0+1280),c
  2029   002C8E  C4F3 F558          	movff	prodl,___flmul@temp
  2030   002C92  C4F4 F559          	movff	prodh,___flmul@temp+1
  2031   002C96  5058               	movf	___flmul@temp^(0+1280),w,c
  2032   002C98  264E               	addwf	___flmul@grs^(0+1280),f,c
  2033   002C9A  5059               	movf	(___flmul@temp+1)^(0+1280),w,c
  2034   002C9C  224F               	addwfc	(___flmul@grs+1)^(0+1280),f,c
  2035   002C9E  0E00               	movlw	0
  2036   002CA0  2250               	addwfc	(___flmul@grs+2)^(0+1280),f,c
  2037   002CA2  0E00               	movlw	0
  2038   002CA4  2251               	addwfc	(___flmul@grs+3)^(0+1280),f,c
  2039   002CA6  5047               	movf	(___flmul@a+2)^(0+1280),w,c
  2040   002CA8  0242               	mulwf	(___flmul@b+1)^(0+1280),c
  2041   002CAA  C4F3 F558          	movff	prodl,___flmul@temp
  2042   002CAE  C4F4 F559          	movff	prodh,___flmul@temp+1
  2043   002CB2  5058               	movf	___flmul@temp^(0+1280),w,c
  2044   002CB4  2654               	addwf	___flmul@prod^(0+1280),f,c
  2045   002CB6  5059               	movf	(___flmul@temp+1)^(0+1280),w,c
  2046   002CB8  2255               	addwfc	(___flmul@prod+1)^(0+1280),f,c
  2047   002CBA  0E00               	movlw	0
  2048   002CBC  2256               	addwfc	(___flmul@prod+2)^(0+1280),f,c
  2049   002CBE  0E00               	movlw	0
  2050   002CC0  2257               	addwfc	(___flmul@prod+3)^(0+1280),f,c
  2051   002CC2  5046               	movf	(___flmul@a+1)^(0+1280),w,c
  2052   002CC4  0243               	mulwf	(___flmul@b+2)^(0+1280),c
  2053   002CC6  C4F3 F558          	movff	prodl,___flmul@temp
  2054   002CCA  C4F4 F559          	movff	prodh,___flmul@temp+1
  2055   002CCE  5058               	movf	___flmul@temp^(0+1280),w,c
  2056   002CD0  2654               	addwf	___flmul@prod^(0+1280),f,c
  2057   002CD2  5059               	movf	(___flmul@temp+1)^(0+1280),w,c
  2058   002CD4  2255               	addwfc	(___flmul@prod+1)^(0+1280),f,c
  2059   002CD6  0E00               	movlw	0
  2060   002CD8  2256               	addwfc	(___flmul@prod+2)^(0+1280),f,c
  2061   002CDA  0E00               	movlw	0
  2062   002CDC  2257               	addwfc	(___flmul@prod+3)^(0+1280),f,c
  2063   002CDE  5047               	movf	(___flmul@a+2)^(0+1280),w,c
  2064   002CE0  0243               	mulwf	(___flmul@b+2)^(0+1280),c
  2065   002CE2  C4F3 F558          	movff	prodl,___flmul@temp
  2066   002CE6  C4F4 F559          	movff	prodh,___flmul@temp+1
  2067   002CEA  5058               	movf	___flmul@temp^(0+1280),w,c
  2068   002CEC  6E49               	movwf	??___flmul^(0+1280),c
  2069   002CEE  5059               	movf	(___flmul@temp+1)^(0+1280),w,c
  2070   002CF0  6E4A               	movwf	(??___flmul+1)^(0+1280),c
  2071   002CF2  6A4B               	clrf	(??___flmul+2)^(0+1280),c
  2072   002CF4  6A4C               	clrf	(??___flmul+3)^(0+1280),c
  2073   002CF6  C54B  F54C         	movff	??___flmul+2,??___flmul+3
  2074   002CFA  C54A  F54B         	movff	??___flmul+1,??___flmul+2
  2075   002CFE  C549  F54A         	movff	??___flmul,??___flmul+1
  2076   002D02  6A49               	clrf	??___flmul^(0+1280),c
  2077   002D04  5049               	movf	??___flmul^(0+1280),w,c
  2078   002D06  2654               	addwf	___flmul@prod^(0+1280),f,c
  2079   002D08  504A               	movf	(??___flmul+1)^(0+1280),w,c
  2080   002D0A  2255               	addwfc	(___flmul@prod+1)^(0+1280),f,c
  2081   002D0C  504B               	movf	(??___flmul+2)^(0+1280),w,c
  2082   002D0E  2256               	addwfc	(___flmul@prod+2)^(0+1280),f,c
  2083   002D10  504C               	movf	(??___flmul+3)^(0+1280),w,c
  2084   002D12  2257               	addwfc	(___flmul@prod+3)^(0+1280),f,c
  2085   002D14  C54E  F549         	movff	___flmul@grs,??___flmul
  2086   002D18  C54F  F54A         	movff	___flmul@grs+1,??___flmul+1
  2087   002D1C  C550  F54B         	movff	___flmul@grs+2,??___flmul+2
  2088   002D20  C551  F54C         	movff	___flmul@grs+3,??___flmul+3
  2089   002D24  0E19               	movlw	25
  2090   002D26  EF9A  F016         	goto	u2000
  2091   002D2A                     u2005:
  2092   002D2A  90D8               	bcf	status,0,c
  2093   002D2C  324C               	rrcf	(??___flmul+3)^(0+1280),f,c
  2094   002D2E  324B               	rrcf	(??___flmul+2)^(0+1280),f,c
  2095   002D30  324A               	rrcf	(??___flmul+1)^(0+1280),f,c
  2096   002D32  3249               	rrcf	??___flmul^(0+1280),f,c
  2097   002D34                     u2000:
  2098   002D34  2EE8               	decfsz	wreg,f,c
  2099   002D36  EF95  F016         	goto	u2005
  2100   002D3A  5049               	movf	??___flmul^(0+1280),w,c
  2101   002D3C  2654               	addwf	___flmul@prod^(0+1280),f,c
  2102   002D3E  504A               	movf	(??___flmul+1)^(0+1280),w,c
  2103   002D40  2255               	addwfc	(___flmul@prod+1)^(0+1280),f,c
  2104   002D42  504B               	movf	(??___flmul+2)^(0+1280),w,c
  2105   002D44  2256               	addwfc	(___flmul@prod+2)^(0+1280),f,c
  2106   002D46  504C               	movf	(??___flmul+3)^(0+1280),w,c
  2107   002D48  2257               	addwfc	(___flmul@prod+3)^(0+1280),f,c
  2108   002D4A  C550  F551         	movff	___flmul@grs+2,___flmul@grs+3
  2109   002D4E  C54F  F550         	movff	___flmul@grs+1,___flmul@grs+2
  2110   002D52  C54E  F54F         	movff	___flmul@grs,___flmul@grs+1
  2111   002D56  6A4E               	clrf	___flmul@grs^(0+1280),c
  2112   002D58  5052               	movf	___flmul@aexp^(0+1280),w,c
  2113   002D5A  C553  F549         	movff	___flmul@bexp,??___flmul
  2114   002D5E  6A4A               	clrf	(??___flmul+1)^(0+1280),c
  2115   002D60  2649               	addwf	??___flmul^(0+1280),f,c
  2116   002D62  0E00               	movlw	0
  2117   002D64  224A               	addwfc	(??___flmul+1)^(0+1280),f,c
  2118   002D66  0E82               	movlw	130
  2119   002D68  2449               	addwf	??___flmul^(0+1280),w,c
  2120   002D6A  6E58               	movwf	___flmul@temp^(0+1280),c
  2121   002D6C  0EFF               	movlw	255
  2122   002D6E  204A               	addwfc	(??___flmul+1)^(0+1280),w,c
  2123   002D70  6E59               	movwf	(___flmul@temp+1)^(0+1280),c
  2124   002D72  EFD0  F016         	goto	l2291
  2125   002D76                     l2285:
  2126   002D76  90D8               	bcf	status,0,c
  2127   002D78  3654               	rlcf	___flmul@prod^(0+1280),f,c
  2128   002D7A  3655               	rlcf	(___flmul@prod+1)^(0+1280),f,c
  2129   002D7C  3656               	rlcf	(___flmul@prod+2)^(0+1280),f,c
  2130   002D7E  3657               	rlcf	(___flmul@prod+3)^(0+1280),f,c
  2131   002D80  AE51               	btfss	(___flmul@grs+3)^(0+1280),7,c
  2132   002D82  EFC5  F016         	goto	u2011
  2133   002D86  EFC7  F016         	goto	u2010
  2134   002D8A                     u2011:
  2135   002D8A  EFC8  F016         	goto	l775
  2136   002D8E                     u2010:
  2137   002D8E  8054               	bsf	___flmul@prod^(0+1280),0,c
  2138   002D90                     l775:
  2139   002D90  90D8               	bcf	status,0,c
  2140   002D92  364E               	rlcf	___flmul@grs^(0+1280),f,c
  2141   002D94  364F               	rlcf	(___flmul@grs+1)^(0+1280),f,c
  2142   002D96  3650               	rlcf	(___flmul@grs+2)^(0+1280),f,c
  2143   002D98  3651               	rlcf	(___flmul@grs+3)^(0+1280),f,c
  2144   002D9A  0658               	decf	___flmul@temp^(0+1280),f,c
  2145   002D9C  A0D8               	btfss	status,0,c
  2146   002D9E  0659               	decf	(___flmul@temp+1)^(0+1280),f,c
  2147   002DA0                     l2291:
  2148   002DA0  AE56               	btfss	(___flmul@prod+2)^(0+1280),7,c
  2149   002DA2  EFD5  F016         	goto	u2021
  2150   002DA6  EFD7  F016         	goto	u2020
  2151   002DAA                     u2021:
  2152   002DAA  EFBB  F016         	goto	l2285
  2153   002DAE                     u2020:
  2154   002DAE  0E00               	movlw	0
  2155   002DB0  6E52               	movwf	___flmul@aexp^(0+1280),c
  2156   002DB2  AE51               	btfss	(___flmul@grs+3)^(0+1280),7,c
  2157   002DB4  EFDE  F016         	goto	u2031
  2158   002DB8  EFE0  F016         	goto	u2030
  2159   002DBC                     u2031:
  2160   002DBC  EF04  F017         	goto	l777
  2161   002DC0                     u2030:
  2162   002DC0  0EFF               	movlw	255
  2163   002DC2  144E               	andwf	___flmul@grs^(0+1280),w,c
  2164   002DC4  6E49               	movwf	??___flmul^(0+1280),c
  2165   002DC6  0EFF               	movlw	255
  2166   002DC8  144F               	andwf	(___flmul@grs+1)^(0+1280),w,c
  2167   002DCA  6E4A               	movwf	(??___flmul+1)^(0+1280),c
  2168   002DCC  0EFF               	movlw	255
  2169   002DCE  1450               	andwf	(___flmul@grs+2)^(0+1280),w,c
  2170   002DD0  6E4B               	movwf	(??___flmul+2)^(0+1280),c
  2171   002DD2  0E7F               	movlw	127
  2172   002DD4  1451               	andwf	(___flmul@grs+3)^(0+1280),w,c
  2173   002DD6  6E4C               	movwf	(??___flmul+3)^(0+1280),c
  2174   002DD8  5049               	movf	??___flmul^(0+1280),w,c
  2175   002DDA  104A               	iorwf	(??___flmul+1)^(0+1280),w,c
  2176   002DDC  104B               	iorwf	(??___flmul+2)^(0+1280),w,c
  2177   002DDE  104C               	iorwf	(??___flmul+3)^(0+1280),w,c
  2178   002DE0  B4D8               	btfsc	status,2,c
  2179   002DE2  EFF5  F016         	goto	u2041
  2180   002DE6  EFF7  F016         	goto	u2040
  2181   002DEA                     u2041:
  2182   002DEA  EFFB  F016         	goto	l778
  2183   002DEE                     u2040:
  2184   002DEE                     l2299:
  2185   002DEE  0E01               	movlw	1
  2186   002DF0  6E52               	movwf	___flmul@aexp^(0+1280),c
  2187   002DF2  EF04  F017         	goto	l777
  2188   002DF6                     l778:
  2189   002DF6  A054               	btfss	___flmul@prod^(0+1280),0,c
  2190   002DF8  EF00  F017         	goto	u2051
  2191   002DFC  EF02  F017         	goto	u2050
  2192   002E00                     u2051:
  2193   002E00  EF04  F017         	goto	l777
  2194   002E04                     u2050:
  2195   002E04  EFF7  F016         	goto	l2299
  2196   002E08                     l777:
  2197   002E08  5052               	movf	___flmul@aexp^(0+1280),w,c
  2198   002E0A  B4D8               	btfsc	status,2,c
  2199   002E0C  EF0A  F017         	goto	u2061
  2200   002E10  EF0C  F017         	goto	u2060
  2201   002E14                     u2061:
  2202   002E14  EF30  F017         	goto	l2311
  2203   002E18                     u2060:
  2204   002E18  0E01               	movlw	1
  2205   002E1A  2654               	addwf	___flmul@prod^(0+1280),f,c
  2206   002E1C  0E00               	movlw	0
  2207   002E1E  2255               	addwfc	(___flmul@prod+1)^(0+1280),f,c
  2208   002E20  2256               	addwfc	(___flmul@prod+2)^(0+1280),f,c
  2209   002E22  2257               	addwfc	(___flmul@prod+3)^(0+1280),f,c
  2210   002E24  A057               	btfss	(___flmul@prod+3)^(0+1280),0,c
  2211   002E26  EF17  F017         	goto	u2071
  2212   002E2A  EF19  F017         	goto	u2070
  2213   002E2E                     u2071:
  2214   002E2E  EF30  F017         	goto	l2311
  2215   002E32                     u2070:
  2216   002E32  C554  F549         	movff	___flmul@prod,??___flmul
  2217   002E36  C555  F54A         	movff	___flmul@prod+1,??___flmul+1
  2218   002E3A  C556  F54B         	movff	___flmul@prod+2,??___flmul+2
  2219   002E3E  C557  F54C         	movff	___flmul@prod+3,??___flmul+3
  2220   002E42  344C               	rlcf	(??___flmul+3)^(0+1280),w,c
  2221   002E44  324C               	rrcf	(??___flmul+3)^(0+1280),f,c
  2222   002E46  324B               	rrcf	(??___flmul+2)^(0+1280),f,c
  2223   002E48  324A               	rrcf	(??___flmul+1)^(0+1280),f,c
  2224   002E4A  3249               	rrcf	??___flmul^(0+1280),f,c
  2225   002E4C  C549  F554         	movff	??___flmul,___flmul@prod
  2226   002E50  C54A  F555         	movff	??___flmul+1,___flmul@prod+1
  2227   002E54  C54B  F556         	movff	??___flmul+2,___flmul@prod+2
  2228   002E58  C54C  F557         	movff	??___flmul+3,___flmul@prod+3
  2229   002E5C  4A58               	infsnz	___flmul@temp^(0+1280),f,c
  2230   002E5E  2A59               	incf	(___flmul@temp+1)^(0+1280),f,c
  2231   002E60                     l2311:
  2232   002E60  BE59               	btfsc	(___flmul@temp+1)^(0+1280),7,c
  2233   002E62  EF3B  F017         	goto	u2081
  2234   002E66  5059               	movf	(___flmul@temp+1)^(0+1280),w,c
  2235   002E68  E108               	bnz	u2080
  2236   002E6A  2858               	incf	___flmul@temp^(0+1280),w,c
  2237   002E6C  A0D8               	btfss	status,0,c
  2238   002E6E  EF3B  F017         	goto	u2081
  2239   002E72  EF3D  F017         	goto	u2080
  2240   002E76                     u2081:
  2241   002E76  EF47  F017         	goto	l2315
  2242   002E7A                     u2080:
  2243   002E7A  0E00               	movlw	0
  2244   002E7C  6E54               	movwf	___flmul@prod^(0+1280),c
  2245   002E7E  0E00               	movlw	0
  2246   002E80  6E55               	movwf	(___flmul@prod+1)^(0+1280),c
  2247   002E82  0E80               	movlw	128
  2248   002E84  6E56               	movwf	(___flmul@prod+2)^(0+1280),c
  2249   002E86  0E7F               	movlw	127
  2250   002E88  6E57               	movwf	(___flmul@prod+3)^(0+1280),c
  2251   002E8A  EF75  F017         	goto	l2327
  2252   002E8E                     l2315:
  2253   002E8E  BE59               	btfsc	(___flmul@temp+1)^(0+1280),7,c
  2254   002E90  EF54  F017         	goto	u2090
  2255   002E94  5059               	movf	(___flmul@temp+1)^(0+1280),w,c
  2256   002E96  E106               	bnz	u2091
  2257   002E98  0458               	decf	___flmul@temp^(0+1280),w,c
  2258   002E9A  B0D8               	btfsc	status,0,c
  2259   002E9C  EF52  F017         	goto	u2091
  2260   002EA0  EF54  F017         	goto	u2090
  2261   002EA4                     u2091:
  2262   002EA4  EF60  F017         	goto	l785
  2263   002EA8                     u2090:
  2264   002EA8  0E00               	movlw	0
  2265   002EAA  6E54               	movwf	___flmul@prod^(0+1280),c
  2266   002EAC  0E00               	movlw	0
  2267   002EAE  6E55               	movwf	(___flmul@prod+1)^(0+1280),c
  2268   002EB0  0E00               	movlw	0
  2269   002EB2  6E56               	movwf	(___flmul@prod+2)^(0+1280),c
  2270   002EB4  0E00               	movlw	0
  2271   002EB6  6E57               	movwf	(___flmul@prod+3)^(0+1280),c
  2272   002EB8  0E00               	movlw	0
  2273   002EBA  6E4D               	movwf	___flmul@sign^(0+1280),c
  2274   002EBC  EF75  F017         	goto	l2327
  2275   002EC0                     l785:
  2276   002EC0  C558  F553         	movff	___flmul@temp,___flmul@bexp
  2277   002EC4  0EFF               	movlw	255
  2278   002EC6  1654               	andwf	___flmul@prod^(0+1280),f,c
  2279   002EC8  0EFF               	movlw	255
  2280   002ECA  1655               	andwf	(___flmul@prod+1)^(0+1280),f,c
  2281   002ECC  0E7F               	movlw	127
  2282   002ECE  1656               	andwf	(___flmul@prod+2)^(0+1280),f,c
  2283   002ED0  0E00               	movlw	0
  2284   002ED2  1657               	andwf	(___flmul@prod+3)^(0+1280),f,c
  2285   002ED4  A053               	btfss	___flmul@bexp^(0+1280),0,c
  2286   002ED6  EF6F  F017         	goto	u2101
  2287   002EDA  EF71  F017         	goto	u2100
  2288   002EDE                     u2101:
  2289   002EDE  EF72  F017         	goto	l2325
  2290   002EE2                     u2100:
  2291   002EE2  8E56               	bsf	(___flmul@prod+2)^(0+1280),7,c
  2292   002EE4                     l2325:
  2293   002EE4  90D8               	bcf	status,0,c
  2294   002EE6  3053               	rrcf	___flmul@bexp^(0+1280),w,c
  2295   002EE8  6E57               	movwf	(___flmul@prod+3)^(0+1280),c
  2296   002EEA                     l2327:
  2297   002EEA  504D               	movf	___flmul@sign^(0+1280),w,c
  2298   002EEC  1257               	iorwf	(___flmul@prod+3)^(0+1280),f,c
  2299   002EEE  C554  F541         	movff	___flmul@prod,?___flmul
  2300   002EF2  C555  F542         	movff	___flmul@prod+1,?___flmul+1
  2301   002EF6  C556  F543         	movff	___flmul@prod+2,?___flmul+2
  2302   002EFA  C557  F544         	movff	___flmul@prod+3,?___flmul+3
  2303   002EFE                     l772:
  2304   002EFE  0012               	return		;funcret
  2305   002F00                     __end_of___flmul:
  2306                           	callstack 0
  2307                           
  2308 ;; *************** function ___fldiv *****************
  2309 ;; Defined at:
  2310 ;;		line 11 in file "C:\Program Files\Microchip\xc8\v2.40\pic\sources\c99\common\sprcdiv.c"
  2311 ;; Parameters:    Size  Location     Type
  2312 ;;  b               4   15[COMRAM] unsigned char 
  2313 ;;  a               4   19[COMRAM] unsigned char 
  2314 ;; Auto vars:     Size  Location     Type
  2315 ;;  grs             4   34[COMRAM] unsigned long 
  2316 ;;  rem             4   27[COMRAM] unsigned long 
  2317 ;;  new_exp         2   32[COMRAM] short 
  2318 ;;  aexp            1   39[COMRAM] unsigned char 
  2319 ;;  bexp            1   38[COMRAM] unsigned char 
  2320 ;;  sign            1   31[COMRAM] unsigned char 
  2321 ;; Return value:  Size  Location     Type
  2322 ;;                  4   15[COMRAM] unsigned char 
  2323 ;; Registers used:
  2324 ;;		wreg, status,2, status,0
  2325 ;; Tracked objects:
  2326 ;;		On entry : 0/0
  2327 ;;		On exit  : 0/0
  2328 ;;		Unchanged: 0/0
  2329 ;; Data sizes:     COMRAM   BANK5   BANK6   BANK7   BANK8   BANK9  BANK10  BANK11  BANK12  BANK13  BANK14  BANK15  BANK1
      +6  BANK17  BANK18  BANK19  BANK20  BANK21  BANK22  BANK23  BANK24  BANK25  BANK26  BANK27  BANK28  BANK29  BANK30  BANK3
      +1  BANK32  BANK33  BANK34  BANK35  BANK36
  2330 ;;      Params:         8       0       0       0       0       0       0       0       0       0       0       0       
      +0       0       0       0       0       0       0       0       0       0       0       0       0       0       0       
      +0       0       0       0       0       0
  2331 ;;      Locals:        13       0       0       0       0       0       0       0       0       0       0       0       
      +0       0       0       0       0       0       0       0       0       0       0       0       0       0       0       
      +0       0       0       0       0       0
  2332 ;;      Temps:          4       0       0       0       0       0       0       0       0       0       0       0       
      +0       0       0       0       0       0       0       0       0       0       0       0       0       0       0       
      +0       0       0       0       0       0
  2333 ;;      Totals:        25       0       0       0       0       0       0       0       0       0       0       0       
      +0       0       0       0       0       0       0       0       0       0       0       0       0       0       0       
      +0       0       0       0       0       0
  2334 ;;Total ram usage:       25 bytes
  2335 ;; Hardware stack levels used: 1
  2336 ;; Hardware stack levels required when called: 1
  2337 ;; This function calls:
  2338 ;;		Nothing
  2339 ;; This function is called by:
  2340 ;;		_analogMap
  2341 ;; This function uses a non-reentrant model
  2342 ;;
  2343                           
  2344                           	psect	text7
  2345   002F00                     __ptext7:
  2346                           	callstack 0
  2347   002F00                     ___fldiv:
  2348                           	callstack 124
  2349   002F00  5013               	movf	(___fldiv@b+3)^(0+1280),w,c
  2350   002F02  0B80               	andlw	128
  2351   002F04  6E20               	movwf	___fldiv@sign^(0+1280),c
  2352   002F06  5013               	movf	(___fldiv@b+3)^(0+1280),w,c
  2353   002F08  2413               	addwf	(___fldiv@b+3)^(0+1280),w,c
  2354   002F0A  6E27               	movwf	___fldiv@bexp^(0+1280),c
  2355   002F0C  AE12               	btfss	(___fldiv@b+2)^(0+1280),7,c
  2356   002F0E  EF8B  F017         	goto	u1691
  2357   002F12  EF8D  F017         	goto	u1690
  2358   002F16                     u1691:
  2359   002F16  EF8E  F017         	goto	l2071
  2360   002F1A                     u1690:
  2361   002F1A  8027               	bsf	___fldiv@bexp^(0+1280),0,c
  2362   002F1C                     l2071:
  2363   002F1C  5027               	movf	___fldiv@bexp^(0+1280),w,c
  2364   002F1E  B4D8               	btfsc	status,2,c
  2365   002F20  EF94  F017         	goto	u1701
  2366   002F24  EF96  F017         	goto	u1700
  2367   002F28                     u1701:
  2368   002F28  EFAB  F017         	goto	l2081
  2369   002F2C                     u1700:
  2370   002F2C  2827               	incf	___fldiv@bexp^(0+1280),w,c
  2371   002F2E  A4D8               	btfss	status,2,c
  2372   002F30  EF9C  F017         	goto	u1711
  2373   002F34  EF9E  F017         	goto	u1710
  2374   002F38                     u1711:
  2375   002F38  EFA6  F017         	goto	l2077
  2376   002F3C                     u1710:
  2377   002F3C  0E00               	movlw	0
  2378   002F3E  6E10               	movwf	___fldiv@b^(0+1280),c
  2379   002F40  0E00               	movlw	0
  2380   002F42  6E11               	movwf	(___fldiv@b+1)^(0+1280),c
  2381   002F44  0E00               	movlw	0
  2382   002F46  6E12               	movwf	(___fldiv@b+2)^(0+1280),c
  2383   002F48  0E00               	movlw	0
  2384   002F4A  6E13               	movwf	(___fldiv@b+3)^(0+1280),c
  2385   002F4C                     l2077:
  2386   002F4C  8E12               	bsf	(___fldiv@b+2)^(0+1280),7,c
  2387   002F4E  0E00               	movlw	0
  2388   002F50  6E13               	movwf	(___fldiv@b+3)^(0+1280),c
  2389   002F52  EFB3  F017         	goto	l2083
  2390   002F56                     l2081:
  2391   002F56  0E00               	movlw	0
  2392   002F58  6E10               	movwf	___fldiv@b^(0+1280),c
  2393   002F5A  0E00               	movlw	0
  2394   002F5C  6E11               	movwf	(___fldiv@b+1)^(0+1280),c
  2395   002F5E  0E00               	movlw	0
  2396   002F60  6E12               	movwf	(___fldiv@b+2)^(0+1280),c
  2397   002F62  0E00               	movlw	0
  2398   002F64  6E13               	movwf	(___fldiv@b+3)^(0+1280),c
  2399   002F66                     l2083:
  2400   002F66  5017               	movf	(___fldiv@a+3)^(0+1280),w,c
  2401   002F68  0B80               	andlw	128
  2402   002F6A  1A20               	xorwf	___fldiv@sign^(0+1280),f,c
  2403   002F6C  5017               	movf	(___fldiv@a+3)^(0+1280),w,c
  2404   002F6E  2417               	addwf	(___fldiv@a+3)^(0+1280),w,c
  2405   002F70  6E28               	movwf	___fldiv@aexp^(0+1280),c
  2406   002F72  AE16               	btfss	(___fldiv@a+2)^(0+1280),7,c
  2407   002F74  EFBE  F017         	goto	u1721
  2408   002F78  EFC0  F017         	goto	u1720
  2409   002F7C                     u1721:
  2410   002F7C  EFC1  F017         	goto	l2091
  2411   002F80                     u1720:
  2412   002F80  8028               	bsf	___fldiv@aexp^(0+1280),0,c
  2413   002F82                     l2091:
  2414   002F82  5028               	movf	___fldiv@aexp^(0+1280),w,c
  2415   002F84  B4D8               	btfsc	status,2,c
  2416   002F86  EFC7  F017         	goto	u1731
  2417   002F8A  EFC9  F017         	goto	u1730
  2418   002F8E                     u1731:
  2419   002F8E  EFDE  F017         	goto	l2101
  2420   002F92                     u1730:
  2421   002F92  2828               	incf	___fldiv@aexp^(0+1280),w,c
  2422   002F94  A4D8               	btfss	status,2,c
  2423   002F96  EFCF  F017         	goto	u1741
  2424   002F9A  EFD1  F017         	goto	u1740
  2425   002F9E                     u1741:
  2426   002F9E  EFD9  F017         	goto	l2097
  2427   002FA2                     u1740:
  2428   002FA2  0E00               	movlw	0
  2429   002FA4  6E14               	movwf	___fldiv@a^(0+1280),c
  2430   002FA6  0E00               	movlw	0
  2431   002FA8  6E15               	movwf	(___fldiv@a+1)^(0+1280),c
  2432   002FAA  0E00               	movlw	0
  2433   002FAC  6E16               	movwf	(___fldiv@a+2)^(0+1280),c
  2434   002FAE  0E00               	movlw	0
  2435   002FB0  6E17               	movwf	(___fldiv@a+3)^(0+1280),c
  2436   002FB2                     l2097:
  2437   002FB2  8E16               	bsf	(___fldiv@a+2)^(0+1280),7,c
  2438   002FB4  0E00               	movlw	0
  2439   002FB6  6E17               	movwf	(___fldiv@a+3)^(0+1280),c
  2440   002FB8  EFE6  F017         	goto	l2103
  2441   002FBC                     l2101:
  2442   002FBC  0E00               	movlw	0
  2443   002FBE  6E14               	movwf	___fldiv@a^(0+1280),c
  2444   002FC0  0E00               	movlw	0
  2445   002FC2  6E15               	movwf	(___fldiv@a+1)^(0+1280),c
  2446   002FC4  0E00               	movlw	0
  2447   002FC6  6E16               	movwf	(___fldiv@a+2)^(0+1280),c
  2448   002FC8  0E00               	movlw	0
  2449   002FCA  6E17               	movwf	(___fldiv@a+3)^(0+1280),c
  2450   002FCC                     l2103:
  2451   002FCC  5014               	movf	___fldiv@a^(0+1280),w,c
  2452   002FCE  1015               	iorwf	(___fldiv@a+1)^(0+1280),w,c
  2453   002FD0  1016               	iorwf	(___fldiv@a+2)^(0+1280),w,c
  2454   002FD2  1017               	iorwf	(___fldiv@a+3)^(0+1280),w,c
  2455   002FD4  A4D8               	btfss	status,2,c
  2456   002FD6  EFEF  F017         	goto	u1751
  2457   002FDA  EFF1  F017         	goto	u1750
  2458   002FDE                     u1751:
  2459   002FDE  EF09  F018         	goto	l2115
  2460   002FE2                     u1750:
  2461   002FE2  0E00               	movlw	0
  2462   002FE4  6E10               	movwf	___fldiv@b^(0+1280),c
  2463   002FE6  0E00               	movlw	0
  2464   002FE8  6E11               	movwf	(___fldiv@b+1)^(0+1280),c
  2465   002FEA  0E00               	movlw	0
  2466   002FEC  6E12               	movwf	(___fldiv@b+2)^(0+1280),c
  2467   002FEE  0E00               	movlw	0
  2468   002FF0  6E13               	movwf	(___fldiv@b+3)^(0+1280),c
  2469   002FF2  0E80               	movlw	128
  2470   002FF4  1212               	iorwf	(___fldiv@b+2)^(0+1280),f,c
  2471   002FF6  0E7F               	movlw	127
  2472   002FF8  1213               	iorwf	(___fldiv@b+3)^(0+1280),f,c
  2473   002FFA                     l2109:
  2474   002FFA  5020               	movf	___fldiv@sign^(0+1280),w,c
  2475   002FFC  1213               	iorwf	(___fldiv@b+3)^(0+1280),f,c
  2476   002FFE  C510  F510         	movff	___fldiv@b,?___fldiv
  2477   003002  C511  F511         	movff	___fldiv@b+1,?___fldiv+1
  2478   003006  C512  F512         	movff	___fldiv@b+2,?___fldiv+2
  2479   00300A  C513  F513         	movff	___fldiv@b+3,?___fldiv+3
  2480   00300E  EF4C  F019         	goto	l736
  2481   003012                     l2115:
  2482   003012  5027               	movf	___fldiv@bexp^(0+1280),w,c
  2483   003014  A4D8               	btfss	status,2,c
  2484   003016  EF0F  F018         	goto	u1761
  2485   00301A  EF11  F018         	goto	u1760
  2486   00301E                     u1761:
  2487   00301E  EF1B  F018         	goto	l2123
  2488   003022                     u1760:
  2489   003022  0E00               	movlw	0
  2490   003024  6E10               	movwf	?___fldiv^(0+1280),c
  2491   003026  0E00               	movlw	0
  2492   003028  6E11               	movwf	(?___fldiv+1)^(0+1280),c
  2493   00302A  0E00               	movlw	0
  2494   00302C  6E12               	movwf	(?___fldiv+2)^(0+1280),c
  2495   00302E  0E00               	movlw	0
  2496   003030  6E13               	movwf	(?___fldiv+3)^(0+1280),c
  2497   003032  EF4C  F019         	goto	l736
  2498   003036                     l2123:
  2499   003036  5028               	movf	___fldiv@aexp^(0+1280),w,c
  2500   003038  C527  F518         	movff	___fldiv@bexp,??___fldiv
  2501   00303C  6A19               	clrf	(??___fldiv+1)^(0+1280),c
  2502   00303E  5E18               	subwf	??___fldiv^(0+1280),f,c
  2503   003040  0E00               	movlw	0
  2504   003042  5A19               	subwfb	(??___fldiv+1)^(0+1280),f,c
  2505   003044  0E7F               	movlw	127
  2506   003046  2418               	addwf	??___fldiv^(0+1280),w,c
  2507   003048  6E21               	movwf	___fldiv@new_exp^(0+1280),c
  2508   00304A  0E00               	movlw	0
  2509   00304C  2019               	addwfc	(??___fldiv+1)^(0+1280),w,c
  2510   00304E  6E22               	movwf	(___fldiv@new_exp+1)^(0+1280),c
  2511   003050  C510  F51C         	movff	___fldiv@b,___fldiv@rem
  2512   003054  C511  F51D         	movff	___fldiv@b+1,___fldiv@rem+1
  2513   003058  C512  F51E         	movff	___fldiv@b+2,___fldiv@rem+2
  2514   00305C  C513  F51F         	movff	___fldiv@b+3,___fldiv@rem+3
  2515   003060  0E00               	movlw	0
  2516   003062  6E10               	movwf	___fldiv@b^(0+1280),c
  2517   003064  0E00               	movlw	0
  2518   003066  6E11               	movwf	(___fldiv@b+1)^(0+1280),c
  2519   003068  0E00               	movlw	0
  2520   00306A  6E12               	movwf	(___fldiv@b+2)^(0+1280),c
  2521   00306C  0E00               	movlw	0
  2522   00306E  6E13               	movwf	(___fldiv@b+3)^(0+1280),c
  2523   003070  0E00               	movlw	0
  2524   003072  6E23               	movwf	___fldiv@grs^(0+1280),c
  2525   003074  0E00               	movlw	0
  2526   003076  6E24               	movwf	(___fldiv@grs+1)^(0+1280),c
  2527   003078  0E00               	movlw	0
  2528   00307A  6E25               	movwf	(___fldiv@grs+2)^(0+1280),c
  2529   00307C  0E00               	movlw	0
  2530   00307E  6E26               	movwf	(___fldiv@grs+3)^(0+1280),c
  2531   003080  0E00               	movlw	0
  2532   003082  6E28               	movwf	___fldiv@aexp^(0+1280),c
  2533   003084  EF7C  F018         	goto	l738
  2534   003088                     l2133:
  2535   003088  5028               	movf	___fldiv@aexp^(0+1280),w,c
  2536   00308A  B4D8               	btfsc	status,2,c
  2537   00308C  EF4A  F018         	goto	u1771
  2538   003090  EF4C  F018         	goto	u1770
  2539   003094                     u1771:
  2540   003094  EF63  F018         	goto	l2141
  2541   003098                     u1770:
  2542   003098  90D8               	bcf	status,0,c
  2543   00309A  361C               	rlcf	___fldiv@rem^(0+1280),f,c
  2544   00309C  361D               	rlcf	(___fldiv@rem+1)^(0+1280),f,c
  2545   00309E  361E               	rlcf	(___fldiv@rem+2)^(0+1280),f,c
  2546   0030A0  361F               	rlcf	(___fldiv@rem+3)^(0+1280),f,c
  2547   0030A2  90D8               	bcf	status,0,c
  2548   0030A4  3610               	rlcf	___fldiv@b^(0+1280),f,c
  2549   0030A6  3611               	rlcf	(___fldiv@b+1)^(0+1280),f,c
  2550   0030A8  3612               	rlcf	(___fldiv@b+2)^(0+1280),f,c
  2551   0030AA  3613               	rlcf	(___fldiv@b+3)^(0+1280),f,c
  2552   0030AC  AE26               	btfss	(___fldiv@grs+3)^(0+1280),7,c
  2553   0030AE  EF5B  F018         	goto	u1781
  2554   0030B2  EF5D  F018         	goto	u1780
  2555   0030B6                     u1781:
  2556   0030B6  EF5E  F018         	goto	l741
  2557   0030BA                     u1780:
  2558   0030BA  8010               	bsf	___fldiv@b^(0+1280),0,c
  2559   0030BC                     l741:
  2560   0030BC  90D8               	bcf	status,0,c
  2561   0030BE  3623               	rlcf	___fldiv@grs^(0+1280),f,c
  2562   0030C0  3624               	rlcf	(___fldiv@grs+1)^(0+1280),f,c
  2563   0030C2  3625               	rlcf	(___fldiv@grs+2)^(0+1280),f,c
  2564   0030C4  3626               	rlcf	(___fldiv@grs+3)^(0+1280),f,c
  2565   0030C6                     l2141:
  2566   0030C6  5014               	movf	___fldiv@a^(0+1280),w,c
  2567   0030C8  5C1C               	subwf	___fldiv@rem^(0+1280),w,c
  2568   0030CA  5015               	movf	(___fldiv@a+1)^(0+1280),w,c
  2569   0030CC  581D               	subwfb	(___fldiv@rem+1)^(0+1280),w,c
  2570   0030CE  5016               	movf	(___fldiv@a+2)^(0+1280),w,c
  2571   0030D0  581E               	subwfb	(___fldiv@rem+2)^(0+1280),w,c
  2572   0030D2  5017               	movf	(___fldiv@a+3)^(0+1280),w,c
  2573   0030D4  581F               	subwfb	(___fldiv@rem+3)^(0+1280),w,c
  2574   0030D6  A0D8               	btfss	status,0,c
  2575   0030D8  EF70  F018         	goto	u1791
  2576   0030DC  EF72  F018         	goto	u1790
  2577   0030E0                     u1791:
  2578   0030E0  EF7B  F018         	goto	l2147
  2579   0030E4                     u1790:
  2580   0030E4  8C26               	bsf	(___fldiv@grs+3)^(0+1280),6,c
  2581   0030E6  5014               	movf	___fldiv@a^(0+1280),w,c
  2582   0030E8  5E1C               	subwf	___fldiv@rem^(0+1280),f,c
  2583   0030EA  5015               	movf	(___fldiv@a+1)^(0+1280),w,c
  2584   0030EC  5A1D               	subwfb	(___fldiv@rem+1)^(0+1280),f,c
  2585   0030EE  5016               	movf	(___fldiv@a+2)^(0+1280),w,c
  2586   0030F0  5A1E               	subwfb	(___fldiv@rem+2)^(0+1280),f,c
  2587   0030F2  5017               	movf	(___fldiv@a+3)^(0+1280),w,c
  2588   0030F4  5A1F               	subwfb	(___fldiv@rem+3)^(0+1280),f,c
  2589   0030F6                     l2147:
  2590   0030F6  2A28               	incf	___fldiv@aexp^(0+1280),f,c
  2591   0030F8                     l738:
  2592   0030F8  0E19               	movlw	25
  2593   0030FA  6428               	cpfsgt	___fldiv@aexp^(0+1280),c
  2594   0030FC  EF82  F018         	goto	u1801
  2595   003100  EF84  F018         	goto	u1800
  2596   003104                     u1801:
  2597   003104  EF44  F018         	goto	l2133
  2598   003108                     u1800:
  2599   003108  501C               	movf	___fldiv@rem^(0+1280),w,c
  2600   00310A  101D               	iorwf	(___fldiv@rem+1)^(0+1280),w,c
  2601   00310C  101E               	iorwf	(___fldiv@rem+2)^(0+1280),w,c
  2602   00310E  101F               	iorwf	(___fldiv@rem+3)^(0+1280),w,c
  2603   003110  B4D8               	btfsc	status,2,c
  2604   003112  EF8D  F018         	goto	u1811
  2605   003116  EF8F  F018         	goto	u1810
  2606   00311A                     u1811:
  2607   00311A  EFA7  F018         	goto	l2159
  2608   00311E                     u1810:
  2609   00311E  8023               	bsf	___fldiv@grs^(0+1280),0,c
  2610   003120  EFA7  F018         	goto	l2159
  2611   003124                     l2153:
  2612   003124  90D8               	bcf	status,0,c
  2613   003126  3610               	rlcf	___fldiv@b^(0+1280),f,c
  2614   003128  3611               	rlcf	(___fldiv@b+1)^(0+1280),f,c
  2615   00312A  3612               	rlcf	(___fldiv@b+2)^(0+1280),f,c
  2616   00312C  3613               	rlcf	(___fldiv@b+3)^(0+1280),f,c
  2617   00312E  AE26               	btfss	(___fldiv@grs+3)^(0+1280),7,c
  2618   003130  EF9C  F018         	goto	u1821
  2619   003134  EF9E  F018         	goto	u1820
  2620   003138                     u1821:
  2621   003138  EF9F  F018         	goto	l747
  2622   00313C                     u1820:
  2623   00313C  8010               	bsf	___fldiv@b^(0+1280),0,c
  2624   00313E                     l747:
  2625   00313E  90D8               	bcf	status,0,c
  2626   003140  3623               	rlcf	___fldiv@grs^(0+1280),f,c
  2627   003142  3624               	rlcf	(___fldiv@grs+1)^(0+1280),f,c
  2628   003144  3625               	rlcf	(___fldiv@grs+2)^(0+1280),f,c
  2629   003146  3626               	rlcf	(___fldiv@grs+3)^(0+1280),f,c
  2630   003148  0621               	decf	___fldiv@new_exp^(0+1280),f,c
  2631   00314A  A0D8               	btfss	status,0,c
  2632   00314C  0622               	decf	(___fldiv@new_exp+1)^(0+1280),f,c
  2633   00314E                     l2159:
  2634   00314E  AE12               	btfss	(___fldiv@b+2)^(0+1280),7,c
  2635   003150  EFAC  F018         	goto	u1831
  2636   003154  EFAE  F018         	goto	u1830
  2637   003158                     u1831:
  2638   003158  EF92  F018         	goto	l2153
  2639   00315C                     u1830:
  2640   00315C  0E00               	movlw	0
  2641   00315E  6E28               	movwf	___fldiv@aexp^(0+1280),c
  2642   003160  AE26               	btfss	(___fldiv@grs+3)^(0+1280),7,c
  2643   003162  EFB5  F018         	goto	u1841
  2644   003166  EFB7  F018         	goto	u1840
  2645   00316A                     u1841:
  2646   00316A  EFDB  F018         	goto	l749
  2647   00316E                     u1840:
  2648   00316E  0EFF               	movlw	255
  2649   003170  1423               	andwf	___fldiv@grs^(0+1280),w,c
  2650   003172  6E18               	movwf	??___fldiv^(0+1280),c
  2651   003174  0EFF               	movlw	255
  2652   003176  1424               	andwf	(___fldiv@grs+1)^(0+1280),w,c
  2653   003178  6E19               	movwf	(??___fldiv+1)^(0+1280),c
  2654   00317A  0EFF               	movlw	255
  2655   00317C  1425               	andwf	(___fldiv@grs+2)^(0+1280),w,c
  2656   00317E  6E1A               	movwf	(??___fldiv+2)^(0+1280),c
  2657   003180  0E7F               	movlw	127
  2658   003182  1426               	andwf	(___fldiv@grs+3)^(0+1280),w,c
  2659   003184  6E1B               	movwf	(??___fldiv+3)^(0+1280),c
  2660   003186  5018               	movf	??___fldiv^(0+1280),w,c
  2661   003188  1019               	iorwf	(??___fldiv+1)^(0+1280),w,c
  2662   00318A  101A               	iorwf	(??___fldiv+2)^(0+1280),w,c
  2663   00318C  101B               	iorwf	(??___fldiv+3)^(0+1280),w,c
  2664   00318E  B4D8               	btfsc	status,2,c
  2665   003190  EFCC  F018         	goto	u1851
  2666   003194  EFCE  F018         	goto	u1850
  2667   003198                     u1851:
  2668   003198  EFD2  F018         	goto	l750
  2669   00319C                     u1850:
  2670   00319C                     l2167:
  2671   00319C  0E01               	movlw	1
  2672   00319E  6E28               	movwf	___fldiv@aexp^(0+1280),c
  2673   0031A0  EFDB  F018         	goto	l749
  2674   0031A4                     l750:
  2675   0031A4  A010               	btfss	___fldiv@b^(0+1280),0,c
  2676   0031A6  EFD7  F018         	goto	u1861
  2677   0031AA  EFD9  F018         	goto	u1860
  2678   0031AE                     u1861:
  2679   0031AE  EFDB  F018         	goto	l749
  2680   0031B2                     u1860:
  2681   0031B2  EFCE  F018         	goto	l2167
  2682   0031B6                     l749:
  2683   0031B6  5028               	movf	___fldiv@aexp^(0+1280),w,c
  2684   0031B8  B4D8               	btfsc	status,2,c
  2685   0031BA  EFE1  F018         	goto	u1871
  2686   0031BE  EFE3  F018         	goto	u1870
  2687   0031C2                     u1871:
  2688   0031C2  EF07  F019         	goto	l2179
  2689   0031C6                     u1870:
  2690   0031C6  0E01               	movlw	1
  2691   0031C8  2610               	addwf	___fldiv@b^(0+1280),f,c
  2692   0031CA  0E00               	movlw	0
  2693   0031CC  2211               	addwfc	(___fldiv@b+1)^(0+1280),f,c
  2694   0031CE  2212               	addwfc	(___fldiv@b+2)^(0+1280),f,c
  2695   0031D0  2213               	addwfc	(___fldiv@b+3)^(0+1280),f,c
  2696   0031D2  A013               	btfss	(___fldiv@b+3)^(0+1280),0,c
  2697   0031D4  EFEE  F018         	goto	u1881
  2698   0031D8  EFF0  F018         	goto	u1880
  2699   0031DC                     u1881:
  2700   0031DC  EF07  F019         	goto	l2179
  2701   0031E0                     u1880:
  2702   0031E0  C510  F518         	movff	___fldiv@b,??___fldiv
  2703   0031E4  C511  F519         	movff	___fldiv@b+1,??___fldiv+1
  2704   0031E8  C512  F51A         	movff	___fldiv@b+2,??___fldiv+2
  2705   0031EC  C513  F51B         	movff	___fldiv@b+3,??___fldiv+3
  2706   0031F0  341B               	rlcf	(??___fldiv+3)^(0+1280),w,c
  2707   0031F2  321B               	rrcf	(??___fldiv+3)^(0+1280),f,c
  2708   0031F4  321A               	rrcf	(??___fldiv+2)^(0+1280),f,c
  2709   0031F6  3219               	rrcf	(??___fldiv+1)^(0+1280),f,c
  2710   0031F8  3218               	rrcf	??___fldiv^(0+1280),f,c
  2711   0031FA  C518  F510         	movff	??___fldiv,___fldiv@b
  2712   0031FE  C519  F511         	movff	??___fldiv+1,___fldiv@b+1
  2713   003202  C51A  F512         	movff	??___fldiv+2,___fldiv@b+2
  2714   003206  C51B  F513         	movff	??___fldiv+3,___fldiv@b+3
  2715   00320A  4A21               	infsnz	___fldiv@new_exp^(0+1280),f,c
  2716   00320C  2A22               	incf	(___fldiv@new_exp+1)^(0+1280),f,c
  2717   00320E                     l2179:
  2718   00320E  BE22               	btfsc	(___fldiv@new_exp+1)^(0+1280),7,c
  2719   003210  EF12  F019         	goto	u1891
  2720   003214  5022               	movf	(___fldiv@new_exp+1)^(0+1280),w,c
  2721   003216  E108               	bnz	u1890
  2722   003218  2821               	incf	___fldiv@new_exp^(0+1280),w,c
  2723   00321A  A0D8               	btfss	status,0,c
  2724   00321C  EF12  F019         	goto	u1891
  2725   003220  EF14  F019         	goto	u1890
  2726   003224                     u1891:
  2727   003224  EF1F  F019         	goto	l2183
  2728   003228                     u1890:
  2729   003228  0E00               	movlw	0
  2730   00322A  6E22               	movwf	(___fldiv@new_exp+1)^(0+1280),c
  2731   00322C  6821               	setf	___fldiv@new_exp^(0+1280),c
  2732   00322E  0E00               	movlw	0
  2733   003230  6E10               	movwf	___fldiv@b^(0+1280),c
  2734   003232  0E00               	movlw	0
  2735   003234  6E11               	movwf	(___fldiv@b+1)^(0+1280),c
  2736   003236  0E00               	movlw	0
  2737   003238  6E12               	movwf	(___fldiv@b+2)^(0+1280),c
  2738   00323A  0E00               	movlw	0
  2739   00323C  6E13               	movwf	(___fldiv@b+3)^(0+1280),c
  2740   00323E                     l2183:
  2741   00323E  BE22               	btfsc	(___fldiv@new_exp+1)^(0+1280),7,c
  2742   003240  EF2C  F019         	goto	u1900
  2743   003244  5022               	movf	(___fldiv@new_exp+1)^(0+1280),w,c
  2744   003246  E106               	bnz	u1901
  2745   003248  0421               	decf	___fldiv@new_exp^(0+1280),w,c
  2746   00324A  B0D8               	btfsc	status,0,c
  2747   00324C  EF2A  F019         	goto	u1901
  2748   003250  EF2C  F019         	goto	u1900
  2749   003254                     u1901:
  2750   003254  EF3A  F019         	goto	l2187
  2751   003258                     u1900:
  2752   003258  0E00               	movlw	0
  2753   00325A  6E22               	movwf	(___fldiv@new_exp+1)^(0+1280),c
  2754   00325C  0E00               	movlw	0
  2755   00325E  6E21               	movwf	___fldiv@new_exp^(0+1280),c
  2756   003260  0E00               	movlw	0
  2757   003262  6E10               	movwf	___fldiv@b^(0+1280),c
  2758   003264  0E00               	movlw	0
  2759   003266  6E11               	movwf	(___fldiv@b+1)^(0+1280),c
  2760   003268  0E00               	movlw	0
  2761   00326A  6E12               	movwf	(___fldiv@b+2)^(0+1280),c
  2762   00326C  0E00               	movlw	0
  2763   00326E  6E13               	movwf	(___fldiv@b+3)^(0+1280),c
  2764   003270  0E00               	movlw	0
  2765   003272  6E20               	movwf	___fldiv@sign^(0+1280),c
  2766   003274                     l2187:
  2767   003274  C521  F527         	movff	___fldiv@new_exp,___fldiv@bexp
  2768   003278  A027               	btfss	___fldiv@bexp^(0+1280),0,c
  2769   00327A  EF41  F019         	goto	u1911
  2770   00327E  EF43  F019         	goto	u1910
  2771   003282                     u1911:
  2772   003282  EF46  F019         	goto	l2193
  2773   003286                     u1910:
  2774   003286  8E12               	bsf	(___fldiv@b+2)^(0+1280),7,c
  2775   003288  EF47  F019         	goto	l2195
  2776   00328C                     l2193:
  2777   00328C  9E12               	bcf	(___fldiv@b+2)^(0+1280),7,c
  2778   00328E                     l2195:
  2779   00328E  90D8               	bcf	status,0,c
  2780   003290  3027               	rrcf	___fldiv@bexp^(0+1280),w,c
  2781   003292  6E13               	movwf	(___fldiv@b+3)^(0+1280),c
  2782   003294  EFFD  F017         	goto	l2109
  2783   003298                     l736:
  2784   003298  0012               	return		;funcret
  2785   00329A                     __end_of___fldiv:
  2786                           	callstack 0
  2787                           
  2788 ;; *************** function _LCDprintf *****************
  2789 ;; Defined at:
  2790 ;;		line 143 in file "C:/Users/a_hui/OneDrive - Camosun College/term2/ecet165_embedded_mc/labs/ecet165-labs/lab6/lcd18f.
      +c"
  2791 ;; Parameters:    Size  Location     Type
  2792 ;;  shell           2   20[COMRAM] PTR unsigned char 
  2793 ;;		 -> STR_2(4), STR_1(16), 
  2794 ;; Auto vars:     Size  Location     Type
  2795 ;;  args            2   28[COMRAM] PTR void [1]
  2796 ;;		 -> ?_LCDprintf(1), 
  2797 ;; Return value:  Size  Location     Type
  2798 ;;                  1    wreg      void 
  2799 ;; Registers used:
  2800 ;;		wreg, fsr2l, fsr2h, status,2, status,0, tblptrl, tblptrh, tblptru, cstack
  2801 ;; Tracked objects:
  2802 ;;		On entry : 0/0
  2803 ;;		On exit  : 0/0
  2804 ;;		Unchanged: 0/0
  2805 ;; Data sizes:     COMRAM   BANK5   BANK6   BANK7   BANK8   BANK9  BANK10  BANK11  BANK12  BANK13  BANK14  BANK15  BANK1
      +6  BANK17  BANK18  BANK19  BANK20  BANK21  BANK22  BANK23  BANK24  BANK25  BANK26  BANK27  BANK28  BANK29  BANK30  BANK3
      +1  BANK32  BANK33  BANK34  BANK35  BANK36
  2806 ;;      Params:         6       0       0       0       0       0       0       0       0       0       0       0       
      +0       0       0       0       0       0       0       0       0       0       0       0       0       0       0       
      +0       0       0       0       0       0
  2807 ;;      Locals:         2       0       0       0       0       0       0       0       0       0       0       0       
      +0       0       0       0       0       0       0       0       0       0       0       0       0       0       0       
      +0       0       0       0       0       0
  2808 ;;      Temps:          2       0       0       0       0       0       0       0       0       0       0       0       
      +0       0       0       0       0       0       0       0       0       0       0       0       0       0       0       
      +0       0       0       0       0       0
  2809 ;;      Totals:        10       0       0       0       0       0       0       0       0       0       0       0       
      +0       0       0       0       0       0       0       0       0       0       0       0       0       0       0       
      +0       0       0       0       0       0
  2810 ;;Total ram usage:       10 bytes
  2811 ;; Hardware stack levels used: 1
  2812 ;; Hardware stack levels required when called: 3
  2813 ;; This function calls:
  2814 ;;		_LCDprintc
  2815 ;;		_LCDprints
  2816 ;;		_toString
  2817 ;; This function is called by:
  2818 ;;		_main
  2819 ;;		_RTCrun
  2820 ;; This function uses a non-reentrant model
  2821 ;;
  2822                           
  2823                           	psect	text8
  2824   00344E                     __ptext8:
  2825                           	callstack 0
  2826   00344E                     _LCDprintf:
  2827                           	callstack 123
  2828   00344E                     
  2829                           ;C:/Users/a_hui/OneDrive - Camosun College/term2/ecet165_embedded_mc/labs/ecet165-labs/l
      +                          ab6/lcd18f.c: 144:     va_list args;;C:/Users/a_hui/OneDrive - Camosun College/term2/ece
      +                          t165_embedded_mc/labs/ecet165-labs/lab6/lcd18f.c: 145:     *args = __va_start();
  2830   00344E  0E17               	movlw	low (?_LCDprintf+2)
  2831   003450  6E1D               	movwf	LCDprintf@args^(0+1280),c
  2832   003452  0E05               	movlw	high (?_LCDprintf+2)
  2833   003454  6E1E               	movwf	(LCDprintf@args+1)^(0+1280),c
  2834                           
  2835                           ;C:/Users/a_hui/OneDrive - Camosun College/term2/ecet165_embedded_mc/labs/ecet165-labs/l
      +                          ab6/lcd18f.c: 147:     while(*shell != 0x0){
  2836   003456  EFE6  F01A         	goto	l2421
  2837   00345A                     l2387:
  2838                           
  2839                           ;C:/Users/a_hui/OneDrive - Camosun College/term2/ecet165_embedded_mc/labs/ecet165-labs/l
      +                          ab6/lcd18f.c: 149:         if((*shell == '%') & (*(shell+1) == 's')){
  2840   00345A  C515  F4F6         	movff	LCDprintf@shell,tblptrl
  2841   00345E  C516  F4F7         	movff	LCDprintf@shell+1,tblptrh
  2842   003462                     	if	0	;tblptru may be non-zero
  2843   003462                     	endif
  2844   003462                     	if	0	;tblptru may be non-zero
  2845   003462                     	endif
  2846   003462  0008               	tblrd		*
  2847   003464  50F5               	movf	tablat,w,c
  2848   003466  0A25               	xorlw	37
  2849   003468  A4D8               	btfss	status,2,c
  2850   00346A  EF39  F01A         	goto	u2211
  2851   00346E  EF3B  F01A         	goto	u2210
  2852   003472                     u2211:
  2853   003472  EF63  F01A         	goto	l2397
  2854   003476                     u2210:
  2855   003476  0E01               	movlw	1
  2856   003478  2415               	addwf	LCDprintf@shell^(0+1280),w,c
  2857   00347A  6E1B               	movwf	??_LCDprintf^(0+1280),c
  2858   00347C  0E00               	movlw	0
  2859   00347E  2016               	addwfc	(LCDprintf@shell+1)^(0+1280),w,c
  2860   003480  6E1C               	movwf	(??_LCDprintf+1)^(0+1280),c
  2861   003482  C51B  F4F6         	movff	??_LCDprintf,tblptrl
  2862   003486  C51C  F4F7         	movff	??_LCDprintf+1,tblptrh
  2863   00348A                     	if	0	;tblptru may be non-zero
  2864   00348A                     	endif
  2865   00348A                     	if	0	;tblptru may be non-zero
  2866   00348A                     	endif
  2867   00348A  0008               	tblrd		*
  2868   00348C  50F5               	movf	tablat,w,c
  2869   00348E  0A73               	xorlw	115
  2870   003490  A4D8               	btfss	status,2,c
  2871   003492  EF4D  F01A         	goto	u2221
  2872   003496  EF4F  F01A         	goto	u2220
  2873   00349A                     u2221:
  2874   00349A  EF63  F01A         	goto	l2397
  2875   00349E                     u2220:
  2876   00349E                     
  2877                           ;C:/Users/a_hui/OneDrive - Camosun College/term2/ecet165_embedded_mc/labs/ecet165-labs/l
      +                          ab6/lcd18f.c: 151:             LCDprints((*(char* *)__va_arg(*(char* **)args, (char*)0))
      +                          );
  2878   00349E  C51D  F4D9         	movff	LCDprintf@args,fsr2l
  2879   0034A2  C51E  F4DA         	movff	LCDprintf@args+1,fsr2h
  2880   0034A6  C4DE F513          	movff	postinc2,LCDprints@c
  2881   0034AA  C4DD F514          	movff	postdec2,LCDprints@c+1
  2882   0034AE  EC6C  F01D         	call	_LCDprints	;wreg free
  2883   0034B2  0E02               	movlw	2
  2884   0034B4  261D               	addwf	LCDprintf@args^(0+1280),f,c
  2885   0034B6  0E00               	movlw	0
  2886   0034B8  221E               	addwfc	(LCDprintf@args+1)^(0+1280),f,c
  2887   0034BA                     l2395:
  2888                           
  2889                           ;C:/Users/a_hui/OneDrive - Camosun College/term2/ecet165_embedded_mc/labs/ecet165-labs/l
      +                          ab6/lcd18f.c: 152:             shell+=2;
  2890   0034BA  0E02               	movlw	2
  2891   0034BC  2615               	addwf	LCDprintf@shell^(0+1280),f,c
  2892   0034BE  0E00               	movlw	0
  2893   0034C0  2216               	addwfc	(LCDprintf@shell+1)^(0+1280),f,c
  2894                           
  2895                           ;C:/Users/a_hui/OneDrive - Camosun College/term2/ecet165_embedded_mc/labs/ecet165-labs/l
      +                          ab6/lcd18f.c: 153:         }
  2896   0034C2  EFE6  F01A         	goto	l2421
  2897   0034C6                     l2397:
  2898   0034C6  C515  F4F6         	movff	LCDprintf@shell,tblptrl
  2899   0034CA  C516  F4F7         	movff	LCDprintf@shell+1,tblptrh
  2900   0034CE                     	if	0	;tblptru may be non-zero
  2901   0034CE                     	endif
  2902   0034CE                     	if	0	;tblptru may be non-zero
  2903   0034CE                     	endif
  2904   0034CE  0008               	tblrd		*
  2905   0034D0  50F5               	movf	tablat,w,c
  2906   0034D2  0A25               	xorlw	37
  2907   0034D4  A4D8               	btfss	status,2,c
  2908   0034D6  EF6F  F01A         	goto	u2231
  2909   0034DA  EF71  F01A         	goto	u2230
  2910   0034DE                     u2231:
  2911   0034DE  EFAD  F01A         	goto	l2407
  2912   0034E2                     u2230:
  2913   0034E2  0E01               	movlw	1
  2914   0034E4  2415               	addwf	LCDprintf@shell^(0+1280),w,c
  2915   0034E6  6E1B               	movwf	??_LCDprintf^(0+1280),c
  2916   0034E8  0E00               	movlw	0
  2917   0034EA  2016               	addwfc	(LCDprintf@shell+1)^(0+1280),w,c
  2918   0034EC  6E1C               	movwf	(??_LCDprintf+1)^(0+1280),c
  2919   0034EE  C51B  F4F6         	movff	??_LCDprintf,tblptrl
  2920   0034F2  C51C  F4F7         	movff	??_LCDprintf+1,tblptrh
  2921   0034F6                     	if	0	;tblptru may be non-zero
  2922   0034F6                     	endif
  2923   0034F6                     	if	0	;tblptru may be non-zero
  2924   0034F6                     	endif
  2925   0034F6  0008               	tblrd		*
  2926   0034F8  50F5               	movf	tablat,w,c
  2927   0034FA  0A69               	xorlw	105
  2928   0034FC  A4D8               	btfss	status,2,c
  2929   0034FE  EF83  F01A         	goto	u2241
  2930   003502  EF85  F01A         	goto	u2240
  2931   003506                     u2241:
  2932   003506  EFAD  F01A         	goto	l2407
  2933   00350A                     u2240:
  2934   00350A                     
  2935                           ;C:/Users/a_hui/OneDrive - Camosun College/term2/ecet165_embedded_mc/labs/ecet165-labs/l
      +                          ab6/lcd18f.c: 157:             LCDprints(toString((*(int *)__va_arg(*(int **)args, (int)
      +                          0)), (*(shell+2)-'0')));
  2936   00350A  C51D  F4D9         	movff	LCDprintf@args,fsr2l
  2937   00350E  C51E  F4DA         	movff	LCDprintf@args+1,fsr2h
  2938   003512  C4DE F509          	movff	postinc2,toString@number
  2939   003516  C4DD F50A          	movff	postdec2,toString@number+1
  2940   00351A  0E02               	movlw	2
  2941   00351C  2415               	addwf	LCDprintf@shell^(0+1280),w,c
  2942   00351E  6E1B               	movwf	??_LCDprintf^(0+1280),c
  2943   003520  0E00               	movlw	0
  2944   003522  2016               	addwfc	(LCDprintf@shell+1)^(0+1280),w,c
  2945   003524  6E1C               	movwf	(??_LCDprintf+1)^(0+1280),c
  2946   003526  C51B  F4F6         	movff	??_LCDprintf,tblptrl
  2947   00352A  C51C  F4F7         	movff	??_LCDprintf+1,tblptrh
  2948   00352E                     	if	0	;tblptru may be non-zero
  2949   00352E                     	endif
  2950   00352E                     	if	0	;tblptru may be non-zero
  2951   00352E                     	endif
  2952   00352E  0008               	tblrd		*
  2953   003530  50F5               	movf	tablat,w,c
  2954   003532  0FD0               	addlw	208
  2955   003534  6E0B               	movwf	toString@length^(0+1280),c
  2956   003536  EC8C  F01C         	call	_toString	;wreg free
  2957   00353A  C509  F513         	movff	?_toString,LCDprints@c
  2958   00353E  C50A  F514         	movff	?_toString+1,LCDprints@c+1
  2959   003542  EC6C  F01D         	call	_LCDprints	;wreg free
  2960   003546  0E02               	movlw	2
  2961   003548  261D               	addwf	LCDprintf@args^(0+1280),f,c
  2962   00354A  0E00               	movlw	0
  2963   00354C  221E               	addwfc	(LCDprintf@args+1)^(0+1280),f,c
  2964   00354E                     
  2965                           ;C:/Users/a_hui/OneDrive - Camosun College/term2/ecet165_embedded_mc/labs/ecet165-labs/l
      +                          ab6/lcd18f.c: 158:             shell+=3;
  2966   00354E  0E03               	movlw	3
  2967   003550  2615               	addwf	LCDprintf@shell^(0+1280),f,c
  2968   003552  0E00               	movlw	0
  2969   003554  2216               	addwfc	(LCDprintf@shell+1)^(0+1280),f,c
  2970                           
  2971                           ;C:/Users/a_hui/OneDrive - Camosun College/term2/ecet165_embedded_mc/labs/ecet165-labs/l
      +                          ab6/lcd18f.c: 160:         }else if((*shell == '%') & (*(shell+1) == 'c')){
  2972   003556  EFE6  F01A         	goto	l2421
  2973   00355A                     l2407:
  2974   00355A  C515  F4F6         	movff	LCDprintf@shell,tblptrl
  2975   00355E  C516  F4F7         	movff	LCDprintf@shell+1,tblptrh
  2976   003562                     	if	0	;tblptru may be non-zero
  2977   003562                     	endif
  2978   003562                     	if	0	;tblptru may be non-zero
  2979   003562                     	endif
  2980   003562  0008               	tblrd		*
  2981   003564  50F5               	movf	tablat,w,c
  2982   003566  0A25               	xorlw	37
  2983   003568  A4D8               	btfss	status,2,c
  2984   00356A  EFB9  F01A         	goto	u2251
  2985   00356E  EFBB  F01A         	goto	u2250
  2986   003572                     u2251:
  2987   003572  EFDC  F01A         	goto	l2417
  2988   003576                     u2250:
  2989   003576  0E01               	movlw	1
  2990   003578  2415               	addwf	LCDprintf@shell^(0+1280),w,c
  2991   00357A  6E1B               	movwf	??_LCDprintf^(0+1280),c
  2992   00357C  0E00               	movlw	0
  2993   00357E  2016               	addwfc	(LCDprintf@shell+1)^(0+1280),w,c
  2994   003580  6E1C               	movwf	(??_LCDprintf+1)^(0+1280),c
  2995   003582  C51B  F4F6         	movff	??_LCDprintf,tblptrl
  2996   003586  C51C  F4F7         	movff	??_LCDprintf+1,tblptrh
  2997   00358A                     	if	0	;tblptru may be non-zero
  2998   00358A                     	endif
  2999   00358A                     	if	0	;tblptru may be non-zero
  3000   00358A                     	endif
  3001   00358A  0008               	tblrd		*
  3002   00358C  50F5               	movf	tablat,w,c
  3003   00358E  0A63               	xorlw	99
  3004   003590  A4D8               	btfss	status,2,c
  3005   003592  EFCD  F01A         	goto	u2261
  3006   003596  EFCF  F01A         	goto	u2260
  3007   00359A                     u2261:
  3008   00359A  EFDC  F01A         	goto	l2417
  3009   00359E                     u2260:
  3010   00359E                     
  3011                           ;C:/Users/a_hui/OneDrive - Camosun College/term2/ecet165_embedded_mc/labs/ecet165-labs/l
      +                          ab6/lcd18f.c: 162:             LCDprintc((*(char *)__va_arg(*(char **)args, (char)0)));
  3012   00359E  C51D  F4D9         	movff	LCDprintf@args,fsr2l
  3013   0035A2  C51E  F4DA         	movff	LCDprintf@args+1,fsr2h
  3014   0035A6  50DF               	movf	indf2,w,c
  3015   0035A8  EC50  F01C         	call	_LCDprintc
  3016   0035AC  0E02               	movlw	2
  3017   0035AE  261D               	addwf	LCDprintf@args^(0+1280),f,c
  3018   0035B0  0E00               	movlw	0
  3019   0035B2  221E               	addwfc	(LCDprintf@args+1)^(0+1280),f,c
  3020   0035B4  EF5D  F01A         	goto	l2395
  3021   0035B8                     l2417:
  3022                           
  3023                           ;C:/Users/a_hui/OneDrive - Camosun College/term2/ecet165_embedded_mc/labs/ecet165-labs/l
      +                          ab6/lcd18f.c: 166:             LCDprintc(*shell++);
  3024   0035B8  C515  F4F6         	movff	LCDprintf@shell,tblptrl
  3025   0035BC  C516  F4F7         	movff	LCDprintf@shell+1,tblptrh
  3026   0035C0                     	if	0	;tblptru may be non-zero
  3027   0035C0                     	endif
  3028   0035C0                     	if	0	;tblptru may be non-zero
  3029   0035C0                     	endif
  3030   0035C0  0008               	tblrd		*
  3031   0035C2  50F5               	movf	tablat,w,c
  3032   0035C4  EC50  F01C         	call	_LCDprintc
  3033   0035C8  4A15               	infsnz	LCDprintf@shell^(0+1280),f,c
  3034   0035CA  2A16               	incf	(LCDprintf@shell+1)^(0+1280),f,c
  3035   0035CC                     l2421:
  3036                           
  3037                           ;C:/Users/a_hui/OneDrive - Camosun College/term2/ecet165_embedded_mc/labs/ecet165-labs/l
      +                          ab6/lcd18f.c: 147:     while(*shell != 0x0){
  3038   0035CC  C515  F4F6         	movff	LCDprintf@shell,tblptrl
  3039   0035D0  C516  F4F7         	movff	LCDprintf@shell+1,tblptrh
  3040   0035D4                     	if	0	;tblptru may be non-zero
  3041   0035D4                     	endif
  3042   0035D4                     	if	0	;tblptru may be non-zero
  3043   0035D4                     	endif
  3044   0035D4  0008               	tblrd		*
  3045   0035D6  50F5               	movf	tablat,w,c
  3046   0035D8  0900               	iorlw	0
  3047   0035DA  A4D8               	btfss	status,2,c
  3048   0035DC  EFF2  F01A         	goto	u2271
  3049   0035E0  EFF4  F01A         	goto	u2270
  3050   0035E4                     u2271:
  3051   0035E4  EF2D  F01A         	goto	l2387
  3052   0035E8                     u2270:
  3053   0035E8  0012               	return		;funcret
  3054   0035EA                     __end_of_LCDprintf:
  3055                           	callstack 0
  3056                           
  3057 ;; *************** function _toString *****************
  3058 ;; Defined at:
  3059 ;;		line 133 in file "C:/Users/a_hui/OneDrive - Camosun College/term2/ecet165_embedded_mc/labs/ecet165-labs/lab6/lcd18f.
      +c"
  3060 ;; Parameters:    Size  Location     Type
  3061 ;;  number          2    8[COMRAM] unsigned int 
  3062 ;;  length          1   10[COMRAM] unsigned char 
  3063 ;; Auto vars:     Size  Location     Type
  3064 ;;  i               1   17[COMRAM] char 
  3065 ;;  string          6   11[COMRAM] unsigned char [6]
  3066 ;; Return value:  Size  Location     Type
  3067 ;;                  2    8[COMRAM] PTR unsigned char 
  3068 ;; Registers used:
  3069 ;;		wreg, fsr2l, fsr2h, status,2, status,0, cstack
  3070 ;; Tracked objects:
  3071 ;;		On entry : 0/0
  3072 ;;		On exit  : 0/0
  3073 ;;		Unchanged: 0/0
  3074 ;; Data sizes:     COMRAM   BANK5   BANK6   BANK7   BANK8   BANK9  BANK10  BANK11  BANK12  BANK13  BANK14  BANK15  BANK1
      +6  BANK17  BANK18  BANK19  BANK20  BANK21  BANK22  BANK23  BANK24  BANK25  BANK26  BANK27  BANK28  BANK29  BANK30  BANK3
      +1  BANK32  BANK33  BANK34  BANK35  BANK36
  3075 ;;      Params:         3       0       0       0       0       0       0       0       0       0       0       0       
      +0       0       0       0       0       0       0       0       0       0       0       0       0       0       0       
      +0       0       0       0       0       0
  3076 ;;      Locals:         7       0       0       0       0       0       0       0       0       0       0       0       
      +0       0       0       0       0       0       0       0       0       0       0       0       0       0       0       
      +0       0       0       0       0       0
  3077 ;;      Temps:          0       0       0       0       0       0       0       0       0       0       0       0       
      +0       0       0       0       0       0       0       0       0       0       0       0       0       0       0       
      +0       0       0       0       0       0
  3078 ;;      Totals:        10       0       0       0       0       0       0       0       0       0       0       0       
      +0       0       0       0       0       0       0       0       0       0       0       0       0       0       0       
      +0       0       0       0       0       0
  3079 ;;Total ram usage:       10 bytes
  3080 ;; Hardware stack levels used: 1
  3081 ;; Hardware stack levels required when called: 2
  3082 ;; This function calls:
  3083 ;;		___lwdiv
  3084 ;;		___lwmod
  3085 ;; This function is called by:
  3086 ;;		_LCDprintf
  3087 ;; This function uses a non-reentrant model
  3088 ;;
  3089                           
  3090                           	psect	text9
  3091   003918                     __ptext9:
  3092                           	callstack 0
  3093   003918                     _toString:
  3094                           	callstack 123
  3095   003918                     
  3096                           ;C:/Users/a_hui/OneDrive - Camosun College/term2/ecet165_embedded_mc/labs/ecet165-labs/l
      +                          ab6/lcd18f.c: 134:     char string[6] = "";
  3097   003918  EE21  F10C         	lfsr	2,toString@string
  3098   00391C  0E05               	movlw	5
  3099   00391E                     u1671:
  3100   00391E  6ADE               	clrf	postinc2,c
  3101   003920  06E8               	decf	wreg,f,c
  3102   003922  E2FD               	bc	u1671
  3103   003924                     
  3104                           ;C:/Users/a_hui/OneDrive - Camosun College/term2/ecet165_embedded_mc/labs/ecet165-labs/l
      +                          ab6/lcd18f.c: 136:     for(signed char i = length-1; i > -1; i--){
  3105   003924  040B               	decf	toString@length^(0+1280),w,c
  3106   003926  6E12               	movwf	toString@i^(0+1280),c
  3107   003928                     l2049:
  3108   003928  BE12               	btfsc	toString@i^(0+1280),7,c
  3109   00392A  EF9B  F01C         	goto	u1680
  3110   00392E  EF99  F01C         	goto	u1681
  3111   003932                     u1681:
  3112   003932  EF9D  F01C         	goto	l2053
  3113   003936                     u1680:
  3114   003936  EFC1  F01C         	goto	l2061
  3115   00393A                     l2053:
  3116                           
  3117                           ;C:/Users/a_hui/OneDrive - Camosun College/term2/ecet165_embedded_mc/labs/ecet165-labs/l
      +                          ab6/lcd18f.c: 137:         string[i] = (number % 10) + '0';
  3118   00393A  0E0C               	movlw	low toString@string
  3119   00393C  2412               	addwf	toString@i^(0+1280),w,c
  3120   00393E  6ED9               	movwf	fsr2l,c
  3121   003940  6ADA               	clrf	fsr2h,c
  3122   003942  0E05               	movlw	high toString@string
  3123   003944  22DA               	addwfc	fsr2h,f,c
  3124   003946  C509  F502         	movff	toString@number,___lwmod@dividend
  3125   00394A  C50A  F503         	movff	toString@number+1,___lwmod@dividend+1
  3126   00394E  0E00               	movlw	0
  3127   003950  6E05               	movwf	(___lwmod@divisor+1)^(0+1280),c
  3128   003952  0E0A               	movlw	10
  3129   003954  6E04               	movwf	___lwmod@divisor^(0+1280),c
  3130   003956  EC3A  F01D         	call	___lwmod	;wreg free
  3131   00395A  5002               	movf	?___lwmod^(0+1280),w,c
  3132   00395C  0F30               	addlw	48
  3133   00395E  6EDF               	movwf	indf2,c
  3134   003960                     
  3135                           ;C:/Users/a_hui/OneDrive - Camosun College/term2/ecet165_embedded_mc/labs/ecet165-labs/l
      +                          ab6/lcd18f.c: 138:         number /= 10;
  3136   003960  C509  F502         	movff	toString@number,___lwdiv@dividend
  3137   003964  C50A  F503         	movff	toString@number+1,___lwdiv@dividend+1
  3138   003968  0E00               	movlw	0
  3139   00396A  6E05               	movwf	(___lwdiv@divisor+1)^(0+1280),c
  3140   00396C  0E0A               	movlw	10
  3141   00396E  6E04               	movwf	___lwdiv@divisor^(0+1280),c
  3142   003970  ECC6  F01C         	call	___lwdiv	;wreg free
  3143   003974  C502  F509         	movff	?___lwdiv,toString@number
  3144   003978  C503  F50A         	movff	?___lwdiv+1,toString@number+1
  3145   00397C                     
  3146                           ;C:/Users/a_hui/OneDrive - Camosun College/term2/ecet165_embedded_mc/labs/ecet165-labs/l
      +                          ab6/lcd18f.c: 139:     };
  3147   00397C  0612               	decf	toString@i^(0+1280),f,c
  3148   00397E  EF94  F01C         	goto	l2049
  3149   003982                     l2061:
  3150                           
  3151                           ;C:/Users/a_hui/OneDrive - Camosun College/term2/ecet165_embedded_mc/labs/ecet165-labs/l
      +                          ab6/lcd18f.c: 140:     return &string;
  3152   003982  0E0C               	movlw	low toString@string
  3153   003984  6E09               	movwf	?_toString^(0+1280),c
  3154   003986  0E05               	movlw	high toString@string
  3155   003988  6E0A               	movwf	(?_toString+1)^(0+1280),c
  3156   00398A  0012               	return		;funcret
  3157   00398C                     __end_of_toString:
  3158                           	callstack 0
  3159                           
  3160 ;; *************** function ___lwmod *****************
  3161 ;; Defined at:
  3162 ;;		line 7 in file "C:\Program Files\Microchip\xc8\v2.40\pic\sources\c99\common\lwmod.c"
  3163 ;; Parameters:    Size  Location     Type
  3164 ;;  dividend        2    1[COMRAM] unsigned int 
  3165 ;;  divisor         2    3[COMRAM] unsigned int 
  3166 ;; Auto vars:     Size  Location     Type
  3167 ;;  counter         1    5[COMRAM] unsigned char 
  3168 ;; Return value:  Size  Location     Type
  3169 ;;                  2    1[COMRAM] unsigned int 
  3170 ;; Registers used:
  3171 ;;		wreg, status,2, status,0
  3172 ;; Tracked objects:
  3173 ;;		On entry : 0/0
  3174 ;;		On exit  : 0/0
  3175 ;;		Unchanged: 0/0
  3176 ;; Data sizes:     COMRAM   BANK5   BANK6   BANK7   BANK8   BANK9  BANK10  BANK11  BANK12  BANK13  BANK14  BANK15  BANK1
      +6  BANK17  BANK18  BANK19  BANK20  BANK21  BANK22  BANK23  BANK24  BANK25  BANK26  BANK27  BANK28  BANK29  BANK30  BANK3
      +1  BANK32  BANK33  BANK34  BANK35  BANK36
  3177 ;;      Params:         4       0       0       0       0       0       0       0       0       0       0       0       
      +0       0       0       0       0       0       0       0       0       0       0       0       0       0       0       
      +0       0       0       0       0       0
  3178 ;;      Locals:         1       0       0       0       0       0       0       0       0       0       0       0       
      +0       0       0       0       0       0       0       0       0       0       0       0       0       0       0       
      +0       0       0       0       0       0
  3179 ;;      Temps:          0       0       0       0       0       0       0       0       0       0       0       0       
      +0       0       0       0       0       0       0       0       0       0       0       0       0       0       0       
      +0       0       0       0       0       0
  3180 ;;      Totals:         5       0       0       0       0       0       0       0       0       0       0       0       
      +0       0       0       0       0       0       0       0       0       0       0       0       0       0       0       
      +0       0       0       0       0       0
  3181 ;;Total ram usage:        5 bytes
  3182 ;; Hardware stack levels used: 1
  3183 ;; Hardware stack levels required when called: 1
  3184 ;; This function calls:
  3185 ;;		Nothing
  3186 ;; This function is called by:
  3187 ;;		_toString
  3188 ;; This function uses a non-reentrant model
  3189 ;;
  3190                           
  3191                           	psect	text10
  3192   003A74                     __ptext10:
  3193                           	callstack 0
  3194   003A74                     ___lwmod:
  3195                           	callstack 123
  3196   003A74  5004               	movf	___lwmod@divisor^(0+1280),w,c
  3197   003A76  1005               	iorwf	(___lwmod@divisor+1)^(0+1280),w,c
  3198   003A78  B4D8               	btfsc	status,2,c
  3199   003A7A  EF41  F01D         	goto	u1631
  3200   003A7E  EF43  F01D         	goto	u1630
  3201   003A82                     u1631:
  3202   003A82  EF67  F01D         	goto	l655
  3203   003A86                     u1630:
  3204   003A86  0E01               	movlw	1
  3205   003A88  6E06               	movwf	___lwmod@counter^(0+1280),c
  3206   003A8A  EF4B  F01D         	goto	l1981
  3207   003A8E                     l1979:
  3208   003A8E  90D8               	bcf	status,0,c
  3209   003A90  3604               	rlcf	___lwmod@divisor^(0+1280),f,c
  3210   003A92  3605               	rlcf	(___lwmod@divisor+1)^(0+1280),f,c
  3211   003A94  2A06               	incf	___lwmod@counter^(0+1280),f,c
  3212   003A96                     l1981:
  3213   003A96  AE05               	btfss	(___lwmod@divisor+1)^(0+1280),7,c
  3214   003A98  EF50  F01D         	goto	u1641
  3215   003A9C  EF52  F01D         	goto	u1640
  3216   003AA0                     u1641:
  3217   003AA0  EF47  F01D         	goto	l1979
  3218   003AA4                     u1640:
  3219   003AA4                     l1983:
  3220   003AA4  5004               	movf	___lwmod@divisor^(0+1280),w,c
  3221   003AA6  5C02               	subwf	___lwmod@dividend^(0+1280),w,c
  3222   003AA8  5005               	movf	(___lwmod@divisor+1)^(0+1280),w,c
  3223   003AAA  5803               	subwfb	(___lwmod@dividend+1)^(0+1280),w,c
  3224   003AAC  A0D8               	btfss	status,0,c
  3225   003AAE  EF5B  F01D         	goto	u1651
  3226   003AB2  EF5D  F01D         	goto	u1650
  3227   003AB6                     u1651:
  3228   003AB6  EF61  F01D         	goto	l1987
  3229   003ABA                     u1650:
  3230   003ABA  5004               	movf	___lwmod@divisor^(0+1280),w,c
  3231   003ABC  5E02               	subwf	___lwmod@dividend^(0+1280),f,c
  3232   003ABE  5005               	movf	(___lwmod@divisor+1)^(0+1280),w,c
  3233   003AC0  5A03               	subwfb	(___lwmod@dividend+1)^(0+1280),f,c
  3234   003AC2                     l1987:
  3235   003AC2  90D8               	bcf	status,0,c
  3236   003AC4  3205               	rrcf	(___lwmod@divisor+1)^(0+1280),f,c
  3237   003AC6  3204               	rrcf	___lwmod@divisor^(0+1280),f,c
  3238   003AC8  2E06               	decfsz	___lwmod@counter^(0+1280),f,c
  3239   003ACA  EF52  F01D         	goto	l1983
  3240   003ACE                     l655:
  3241   003ACE  C502  F502         	movff	___lwmod@dividend,?___lwmod
  3242   003AD2  C503  F503         	movff	___lwmod@dividend+1,?___lwmod+1
  3243   003AD6  0012               	return		;funcret
  3244   003AD8                     __end_of___lwmod:
  3245                           	callstack 0
  3246                           
  3247 ;; *************** function ___lwdiv *****************
  3248 ;; Defined at:
  3249 ;;		line 7 in file "C:\Program Files\Microchip\xc8\v2.40\pic\sources\c99\common\lwdiv.c"
  3250 ;; Parameters:    Size  Location     Type
  3251 ;;  dividend        2    1[COMRAM] unsigned int 
  3252 ;;  divisor         2    3[COMRAM] unsigned int 
  3253 ;; Auto vars:     Size  Location     Type
  3254 ;;  quotient        2    5[COMRAM] unsigned int 
  3255 ;;  counter         1    7[COMRAM] unsigned char 
  3256 ;; Return value:  Size  Location     Type
  3257 ;;                  2    1[COMRAM] unsigned int 
  3258 ;; Registers used:
  3259 ;;		wreg, status,2, status,0
  3260 ;; Tracked objects:
  3261 ;;		On entry : 0/0
  3262 ;;		On exit  : 0/0
  3263 ;;		Unchanged: 0/0
  3264 ;; Data sizes:     COMRAM   BANK5   BANK6   BANK7   BANK8   BANK9  BANK10  BANK11  BANK12  BANK13  BANK14  BANK15  BANK1
      +6  BANK17  BANK18  BANK19  BANK20  BANK21  BANK22  BANK23  BANK24  BANK25  BANK26  BANK27  BANK28  BANK29  BANK30  BANK3
      +1  BANK32  BANK33  BANK34  BANK35  BANK36
  3265 ;;      Params:         4       0       0       0       0       0       0       0       0       0       0       0       
      +0       0       0       0       0       0       0       0       0       0       0       0       0       0       0       
      +0       0       0       0       0       0
  3266 ;;      Locals:         3       0       0       0       0       0       0       0       0       0       0       0       
      +0       0       0       0       0       0       0       0       0       0       0       0       0       0       0       
      +0       0       0       0       0       0
  3267 ;;      Temps:          0       0       0       0       0       0       0       0       0       0       0       0       
      +0       0       0       0       0       0       0       0       0       0       0       0       0       0       0       
      +0       0       0       0       0       0
  3268 ;;      Totals:         7       0       0       0       0       0       0       0       0       0       0       0       
      +0       0       0       0       0       0       0       0       0       0       0       0       0       0       0       
      +0       0       0       0       0       0
  3269 ;;Total ram usage:        7 bytes
  3270 ;; Hardware stack levels used: 1
  3271 ;; Hardware stack levels required when called: 1
  3272 ;; This function calls:
  3273 ;;		Nothing
  3274 ;; This function is called by:
  3275 ;;		_toString
  3276 ;; This function uses a non-reentrant model
  3277 ;;
  3278                           
  3279                           	psect	text11
  3280   00398C                     __ptext11:
  3281                           	callstack 0
  3282   00398C                     ___lwdiv:
  3283                           	callstack 123
  3284   00398C  0E00               	movlw	0
  3285   00398E  6E07               	movwf	(___lwdiv@quotient+1)^(0+1280),c
  3286   003990  0E00               	movlw	0
  3287   003992  6E06               	movwf	___lwdiv@quotient^(0+1280),c
  3288   003994  5004               	movf	___lwdiv@divisor^(0+1280),w,c
  3289   003996  1005               	iorwf	(___lwdiv@divisor+1)^(0+1280),w,c
  3290   003998  B4D8               	btfsc	status,2,c
  3291   00399A  EFD1  F01C         	goto	u1601
  3292   00399E  EFD3  F01C         	goto	u1600
  3293   0039A2                     u1601:
  3294   0039A2  EFFB  F01C         	goto	l645
  3295   0039A6                     u1600:
  3296   0039A6  0E01               	movlw	1
  3297   0039A8  6E08               	movwf	___lwdiv@counter^(0+1280),c
  3298   0039AA  EFDB  F01C         	goto	l1961
  3299   0039AE                     l1959:
  3300   0039AE  90D8               	bcf	status,0,c
  3301   0039B0  3604               	rlcf	___lwdiv@divisor^(0+1280),f,c
  3302   0039B2  3605               	rlcf	(___lwdiv@divisor+1)^(0+1280),f,c
  3303   0039B4  2A08               	incf	___lwdiv@counter^(0+1280),f,c
  3304   0039B6                     l1961:
  3305   0039B6  AE05               	btfss	(___lwdiv@divisor+1)^(0+1280),7,c
  3306   0039B8  EFE0  F01C         	goto	u1611
  3307   0039BC  EFE2  F01C         	goto	u1610
  3308   0039C0                     u1611:
  3309   0039C0  EFD7  F01C         	goto	l1959
  3310   0039C4                     u1610:
  3311   0039C4                     l1963:
  3312   0039C4  90D8               	bcf	status,0,c
  3313   0039C6  3606               	rlcf	___lwdiv@quotient^(0+1280),f,c
  3314   0039C8  3607               	rlcf	(___lwdiv@quotient+1)^(0+1280),f,c
  3315   0039CA  5004               	movf	___lwdiv@divisor^(0+1280),w,c
  3316   0039CC  5C02               	subwf	___lwdiv@dividend^(0+1280),w,c
  3317   0039CE  5005               	movf	(___lwdiv@divisor+1)^(0+1280),w,c
  3318   0039D0  5803               	subwfb	(___lwdiv@dividend+1)^(0+1280),w,c
  3319   0039D2  A0D8               	btfss	status,0,c
  3320   0039D4  EFEE  F01C         	goto	u1621
  3321   0039D8  EFF0  F01C         	goto	u1620
  3322   0039DC                     u1621:
  3323   0039DC  EFF5  F01C         	goto	l1971
  3324   0039E0                     u1620:
  3325   0039E0  5004               	movf	___lwdiv@divisor^(0+1280),w,c
  3326   0039E2  5E02               	subwf	___lwdiv@dividend^(0+1280),f,c
  3327   0039E4  5005               	movf	(___lwdiv@divisor+1)^(0+1280),w,c
  3328   0039E6  5A03               	subwfb	(___lwdiv@dividend+1)^(0+1280),f,c
  3329   0039E8  8006               	bsf	___lwdiv@quotient^(0+1280),0,c
  3330   0039EA                     l1971:
  3331   0039EA  90D8               	bcf	status,0,c
  3332   0039EC  3205               	rrcf	(___lwdiv@divisor+1)^(0+1280),f,c
  3333   0039EE  3204               	rrcf	___lwdiv@divisor^(0+1280),f,c
  3334   0039F0  2E08               	decfsz	___lwdiv@counter^(0+1280),f,c
  3335   0039F2  EFE2  F01C         	goto	l1963
  3336   0039F6                     l645:
  3337   0039F6  C506  F502         	movff	___lwdiv@quotient,?___lwdiv
  3338   0039FA  C507  F503         	movff	___lwdiv@quotient+1,?___lwdiv+1
  3339   0039FE  0012               	return		;funcret
  3340   003A00                     __end_of___lwdiv:
  3341                           	callstack 0
  3342                           
  3343 ;; *************** function _LCDprints *****************
  3344 ;; Defined at:
  3345 ;;		line 86 in file "C:/Users/a_hui/OneDrive - Camosun College/term2/ecet165_embedded_mc/labs/ecet165-labs/lab6/lcd18f.c
      +"
  3346 ;; Parameters:    Size  Location     Type
  3347 ;;  c               2   18[COMRAM] PTR unsigned char 
  3348 ;;		 -> ?_LCDprintf(1), toString@string(6), RTCrun@current_time(8), 
  3349 ;; Auto vars:     Size  Location     Type
  3350 ;;		None
  3351 ;; Return value:  Size  Location     Type
  3352 ;;                  1    wreg      void 
  3353 ;; Registers used:
  3354 ;;		wreg, fsr2l, fsr2h, status,2, status,0, cstack
  3355 ;; Tracked objects:
  3356 ;;		On entry : 0/0
  3357 ;;		On exit  : 0/0
  3358 ;;		Unchanged: 0/0
  3359 ;; Data sizes:     COMRAM   BANK5   BANK6   BANK7   BANK8   BANK9  BANK10  BANK11  BANK12  BANK13  BANK14  BANK15  BANK1
      +6  BANK17  BANK18  BANK19  BANK20  BANK21  BANK22  BANK23  BANK24  BANK25  BANK26  BANK27  BANK28  BANK29  BANK30  BANK3
      +1  BANK32  BANK33  BANK34  BANK35  BANK36
  3360 ;;      Params:         2       0       0       0       0       0       0       0       0       0       0       0       
      +0       0       0       0       0       0       0       0       0       0       0       0       0       0       0       
      +0       0       0       0       0       0
  3361 ;;      Locals:         0       0       0       0       0       0       0       0       0       0       0       0       
      +0       0       0       0       0       0       0       0       0       0       0       0       0       0       0       
      +0       0       0       0       0       0
  3362 ;;      Temps:          0       0       0       0       0       0       0       0       0       0       0       0       
      +0       0       0       0       0       0       0       0       0       0       0       0       0       0       0       
      +0       0       0       0       0       0
  3363 ;;      Totals:         2       0       0       0       0       0       0       0       0       0       0       0       
      +0       0       0       0       0       0       0       0       0       0       0       0       0       0       0       
      +0       0       0       0       0       0
  3364 ;;Total ram usage:        2 bytes
  3365 ;; Hardware stack levels used: 1
  3366 ;; Hardware stack levels required when called: 2
  3367 ;; This function calls:
  3368 ;;		_LCDprintc
  3369 ;; This function is called by:
  3370 ;;		_LCDprintf
  3371 ;; This function uses a non-reentrant model
  3372 ;;
  3373                           
  3374                           	psect	text12
  3375   003AD8                     __ptext12:
  3376                           	callstack 0
  3377   003AD8                     _LCDprints:
  3378                           	callstack 123
  3379   003AD8                     
  3380                           ;C:/Users/a_hui/OneDrive - Camosun College/term2/ecet165_embedded_mc/labs/ecet165-labs/l
      +                          ab6/lcd18f.c: 88:     ANSELD = 0x0; TRISD = 0x0; WPUD = 0xFF; LATDbits.LATD7 = 1; _delay
      +                          ((unsigned long)((1)*(64000000/4000000.0)));
  3381   003AD8  0E00               	movlw	0
  3382   003ADA  0104               	movlb	4	; () banked
  3383   003ADC  6F18               	movwf	24,b	;volatile
  3384   003ADE  0E00               	movlw	0
  3385   003AE0  6EC9               	movwf	201,c	;volatile
  3386   003AE2                     
  3387                           ; BSR set to: 4
  3388   003AE2  6919               	setf	25,b	;volatile
  3389   003AE4                     
  3390                           ; BSR set to: 4
  3391   003AE4  8EC1               	bsf	193,7,c	;volatile
  3392   003AE6                     
  3393                           ; BSR set to: 4
  3394   003AE6  0E05               	movlw	5
  3395   003AE8                     u2447:
  3396   003AE8  2EE8               	decfsz	wreg,f,c
  3397   003AEA  D7FE               	bra	u2447
  3398   003AEC  F000               	nop	
  3399   003AEE                     
  3400                           ;C:/Users/a_hui/OneDrive - Camosun College/term2/ecet165_embedded_mc/labs/ecet165-labs/l
      +                          ab6/lcd18f.c: 91:     LATDbits.LATD4 = 1;
  3401   003AEE  88C1               	bsf	193,4,c	;volatile
  3402   003AF0                     
  3403                           ;C:/Users/a_hui/OneDrive - Camosun College/term2/ecet165_embedded_mc/labs/ecet165-labs/l
      +                          ab6/lcd18f.c: 92:     LATDbits.LATD5 = 0;
  3404   003AF0  9AC1               	bcf	193,5,c	;volatile
  3405   003AF2                     
  3406                           ;C:/Users/a_hui/OneDrive - Camosun College/term2/ecet165_embedded_mc/labs/ecet165-labs/l
      +                          ab6/lcd18f.c: 94:     _delay((unsigned long)((1)*(64000000/4000000.0)));
  3407   003AF2  0E05               	movlw	5
  3408   003AF4                     u2457:
  3409   003AF4  2EE8               	decfsz	wreg,f,c
  3410   003AF6  D7FE               	bra	u2457
  3411   003AF8  F000               	nop	
  3412                           
  3413                           ;C:/Users/a_hui/OneDrive - Camosun College/term2/ecet165_embedded_mc/labs/ecet165-labs/l
      +                          ab6/lcd18f.c: 98:     while(*c != 0x0){
  3414   003AFA  EF88  F01D         	goto	l2043
  3415   003AFE                     l2039:
  3416                           
  3417                           ;C:/Users/a_hui/OneDrive - Camosun College/term2/ecet165_embedded_mc/labs/ecet165-labs/l
      +                          ab6/lcd18f.c: 100:         LCDprintc(*c++);
  3418   003AFE  C513  F4D9         	movff	LCDprints@c,fsr2l
  3419   003B02  C514  F4DA         	movff	LCDprints@c+1,fsr2h
  3420   003B06  50DF               	movf	indf2,w,c
  3421   003B08  EC50  F01C         	call	_LCDprintc
  3422   003B0C  4A13               	infsnz	LCDprints@c^(0+1280),f,c
  3423   003B0E  2A14               	incf	(LCDprints@c+1)^(0+1280),f,c
  3424   003B10                     l2043:
  3425                           
  3426                           ;C:/Users/a_hui/OneDrive - Camosun College/term2/ecet165_embedded_mc/labs/ecet165-labs/l
      +                          ab6/lcd18f.c: 98:     while(*c != 0x0){
  3427   003B10  C513  F4D9         	movff	LCDprints@c,fsr2l
  3428   003B14  C514  F4DA         	movff	LCDprints@c+1,fsr2h
  3429   003B18  50DF               	movf	indf2,w,c
  3430   003B1A  A4D8               	btfss	status,2,c
  3431   003B1C  EF92  F01D         	goto	u1661
  3432   003B20  EF94  F01D         	goto	u1660
  3433   003B24                     u1661:
  3434   003B24  EF7F  F01D         	goto	l2039
  3435   003B28                     u1660:
  3436   003B28  0012               	return		;funcret
  3437   003B2A                     __end_of_LCDprints:
  3438                           	callstack 0
  3439                           
  3440 ;; *************** function _LCDprintc *****************
  3441 ;; Defined at:
  3442 ;;		line 71 in file "C:/Users/a_hui/OneDrive - Camosun College/term2/ecet165_embedded_mc/labs/ecet165-labs/lab6/lcd18f.c
      +"
  3443 ;; Parameters:    Size  Location     Type
  3444 ;;  c               1    wreg     unsigned char 
  3445 ;; Auto vars:     Size  Location     Type
  3446 ;;  c               1    2[COMRAM] unsigned char 
  3447 ;; Return value:  Size  Location     Type
  3448 ;;                  1    wreg      void 
  3449 ;; Registers used:
  3450 ;;		wreg, status,2, status,0
  3451 ;; Tracked objects:
  3452 ;;		On entry : 0/0
  3453 ;;		On exit  : 0/0
  3454 ;;		Unchanged: 0/0
  3455 ;; Data sizes:     COMRAM   BANK5   BANK6   BANK7   BANK8   BANK9  BANK10  BANK11  BANK12  BANK13  BANK14  BANK15  BANK1
      +6  BANK17  BANK18  BANK19  BANK20  BANK21  BANK22  BANK23  BANK24  BANK25  BANK26  BANK27  BANK28  BANK29  BANK30  BANK3
      +1  BANK32  BANK33  BANK34  BANK35  BANK36
  3456 ;;      Params:         0       0       0       0       0       0       0       0       0       0       0       0       
      +0       0       0       0       0       0       0       0       0       0       0       0       0       0       0       
      +0       0       0       0       0       0
  3457 ;;      Locals:         1       0       0       0       0       0       0       0       0       0       0       0       
      +0       0       0       0       0       0       0       0       0       0       0       0       0       0       0       
      +0       0       0       0       0       0
  3458 ;;      Temps:          1       0       0       0       0       0       0       0       0       0       0       0       
      +0       0       0       0       0       0       0       0       0       0       0       0       0       0       0       
      +0       0       0       0       0       0
  3459 ;;      Totals:         2       0       0       0       0       0       0       0       0       0       0       0       
      +0       0       0       0       0       0       0       0       0       0       0       0       0       0       0       
      +0       0       0       0       0       0
  3460 ;;Total ram usage:        2 bytes
  3461 ;; Hardware stack levels used: 1
  3462 ;; Hardware stack levels required when called: 1
  3463 ;; This function calls:
  3464 ;;		Nothing
  3465 ;; This function is called by:
  3466 ;;		_LCDprints
  3467 ;;		_LCDprintf
  3468 ;;		_LCDreturn
  3469 ;; This function uses a non-reentrant model
  3470 ;;
  3471                           
  3472                           	psect	text13
  3473   0038A0                     __ptext13:
  3474                           	callstack 0
  3475   0038A0                     _LCDprintc:
  3476                           	callstack 123
  3477                           
  3478                           ;incstack = 0
  3479                           ;LCDprintc@c stored from wreg
  3480   0038A0  6E03               	movwf	LCDprintc@c^(0+1280),c
  3481   0038A2                     
  3482                           ;C:/Users/a_hui/OneDrive - Camosun College/term2/ecet165_embedded_mc/labs/ecet165-labs/l
      +                          ab6/lcd18f.c: 72:     ANSELD = 0x0; TRISD = 0x0; WPUD = 0xFF; LATDbits.LATD7 = 1; _delay
      +                          ((unsigned long)((1)*(64000000/4000000.0)));
  3483   0038A2  0E00               	movlw	0
  3484   0038A4  0104               	movlb	4	; () banked
  3485   0038A6  6F18               	movwf	24,b	;volatile
  3486   0038A8  0E00               	movlw	0
  3487   0038AA  6EC9               	movwf	201,c	;volatile
  3488   0038AC                     
  3489                           ; BSR set to: 4
  3490   0038AC  6919               	setf	25,b	;volatile
  3491   0038AE                     
  3492                           ; BSR set to: 4
  3493   0038AE  8EC1               	bsf	193,7,c	;volatile
  3494   0038B0                     
  3495                           ; BSR set to: 4
  3496   0038B0  0E05               	movlw	5
  3497   0038B2                     u2467:
  3498   0038B2  2EE8               	decfsz	wreg,f,c
  3499   0038B4  D7FE               	bra	u2467
  3500   0038B6  F000               	nop	
  3501   0038B8                     
  3502                           ;C:/Users/a_hui/OneDrive - Camosun College/term2/ecet165_embedded_mc/labs/ecet165-labs/l
      +                          ab6/lcd18f.c: 73:     LATDbits.LATD4 = 1;
  3503   0038B8  88C1               	bsf	193,4,c	;volatile
  3504   0038BA                     
  3505                           ;C:/Users/a_hui/OneDrive - Camosun College/term2/ecet165_embedded_mc/labs/ecet165-labs/l
      +                          ab6/lcd18f.c: 74:     LATDbits.LATD5 = 0;
  3506   0038BA  9AC1               	bcf	193,5,c	;volatile
  3507   0038BC                     
  3508                           ;C:/Users/a_hui/OneDrive - Camosun College/term2/ecet165_embedded_mc/labs/ecet165-labs/l
      +                          ab6/lcd18f.c: 77:     LATD = (LATD & 0xF0)|(c>>4);
  3509   0038BC  C503  F502         	movff	LCDprintc@c,??_LCDprintc
  3510   0038C0  3A02               	swapf	??_LCDprintc^(0+1280),f,c
  3511   0038C2  0E0F               	movlw	15
  3512   0038C4  1602               	andwf	??_LCDprintc^(0+1280),f,c
  3513   0038C6  50C1               	movf	193,w,c	;volatile
  3514   0038C8  0BF0               	andlw	240
  3515   0038CA  1002               	iorwf	??_LCDprintc^(0+1280),w,c
  3516   0038CC  6EC1               	movwf	193,c	;volatile
  3517   0038CE                     
  3518                           ;C:/Users/a_hui/OneDrive - Camosun College/term2/ecet165_embedded_mc/labs/ecet165-labs/l
      +                          ab6/lcd18f.c: 78:     _delay((unsigned long)((1)*(64000000/4000000.0)));
  3519   0038CE  0E05               	movlw	5
  3520   0038D0                     u2477:
  3521   0038D0  2EE8               	decfsz	wreg,f,c
  3522   0038D2  D7FE               	bra	u2477
  3523   0038D4  F000               	nop	
  3524   0038D6                     
  3525                           ;C:/Users/a_hui/OneDrive - Camosun College/term2/ecet165_embedded_mc/labs/ecet165-labs/l
      +                          ab6/lcd18f.c: 79:     LATDbits.LATD6 = 1; _delay((unsigned long)((1)*(64000000/4000000.0
      +                          ))); LATDbits.LATD6 = 0;
  3526   0038D6  8CC1               	bsf	193,6,c	;volatile
  3527   0038D8  0E05               	movlw	5
  3528   0038DA                     u2487:
  3529   0038DA  2EE8               	decfsz	wreg,f,c
  3530   0038DC  D7FE               	bra	u2487
  3531   0038DE  F000               	nop	
  3532   0038E0  9CC1               	bcf	193,6,c	;volatile
  3533   0038E2                     
  3534                           ;C:/Users/a_hui/OneDrive - Camosun College/term2/ecet165_embedded_mc/labs/ecet165-labs/l
      +                          ab6/lcd18f.c: 80:     LATD = (LATD & 0xF0)|(c & 0x0F);
  3535   0038E2  C503  F502         	movff	LCDprintc@c,??_LCDprintc
  3536   0038E6  0E0F               	movlw	15
  3537   0038E8  1602               	andwf	??_LCDprintc^(0+1280),f,c
  3538   0038EA  50C1               	movf	193,w,c	;volatile
  3539   0038EC  0BF0               	andlw	240
  3540   0038EE  1002               	iorwf	??_LCDprintc^(0+1280),w,c
  3541   0038F0  6EC1               	movwf	193,c	;volatile
  3542   0038F2                     
  3543                           ;C:/Users/a_hui/OneDrive - Camosun College/term2/ecet165_embedded_mc/labs/ecet165-labs/l
      +                          ab6/lcd18f.c: 81:     _delay((unsigned long)((1)*(64000000/4000000.0)));
  3544   0038F2  0E05               	movlw	5
  3545   0038F4                     u2497:
  3546   0038F4  2EE8               	decfsz	wreg,f,c
  3547   0038F6  D7FE               	bra	u2497
  3548   0038F8  F000               	nop	
  3549   0038FA                     
  3550                           ;C:/Users/a_hui/OneDrive - Camosun College/term2/ecet165_embedded_mc/labs/ecet165-labs/l
      +                          ab6/lcd18f.c: 82:     LATDbits.LATD6 = 1; _delay((unsigned long)((1)*(64000000/4000000.0
      +                          ))); LATDbits.LATD6 = 0;
  3551   0038FA  8CC1               	bsf	193,6,c	;volatile
  3552   0038FC  0E05               	movlw	5
  3553   0038FE                     u2507:
  3554   0038FE  2EE8               	decfsz	wreg,f,c
  3555   003900  D7FE               	bra	u2507
  3556   003902  F000               	nop	
  3557   003904  9CC1               	bcf	193,6,c	;volatile
  3558   003906                     
  3559                           ;C:/Users/a_hui/OneDrive - Camosun College/term2/ecet165_embedded_mc/labs/ecet165-labs/l
      +                          ab6/lcd18f.c: 83:     _delay((unsigned long)((5)*(64000000/4000.0)));
  3560   003906  0E68               	movlw	104
  3561   003908  6E02               	movwf	??_LCDprintc^(0+1280),c
  3562   00390A  0EE4               	movlw	228
  3563   00390C                     u2517:
  3564   00390C  2EE8               	decfsz	wreg,f,c
  3565   00390E  D7FE               	bra	u2517
  3566   003910  2E02               	decfsz	??_LCDprintc^(0+1280),f,c
  3567   003912  D7FC               	bra	u2517
  3568   003914  D000               	nop2	
  3569   003916  0012               	return		;funcret
  3570   003918                     __end_of_LCDprintc:
  3571                           	callstack 0
  3572                           
  3573 ;; *************** function _LCDinit *****************
  3574 ;; Defined at:
  3575 ;;		line 34 in file "C:/Users/a_hui/OneDrive - Camosun College/term2/ecet165_embedded_mc/labs/ecet165-labs/lab6/lcd18f.c
      +"
  3576 ;; Parameters:    Size  Location     Type
  3577 ;;		None
  3578 ;; Auto vars:     Size  Location     Type
  3579 ;;		None
  3580 ;; Return value:  Size  Location     Type
  3581 ;;                  1    wreg      void 
  3582 ;; Registers used:
  3583 ;;		wreg, status,2, status,0, cstack
  3584 ;; Tracked objects:
  3585 ;;		On entry : 0/0
  3586 ;;		On exit  : 0/0
  3587 ;;		Unchanged: 0/0
  3588 ;; Data sizes:     COMRAM   BANK5   BANK6   BANK7   BANK8   BANK9  BANK10  BANK11  BANK12  BANK13  BANK14  BANK15  BANK1
      +6  BANK17  BANK18  BANK19  BANK20  BANK21  BANK22  BANK23  BANK24  BANK25  BANK26  BANK27  BANK28  BANK29  BANK30  BANK3
      +1  BANK32  BANK33  BANK34  BANK35  BANK36
  3589 ;;      Params:         0       0       0       0       0       0       0       0       0       0       0       0       
      +0       0       0       0       0       0       0       0       0       0       0       0       0       0       0       
      +0       0       0       0       0       0
  3590 ;;      Locals:         0       0       0       0       0       0       0       0       0       0       0       0       
      +0       0       0       0       0       0       0       0       0       0       0       0       0       0       0       
      +0       0       0       0       0       0
  3591 ;;      Temps:          2       0       0       0       0       0       0       0       0       0       0       0       
      +0       0       0       0       0       0       0       0       0       0       0       0       0       0       0       
      +0       0       0       0       0       0
  3592 ;;      Totals:         2       0       0       0       0       0       0       0       0       0       0       0       
      +0       0       0       0       0       0       0       0       0       0       0       0       0       0       0       
      +0       0       0       0       0       0
  3593 ;;Total ram usage:        2 bytes
  3594 ;; Hardware stack levels used: 1
  3595 ;; Hardware stack levels required when called: 2
  3596 ;; This function calls:
  3597 ;;		_LCDinstruct
  3598 ;; This function is called by:
  3599 ;;		_main
  3600 ;; This function uses a non-reentrant model
  3601 ;;
  3602                           
  3603                           	psect	text14
  3604   0036DC                     __ptext14:
  3605                           	callstack 0
  3606   0036DC                     _LCDinit:
  3607                           	callstack 124
  3608   0036DC                     
  3609                           ;C:/Users/a_hui/OneDrive - Camosun College/term2/ecet165_embedded_mc/labs/ecet165-labs/l
      +                          ab6/lcd18f.c: 35:     _delay((unsigned long)((50)*(64000000/4000.0)));
  3610   0036DC  0E05               	movlw	5
  3611   0036DE  6E05               	movwf	(??_LCDinit+1)^(0+1280),c
  3612   0036E0  0E0F               	movlw	15
  3613   0036E2  6E04               	movwf	??_LCDinit^(0+1280),c
  3614   0036E4  0EF1               	movlw	241
  3615   0036E6                     u2527:
  3616   0036E6  2EE8               	decfsz	wreg,f,c
  3617   0036E8  D7FE               	bra	u2527
  3618   0036EA  2E04               	decfsz	??_LCDinit^(0+1280),f,c
  3619   0036EC  D7FC               	bra	u2527
  3620   0036EE  2E05               	decfsz	(??_LCDinit+1)^(0+1280),f,c
  3621   0036F0  D7FA               	bra	u2527
  3622   0036F2  F000               	nop	
  3623   0036F4                     
  3624                           ;C:/Users/a_hui/OneDrive - Camosun College/term2/ecet165_embedded_mc/labs/ecet165-labs/l
      +                          ab6/lcd18f.c: 37:     ANSELD = 0x0; TRISD = 0x0; WPUD = 0xFF; LATDbits.LATD7 = 1; _delay
      +                          ((unsigned long)((1)*(64000000/4000000.0)));
  3625   0036F4  0E00               	movlw	0
  3626   0036F6  0104               	movlb	4	; () banked
  3627   0036F8  6F18               	movwf	24,b	;volatile
  3628   0036FA                     
  3629                           ; BSR set to: 4
  3630   0036FA  0E00               	movlw	0
  3631   0036FC  6EC9               	movwf	201,c	;volatile
  3632   0036FE                     
  3633                           ; BSR set to: 4
  3634   0036FE  6919               	setf	25,b	;volatile
  3635   003700                     
  3636                           ; BSR set to: 4
  3637   003700  8EC1               	bsf	193,7,c	;volatile
  3638   003702  0E05               	movlw	5
  3639   003704                     u2537:
  3640   003704  2EE8               	decfsz	wreg,f,c
  3641   003706  D7FE               	bra	u2537
  3642   003708  F000               	nop	
  3643   00370A                     
  3644                           ;C:/Users/a_hui/OneDrive - Camosun College/term2/ecet165_embedded_mc/labs/ecet165-labs/l
      +                          ab6/lcd18f.c: 39:     LATDbits.LATD4 = 0;
  3645   00370A  98C1               	bcf	193,4,c	;volatile
  3646   00370C                     
  3647                           ;C:/Users/a_hui/OneDrive - Camosun College/term2/ecet165_embedded_mc/labs/ecet165-labs/l
      +                          ab6/lcd18f.c: 40:     LATDbits.LATD5 = 0;
  3648   00370C  9AC1               	bcf	193,5,c	;volatile
  3649                           
  3650                           ;C:/Users/a_hui/OneDrive - Camosun College/term2/ecet165_embedded_mc/labs/ecet165-labs/l
      +                          ab6/lcd18f.c: 42:     _delay((unsigned long)((1)*(64000000/4000000.0)));
  3651   00370E  0E05               	movlw	5
  3652   003710                     u2547:
  3653   003710  2EE8               	decfsz	wreg,f,c
  3654   003712  D7FE               	bra	u2547
  3655   003714  F000               	nop	
  3656   003716                     
  3657                           ;C:/Users/a_hui/OneDrive - Camosun College/term2/ecet165_embedded_mc/labs/ecet165-labs/l
      +                          ab6/lcd18f.c: 45:     LATD = (LATD & 0xF0) | 0x03;
  3658   003716  50C1               	movf	193,w,c	;volatile
  3659   003718  0BF0               	andlw	240
  3660   00371A  0903               	iorlw	3
  3661   00371C  6EC1               	movwf	193,c	;volatile
  3662   00371E                     
  3663                           ;C:/Users/a_hui/OneDrive - Camosun College/term2/ecet165_embedded_mc/labs/ecet165-labs/l
      +                          ab6/lcd18f.c: 46:     LATDbits.LATD6 = 1; _delay((unsigned long)((1)*(64000000/4000000.0
      +                          ))); LATDbits.LATD6 = 0;
  3664   00371E  8CC1               	bsf	193,6,c	;volatile
  3665   003720  0E05               	movlw	5
  3666   003722                     u2557:
  3667   003722  2EE8               	decfsz	wreg,f,c
  3668   003724  D7FE               	bra	u2557
  3669   003726  F000               	nop	
  3670   003728  9CC1               	bcf	193,6,c	;volatile
  3671   00372A                     
  3672                           ;C:/Users/a_hui/OneDrive - Camosun College/term2/ecet165_embedded_mc/labs/ecet165-labs/l
      +                          ab6/lcd18f.c: 47:     _delay((unsigned long)((5)*(64000000/4000.0)));
  3673   00372A  0E68               	movlw	104
  3674   00372C  6E04               	movwf	??_LCDinit^(0+1280),c
  3675   00372E  0EE4               	movlw	228
  3676   003730                     u2567:
  3677   003730  2EE8               	decfsz	wreg,f,c
  3678   003732  D7FE               	bra	u2567
  3679   003734  2E04               	decfsz	??_LCDinit^(0+1280),f,c
  3680   003736  D7FC               	bra	u2567
  3681   003738  D000               	nop2	
  3682   00373A                     
  3683                           ;C:/Users/a_hui/OneDrive - Camosun College/term2/ecet165_embedded_mc/labs/ecet165-labs/l
      +                          ab6/lcd18f.c: 49:     LATD = (LATD & 0xF0) | 0x03;
  3684   00373A  50C1               	movf	193,w,c	;volatile
  3685   00373C  0BF0               	andlw	240
  3686   00373E  0903               	iorlw	3
  3687   003740  6EC1               	movwf	193,c	;volatile
  3688   003742                     
  3689                           ;C:/Users/a_hui/OneDrive - Camosun College/term2/ecet165_embedded_mc/labs/ecet165-labs/l
      +                          ab6/lcd18f.c: 50:     LATDbits.LATD6 = 1; _delay((unsigned long)((1)*(64000000/4000000.0
      +                          ))); LATDbits.LATD6 = 0;
  3690   003742  8CC1               	bsf	193,6,c	;volatile
  3691   003744  0E05               	movlw	5
  3692   003746                     u2577:
  3693   003746  2EE8               	decfsz	wreg,f,c
  3694   003748  D7FE               	bra	u2577
  3695   00374A  F000               	nop	
  3696   00374C  9CC1               	bcf	193,6,c	;volatile
  3697                           
  3698                           ;C:/Users/a_hui/OneDrive - Camosun College/term2/ecet165_embedded_mc/labs/ecet165-labs/l
      +                          ab6/lcd18f.c: 51:     _delay((unsigned long)((5)*(64000000/4000.0)));
  3699   00374E  0E68               	movlw	104
  3700   003750  6E04               	movwf	??_LCDinit^(0+1280),c
  3701   003752  0EE4               	movlw	228
  3702   003754                     u2587:
  3703   003754  2EE8               	decfsz	wreg,f,c
  3704   003756  D7FE               	bra	u2587
  3705   003758  2E04               	decfsz	??_LCDinit^(0+1280),f,c
  3706   00375A  D7FC               	bra	u2587
  3707   00375C  D000               	nop2	
  3708   00375E                     
  3709                           ;C:/Users/a_hui/OneDrive - Camosun College/term2/ecet165_embedded_mc/labs/ecet165-labs/l
      +                          ab6/lcd18f.c: 53:     LATD = (LATD & 0xF0) | 0x03;
  3710   00375E  50C1               	movf	193,w,c	;volatile
  3711   003760  0BF0               	andlw	240
  3712   003762  0903               	iorlw	3
  3713   003764  6EC1               	movwf	193,c	;volatile
  3714   003766                     
  3715                           ;C:/Users/a_hui/OneDrive - Camosun College/term2/ecet165_embedded_mc/labs/ecet165-labs/l
      +                          ab6/lcd18f.c: 54:     LATDbits.LATD6 = 1; _delay((unsigned long)((1)*(64000000/4000000.0
      +                          ))); LATDbits.LATD6 = 0;
  3716   003766  8CC1               	bsf	193,6,c	;volatile
  3717   003768  0E05               	movlw	5
  3718   00376A                     u2597:
  3719   00376A  2EE8               	decfsz	wreg,f,c
  3720   00376C  D7FE               	bra	u2597
  3721   00376E  F000               	nop	
  3722   003770  9CC1               	bcf	193,6,c	;volatile
  3723   003772                     
  3724                           ;C:/Users/a_hui/OneDrive - Camosun College/term2/ecet165_embedded_mc/labs/ecet165-labs/l
      +                          ab6/lcd18f.c: 55:     _delay((unsigned long)((5)*(64000000/4000.0)));
  3725   003772  0E68               	movlw	104
  3726   003774  6E04               	movwf	??_LCDinit^(0+1280),c
  3727   003776  0EE4               	movlw	228
  3728   003778                     u2607:
  3729   003778  2EE8               	decfsz	wreg,f,c
  3730   00377A  D7FE               	bra	u2607
  3731   00377C  2E04               	decfsz	??_LCDinit^(0+1280),f,c
  3732   00377E  D7FC               	bra	u2607
  3733   003780  D000               	nop2	
  3734   003782                     
  3735                           ;C:/Users/a_hui/OneDrive - Camosun College/term2/ecet165_embedded_mc/labs/ecet165-labs/l
      +                          ab6/lcd18f.c: 58:     LATD = (LATD & 0xF0) | 0x02;
  3736   003782  50C1               	movf	193,w,c	;volatile
  3737   003784  0BF0               	andlw	240
  3738   003786  0902               	iorlw	2
  3739   003788  6EC1               	movwf	193,c	;volatile
  3740   00378A                     
  3741                           ;C:/Users/a_hui/OneDrive - Camosun College/term2/ecet165_embedded_mc/labs/ecet165-labs/l
      +                          ab6/lcd18f.c: 59:     LATDbits.LATD6 = 1; _delay((unsigned long)((1)*(64000000/4000000.0
      +                          ))); LATDbits.LATD6 = 0;
  3742   00378A  8CC1               	bsf	193,6,c	;volatile
  3743   00378C  0E05               	movlw	5
  3744   00378E                     u2617:
  3745   00378E  2EE8               	decfsz	wreg,f,c
  3746   003790  D7FE               	bra	u2617
  3747   003792  F000               	nop	
  3748   003794  9CC1               	bcf	193,6,c	;volatile
  3749                           
  3750                           ;C:/Users/a_hui/OneDrive - Camosun College/term2/ecet165_embedded_mc/labs/ecet165-labs/l
      +                          ab6/lcd18f.c: 60:     _delay((unsigned long)((5)*(64000000/4000.0)));
  3751   003796  0E68               	movlw	104
  3752   003798  6E04               	movwf	??_LCDinit^(0+1280),c
  3753   00379A  0EE4               	movlw	228
  3754   00379C                     u2627:
  3755   00379C  2EE8               	decfsz	wreg,f,c
  3756   00379E  D7FE               	bra	u2627
  3757   0037A0  2E04               	decfsz	??_LCDinit^(0+1280),f,c
  3758   0037A2  D7FC               	bra	u2627
  3759   0037A4  D000               	nop2	
  3760   0037A6                     
  3761                           ;C:/Users/a_hui/OneDrive - Camosun College/term2/ecet165_embedded_mc/labs/ecet165-labs/l
      +                          ab6/lcd18f.c: 63:     LCDinstruct(0x28);
  3762   0037A6  0E28               	movlw	40
  3763   0037A8  EC00  F01D         	call	_LCDinstruct
  3764   0037AC                     
  3765                           ;C:/Users/a_hui/OneDrive - Camosun College/term2/ecet165_embedded_mc/labs/ecet165-labs/l
      +                          ab6/lcd18f.c: 64:     LCDinstruct(0x08);
  3766   0037AC  0E08               	movlw	8
  3767   0037AE  EC00  F01D         	call	_LCDinstruct
  3768   0037B2                     
  3769                           ;C:/Users/a_hui/OneDrive - Camosun College/term2/ecet165_embedded_mc/labs/ecet165-labs/l
      +                          ab6/lcd18f.c: 65:     LCDinstruct(0x0F);
  3770   0037B2  0E0F               	movlw	15
  3771   0037B4  EC00  F01D         	call	_LCDinstruct
  3772   0037B8                     
  3773                           ;C:/Users/a_hui/OneDrive - Camosun College/term2/ecet165_embedded_mc/labs/ecet165-labs/l
      +                          ab6/lcd18f.c: 66:     LCDinstruct(0x01);
  3774   0037B8  0E01               	movlw	1
  3775   0037BA  EC00  F01D         	call	_LCDinstruct
  3776   0037BE                     
  3777                           ;C:/Users/a_hui/OneDrive - Camosun College/term2/ecet165_embedded_mc/labs/ecet165-labs/l
      +                          ab6/lcd18f.c: 67:     LCDinstruct(0x06);
  3778   0037BE  0E06               	movlw	6
  3779   0037C0  EC00  F01D         	call	_LCDinstruct
  3780   0037C4  0012               	return		;funcret
  3781   0037C6                     __end_of_LCDinit:
  3782                           	callstack 0
  3783                           
  3784 ;; *************** function _LCDinstruct *****************
  3785 ;; Defined at:
  3786 ;;		line 15 in file "C:/Users/a_hui/OneDrive - Camosun College/term2/ecet165_embedded_mc/labs/ecet165-labs/lab6/lcd18f.c
      +"
  3787 ;; Parameters:    Size  Location     Type
  3788 ;;  instr           1    wreg     unsigned char 
  3789 ;; Auto vars:     Size  Location     Type
  3790 ;;  instr           1    2[COMRAM] unsigned char 
  3791 ;; Return value:  Size  Location     Type
  3792 ;;                  1    wreg      void 
  3793 ;; Registers used:
  3794 ;;		wreg, status,2, status,0
  3795 ;; Tracked objects:
  3796 ;;		On entry : 0/0
  3797 ;;		On exit  : 0/0
  3798 ;;		Unchanged: 0/0
  3799 ;; Data sizes:     COMRAM   BANK5   BANK6   BANK7   BANK8   BANK9  BANK10  BANK11  BANK12  BANK13  BANK14  BANK15  BANK1
      +6  BANK17  BANK18  BANK19  BANK20  BANK21  BANK22  BANK23  BANK24  BANK25  BANK26  BANK27  BANK28  BANK29  BANK30  BANK3
      +1  BANK32  BANK33  BANK34  BANK35  BANK36
  3800 ;;      Params:         0       0       0       0       0       0       0       0       0       0       0       0       
      +0       0       0       0       0       0       0       0       0       0       0       0       0       0       0       
      +0       0       0       0       0       0
  3801 ;;      Locals:         1       0       0       0       0       0       0       0       0       0       0       0       
      +0       0       0       0       0       0       0       0       0       0       0       0       0       0       0       
      +0       0       0       0       0       0
  3802 ;;      Temps:          1       0       0       0       0       0       0       0       0       0       0       0       
      +0       0       0       0       0       0       0       0       0       0       0       0       0       0       0       
      +0       0       0       0       0       0
  3803 ;;      Totals:         2       0       0       0       0       0       0       0       0       0       0       0       
      +0       0       0       0       0       0       0       0       0       0       0       0       0       0       0       
      +0       0       0       0       0       0
  3804 ;;Total ram usage:        2 bytes
  3805 ;; Hardware stack levels used: 1
  3806 ;; Hardware stack levels required when called: 1
  3807 ;; This function calls:
  3808 ;;		Nothing
  3809 ;; This function is called by:
  3810 ;;		_LCDinit
  3811 ;;		_main
  3812 ;;		_RTCrun
  3813 ;;		_LCDgoto
  3814 ;; This function uses a non-reentrant model
  3815 ;;
  3816                           
  3817                           	psect	text15
  3818   003A00                     __ptext15:
  3819                           	callstack 0
  3820   003A00                     _LCDinstruct:
  3821                           	callstack 125
  3822                           
  3823                           ;incstack = 0
  3824                           ;LCDinstruct@instr stored from wreg
  3825   003A00  6E03               	movwf	LCDinstruct@instr^(0+1280),c
  3826   003A02                     
  3827                           ;C:/Users/a_hui/OneDrive - Camosun College/term2/ecet165_embedded_mc/labs/ecet165-labs/l
      +                          ab6/lcd18f.c: 17:     ANSELD = 0x0; TRISD = 0x0; WPUD = 0xFF; LATDbits.LATD7 = 1; _delay
      +                          ((unsigned long)((1)*(64000000/4000000.0)));
  3828   003A02  0E00               	movlw	0
  3829   003A04  0104               	movlb	4	; () banked
  3830   003A06  6F18               	movwf	24,b	;volatile
  3831   003A08  0E00               	movlw	0
  3832   003A0A  6EC9               	movwf	201,c	;volatile
  3833   003A0C                     
  3834                           ; BSR set to: 4
  3835   003A0C  6919               	setf	25,b	;volatile
  3836   003A0E                     
  3837                           ; BSR set to: 4
  3838   003A0E  8EC1               	bsf	193,7,c	;volatile
  3839   003A10                     
  3840                           ; BSR set to: 4
  3841   003A10  0E05               	movlw	5
  3842   003A12                     u2637:
  3843   003A12  2EE8               	decfsz	wreg,f,c
  3844   003A14  D7FE               	bra	u2637
  3845   003A16  F000               	nop	
  3846   003A18                     
  3847                           ;C:/Users/a_hui/OneDrive - Camosun College/term2/ecet165_embedded_mc/labs/ecet165-labs/l
      +                          ab6/lcd18f.c: 20:     LATDbits.LATD5 = 0;
  3848   003A18  9AC1               	bcf	193,5,c	;volatile
  3849   003A1A                     
  3850                           ;C:/Users/a_hui/OneDrive - Camosun College/term2/ecet165_embedded_mc/labs/ecet165-labs/l
      +                          ab6/lcd18f.c: 21:     LATDbits.LATD4 = 0;
  3851   003A1A  98C1               	bcf	193,4,c	;volatile
  3852   003A1C                     
  3853                           ;C:/Users/a_hui/OneDrive - Camosun College/term2/ecet165_embedded_mc/labs/ecet165-labs/l
      +                          ab6/lcd18f.c: 24:     LATD = (LATD & 0xF0)| (instr >> 4 & 0x0F);
  3854   003A1C  C503  F502         	movff	LCDinstruct@instr,??_LCDinstruct
  3855   003A20  3A02               	swapf	??_LCDinstruct^(0+1280),f,c
  3856   003A22  0E0F               	movlw	15
  3857   003A24  1602               	andwf	??_LCDinstruct^(0+1280),f,c
  3858   003A26  0E0F               	movlw	15
  3859   003A28  1602               	andwf	??_LCDinstruct^(0+1280),f,c
  3860   003A2A  50C1               	movf	193,w,c	;volatile
  3861   003A2C  0BF0               	andlw	240
  3862   003A2E  1002               	iorwf	??_LCDinstruct^(0+1280),w,c
  3863   003A30  6EC1               	movwf	193,c	;volatile
  3864   003A32                     
  3865                           ;C:/Users/a_hui/OneDrive - Camosun College/term2/ecet165_embedded_mc/labs/ecet165-labs/l
      +                          ab6/lcd18f.c: 25:     LATDbits.LATD6 = 1; _delay((unsigned long)((1)*(64000000/4000000.0
      +                          ))); LATDbits.LATD6 = 0;
  3866   003A32  8CC1               	bsf	193,6,c	;volatile
  3867   003A34  0E05               	movlw	5
  3868   003A36                     u2647:
  3869   003A36  2EE8               	decfsz	wreg,f,c
  3870   003A38  D7FE               	bra	u2647
  3871   003A3A  F000               	nop	
  3872   003A3C  9CC1               	bcf	193,6,c	;volatile
  3873   003A3E                     
  3874                           ;C:/Users/a_hui/OneDrive - Camosun College/term2/ecet165_embedded_mc/labs/ecet165-labs/l
      +                          ab6/lcd18f.c: 26:     _delay((unsigned long)((1)*(64000000/4000000.0)));
  3875   003A3E  0E05               	movlw	5
  3876   003A40                     u2657:
  3877   003A40  2EE8               	decfsz	wreg,f,c
  3878   003A42  D7FE               	bra	u2657
  3879   003A44  F000               	nop	
  3880   003A46                     
  3881                           ;C:/Users/a_hui/OneDrive - Camosun College/term2/ecet165_embedded_mc/labs/ecet165-labs/l
      +                          ab6/lcd18f.c: 27:     LATD = (LATD & 0xF0)|(instr & 0x0F);
  3882   003A46  C503  F502         	movff	LCDinstruct@instr,??_LCDinstruct
  3883   003A4A  0E0F               	movlw	15
  3884   003A4C  1602               	andwf	??_LCDinstruct^(0+1280),f,c
  3885   003A4E  50C1               	movf	193,w,c	;volatile
  3886   003A50  0BF0               	andlw	240
  3887   003A52  1002               	iorwf	??_LCDinstruct^(0+1280),w,c
  3888   003A54  6EC1               	movwf	193,c	;volatile
  3889   003A56                     
  3890                           ;C:/Users/a_hui/OneDrive - Camosun College/term2/ecet165_embedded_mc/labs/ecet165-labs/l
      +                          ab6/lcd18f.c: 28:     LATDbits.LATD6 = 1; _delay((unsigned long)((1)*(64000000/4000000.0
      +                          ))); LATDbits.LATD6 = 0;
  3891   003A56  8CC1               	bsf	193,6,c	;volatile
  3892   003A58  0E05               	movlw	5
  3893   003A5A                     u2667:
  3894   003A5A  2EE8               	decfsz	wreg,f,c
  3895   003A5C  D7FE               	bra	u2667
  3896   003A5E  F000               	nop	
  3897   003A60  9CC1               	bcf	193,6,c	;volatile
  3898   003A62                     
  3899                           ;C:/Users/a_hui/OneDrive - Camosun College/term2/ecet165_embedded_mc/labs/ecet165-labs/l
      +                          ab6/lcd18f.c: 29:     _delay((unsigned long)((5)*(64000000/4000.0)));
  3900   003A62  0E68               	movlw	104
  3901   003A64  6E02               	movwf	??_LCDinstruct^(0+1280),c
  3902   003A66  0EE4               	movlw	228
  3903   003A68                     u2677:
  3904   003A68  2EE8               	decfsz	wreg,f,c
  3905   003A6A  D7FE               	bra	u2677
  3906   003A6C  2E02               	decfsz	??_LCDinstruct^(0+1280),f,c
  3907   003A6E  D7FC               	bra	u2677
  3908   003A70  D000               	nop2	
  3909   003A72  0012               	return		;funcret
  3910   003A74                     __end_of_LCDinstruct:
  3911                           	callstack 0
  3912                           
  3913 ;; *************** function _setINT *****************
  3914 ;; Defined at:
  3915 ;;		line 80 in file "C:/Users/a_hui/OneDrive - Camosun College/term2/ecet165_embedded_mc/labs/ecet165-labs/lab9/RealTime
      +Clock.c"
  3916 ;; Parameters:    Size  Location     Type
  3917 ;;		None
  3918 ;; Auto vars:     Size  Location     Type
  3919 ;;		None
  3920 ;; Return value:  Size  Location     Type
  3921 ;;                  1    wreg      void 
  3922 ;; Registers used:
  3923 ;;		wreg, status,2
  3924 ;; Tracked objects:
  3925 ;;		On entry : 0/0
  3926 ;;		On exit  : 0/0
  3927 ;;		Unchanged: 0/0
  3928 ;; Data sizes:     COMRAM   BANK5   BANK6   BANK7   BANK8   BANK9  BANK10  BANK11  BANK12  BANK13  BANK14  BANK15  BANK1
      +6  BANK17  BANK18  BANK19  BANK20  BANK21  BANK22  BANK23  BANK24  BANK25  BANK26  BANK27  BANK28  BANK29  BANK30  BANK3
      +1  BANK32  BANK33  BANK34  BANK35  BANK36
  3929 ;;      Params:         0       0       0       0       0       0       0       0       0       0       0       0       
      +0       0       0       0       0       0       0       0       0       0       0       0       0       0       0       
      +0       0       0       0       0       0
  3930 ;;      Locals:         0       0       0       0       0       0       0       0       0       0       0       0       
      +0       0       0       0       0       0       0       0       0       0       0       0       0       0       0       
      +0       0       0       0       0       0
  3931 ;;      Temps:          1       0       0       0       0       0       0       0       0       0       0       0       
      +0       0       0       0       0       0       0       0       0       0       0       0       0       0       0       
      +0       0       0       0       0       0
  3932 ;;      Totals:         1       0       0       0       0       0       0       0       0       0       0       0       
      +0       0       0       0       0       0       0       0       0       0       0       0       0       0       0       
      +0       0       0       0       0       0
  3933 ;;Total ram usage:        1 bytes
  3934 ;; Hardware stack levels used: 1
  3935 ;; This function calls:
  3936 ;;		Nothing
  3937 ;; This function is called by:
  3938 ;;		Interrupt level 1
  3939 ;; This function uses a non-reentrant model
  3940 ;;
  3941                           
  3942                           	psect	text16
  3943   003BF4                     __ptext16:
  3944                           	callstack 0
  3945   003BF4                     _setINT:
  3946                           	callstack 123
  3947                           
  3948                           ;incstack = 0
  3949   003BF4  C4D8 F501          	movff	status,??_setINT
  3950   003BF8                     
  3951                           ;C:/Users/a_hui/OneDrive - Camosun College/term2/ecet165_embedded_mc/labs/ecet165-labs/l
      +                          ab9/RealTimeClock.c: 81:     IOCBN4 = 0;
  3952   003BF8  0104               	movlb	4	; () banked
  3953   003BFA  990E               	bcf	14,4,b	;volatile
  3954                           
  3955                           ;C:/Users/a_hui/OneDrive - Camosun College/term2/ecet165_embedded_mc/labs/ecet165-labs/l
      +                          ab9/RealTimeClock.c: 82:     IOCBF4 = 0;
  3956   003BFC  990F               	bcf	15,4,b	;volatile
  3957                           
  3958                           ;C:/Users/a_hui/OneDrive - Camosun College/term2/ecet165_embedded_mc/labs/ecet165-labs/l
      +                          ab9/RealTimeClock.c: 83:     T0CON0bits.EN = 0;
  3959   003BFE  0103               	movlb	3	; () banked
  3960   003C00  9F1A               	bcf	26,7,b	;volatile
  3961   003C02                     
  3962                           ; BSR set to: 3
  3963                           ;C:/Users/a_hui/OneDrive - Camosun College/term2/ecet165_embedded_mc/labs/ecet165-labs/l
      +                          ab9/RealTimeClock.c: 84:     nSetRTC = 0;
  3964   003C02  0E00               	movlw	0
  3965   003C04  6E5D               	movwf	_nSetRTC^(0+1280),c
  3966   003C06                     
  3967                           ; BSR set to: 3
  3968   003C06  C501  F4D8         	movff	??_setINT,status
  3969   003C0A  0011               	retfie		f
  3970   003C0C                     __end_of_setINT:
  3971                           	callstack 0
  3972                           
  3973                           ;
  3974                           ; Interrupt Vector Table @ 0x8
  3975                           ;
  3976                           
  3977                           	psect	ivt0x8
  3978   000008                     __pivt0x8:
  3979                           	callstack 0
  3980   000008                     ivt0x8_base:
  3981                           	callstack 0
  3982                           
  3983                           ; Vector 0 : SWINT
  3984   000008  0040               	dw	ivt0x8_undefint shr (0+2)
  3985                           
  3986                           ; Vector 1 : HLVD
  3987   00000A  0040               	dw	ivt0x8_undefint shr (0+2)
  3988                           
  3989                           ; Vector 2 : OSF
  3990   00000C  0040               	dw	ivt0x8_undefint shr (0+2)
  3991                           
  3992                           ; Vector 3 : CSW
  3993   00000E  0040               	dw	ivt0x8_undefint shr (0+2)
  3994                           
  3995                           ; Vector 4 : Undefined
  3996   000010  0040               	dw	ivt0x8_undefint shr (0+2)
  3997                           
  3998                           ; Vector 5 : CLC1
  3999   000012  0040               	dw	ivt0x8_undefint shr (0+2)
  4000                           
  4001                           ; Vector 6 : Undefined
  4002   000014  0040               	dw	ivt0x8_undefint shr (0+2)
  4003                           
  4004                           ; Vector 7 : IOC
  4005   000016  0EFD               	dw	_setINT shr (0+2)
  4006                           
  4007                           ; Vector 8 : INT0
  4008   000018  0040               	dw	ivt0x8_undefint shr (0+2)
  4009                           
  4010                           ; Vector 9 : ZCD
  4011   00001A  0040               	dw	ivt0x8_undefint shr (0+2)
  4012                           
  4013                           ; Vector 10 : AD
  4014   00001C  0040               	dw	ivt0x8_undefint shr (0+2)
  4015                           
  4016                           ; Vector 11 : ACT
  4017   00001E  0040               	dw	ivt0x8_undefint shr (0+2)
  4018                           
  4019                           ; Vector 12 : CMP1
  4020   000020  0040               	dw	ivt0x8_undefint shr (0+2)
  4021                           
  4022                           ; Vector 13 : SMT1
  4023   000022  0040               	dw	ivt0x8_undefint shr (0+2)
  4024                           
  4025                           ; Vector 14 : SMT1PRA
  4026   000024  0040               	dw	ivt0x8_undefint shr (0+2)
  4027                           
  4028                           ; Vector 15 : SMT1PRW
  4029   000026  0040               	dw	ivt0x8_undefint shr (0+2)
  4030                           
  4031                           ; Vector 16 : ADT
  4032   000028  0040               	dw	ivt0x8_undefint shr (0+2)
  4033                           
  4034                           ; Vector 17 : Undefined
  4035   00002A  0040               	dw	ivt0x8_undefint shr (0+2)
  4036                           
  4037                           ; Vector 18 : Undefined
  4038   00002C  0040               	dw	ivt0x8_undefint shr (0+2)
  4039                           
  4040                           ; Vector 19 : Undefined
  4041   00002E  0040               	dw	ivt0x8_undefint shr (0+2)
  4042                           
  4043                           ; Vector 20 : DMA1SCNT
  4044   000030  0040               	dw	ivt0x8_undefint shr (0+2)
  4045                           
  4046                           ; Vector 21 : DMA1DCNT
  4047   000032  0040               	dw	ivt0x8_undefint shr (0+2)
  4048                           
  4049                           ; Vector 22 : DMA1OR
  4050   000034  0040               	dw	ivt0x8_undefint shr (0+2)
  4051                           
  4052                           ; Vector 23 : DMA1A
  4053   000036  0040               	dw	ivt0x8_undefint shr (0+2)
  4054                           
  4055                           ; Vector 24 : SPI1RX
  4056   000038  0040               	dw	ivt0x8_undefint shr (0+2)
  4057                           
  4058                           ; Vector 25 : SPI1TX
  4059   00003A  0040               	dw	ivt0x8_undefint shr (0+2)
  4060                           
  4061                           ; Vector 26 : SPI1
  4062   00003C  0040               	dw	ivt0x8_undefint shr (0+2)
  4063                           
  4064                           ; Vector 27 : TMR2
  4065   00003E  0040               	dw	ivt0x8_undefint shr (0+2)
  4066                           
  4067                           ; Vector 28 : TMR1
  4068   000040  0040               	dw	ivt0x8_undefint shr (0+2)
  4069                           
  4070                           ; Vector 29 : TMR1G
  4071   000042  0040               	dw	ivt0x8_undefint shr (0+2)
  4072                           
  4073                           ; Vector 30 : CCP1
  4074   000044  0040               	dw	ivt0x8_undefint shr (0+2)
  4075                           
  4076                           ; Vector 31 : TMR0
  4077   000046  0040               	dw	ivt0x8_undefint shr (0+2)
  4078                           
  4079                           ; Vector 32 : U1RX
  4080   000048  0040               	dw	ivt0x8_undefint shr (0+2)
  4081                           
  4082                           ; Vector 33 : U1TX
  4083   00004A  0040               	dw	ivt0x8_undefint shr (0+2)
  4084                           
  4085                           ; Vector 34 : U1E
  4086   00004C  0040               	dw	ivt0x8_undefint shr (0+2)
  4087                           
  4088                           ; Vector 35 : U1
  4089   00004E  0040               	dw	ivt0x8_undefint shr (0+2)
  4090                           
  4091                           ; Vector 36 : Undefined
  4092   000050  0040               	dw	ivt0x8_undefint shr (0+2)
  4093                           
  4094                           ; Vector 37 : Undefined
  4095   000052  0040               	dw	ivt0x8_undefint shr (0+2)
  4096                           
  4097                           ; Vector 38 : PWM1PR
  4098   000054  0040               	dw	ivt0x8_undefint shr (0+2)
  4099                           
  4100                           ; Vector 39 : PWM1
  4101   000056  0040               	dw	ivt0x8_undefint shr (0+2)
  4102                           
  4103                           ; Vector 40 : SPI2RX
  4104   000058  0040               	dw	ivt0x8_undefint shr (0+2)
  4105                           
  4106                           ; Vector 41 : SPI2TX
  4107   00005A  0040               	dw	ivt0x8_undefint shr (0+2)
  4108                           
  4109                           ; Vector 42 : SPI2
  4110   00005C  0040               	dw	ivt0x8_undefint shr (0+2)
  4111                           
  4112                           ; Vector 43 : Undefined
  4113   00005E  0040               	dw	ivt0x8_undefint shr (0+2)
  4114                           
  4115                           ; Vector 44 : TMR3
  4116   000060  0040               	dw	ivt0x8_undefint shr (0+2)
  4117                           
  4118                           ; Vector 45 : TMR3G
  4119   000062  0040               	dw	ivt0x8_undefint shr (0+2)
  4120                           
  4121                           ; Vector 46 : PWM2PR
  4122   000064  0040               	dw	ivt0x8_undefint shr (0+2)
  4123                           
  4124                           ; Vector 47 : PWM2
  4125   000066  0040               	dw	ivt0x8_undefint shr (0+2)
  4126                           
  4127                           ; Vector 48 : INT1
  4128   000068  0040               	dw	ivt0x8_undefint shr (0+2)
  4129                           
  4130                           ; Vector 49 : CLC2
  4131   00006A  0040               	dw	ivt0x8_undefint shr (0+2)
  4132                           
  4133                           ; Vector 50 : CWG1
  4134   00006C  0040               	dw	ivt0x8_undefint shr (0+2)
  4135                           
  4136                           ; Vector 51 : NCO1
  4137   00006E  0040               	dw	ivt0x8_undefint shr (0+2)
  4138                           
  4139                           ; Vector 52 : DMA2SCNT
  4140   000070  0040               	dw	ivt0x8_undefint shr (0+2)
  4141                           
  4142                           ; Vector 53 : DMA2DCNT
  4143   000072  0040               	dw	ivt0x8_undefint shr (0+2)
  4144                           
  4145                           ; Vector 54 : DMA2OR
  4146   000074  0040               	dw	ivt0x8_undefint shr (0+2)
  4147                           
  4148                           ; Vector 55 : DMA2A
  4149   000076  0040               	dw	ivt0x8_undefint shr (0+2)
  4150                           
  4151                           ; Vector 56 : I2C1RX
  4152   000078  0040               	dw	ivt0x8_undefint shr (0+2)
  4153                           
  4154                           ; Vector 57 : I2C1TX
  4155   00007A  0040               	dw	ivt0x8_undefint shr (0+2)
  4156                           
  4157                           ; Vector 58 : I2C1
  4158   00007C  0040               	dw	ivt0x8_undefint shr (0+2)
  4159                           
  4160                           ; Vector 59 : I2C1E
  4161   00007E  0040               	dw	ivt0x8_undefint shr (0+2)
  4162                           
  4163                           ; Vector 60 : Undefined
  4164   000080  0040               	dw	ivt0x8_undefint shr (0+2)
  4165                           
  4166                           ; Vector 61 : CLC3
  4167   000082  0040               	dw	ivt0x8_undefint shr (0+2)
  4168                           
  4169                           ; Vector 62 : PWM3PR
  4170   000084  0040               	dw	ivt0x8_undefint shr (0+2)
  4171                           
  4172                           ; Vector 63 : PWM3
  4173   000086  0040               	dw	ivt0x8_undefint shr (0+2)
  4174                           
  4175                           ; Vector 64 : U2RX
  4176   000088  0040               	dw	ivt0x8_undefint shr (0+2)
  4177                           
  4178                           ; Vector 65 : U2TX
  4179   00008A  0040               	dw	ivt0x8_undefint shr (0+2)
  4180                           
  4181                           ; Vector 66 : U2E
  4182   00008C  0040               	dw	ivt0x8_undefint shr (0+2)
  4183                           
  4184                           ; Vector 67 : U2
  4185   00008E  0040               	dw	ivt0x8_undefint shr (0+2)
  4186                           
  4187                           ; Vector 68 : TMR5
  4188   000090  0040               	dw	ivt0x8_undefint shr (0+2)
  4189                           
  4190                           ; Vector 69 : TMR5G
  4191   000092  0040               	dw	ivt0x8_undefint shr (0+2)
  4192                           
  4193                           ; Vector 70 : CCP2
  4194   000094  0040               	dw	ivt0x8_undefint shr (0+2)
  4195                           
  4196                           ; Vector 71 : SCAN
  4197   000096  0040               	dw	ivt0x8_undefint shr (0+2)
  4198                           
  4199                           ; Vector 72 : U3RX
  4200   000098  0040               	dw	ivt0x8_undefint shr (0+2)
  4201                           
  4202                           ; Vector 73 : U3TX
  4203   00009A  0040               	dw	ivt0x8_undefint shr (0+2)
  4204                           
  4205                           ; Vector 74 : U3E
  4206   00009C  0040               	dw	ivt0x8_undefint shr (0+2)
  4207                           
  4208                           ; Vector 75 : U3
  4209   00009E  0040               	dw	ivt0x8_undefint shr (0+2)
  4210                           
  4211                           ; Vector 76 : Undefined
  4212   0000A0  0040               	dw	ivt0x8_undefint shr (0+2)
  4213                           
  4214                           ; Vector 77 : CLC4
  4215   0000A2  0040               	dw	ivt0x8_undefint shr (0+2)
  4216                           
  4217                           ; Vector 78 : Undefined
  4218   0000A4  0040               	dw	ivt0x8_undefint shr (0+2)
  4219                           
  4220                           ; Vector 79 : Undefined
  4221   0000A6  0040               	dw	ivt0x8_undefint shr (0+2)
  4222                           
  4223                           ; Vector 80 : INT2
  4224   0000A8  0040               	dw	ivt0x8_undefint shr (0+2)
  4225                           
  4226                           ; Vector 81 : CLC5
  4227   0000AA  0040               	dw	ivt0x8_undefint shr (0+2)
  4228                           
  4229                           ; Vector 82 : CWG2
  4230   0000AC  0040               	dw	ivt0x8_undefint shr (0+2)
  4231                           
  4232                           ; Vector 83 : NCO2
  4233   0000AE  0040               	dw	ivt0x8_undefint shr (0+2)
  4234                           
  4235                           ; Vector 84 : DMA3SCNT
  4236   0000B0  0040               	dw	ivt0x8_undefint shr (0+2)
  4237                           
  4238                           ; Vector 85 : DMA3DCNT
  4239   0000B2  0040               	dw	ivt0x8_undefint shr (0+2)
  4240                           
  4241                           ; Vector 86 : DMA3OR
  4242   0000B4  0040               	dw	ivt0x8_undefint shr (0+2)
  4243                           
  4244                           ; Vector 87 : DMA3A
  4245   0000B6  0040               	dw	ivt0x8_undefint shr (0+2)
  4246                           
  4247                           ; Vector 88 : CCP3
  4248   0000B8  0040               	dw	ivt0x8_undefint shr (0+2)
  4249                           
  4250                           ; Vector 89 : CLC6
  4251   0000BA  0040               	dw	ivt0x8_undefint shr (0+2)
  4252                           
  4253                           ; Vector 90 : CWG3
  4254   0000BC  0040               	dw	ivt0x8_undefint shr (0+2)
  4255                           
  4256                           ; Vector 91 : TMR4
  4257   0000BE  0040               	dw	ivt0x8_undefint shr (0+2)
  4258                           
  4259                           ; Vector 92 : DMA4SCNT
  4260   0000C0  0040               	dw	ivt0x8_undefint shr (0+2)
  4261                           
  4262                           ; Vector 93 : DMA4DCNT
  4263   0000C2  0040               	dw	ivt0x8_undefint shr (0+2)
  4264                           
  4265                           ; Vector 94 : DMA4OR
  4266   0000C4  0040               	dw	ivt0x8_undefint shr (0+2)
  4267                           
  4268                           ; Vector 95 : DMA4A
  4269   0000C6  0040               	dw	ivt0x8_undefint shr (0+2)
  4270                           
  4271                           ; Vector 96 : U4RX
  4272   0000C8  0040               	dw	ivt0x8_undefint shr (0+2)
  4273                           
  4274                           ; Vector 97 : U4TX
  4275   0000CA  0040               	dw	ivt0x8_undefint shr (0+2)
  4276                           
  4277                           ; Vector 98 : U4E
  4278   0000CC  0040               	dw	ivt0x8_undefint shr (0+2)
  4279                           
  4280                           ; Vector 99 : U4
  4281   0000CE  0040               	dw	ivt0x8_undefint shr (0+2)
  4282                           
  4283                           ; Vector 100 : DMA5SCNT
  4284   0000D0  0040               	dw	ivt0x8_undefint shr (0+2)
  4285                           
  4286                           ; Vector 101 : DMA5DCNT
  4287   0000D2  0040               	dw	ivt0x8_undefint shr (0+2)
  4288                           
  4289                           ; Vector 102 : DMA5OR
  4290   0000D4  0040               	dw	ivt0x8_undefint shr (0+2)
  4291                           
  4292                           ; Vector 103 : DMA5A
  4293   0000D6  0040               	dw	ivt0x8_undefint shr (0+2)
  4294                           
  4295                           ; Vector 104 : U5RX
  4296   0000D8  0040               	dw	ivt0x8_undefint shr (0+2)
  4297                           
  4298                           ; Vector 105 : U5TX
  4299   0000DA  0040               	dw	ivt0x8_undefint shr (0+2)
  4300                           
  4301                           ; Vector 106 : U5E
  4302   0000DC  0040               	dw	ivt0x8_undefint shr (0+2)
  4303                           
  4304                           ; Vector 107 : U5
  4305   0000DE  0040               	dw	ivt0x8_undefint shr (0+2)
  4306                           
  4307                           ; Vector 108 : DMA6SCNT
  4308   0000E0  0040               	dw	ivt0x8_undefint shr (0+2)
  4309                           
  4310                           ; Vector 109 : DMA6DCNT
  4311   0000E2  0040               	dw	ivt0x8_undefint shr (0+2)
  4312                           
  4313                           ; Vector 110 : DMA6OR
  4314   0000E4  0040               	dw	ivt0x8_undefint shr (0+2)
  4315                           
  4316                           ; Vector 111 : DMA6A
  4317   0000E6  0040               	dw	ivt0x8_undefint shr (0+2)
  4318                           
  4319                           ; Vector 112 : Undefined
  4320   0000E8  0040               	dw	ivt0x8_undefint shr (0+2)
  4321                           
  4322                           ; Vector 113 : CLC7
  4323   0000EA  0040               	dw	ivt0x8_undefint shr (0+2)
  4324                           
  4325                           ; Vector 114 : CMP2
  4326   0000EC  0040               	dw	ivt0x8_undefint shr (0+2)
  4327                           
  4328                           ; Vector 115 : NCO3
  4329   0000EE  0040               	dw	ivt0x8_undefint shr (0+2)
  4330                           
  4331                           ; Vector 116 : Undefined
  4332   0000F0  0040               	dw	ivt0x8_undefint shr (0+2)
  4333                           
  4334                           ; Vector 117 : Undefined
  4335   0000F2  0040               	dw	ivt0x8_undefint shr (0+2)
  4336                           
  4337                           ; Vector 118 : Undefined
  4338   0000F4  0040               	dw	ivt0x8_undefint shr (0+2)
  4339                           
  4340                           ; Vector 119 : Undefined
  4341   0000F6  0040               	dw	ivt0x8_undefint shr (0+2)
  4342                           
  4343                           ; Vector 120 : NVM
  4344   0000F8  0040               	dw	ivt0x8_undefint shr (0+2)
  4345                           
  4346                           ; Vector 121 : CLC8
  4347   0000FA  0040               	dw	ivt0x8_undefint shr (0+2)
  4348                           
  4349                           ; Vector 122 : CRC
  4350   0000FC  0040               	dw	ivt0x8_undefint shr (0+2)
  4351                           
  4352                           ; Vector 123 : TMR6
  4353   0000FE  0040               	dw	ivt0x8_undefint shr (0+2)
  4354   000100                     ivt0x8_undefint:
  4355                           	callstack 0
  4356   000100  00FF               	reset	
  4357                           
  4358                           	psect	rparam
  4359   000000                     
  4360                           	psect	idloc
  4361                           
  4362                           ;Config register IDLOC0 @ 0x200000
  4363                           ;	unspecified, using default values
  4364   200000                     	org	2097152
  4365   200000  FFFF               	dw	65535
  4366                           
  4367                           ;Config register IDLOC1 @ 0x200002
  4368                           ;	unspecified, using default values
  4369   200002                     	org	2097154
  4370   200002  FFFF               	dw	65535
  4371                           
  4372                           ;Config register IDLOC2 @ 0x200004
  4373                           ;	unspecified, using default values
  4374   200004                     	org	2097156
  4375   200004  FFFF               	dw	65535
  4376                           
  4377                           ;Config register IDLOC3 @ 0x200006
  4378                           ;	unspecified, using default values
  4379   200006                     	org	2097158
  4380   200006  FFFF               	dw	65535
  4381                           
  4382                           ;Config register IDLOC4 @ 0x200008
  4383                           ;	unspecified, using default values
  4384   200008                     	org	2097160
  4385   200008  FFFF               	dw	65535
  4386                           
  4387                           ;Config register IDLOC5 @ 0x20000A
  4388                           ;	unspecified, using default values
  4389   20000A                     	org	2097162
  4390   20000A  FFFF               	dw	65535
  4391                           
  4392                           ;Config register IDLOC6 @ 0x20000C
  4393                           ;	unspecified, using default values
  4394   20000C                     	org	2097164
  4395   20000C  FFFF               	dw	65535
  4396                           
  4397                           ;Config register IDLOC7 @ 0x20000E
  4398                           ;	unspecified, using default values
  4399   20000E                     	org	2097166
  4400   20000E  FFFF               	dw	65535
  4401                           
  4402                           ;Config register IDLOC8 @ 0x200010
  4403                           ;	unspecified, using default values
  4404   200010                     	org	2097168
  4405   200010  FFFF               	dw	65535
  4406                           
  4407                           ;Config register IDLOC9 @ 0x200012
  4408                           ;	unspecified, using default values
  4409   200012                     	org	2097170
  4410   200012  FFFF               	dw	65535
  4411                           
  4412                           ;Config register IDLOC10 @ 0x200014
  4413                           ;	unspecified, using default values
  4414   200014                     	org	2097172
  4415   200014  FFFF               	dw	65535
  4416                           
  4417                           ;Config register IDLOC11 @ 0x200016
  4418                           ;	unspecified, using default values
  4419   200016                     	org	2097174
  4420   200016  FFFF               	dw	65535
  4421                           
  4422                           ;Config register IDLOC12 @ 0x200018
  4423                           ;	unspecified, using default values
  4424   200018                     	org	2097176
  4425   200018  FFFF               	dw	65535
  4426                           
  4427                           ;Config register IDLOC13 @ 0x20001A
  4428                           ;	unspecified, using default values
  4429   20001A                     	org	2097178
  4430   20001A  FFFF               	dw	65535
  4431                           
  4432                           ;Config register IDLOC14 @ 0x20001C
  4433                           ;	unspecified, using default values
  4434   20001C                     	org	2097180
  4435   20001C  FFFF               	dw	65535
  4436                           
  4437                           ;Config register IDLOC15 @ 0x20001E
  4438                           ;	unspecified, using default values
  4439   20001E                     	org	2097182
  4440   20001E  FFFF               	dw	65535
  4441                           
  4442                           ;Config register IDLOC16 @ 0x200020
  4443                           ;	unspecified, using default values
  4444   200020                     	org	2097184
  4445   200020  FFFF               	dw	65535
  4446                           
  4447                           ;Config register IDLOC17 @ 0x200022
  4448                           ;	unspecified, using default values
  4449   200022                     	org	2097186
  4450   200022  FFFF               	dw	65535
  4451                           
  4452                           ;Config register IDLOC18 @ 0x200024
  4453                           ;	unspecified, using default values
  4454   200024                     	org	2097188
  4455   200024  FFFF               	dw	65535
  4456                           
  4457                           ;Config register IDLOC19 @ 0x200026
  4458                           ;	unspecified, using default values
  4459   200026                     	org	2097190
  4460   200026  FFFF               	dw	65535
  4461                           
  4462                           ;Config register IDLOC20 @ 0x200028
  4463                           ;	unspecified, using default values
  4464   200028                     	org	2097192
  4465   200028  FFFF               	dw	65535
  4466                           
  4467                           ;Config register IDLOC21 @ 0x20002A
  4468                           ;	unspecified, using default values
  4469   20002A                     	org	2097194
  4470   20002A  FFFF               	dw	65535
  4471                           
  4472                           ;Config register IDLOC22 @ 0x20002C
  4473                           ;	unspecified, using default values
  4474   20002C                     	org	2097196
  4475   20002C  FFFF               	dw	65535
  4476                           
  4477                           ;Config register IDLOC23 @ 0x20002E
  4478                           ;	unspecified, using default values
  4479   20002E                     	org	2097198
  4480   20002E  FFFF               	dw	65535
  4481                           
  4482                           ;Config register IDLOC24 @ 0x200030
  4483                           ;	unspecified, using default values
  4484   200030                     	org	2097200
  4485   200030  FFFF               	dw	65535
  4486                           
  4487                           ;Config register IDLOC25 @ 0x200032
  4488                           ;	unspecified, using default values
  4489   200032                     	org	2097202
  4490   200032  FFFF               	dw	65535
  4491                           
  4492                           ;Config register IDLOC26 @ 0x200034
  4493                           ;	unspecified, using default values
  4494   200034                     	org	2097204
  4495   200034  FFFF               	dw	65535
  4496                           
  4497                           ;Config register IDLOC27 @ 0x200036
  4498                           ;	unspecified, using default values
  4499   200036                     	org	2097206
  4500   200036  FFFF               	dw	65535
  4501                           
  4502                           ;Config register IDLOC28 @ 0x200038
  4503                           ;	unspecified, using default values
  4504   200038                     	org	2097208
  4505   200038  FFFF               	dw	65535
  4506                           
  4507                           ;Config register IDLOC29 @ 0x20003A
  4508                           ;	unspecified, using default values
  4509   20003A                     	org	2097210
  4510   20003A  FFFF               	dw	65535
  4511                           
  4512                           ;Config register IDLOC30 @ 0x20003C
  4513                           ;	unspecified, using default values
  4514   20003C                     	org	2097212
  4515   20003C  FFFF               	dw	65535
  4516                           
  4517                           ;Config register IDLOC31 @ 0x20003E
  4518                           ;	unspecified, using default values
  4519   20003E                     	org	2097214
  4520   20003E  FFFF               	dw	65535
  4521                           
  4522                           	psect	config
  4523                           
  4524                           ;Config register CONFIG1 @ 0x300000
  4525                           ;	External Oscillator Selection
  4526                           ;	FEXTOSC = OFF, Oscillator not enabled
  4527                           ;	Reset Oscillator Selection
  4528                           ;	RSTOSC = HFINTOSC_64MHZ, HFINTOSC with HFFRQ = 64 MHz and CDIV = 1:1
  4529   300000                     	org	3145728
  4530   300000  8C                 	db	140
  4531                           
  4532                           ;Config register CONFIG2 @ 0x300001
  4533                           ;	Clock out Enable bit
  4534                           ;	CLKOUTEN = OFF, CLKOUT function is disabled
  4535                           ;	PRLOCKED One-Way Set Enable bit
  4536                           ;	PR1WAY = ON, PRLOCKED bit can be cleared and set only once
  4537                           ;	Clock Switch Enable bit
  4538                           ;	CSWEN = ON, Writing to NOSC and NDIV is allowed
  4539                           ;	Fail-Safe Clock Monitor Enable bit
  4540                           ;	FCMEN = ON, Fail-Safe Clock Monitor enabled
  4541   300001                     	org	3145729
  4542   300001  FF                 	db	255
  4543                           
  4544                           ;Config register CONFIG3 @ 0x300002
  4545                           ;	MCLR Enable bit
  4546                           ;	MCLRE = EXTMCLR, If LVP = 0, MCLR pin is MCLR; If LVP = 1, RE3 pin function is MCLR
  4547                           ;	Power-up timer selection bits
  4548                           ;	PWRTS = PWRT_OFF, PWRT is disabled
  4549                           ;	Multi-vector enable bit
  4550                           ;	MVECEN = ON, Multi-vector enabled, Vector table used for interrupts
  4551                           ;	IVTLOCK bit One-way set enable bit
  4552                           ;	IVT1WAY = OFF, IVTLOCKED bit can be cleared and set repeatedly
  4553                           ;	Low Power BOR Enable bit
  4554                           ;	LPBOREN = OFF, Low-Power BOR disabled
  4555                           ;	Brown-out Reset Enable bits
  4556                           ;	BOREN = SBORDIS, Brown-out Reset enabled , SBOREN bit is ignored
  4557   300002                     	org	3145730
  4558   300002  EF                 	db	239
  4559                           
  4560                           ;Config register CONFIG4 @ 0x300003
  4561                           ;	Brown-out Reset Voltage Selection bits
  4562                           ;	BORV = VBOR_1P9, Brown-out Reset Voltage (VBOR) set to 1.9V
  4563                           ;	ZCD Disable bit
  4564                           ;	ZCD = OFF, ZCD module is disabled. ZCD can be enabled by setting the ZCDSEN bit of ZCD
      +                          CON
  4565                           ;	PPSLOCK bit One-Way Set Enable bit
  4566                           ;	PPS1WAY = ON, PPSLOCKED bit can be cleared and set only once; PPS registers remain loc
      +                          ked after one clear/set cycle
  4567                           ;	Stack Full/Underflow Reset Enable bit
  4568                           ;	STVREN = ON, Stack full/underflow will cause Reset
  4569                           ;	Low Voltage Programming Enable bit
  4570                           ;	LVP = ON, Low voltage programming enabled. MCLR/VPP pin function is MCLR. MCLRE config
      +                          uration bit is ignored
  4571                           ;	Extended Instruction Set Enable bit
  4572                           ;	XINST = OFF, Extended Instruction Set and Indexed Addressing Mode disabled
  4573   300003                     	org	3145731
  4574   300003  FF                 	db	255
  4575                           
  4576                           ;Config register CONFIG5 @ 0x300004
  4577                           ;	WDT Period selection bits
  4578                           ;	WDTCPS = WDTCPS_31, Divider ratio 1:65536; software control of WDTPS
  4579                           ;	WDT operating mode
  4580                           ;	WDTE = OFF, WDT Disabled; SWDTEN is ignored
  4581   300004                     	org	3145732
  4582   300004  9F                 	db	159
  4583                           
  4584                           ;Config register CONFIG6 @ 0x300005
  4585                           ;	WDT Window Select bits
  4586                           ;	WDTCWS = WDTCWS_7, window always open (100%); software control; keyed access not requi
      +                          red
  4587                           ;	WDT input clock selector
  4588                           ;	WDTCCS = SC, Software Control
  4589   300005                     	org	3145733
  4590   300005  FF                 	db	255
  4591                           
  4592                           ;Config register CONFIG7 @ 0x300006
  4593                           ;	Boot Block Size selection bits
  4594                           ;	BBSIZE = BBSIZE_512, Boot Block size is 512 words
  4595                           ;	Boot Block enable bit
  4596                           ;	BBEN = OFF, Boot block disabled
  4597                           ;	Storage Area Flash enable bit
  4598                           ;	SAFEN = OFF, SAF disabled
  4599                           ;	Background Debugger
  4600                           ;	DEBUG = OFF, Background Debugger disabled
  4601   300006                     	org	3145734
  4602   300006  FF                 	db	255
  4603                           
  4604                           ;Config register CONFIG8 @ 0x300007
  4605                           ;	Boot Block Write Protection bit
  4606                           ;	WRTB = OFF, Boot Block not Write protected
  4607                           ;	Configuration Register Write Protection bit
  4608                           ;	WRTC = OFF, Configuration registers not Write protected
  4609                           ;	Data EEPROM Write Protection bit
  4610                           ;	WRTD = OFF, Data EEPROM not Write protected
  4611                           ;	SAF Write protection bit
  4612                           ;	WRTSAF = OFF, SAF not Write Protected
  4613                           ;	Application Block write protection bit
  4614                           ;	WRTAPP = OFF, Application Block not write protected
  4615   300007                     	org	3145735
  4616   300007  FF                 	db	255
  4617                           
  4618                           ;Config register CONFIG10 @ 0x300009
  4619                           ;	PFM and Data EEPROM Code Protection bit
  4620                           ;	CP = OFF, PFM and Data EEPROM code protection disabled
  4621   300009                     	org	3145737
  4622   300009  FF                 	db	255
  4623                           tosu	equ	0x4FF
  4624                           tosh	equ	0x4FE
  4625                           tosl	equ	0x4FD
  4626                           stkptr	equ	0x4FC
  4627                           pclatu	equ	0x4FB
  4628                           pclath	equ	0x4FA
  4629                           pcl	equ	0x4F9
  4630                           tblptru	equ	0x4F8
  4631                           tblptrh	equ	0x4F7
  4632                           tblptrl	equ	0x4F6
  4633                           tablat	equ	0x4F5
  4634                           prodh	equ	0x4F4
  4635                           prodl	equ	0x4F3
  4636                           indf0	equ	0x4EF
  4637                           postinc0	equ	0x4EE
  4638                           postdec0	equ	0x4ED
  4639                           preinc0	equ	0x4EC
  4640                           plusw0	equ	0x4EB
  4641                           fsr0h	equ	0x4EA
  4642                           fsr0l	equ	0x4E9
  4643                           wreg	equ	0x4E8
  4644                           indf1	equ	0x4E7
  4645                           postinc1	equ	0x4E6
  4646                           postdec1	equ	0x4E5
  4647                           preinc1	equ	0x4E4
  4648                           plusw1	equ	0x4E3
  4649                           fsr1h	equ	0x4E2
  4650                           fsr1l	equ	0x4E1
  4651                           bsr	equ	0x4E0
  4652                           indf2	equ	0x4DF
  4653                           postinc2	equ	0x4DE
  4654                           postdec2	equ	0x4DD
  4655                           preinc2	equ	0x4DC
  4656                           plusw2	equ	0x4DB
  4657                           fsr2h	equ	0x4DA
  4658                           fsr2l	equ	0x4D9
  4659                           status	equ	0x4D8

Data Sizes:
    Strings     20
    Constant    0
    Data        1
    BSS         15
    Persistent  0
    Stack       0

Auto Spaces:
    Space          Size  Autos    Used
    COMRAM           95     91      93
    BANK5           160     26      40
    BANK6           256      0       0
    BANK7           256      0       0
    BANK8           256      0       0
    BANK9           256      0       0
    BANK10          256      0       0
    BANK11          256      0       0
    BANK12          256      0       0
    BANK13          256      0       0
    BANK14          256      0       0
    BANK15          256      0       0
    BANK16          256      0       0
    BANK17          256      0       0
    BANK18          256      0       0
    BANK19          256      0       0
    BANK20          256      0       0
    BANK21          256      0       0
    BANK22          256      0       0
    BANK23          256      0       0
    BANK24          256      0       0
    BANK25          256      0       0
    BANK26          256      0       0
    BANK27          256      0       0
    BANK28          256      0       0
    BANK29          256      0       0
    BANK30          256      0       0
    BANK31          256      0       0
    BANK32          256      0       0
    BANK33          256      0       0
    BANK34          256      0       0
    BANK35          256      0       0
    BANK36          256      0       0

Pointer List with Targets:

    LCDprintf@shell	PTR unsigned char  size(2) Largest target is 16
		 -> STR_2(CODE[4]), STR_1(CODE[16]), 

    LCDprintf@args	PTR void [1] size(2) Largest target is 1
		 -> ?_LCDprintf(COMRAM[1]), 

    sp__toString	PTR unsigned char  size(2) Largest target is 6
		 -> toString@string(COMRAM[6]), 

    LCDprints@c	PTR unsigned char  size(2) Largest target is 12
		 -> ?_LCDprintf(COMRAM[1]), toString@string(COMRAM[6]), RTCrun@current_time(COMRAM[8]), 

    RTCrun@F16818	PTR unsigned char [4] size(2) Largest target is 0
		 -> NULL(NULL[0]), 


Critical Paths under _main in COMRAM

    _analogMap->___flmul
    ___flsub->___fladd
    ___fladd->___fldiv
    ___flmul->___flsub
    ___fldiv->___xxtofl
    _LCDprintf->_LCDprints
    _toString->___lwdiv
    _LCDprints->_toString
    _LCDinit->_LCDinstruct

Critical Paths under _setINT in COMRAM

    None.

Critical Paths under _main in BANK5

    _main->_analogMap

Critical Paths under _setINT in BANK5

    None.

Critical Paths under _main in BANK6

    None.

Critical Paths under _setINT in BANK6

    None.

Critical Paths under _main in BANK7

    None.

Critical Paths under _setINT in BANK7

    None.

Critical Paths under _main in BANK8

    None.

Critical Paths under _setINT in BANK8

    None.

Critical Paths under _main in BANK9

    None.

Critical Paths under _setINT in BANK9

    None.

Critical Paths under _main in BANK10

    None.

Critical Paths under _setINT in BANK10

    None.

Critical Paths under _main in BANK11

    None.

Critical Paths under _setINT in BANK11

    None.

Critical Paths under _main in BANK12

    None.

Critical Paths under _setINT in BANK12

    None.

Critical Paths under _main in BANK13

    None.

Critical Paths under _setINT in BANK13

    None.

Critical Paths under _main in BANK14

    None.

Critical Paths under _setINT in BANK14

    None.

Critical Paths under _main in BANK15

    None.

Critical Paths under _setINT in BANK15

    None.

Critical Paths under _main in BANK16

    None.

Critical Paths under _setINT in BANK16

    None.

Critical Paths under _main in BANK17

    None.

Critical Paths under _setINT in BANK17

    None.

Critical Paths under _main in BANK18

    None.

Critical Paths under _setINT in BANK18

    None.

Critical Paths under _main in BANK19

    None.

Critical Paths under _setINT in BANK19

    None.

Critical Paths under _main in BANK20

    None.

Critical Paths under _setINT in BANK20

    None.

Critical Paths under _main in BANK21

    None.

Critical Paths under _setINT in BANK21

    None.

Critical Paths under _main in BANK22

    None.

Critical Paths under _setINT in BANK22

    None.

Critical Paths under _main in BANK23

    None.

Critical Paths under _setINT in BANK23

    None.

Critical Paths under _main in BANK24

    None.

Critical Paths under _setINT in BANK24

    None.

Critical Paths under _main in BANK25

    None.

Critical Paths under _setINT in BANK25

    None.

Critical Paths under _main in BANK26

    None.

Critical Paths under _setINT in BANK26

    None.

Critical Paths under _main in BANK27

    None.

Critical Paths under _setINT in BANK27

    None.

Critical Paths under _main in BANK28

    None.

Critical Paths under _setINT in BANK28

    None.

Critical Paths under _main in BANK29

    None.

Critical Paths under _setINT in BANK29

    None.

Critical Paths under _main in BANK30

    None.

Critical Paths under _setINT in BANK30

    None.

Critical Paths under _main in BANK31

    None.

Critical Paths under _setINT in BANK31

    None.

Critical Paths under _main in BANK32

    None.

Critical Paths under _setINT in BANK32

    None.

Critical Paths under _main in BANK33

    None.

Critical Paths under _setINT in BANK33

    None.

Critical Paths under _main in BANK34

    None.

Critical Paths under _setINT in BANK34

    None.

Critical Paths under _main in BANK35

    None.

Critical Paths under _setINT in BANK35

    None.

Critical Paths under _main in BANK36

    None.

Critical Paths under _setINT in BANK36

    None.

Call Graph Tables:

 ---------------------------------------------------------------------------------
 (Depth) Function   	        Calls       Base Space   Used Autos Params    Refs
 ---------------------------------------------------------------------------------
 (0) _main                                                 6     6      0   11513
                                             89 COMRAM     2     2      0
                                             22 BANK5      4     4      0
                            _LCDinit
                        _LCDinstruct
                          _LCDprintf
                          _analogMap
                         _analogRead
 ---------------------------------------------------------------------------------
 (1) _analogRead                                          11     2      9     252
                                              1 COMRAM    11     2      9
 ---------------------------------------------------------------------------------
 (1) _analogMap                                           22     8     14    9469
                                              0 BANK5     22     8     14
                            ___fladd
                            ___fldiv
                            ___flmul
                            ___flsub
                           ___xxtofl
                         _analogRead (ARG)
 ---------------------------------------------------------------------------------
 (2) ___xxtofl                                            14    10      4     474
                                              1 COMRAM    14    10      4
 ---------------------------------------------------------------------------------
 (2) ___flsub                                              8     0      8    2737
                                             56 COMRAM     8     0      8
                            ___fladd
 ---------------------------------------------------------------------------------
 (3) ___fladd                                             16     8      8    2414
                                             40 COMRAM    16     8      8
                            ___fldiv (ARG)
                           ___xxtofl (ARG)
 ---------------------------------------------------------------------------------
 (2) ___flmul                                             25    17      8    1744
                                             64 COMRAM    25    17      8
                            ___fladd (ARG)
                            ___fldiv (ARG)
                            ___flsub (ARG)
                           ___xxtofl (ARG)
 ---------------------------------------------------------------------------------
 (2) ___fldiv                                             25    17      8    1399
                                             15 COMRAM    25    17      8
                           ___xxtofl (ARG)
 ---------------------------------------------------------------------------------
 (1) _LCDprintf                                           10     4      6    1670
                                             20 COMRAM    10     4      6
                          _LCDprintc
                          _LCDprints
                           _toString
 ---------------------------------------------------------------------------------
 (2) _toString                                            10     7      3     961
                                              8 COMRAM    10     7      3
                            ___lwdiv
                            ___lwmod
 ---------------------------------------------------------------------------------
 (3) ___lwmod                                              5     1      4     311
                                              1 COMRAM     5     1      4
 ---------------------------------------------------------------------------------
 (3) ___lwdiv                                              7     3      4     314
                                              1 COMRAM     7     3      4
 ---------------------------------------------------------------------------------
 (2) _LCDprints                                            2     0      2     241
                                             18 COMRAM     2     0      2
                          _LCDprintc
                           _toString (ARG)
 ---------------------------------------------------------------------------------
 (3) _LCDprintc                                            2     2      0      44
                                              1 COMRAM     2     2      0
 ---------------------------------------------------------------------------------
 (1) _LCDinit                                              2     2      0      44
                                              3 COMRAM     2     2      0
                        _LCDinstruct
 ---------------------------------------------------------------------------------
 (1) _LCDinstruct                                          2     2      0      44
                                              1 COMRAM     2     2      0
 ---------------------------------------------------------------------------------
 Estimated maximum stack depth 3
 ---------------------------------------------------------------------------------
 (Depth) Function   	        Calls       Base Space   Used Autos Params    Refs
 ---------------------------------------------------------------------------------
 (4) _setINT                                               1     1      0       0
                                              0 COMRAM     1     1      0
 ---------------------------------------------------------------------------------
 Estimated maximum stack depth 4
 ---------------------------------------------------------------------------------

 Call Graph Graphs:

 _main (ROOT)
   _LCDinit
     _LCDinstruct
   _LCDinstruct
   _LCDprintf
     _LCDprintc
     _LCDprints
       _LCDprintc
       _toString (ARG)
         ___lwdiv
         ___lwmod
     _toString
   _analogMap
     ___fladd
       ___fldiv (ARG)
         ___xxtofl (ARG)
       ___xxtofl (ARG)
     ___fldiv
     ___flmul
       ___fladd (ARG)
       ___fldiv (ARG)
       ___flsub (ARG)
         ___fladd
       ___xxtofl (ARG)
     ___flsub
     ___xxtofl
     _analogRead (ARG)
   _analogRead

 _setINT (ROOT)

 Address spaces:
Name               Size   Autos  Total    Cost      Usage
BIGRAM            1FFF      0       0      69        0.0%
EEDATA             400      0       0       0        0.0%
BITBIGSFRlll       31A      0       0      82        0.0%
BITBIGSFR_1        100      0       0      68        0.0%
BITBANK36          100      0       0      66        0.0%
BANK36             100      0       0      67        0.0%
BITBANK35          100      0       0      64        0.0%
BANK35             100      0       0      65        0.0%
BITBANK34          100      0       0      62        0.0%
BANK34             100      0       0      63        0.0%
BITBANK33          100      0       0      60        0.0%
BANK33             100      0       0      61        0.0%
BITBANK32          100      0       0      58        0.0%
BANK32             100      0       0      59        0.0%
BITBANK31          100      0       0      56        0.0%
BANK31             100      0       0      57        0.0%
BITBANK30          100      0       0      54        0.0%
BANK30             100      0       0      55        0.0%
BITBANK29          100      0       0      52        0.0%
BANK29             100      0       0      53        0.0%
BITBANK28          100      0       0      50        0.0%
BANK28             100      0       0      51        0.0%
BITBANK27          100      0       0      48        0.0%
BANK27             100      0       0      49        0.0%
BITBANK26          100      0       0      46        0.0%
BANK26             100      0       0      47        0.0%
BITBANK25          100      0       0      44        0.0%
BANK25             100      0       0      45        0.0%
BITBANK24          100      0       0      42        0.0%
BANK24             100      0       0      43        0.0%
BITBANK23          100      0       0      40        0.0%
BANK23             100      0       0      41        0.0%
BITBANK22          100      0       0      38        0.0%
BANK22             100      0       0      39        0.0%
BITBANK21          100      0       0      36        0.0%
BANK21             100      0       0      37        0.0%
BITBANK20          100      0       0      34        0.0%
BANK20             100      0       0      35        0.0%
BITBANK19          100      0       0      32        0.0%
BANK19             100      0       0      33        0.0%
BITBANK18          100      0       0      30        0.0%
BANK18             100      0       0      31        0.0%
BITBANK17          100      0       0      28        0.0%
BANK17             100      0       0      29        0.0%
BITBANK16          100      0       0      26        0.0%
BANK16             100      0       0      27        0.0%
BITBANK15          100      0       0      24        0.0%
BANK15             100      0       0      25        0.0%
BITBANK14          100      0       0      22        0.0%
BANK14             100      0       0      23        0.0%
BITBANK13          100      0       0      20        0.0%
BANK13             100      0       0      21        0.0%
BITBANK12          100      0       0      18        0.0%
BANK12             100      0       0      19        0.0%
BITBANK11          100      0       0      16        0.0%
BANK11             100      0       0      17        0.0%
BITBANK10          100      0       0      14        0.0%
BANK10             100      0       0      15        0.0%
BITBANK9           100      0       0      12        0.0%
BANK9              100      0       0      13        0.0%
BITBANK8           100      0       0      10        0.0%
BANK8              100      0       0      11        0.0%
BITBANK7           100      0       0       8        0.0%
BANK7              100      0       0       9        0.0%
BITBANK6           100      0       0       6        0.0%
BANK6              100      0       0       7        0.0%
BITBIGSFRllhll      CF      0       0      81        0.0%
BITBANK5            A0      0       0       4        0.0%
BANK5               A0     1A      28       5       25.0%
BITBIGSFRlhlhh      84      0       0      75        0.0%
BITCOMRAM           5F      0       0       0        0.0%
COMRAM              5F     5B      5D       1       97.9%
BITBIGSFRhh         29      0       0      70        0.0%
BITBIGSFRlhhl       22      0       0      74        0.0%
BITBIGSFRllhhl       C      0       0      79        0.0%
BITBIGSFRhlh         C      0       0      71        0.0%
BITBIGSFRlhlhl       8      0       0      76        0.0%
BITBIGSFRllhhh       7      0       0      78        0.0%
BITBIGSFRllhlh       6      0       0      80        0.0%
BITBIGSFRlhhh        4      0       0      73        0.0%
BITBIGSFRlhll        4      0       0      77        0.0%
BITBIGSFRhll         1      0       0      72        0.0%
BIGSFR_1             0      0       0     200        0.0%
BIGSFR               0      0       0     200        0.0%
BITSFR_6             0      0       0     200        0.0%
SFR_6                0      0       0     200        0.0%
BITSFR_5             0      0       0     200        0.0%
SFR_5                0      0       0     200        0.0%
BITSFR_4             0      0       0     200        0.0%
SFR_4                0      0       0     200        0.0%
BITSFR_3             0      0       0     200        0.0%
SFR_3                0      0       0     200        0.0%
BITSFR_2             0      0       0     200        0.0%
SFR_2                0      0       0     200        0.0%
BITSFR_1             0      0       0     200        0.0%
SFR_1                0      0       0     200        0.0%
BITSFR               0      0       0     200        0.0%
SFR                  0      0       0     200        0.0%
STACK                0      0       0       2        0.0%
NULL                 0      0       0       0        0.0%
ABS                  0      0      85      83        0.0%
DATA                 0      0      85       3        0.0%
CODE                 0      0       0       0        0.0%


Microchip Technology PIC18 Macro Assembler V2.40 build 20220703182018 
Symbol Table                                                                                   Mon Apr 03 07:42:42 2023

             ___fldiv@aexp 0528               ___fldiv@bexp 0527               ___fldiv@sign 0520  
                       l70 3A72                         l73 37C4                         l82 3B28  
                       l76 3916                         l98 398A                        l110 35E8  
                      l121 3B4E                        l124 3B6E                        l127 36DA  
                      l148 37CA                        l652 39FE                        l708 29EE  
                      l724 3BB4                        l812 344C                        l645 39F6  
                      l741 30BC                        l709 29DC                        l662 3AD6  
                      l750 31A4                        l655 3ACE                        l823 33E4  
                      l736 3298                        l816 3388                        l809 32F0  
                      l738 30F8                        l682 2804                        l747 313E  
                      l691 2AD4                        l683 27F2                        l772 2EFE  
                      l684 27B8                        l749 31B6                        l775 2D90  
                      l768 2B9A                        l785 2EC0                        l777 2E08  
                      l778 2DF6                        l699 291E                        wreg 0004E8  
             ___flmul@aexp 0552               ___flmul@bexp 0553               ___flmul@sign 054D  
             ___flmul@temp 0558               ___flmul@prod 0554                       l2001 3A1A  
                     l2011 3A3E                       l2003 3A1C                       l2021 3A62  
                     l2013 3A46                       l2005 3A32                       l2101 2FBC  
                     l2015 3A56                       l2007 3A34                       l2031 3AE6  
                     l2111 2FFE                       l2103 2FCC                       l2017 3A58  
                     l2009 3A3C                       l2041 3B0C                       l2033 3AEE  
                     l2025 3AD8                       l2105 2FE2                       l2019 3A60  
                     l2043 3B10                       l2035 3AF0                       l2027 3AE2  
                     l2131 3080                       l2123 3036                       l2107 2FF2  
                     l2115 3012                       l2211 2B02                       l2203 2AD6  
                     l2037 3AF2                       l2029 3AE4                       l2061 3982  
                     l2053 393A                       l2045 3918                       l2141 30C6  
                     l2133 3088                       l2125 3050                       l2117 3022  
                     l2109 2FFA                       l2221 2B3E                       l2213 2B12  
                     l2205 2AE2                       l2039 3AFE                       l2055 3960  
                     l2047 3924                       l2151 311E                       l2143 30E4  
                     l2135 3098                       l2127 3060                       l2119 3022  
                     l2071 2F1C                       l2303 2E18                       l2311 2E60  
                     l2231 2B74                       l2223 2B44                       l2215 2B22  
                     l2207 2AF0                       l2057 397C                       l2049 3928  
                     l2401 350A                       l2161 315C                       l2153 3124  
                     l2145 30E6                       l2137 30AC                       l2129 3070  
                     l2073 2F2C                       l2081 2F56                       l2065 2F00  
                     l2321 2ED4                       l2313 2E7A                       l2305 2E24  
                     l2233 2B84                       l2225 2B52                       l2217 2B28  
                     l2209 2AF2                       l2411 359E                       l2403 3546  
                     l2171 31C6                       l2163 3160                       l2155 312E  
                     l2147 30F6                       l2139 30BA                       l2091 2F82  
                     l2083 2F66                       l2075 2F3C                       l2067 2F0C  
                     l2323 2EE2                       l2315 2E8E                       l2307 2E32  
                     l2251 2C06                       l2243 2BCE                       l2235 2B8A  
                     l2227 2B54                       l2219 2B38                       l2413 35AC  
                     l2405 354E                       l2421 35CC                       l2181 3228  
                     l2173 31D2                       l2165 316E                       l2157 313C  
                     l2149 3108                       l2093 2F92                       l2085 2F6C  
                     l2077 2F4C                       l2069 2F1A                       l2325 2EE4  
                     l2317 2EA8                       l2309 2E5C                       l2261 2C50  
                     l2253 2C1E                       l2245 2BDA                       l2237 2BAA  
                     l2229 2B64                       l2333 3B70                       l2341 32AC  
                     l2431 3700                       l2423 36DC                       l2407 355A  
                     l2191 3286                       l2183 323E                       l2175 31E0  
                     l2167 319C                       l2159 314E                       l2095 2FA2  
                     l2087 2F72                       l2079 2F4E                       l2319 2EC4  
                     l2327 2EEA                       l2271 2CA6                       l2263 2C60  
                     l2255 2C2A                       l2247 2BE4                       l2239 2BBA  
                     l2335 3B80                       l2351 332A                       l2343 32BA  
                     l2441 3720                       l2433 370A                       l2425 36F4  
                     l1721 38B0                       l2409 3576                       l2417 35B8  
                     l2193 328C                       l2185 3258                       l2177 320A  
                     l2097 2FB2                       l2089 2F80                       l2329 2EEE  
                     l2281 2D4A                       l2273 2CC2                       l2265 2C6C  
                     l2257 2C36                       l2249 2BFA                       l1801 271E  
                     l2361 337E                       l2353 3332                       l2345 3300  
                     l2451 374C                       l2443 3728                       l2435 370C  
                     l2427 36FA                       l1731 38D6                       l1723 38B8  
                     l1715 38A2                       l2419 35C8                       l2195 328E  
                     l2187 3274                       l2179 320E                       l2099 2FB4  
                     l2291 2DA0                       l2283 2D58                       l2275 2CCE  
                     l2267 2C7C                       l2259 2C44                       l1811 2732  
                     l1803 2722                       l2371 33F4                       l2363 33BA  
                     l2355 333E                       l2347 3316                       l2339 329C  
                     l2603 37C6                       l2461 3772                       l2453 375E  
                     l2445 372A                       l2437 3716                       l2429 36FE  
                     l1741 38FA                       l1733 38D8                       l1725 38BA  
                     l1717 38AC                       l2189 3278                       l2293 2DAE  
                     l2285 2D76                       l2277 2CEA                       l2269 2C96  
                     l1901 2980                       l1821 2746                       l1813 2736  
                     l1805 2726                       l2381 343C                       l2373 33F8  
                     l2365 33C6                       l2357 3370                       l2605 37D0  
                     l2471 37AC                       l2463 3782                       l2455 3766  
                     l2447 373A                       l2439 371E                       l1743 38FC  
                     l1735 38E0                       l1727 38BC                       l1719 38AE  
                     l2391 349E                       l2295 2DB2                       l2287 2D80  
                     l2279 2D14                       l1903 2988                       l1911 29AC  
                     l1831 275A                       l1823 274A                       l1815 273A  
                     l1807 272A                       l1751 2616                       l2375 341C  
                     l2367 33D4                       l2359 3372                       l2607 3864  
                     l2473 37B2                       l2465 378A                       l2457 3768  
                     l2449 3742                       l1745 3904                       l1737 38E2  
                     l1729 38CE                       l2393 34B2                       l2385 344E  
                     l2297 2DC0                       l2289 2D8E                       l1921 29FE  
                     l1913 29B0                       l1905 298C                       l1841 27D2  
                     l1833 2784                       l1825 274E                       l1817 273E  
                     l1809 272E                       l1761 2652                       l1753 2622  
                     l2377 342C                       l2369 33F2                       l2609 3880  
                     l2475 37B8                       l2467 3794                       l2459 3770  
                     l1747 3906                       l1739 38F2                       l2395 34BA  
                     l2387 345A                       l2299 2DEE                       l1931 2A64  
                     l1923 2A0A                       l1915 29BE                       l1907 299C  
                     l1851 2812                       l1843 27D6                       l1835 27A0  
                     l1827 2752                       l1819 2742                       l1771 2682  
                     l1763 2662                       l1755 2630                       l2379 343A  
                     l2491 3B4A                       l2477 37BE                       l2469 37A6  
                     l2389 3476                       l2397 34C6                       l1941 2AAC  
                     l1933 2A74                       l1925 2A18                       l1917 29D4  
                     l1909 299E                       l1861 2854                       l1853 2822  
                     l1845 27E4                       l1837 27B0                       l1829 2756  
                     l1781 26AC                       l1773 2694                       l1765 2664  
                     l1757 2632                       l2493 3B4C                       l2485 3B2A  
                     l2399 34E2                       l1943 2AAE                       l1935 2A94  
                     l1927 2A52                       l1871 2882                       l1863 2862  
                     l1847 27E6                       l1839 27C6                       l1783 26BC  
                     l1791 26E6                       l1775 2696                       l1759 2642  
                     l1767 266C                       l2495 3B5C                       l2487 3B34  
                     l1961 39B6                       l1953 398C                       l1945 2AB4  
                     l1937 2A98                       l1929 2A54                       l1881 28EE  
                     l1873 288C                       l1865 286E                       l1857 2836  
                     l1849 27F0                       l1793 26F6                       l1785 26CC  
                     l1777 269C                       l1769 267C                       l2489 3B36  
                     l1971 39EA                       l1963 39C4                       l1955 3994  
                     l1947 2AC2                       l1939 2AA6                       l1883 28FE  
                     l1867 2872                       l1859 2846                       l1875 2892  
                     l1795 2708                       l1787 26DC                       l1779 26AA  
                     l1973 39F0                       l1965 39CA                       l1957 39A6  
                     l1981 3A96                       l1949 2AC4                       l1893 2958  
                     l1877 28B8                       l1885 290E                       l1869 2880  
                     l1797 2716                       l1789 26DE                       l2597 35EA  
                     l1991 3A02                       l1967 39E0                       l1959 39AE  
                     l1983 3AA4                       l1975 3A74                       l1895 2962  
                     l1887 2934                       l1879 28EC                       l1799 271A  
                     l2599 36A6                       l1993 3A0C            __end_of_LCDinit 37C6  
                     l1969 39E8                       l1985 3ABA                       l1977 3A86  
                     l1897 2970                       l1889 2944                       l1995 3A0E  
                     l1987 3AC2                       l1979 3A8E                       l1899 2972  
                     l1997 3A10                       l1989 3AC8                       l1999 3A18  
                     STR_1 2601                       STR_2 2611                       u2000 2D34  
                     u2010 2D8E                       u1210 2630                       u2011 2D8A  
                     u1211 262C                       u2100 2EE2                       u2020 2DAE  
                     u1300 2784                       u1220 2642                       u2101 2EDE  
                     u2021 2DAA                       u2005 2D2A                       u1301 2780  
                     u1221 263E                       u2030 2DC0                       u1310 279C  
                     u1230 2652                       u2110 32AC                       u2031 2DBC  
                     u1311 2796                       u1231 264E                       u2111 32A8  
                     u2040 2DEE                       u1400 2880                       u1320 279E  
                     u1240 2694                       u2200 343A                       u2120 32BA  
                     u2041 2DEA                       u1401 287C                       u1241 2690  
                     u2201 3436                       u2121 32B6                       u2210 3476  
                     u2050 2E04                       u1410 28B8                       u1330 27C6  
                     u1250 26AA                       u2130 3316                       u2211 3472  
                     u2051 2E00                       u1411 28B4                       u1331 27C2  
                     u1251 26A6                       u2131 3312                       u2220 349E  
                     u2060 2E18                       u1500 29D4                       u1420 28FE  
                     u1340 27E4                       u1260 26BC                       u2140 336C  
                     u2221 349A                       u2061 2E14                       u1501 29D0  
                     u1421 28FA                       u1341 27E0                       u1261 26B8  
                     u2141 3368                       u2230 34E2                       u2070 2E32  
                     u1510 29EA                       u1430 2934                       u1350 2804  
                     u1270 26CC                       u2150 33B6                       u2231 34DE  
                     u2071 2E2E                       u1511 29E6                       u1431 2930  
                     u1351 2800                       u1271 26C8                       u2151 33B2  
                     u1600 39A6                       u2240 350A                       u2080 2E7A  
                     u1520 29FE                       u1440 2944                       u1360 2812  
                     u1280 2708                       u2160 33D4                       _LATD 0004C1  
                     u1601 39A2                       u2241 3506                       u2081 2E76  
                     u1521 29FA                       u1441 2940                       u1361 280E  
                     u1281 2704                       u2161 33D0                       u1610 39C4  
                     u2250 3576                       u2090 2EA8                       u1530 2A18  
                     u1450 2970                       u1370 2822                       u1290 2716  
                     u2170 33E4                       u2410 37E4                       u1611 39C0  
                     u2251 3572                       u2091 2EA4                       u1531 2A14  
                     u1451 296C                       u1371 281E                       u1291 2712  
                     u2171 33E0                       u2411 37DC                       u1620 39E0  
                     u2260 359E                       u1700 2F2C                       u1540 2A52  
                     u1460 2980                       u1380 2854                       u2180 33F2  
                     u2420 3802                       u1621 39DC                       u2261 359A  
                     u1701 2F28                       u1541 2A4E                       u1461 297C  
                     u1381 2850                       u2181 33EE                       u2421 37FA  
                     u1630 3A86                       u2270 35E8                       u1710 2F3C  
                     u1550 2A64                       u1470 299C                       u1390 2862  
                     u2190 342C                       u1631 3A82                       u2271 35E4  
                     u1711 2F38                       u1551 2A60                       u1471 2998  
                     u1391 285E                       u2191 3428                       u1640 3AA4  
                     u1800 3108                       u1720 2F80                       u1560 2A74  
                     u1480 29AC                       u2280 3B5C                       u1641 3AA0  
                     u1801 3104                       u1721 2F7C                       u1561 2A70  
                     u1481 29A8                       u2281 3B58                       u1650 3ABA  
                     u1810 311E                       u1730 2F92                       u1570 2A94  
                     u1490 29BE                       u2418 37E6                       u2507 38FE  
                     u1651 3AB6                       u1811 311A                       u1731 2F8E  
                     u1571 2A90                       u1491 29BA                       u1660 3B28  
                     u1900 3258                       u1820 313C                       u1740 2FA2  
                     u1580 2AA6                       u2428 3804                       u2517 390C  
                     u1661 3B24                       u1901 3254                       u1821 3138  
                     u1741 2F9E                       u1581 2AA2                       u2437 388A  
                     u1910 3286                       u1830 315C                       u1750 2FE2  
                     u1590 2AC2                       u2607 3778                       u2527 36E6  
                     u2447 3AE8                       u1671 391E                       u1911 3282  
                     u1831 3158                       u1751 2FDE                       u1591 2ABE  
                     u1680 3936                       u1840 316E                       u1760 3022  
                     u1920 2AF0                       u2617 378E                       u2537 3704  
                     u2457 3AF4                       u1681 3932                       u1841 316A  
                     u1761 301E                       u1921 2AEC                       u1850 319C  
                     u1770 3098                       u1690 2F1A                       u1930 2B02  
                     u2627 379C                       u2547 3710                       u2467 38B2  
                     u1851 3198                       u1771 3094                       u1691 2F16  
                     u1931 2AFE                       u1860 31B2                       u1780 30BA  
                     u1940 2B12                       u2637 3A12                       u2557 3722  
                     u2477 38D0                       u1861 31AE                       u1781 30B6  
                     u1941 2B0E                       u1870 31C6                       u1790 30E4  
                     u1950 2B52                       u2647 3A36                       u2567 3730  
                     u2487 38DA                       u1871 31C2                       u1791 30E0  
                     u1951 2B4E                       u1880 31E0                       u1960 2B64  
                     u2657 3A40                       u2577 3746                       u2497 38F4  
                     u1881 31DC                       u1961 2B60                       u1890 3228  
                     u1970 2B74                       u2667 3A5A                       u2587 3754  
                     u1891 3224                       u1971 2B70                       u1980 2BAA  
                     u2677 3A68                       u2597 376A                       u1981 2BA6  
                     u1990 2BBA                       u1991 2BB6                       i1l51 3C06  
                     _WPUD 000419                       _main 37C6                       fsr2h 0004DA  
                     indf2 0004DF                       fsr2l 0004D9                       prodh 0004F4  
                     prodl 0004F3                       start 0102            ___fldiv@new_exp 0521  
             ___param_bank 000000               ?_LCDinstruct 0501            __end_of___fladd 2AD6  
                    ?_main 0501                      _ADPCH 0003EC            __end_of___fldiv 329A  
          __end_of___flmul 2F00            __end_of___flsub 3BB6                      _IOCBF 00040F  
          __end_of___lwdiv 3A00            __end_of___lwmod 3AD8                      _TRISD 0004C9  
                    tablat 0004F5                      status 0004D8            __initialization 3BB6  
             __end_of_main 38A0             _analogMap$1116 0572                     ??_main 055A  
            __activetblptr 000001        analogMap@analog_max 0562        analogMap@analog_min 0564  
                ??_LCDinit 0504                     _ADRESH 0003EB                     _ADRESL 0003EA  
                   _ANSELD 000418          __end_of_LCDprintc 3918          __end_of_LCDprintf 35EA  
        __end_of_LCDprints 3B2A                     _IOCBF4 00207C                     _IOCBN4 002074  
                   i1l1671 3C02                     i1l1669 3BF8           __end_of___xxtofl 344E  
                ??___fladd 0531                  ??___fldiv 0518                  ??___flmul 0549  
                ??___flsub 0541                  ??___lwdiv 0506                  ??___lwmod 0506  
                   _setINT 3BF4                     clear_0 3BCE                     isa$std 000001  
             __pdataCOMRAM 055D           __end_of_toString 398C               __mediumconst 0000  
                   tblptrh 0004F7                     tblptrl 0004F6                     tblptru 0004F8  
             ___xxtofl@arg 050C               ___xxtofl@exp 050B               ___xxtofl@val 0502  
               __accesstop 0560    __end_of__initialization 3BE4              ___rparam_used 000001  
           __pcstackCOMRAM 0501             ivt0x8_undefint 0100                 __pbssBANK5 057A  
      analogMap@sensor_max 0566        analogMap@sensor_min 056A                 _analogRead 3B2A  
                  IVTBASEH 00045E                    IVTBASEL 00045D                    IVTBASEU 00045F  
                  ?_setINT 0501               RTCrun@F16818 057A                  ?___xxtofl 0502  
                  _LCDinit 36DC          __end_of_analogMap 36DC                    __Hparam 0000  
                  __Lparam 0000                  ?_toString 0509                    ___fladd 2616  
                  ___fldiv 2F00  analogRead@pin_designation 050A                    ___flmul 2AD6  
                  ___flsub 3B70                    ___lwdiv 398C                    ___lwmod 3A74  
             __psmallconst 2600                    _nSetRTC 055D                    __pcinit 3BB6  
                  __ramtop 2600                    __ptext0 37C6                    __ptext1 3B2A  
                  __ptext2 35EA                    __ptext3 329A                    __ptext4 3B70  
                  __ptext5 2616                    __ptext6 2AD6                    __ptext7 2F00  
                  __ptext8 344E                    __ptext9 3918                 ??___xxtofl 0506  
     end_of_initialization 3BE4           LCDinstruct@instr 0503                ?_analogRead 0502  
                _LCDprintc 38A0                  _LCDprintf 344E                  _LCDprints 3AD8  
               _tick_count 055C                 ??_toString 050C                    postdec2 0004DD  
                  postinc0 0004EE                    postinc2 0004DE         analogRead@pin_tris 0506  
              ___fladd@grs 0538              ___xxtofl@sign 050A                  _TRISAbits 0004C6  
                _TRISBbits 0004C7                ___fldiv@grs 0523                ___fldiv@rem 051C  
              ___flmul@grs 054E                 ?_LCDprintc 0501                 ?_LCDprintf 0515  
               ?_LCDprints 0513              __pidataCOMRAM 3C0C             __end_of_setINT 3C0C  
      start_initialization 3BB6    analogMap@analog_reading 0560                 ivt0x8_base 0008  
               LCDprintc@c 0503                 LCDprints@c 0513                   ??_setINT 0501  
            ??_LCDinstruct 0502                  ___fladd@a 052D                  ___fladd@b 0529  
                ___fldiv@a 0514                  ___fldiv@b 0510                  ___flmul@a 0545  
                ___flmul@b 0541                __pbssCOMRAM 055C                   ?_LCDinit 0501  
                ___flsub@a 053D                  ___flsub@b 0539             toString@F16815 0582  
            __pcstackBANK5 0560                ??_LCDprintc 0502                ??_LCDprintf 051B  
              ??_LCDprints 0515                  _analogMap 35EA           ___lwdiv@dividend 0502  
                 ?___fladd 0529                   ?___fldiv 0510                   ?___flmul 0541  
                 ?___flsub 0539                   ?___lwdiv 0502                   ?___lwmod 0502  
           toString@length 050B             toString@number 0509             toString@string 050C  
              __smallconst 2600        __end_of_LCDinstruct 3A74           ___lwdiv@quotient 0506  
                 _LATDbits 0004C1               ??_analogRead 050B                   _PIE0bits 00049E  
               ?_analogMap 0560                 _ADCON0bits 0003F3                   _WPUBbits 000409  
       __end_of_analogRead 3B70                _INTCON0bits 0004D6             LCDprintf@shell 0515  
                 __Hrparam 0000                   __Lrparam 0000               __Lsmallconst 2600  
              _LCDinstruct 3A00                 _ANSELAbits 000400                 _ANSELBbits 000408  
                 ___xxtofl 329A                 _T0CON0bits 00031A                   __pivt0x8 0008  
          ___lwdiv@divisor 0504            ___lwdiv@counter 0508                   __ptext10 3A74  
                 __ptext11 398C                   __ptext12 3AD8                   __ptext13 38A0  
                 __ptext14 36DC                   __ptext15 3A00                   __ptext16 3BF4  
              ??_analogMap 056E                  toString@i 0512                   _toString 3918  
                 isa$xinst 000000              LCDprintf@args 051D                   intlevel1 0000  
          main@pot_voltage 0576           ___lwmod@dividend 0502        analogRead@pin_ansel 0502  
          ___lwmod@divisor 0504            ___lwmod@counter 0506              ___fladd@signs 0535  
             ___fladd@aexp 0536               ___fladd@bexp 0537  
