

Microchip MPLAB XC8 Assembler V2.40 build 20220703182018 
                                                                                               Tue Mar 21 12:42:55 2023

Microchip MPLAB XC8 C Compiler v2.40 (Free license) build 20220703182018 Og1 
     1                           	processor	18F57Q43
     2                           	fnconf	rparam,??,?,0
     3                           	pagewidth 120
     4                           	opt	flic
     5                           	psect	idataCOMRAM,global,class=CODE,delta=1,noexec
     6                           	psect	idataBANK5,global,class=CODE,delta=1,noexec
     7                           	psect	smallconst,global,reloc=2,class=SMALLCONST,delta=1,noexec
     8                           	psect	cinit,global,reloc=2,class=CODE,delta=1
     9                           	psect	bssCOMRAM,global,class=COMRAM,space=1,delta=1,lowdata,noexec
    10                           	psect	dataCOMRAM,global,class=COMRAM,space=1,delta=1,lowdata,noexec
    11                           	psect	dataBANK5,global,class=BANK5,space=1,delta=1,lowdata,noexec
    12                           	psect	cstackCOMRAM,global,class=COMRAM,space=1,delta=1,lowdata,noexec
    13                           	psect	text0,global,reloc=2,class=CODE,delta=1
    14                           	psect	text1,global,reloc=2,class=CODE,delta=1
    15                           	psect	text2,global,reloc=2,class=CODE,delta=1
    16                           	psect	text3,global,reloc=2,class=CODE,delta=1
    17                           	psect	text4,global,reloc=2,class=CODE,delta=1
    18                           	psect	text5,global,reloc=2,class=CODE,delta=1
    19                           	psect	text6,global,reloc=2,class=CODE,delta=1,group=1
    20                           	psect	text7,global,reloc=2,class=CODE,delta=1,group=1
    21                           	psect	text8,global,reloc=2,class=CODE,delta=1
    22                           	psect	text9,global,reloc=2,class=CODE,delta=1
    23                           	psect	text10,global,reloc=2,class=CODE,delta=1
    24                           	psect	text11,global,reloc=2,class=CODE,delta=1
    25                           	psect	text12,global,reloc=2,class=CODE,delta=1
    26                           	psect	text13,global,reloc=4,class=CODE,delta=1
    27                           	psect	text14,global,reloc=4,class=CODE,delta=1
    28                           	psect	text15,global,reloc=4,class=CODE,delta=1
    29                           	psect	ivt0x8,global,reloc=2,class=CODE,delta=1,noexec,keep,optim=
    30                           	psect	intsave_regs,global,class=BIGRAM,space=1,delta=1,noexec
    31                           	psect	rparam,global,class=COMRAM,space=1,delta=1,noexec
    32                           	psect	idloc,global,abs,ovrld,class=IDLOC,space=5,delta=1,noexec
    33                           	psect	config,global,abs,ovrld,class=CONFIG,space=4,delta=1,noexec
    34   000000                     
    35                           ; Version 2.40
    36                           ; Generated 04/07/2022 GMT
    37                           ; 
    38                           ; Copyright © 2022, Microchip Technology Inc. and its subsidiaries ("Microchip")
    39                           ; All rights reserved.
    40                           ; 
    41                           ; This software is developed by Microchip Technology Inc. and its subsidiaries ("Microch
      +                          ip").
    42                           ; 
    43                           ; Redistribution and use in source and binary forms, with or without modification, are
    44                           ; permitted provided that the following conditions are met:
    45                           ; 
    46                           ;     1. Redistributions of source code must retain the above copyright notice, this lis
      +                          t of
    47                           ;        conditions and the following disclaimer.
    48                           ; 
    49                           ;     2. Redistributions in binary form must reproduce the above copyright notice, this 
      +                          list
    50                           ;        of conditions and the following disclaimer in the documentation and/or other
    51                           ;        materials provided with the distribution. Publication is not required when
    52                           ;        this file is used in an embedded application.
    53                           ; 
    54                           ;     3. Microchip's name may not be used to endorse or promote products derived from th
      +                          is
    55                           ;        software without specific prior written permission.
    56                           ; 
    57                           ; THIS SOFTWARE IS PROVIDED BY MICROCHIP "AS IS" AND ANY EXPRESS OR IMPLIED WARRANTIES,
    58                           ; INCLUDING, BUT NOT LIMITED TO, THE IMPLIED WARRANTIES OF MERCHANTABILITY AND FITNESS F
      +                          OR
    59                           ; PURPOSE ARE DISCLAIMED.  IN NO EVENT SHALL MICROCHIP BE LIABLE FOR ANY DIRECT, INDIREC
      +                          T,
    60                           ; INCIDENTAL, SPECIAL, EXEMPLARY, OR CONSEQUENTIAL DAMAGES (INCLUDING BUT NOT LIMITED TO
    61                           ; PROCUREMENT OF SUBSTITUTE GOODS OR SERVICES; LOSS OF USE, DATA OR PROFITS; OR BUSINESS
    62                           ; INTERRUPTION) HOWSOEVER CAUSED AND ON ANY THEORY OF LIABILITY, WHETHER IN CONTRACT, ST
      +                          RICT
    63                           ; LIABILITY, OR TORT (INCLUDING NEGLIGENCE OR OTHERWISE) ARISING IN ANY WAY OUT OF THE U
      +                          SE OF
    64                           ; THIS SOFTWARE, EVEN IF ADVISED OF THE POSSIBILITY OF SUCH DAMAGE.
    65                           ; 
    66                           ; 
    67                           ; Code-generator required, PIC18F57Q43 Definitions
    68                           ; 
    69                           ; SFR Addresses
    70   000000                     
    71                           	psect	idataCOMRAM
    72   003288                     __pidataCOMRAM:
    73                           	callstack 0
    74                           
    75                           ;initializer for main@F16727
    76   003288  48                 	db	72
    77   003289  48                 	db	72
    78   00328A  3A                 	db	58
    79   00328B  4D                 	db	77
    80   00328C  4D                 	db	77
    81   00328D  3A                 	db	58
    82   00328E  53                 	db	83
    83   00328F  53                 	db	83
    84   003290  20                 	db	32
    85   003291  58                 	db	88
    86   003292  6D                 	db	109
    87   003293  00                 	db	0
    88                           
    89                           ;initializer for _nSetRTC
    90   003294  01                 	db	1
    91                           
    92                           	psect	idataBANK5
    93   003278                     __pidataBANK5:
    94                           	callstack 0
    95                           
    96                           ;initializer for keyScan@F16694
    97   003278  31                 	db	49
    98   003279  32                 	db	50
    99   00327A  33                 	db	51
   100   00327B  41                 	db	65
   101   00327C  34                 	db	52
   102   00327D  35                 	db	53
   103   00327E  36                 	db	54
   104   00327F  42                 	db	66
   105   003280  37                 	db	55
   106   003281  38                 	db	56
   107   003282  39                 	db	57
   108   003283  43                 	db	67
   109   003284  2A                 	db	42
   110   003285  30                 	db	48
   111   003286  23                 	db	35
   112   003287  44                 	db	68
   113   000000                     _T0CON0	set	794
   114   000000                     _IOCBF4	set	8316
   115   000000                     _LATD	set	1217
   116   000000                     _TMR0H	set	793
   117   000000                     _T0CON0bits	set	794
   118   000000                     _ANSELBbits	set	1032
   119   000000                     _TRISBbits	set	1223
   120   000000                     _TRISD	set	1225
   121   000000                     _INTCON0bits	set	1238
   122   000000                     _PIE0bits	set	1182
   123   000000                     _WPUBbits	set	1033
   124   000000                     _IOCBN4	set	8308
   125   000000                     _PIE3bits	set	1185
   126   000000                     _LATDbits	set	1217
   127   000000                     _ANSELD	set	1048
   128   000000                     _IOCBF	set	1039
   129   000000                     _IPR3bits	set	869
   130   000000                     _T0CON1	set	795
   131   000000                     _ANSELF	set	1064
   132   000000                     _WPUD	set	1049
   133   000000                     _TRISF	set	1227
   134   000000                     _LATF	set	1219
   135   000000                     _PIR3bits	set	1201
   136   000000                     _WPUF	set	1065
   137   000000                     _PORTF	set	1235
   138                           
   139                           	psect	smallconst
   140   002600                     __psmallconst:
   141                           	callstack 0
   142   002600  00                 	db	0
   143   002601                     STR_1:
   144   002601  25                 	db	37
   145   002602  69                 	db	105	;'i'
   146   002603  32                 	db	50	;'2'
   147   002604  3A                 	db	58	;':'
   148   002605  25                 	db	37
   149   002606  69                 	db	105	;'i'
   150   002607  32                 	db	50	;'2'
   151   002608  3A                 	db	58	;':'
   152   002609  25                 	db	37
   153   00260A  69                 	db	105	;'i'
   154   00260B  32                 	db	50	;'2'
   155   00260C  20                 	db	32
   156   00260D  25                 	db	37
   157   00260E  63                 	db	99	;'c'
   158   00260F  6D                 	db	109	;'m'
   159   002610  00                 	db	0
   160   002611  00                 	db	0	; dummy byte at the end
   161   000000                     
   162                           ; #config settings
   163                           
   164                           	psect	cinit
   165   003192                     __pcinit:
   166                           	callstack 0
   167   003192                     start_initialization:
   168                           	callstack 0
   169   003192                     __initialization:
   170                           	callstack 0
   171                           
   172                           ; Initialize objects allocated to BANK5 (16 bytes)
   173                           ; load TBLPTR registers with __pidataBANK5
   174   003192  0E78               	movlw	low __pidataBANK5
   175   003194  6EF6               	movwf	tblptrl,c
   176   003196  0E32               	movlw	high __pidataBANK5
   177   003198  6EF7               	movwf	tblptrh,c
   178   00319A  0E00               	movlw	low (__pidataBANK5 shr (0+16))
   179   00319C  6EF8               	movwf	tblptru,c
   180   00319E  EE01  F160         	lfsr	0,__pdataBANK5
   181   0031A2  EE10 F010          	lfsr	1,16
   182   0031A6                     copy_data0:
   183   0031A6  0009               	tblrd		*+
   184   0031A8  C4F5 F4EE          	movff	tablat,postinc0
   185   0031AC  50E5               	movf	postdec1,w,c
   186   0031AE  50E1               	movf	fsr1l,w,c
   187   0031B0  E1FA               	bnz	copy_data0
   188                           
   189                           ; Initialize objects allocated to COMRAM (13 bytes)
   190                           ; load TBLPTR registers with __pidataCOMRAM
   191   0031B2  0E88               	movlw	low __pidataCOMRAM
   192   0031B4  6EF6               	movwf	tblptrl,c
   193   0031B6  0E32               	movlw	high __pidataCOMRAM
   194   0031B8  6EF7               	movwf	tblptrh,c
   195   0031BA  0E00               	movlw	low (__pidataCOMRAM shr (0+16))
   196   0031BC  6EF8               	movwf	tblptru,c
   197   0031BE  EE01  F14D         	lfsr	0,__pdataCOMRAM
   198   0031C2  EE10 F00D          	lfsr	1,13
   199   0031C6                     copy_data1:
   200   0031C6  0009               	tblrd		*+
   201   0031C8  C4F5 F4EE          	movff	tablat,postinc0
   202   0031CC  50E5               	movf	postdec1,w,c
   203   0031CE  50E1               	movf	fsr1l,w,c
   204   0031D0  E1FA               	bnz	copy_data1
   205                           
   206                           ; Clear objects allocated to COMRAM (13 bytes)
   207   0031D2  EE01  F140         	lfsr	0,__pbssCOMRAM
   208   0031D6  0E0D               	movlw	13
   209   0031D8                     clear_0:
   210   0031D8  6AEE               	clrf	postinc0,c
   211   0031DA  06E8               	decf	wreg,f,c
   212   0031DC  E1FD               	bnz	clear_0
   213                           
   214                           ;
   215                           ; Setup IVTBASE
   216                           ;
   217   0031DE  0104               	movlb	4
   218   0031E0  0E08               	movlw	(ivt0x8_base shr 0)& (0+255)
   219   0031E2  6F5D               	movwf	93,b
   220   0031E4  0E00               	movlw	(ivt0x8_base shr (0+8))& (0+255)
   221   0031E6  6F5E               	movwf	94,b
   222   0031E8  0E00               	movlw	(ivt0x8_base shr (0+16))& (0+255)
   223   0031EA  6F5F               	movwf	95,b
   224   0031EC                     end_of_initialization:
   225                           	callstack 0
   226   0031EC                     __end_of__initialization:
   227                           	callstack 0
   228   0031EC  0100               	movlb	0
   229   0031EE  EF09  F013         	goto	_main	;jump to C main() function
   230                           
   231                           	psect	bssCOMRAM
   232   000540                     __pbssCOMRAM:
   233                           	callstack 0
   234   000540                     	ds	8
   235   000548                     	ds	4
   236   00054C                     _tick_count:
   237                           	callstack 0
   238   00054C                     	ds	1
   239                           
   240                           	psect	dataCOMRAM
   241   00054D                     __pdataCOMRAM:
   242                           	callstack 0
   243   00054D                     main@F16727:
   244                           	callstack 0
   245   00054D                     	ds	12
   246   000559                     _nSetRTC:
   247                           	callstack 0
   248   000559                     	ds	1
   249                           
   250                           	psect	dataBANK5
   251   000560                     __pdataBANK5:
   252                           	callstack 0
   253   000560                     keyScan@F16694:
   254                           	callstack 0
   255   000560                     	ds	16
   256                           
   257                           	psect	cstackCOMRAM
   258   000501                     __pcstackCOMRAM:
   259                           	callstack 0
   260   000501                     ??_setINT:
   261   000501                     
   262                           ; 1 bytes @ 0x0
   263   000501                     	ds	1
   264   000502                     ??_LCDinstruct:
   265   000502                     ??_keyScan:
   266   000502                     ??_LCDprintc:
   267   000502                     ?___awdiv:
   268                           	callstack 0
   269   000502                     ?___awmod:
   270                           	callstack 0
   271   000502                     ___awdiv@dividend:
   272                           	callstack 0
   273   000502                     ___awmod@dividend:
   274                           	callstack 0
   275                           
   276                           ; 2 bytes @ 0x1
   277   000502                     	ds	1
   278   000503                     LCDinstruct@instr:
   279                           	callstack 0
   280   000503                     LCDprintc@c:
   281                           	callstack 0
   282                           
   283                           ; 1 bytes @ 0x2
   284   000503                     	ds	1
   285   000504                     ??_LCDinit:
   286   000504                     LCDgoto@pos:
   287                           	callstack 0
   288   000504                     ___awdiv@divisor:
   289                           	callstack 0
   290   000504                     ___awmod@divisor:
   291                           	callstack 0
   292                           
   293                           ; 2 bytes @ 0x3
   294   000504                     	ds	1
   295   000505                     keyScan@lookup:
   296                           	callstack 0
   297                           
   298                           ; 16 bytes @ 0x4
   299   000505                     	ds	1
   300   000506                     ___awdiv@counter:
   301                           	callstack 0
   302   000506                     ___awmod@counter:
   303                           	callstack 0
   304                           
   305                           ; 1 bytes @ 0x5
   306   000506                     	ds	1
   307   000507                     ___awdiv@sign:
   308                           	callstack 0
   309   000507                     ___awmod@sign:
   310                           	callstack 0
   311                           
   312                           ; 1 bytes @ 0x6
   313   000507                     	ds	1
   314   000508                     ___awdiv@quotient:
   315                           	callstack 0
   316                           
   317                           ; 2 bytes @ 0x7
   318   000508                     	ds	2
   319   00050A                     ?_toString:
   320                           	callstack 0
   321   00050A                     toString@length:
   322                           	callstack 0
   323                           
   324                           ; 1 bytes @ 0x9
   325   00050A                     	ds	2
   326   00050C                     toString@string:
   327                           	callstack 0
   328                           
   329                           ; 4 bytes @ 0xB
   330   00050C                     	ds	4
   331   000510                     toString@number:
   332                           	callstack 0
   333                           
   334                           ; 1 bytes @ 0xF
   335   000510                     	ds	1
   336   000511                     toString@copy_num:
   337                           	callstack 0
   338                           
   339                           ; 1 bytes @ 0x10
   340   000511                     	ds	1
   341   000512                     toString@i:
   342                           	callstack 0
   343                           
   344                           ; 1 bytes @ 0x11
   345   000512                     	ds	1
   346   000513                     LCDprints@c:
   347                           	callstack 0
   348                           
   349                           ; 2 bytes @ 0x12
   350   000513                     	ds	2
   351   000515                     keyScan@colshift:
   352                           	callstack 0
   353   000515                     LCDprintf@shell:
   354                           	callstack 0
   355                           
   356                           ; 2 bytes @ 0x14
   357   000515                     	ds	1
   358   000516                     keyScan@cols:
   359                           	callstack 0
   360                           
   361                           ; 1 bytes @ 0x15
   362   000516                     	ds	1
   363   000517                     keyScan@rowshift:
   364                           	callstack 0
   365   000517                     LCDprintf@inputs:
   366                           	callstack 0
   367                           
   368                           ; 2 bytes @ 0x16
   369   000517                     	ds	2
   370   000519                     ??_LCDprintf:
   371                           
   372                           ; 1 bytes @ 0x18
   373   000519                     	ds	4
   374   00051D                     RTCrun@start_time:
   375                           	callstack 0
   376                           
   377                           ; 2 bytes @ 0x1C
   378   00051D                     	ds	2
   379   00051F                     
   380                           ; 1 bytes @ 0x1E
   381   00051F                     	ds	1
   382   000520                     RTCrun@current_time:
   383                           	callstack 0
   384                           
   385                           ; 8 bytes @ 0x1F
   386   000520                     	ds	8
   387   000528                     _RTCrun$294:
   388                           	callstack 0
   389                           
   390                           ; 2 bytes @ 0x27
   391   000528                     	ds	2
   392   00052A                     ??_main:
   393                           
   394                           ; 1 bytes @ 0x29
   395   00052A                     	ds	2
   396   00052C                     main@indexer:
   397                           	callstack 0
   398                           
   399                           ; 12 bytes @ 0x2B
   400   00052C                     	ds	12
   401   000538                     _main$73:
   402                           	callstack 0
   403                           
   404                           ; 2 bytes @ 0x37
   405   000538                     	ds	2
   406   00053A                     main@position:
   407                           	callstack 0
   408                           
   409                           ; 1 bytes @ 0x39
   410   00053A                     	ds	1
   411   00053B                     main@key:
   412                           	callstack 0
   413                           
   414                           ; 1 bytes @ 0x3A
   415   00053B                     	ds	1
   416   00053C                     main@current_time:
   417                           	callstack 0
   418                           
   419                           ; 4 bytes @ 0x3B
   420   00053C                     	ds	4
   421                           
   422 ;;
   423 ;;Main: autosize = 0, tempsize = 2, incstack = 0, save=0
   424 ;;
   425 ;; *************** function _main *****************
   426 ;; Defined at:
   427 ;;		line 21 in file "C:/Users/a_hui/OneDrive - Camosun College/term2/ecet165_embedded_mc/labs/lab10/setRTC_test.c"
   428 ;; Parameters:    Size  Location     Type
   429 ;;		None
   430 ;; Auto vars:     Size  Location     Type
   431 ;;  indexer        12   43[COMRAM] unsigned char [12]
   432 ;;  current_time    4   59[COMRAM] struct realtime
   433 ;;  key             1   58[COMRAM] unsigned char 
   434 ;;  position        1   57[COMRAM] unsigned char 
   435 ;; Return value:  Size  Location     Type
   436 ;;                  1    wreg      void 
   437 ;; Registers used:
   438 ;;		wreg, fsr1l, fsr1h, fsr2l, fsr2h, status,2, status,0, tblptrl, tblptrh, tblptru, prodl, prodh, cstack
   439 ;; Tracked objects:
   440 ;;		On entry : 0/0
   441 ;;		On exit  : 0/0
   442 ;;		Unchanged: 0/0
   443 ;; Data sizes:     COMRAM   BANK5   BANK6   BANK7   BANK8   BANK9  BANK10  BANK11  BANK12  BANK13  BANK14  BANK15  BANK1
      +6  BANK17  BANK18  BANK19  BANK20  BANK21  BANK22  BANK23  BANK24  BANK25  BANK26  BANK27  BANK28  BANK29  BANK30  BANK3
      +1  BANK32  BANK33  BANK34  BANK35  BANK36
   444 ;;      Params:         0       0       0       0       0       0       0       0       0       0       0       0       
      +0       0       0       0       0       0       0       0       0       0       0       0       0       0       0       
      +0       0       0       0       0       0
   445 ;;      Locals:        20       0       0       0       0       0       0       0       0       0       0       0       
      +0       0       0       0       0       0       0       0       0       0       0       0       0       0       0       
      +0       0       0       0       0       0
   446 ;;      Temps:          2       0       0       0       0       0       0       0       0       0       0       0       
      +0       0       0       0       0       0       0       0       0       0       0       0       0       0       0       
      +0       0       0       0       0       0
   447 ;;      Totals:        22       0       0       0       0       0       0       0       0       0       0       0       
      +0       0       0       0       0       0       0       0       0       0       0       0       0       0       0       
      +0       0       0       0       0       0
   448 ;;Total ram usage:       22 bytes
   449 ;; Hardware stack levels required when called: 6
   450 ;; This function calls:
   451 ;;		_LCDgoto
   452 ;;		_LCDinit
   453 ;;		_LCDinstruct
   454 ;;		_LCDprintc
   455 ;;		_RTCrun
   456 ;;		___awmod
   457 ;;		_keyScan
   458 ;; This function is called by:
   459 ;;		Startup code after reset
   460 ;; This function uses a non-reentrant model
   461 ;;
   462                           
   463                           	psect	text0
   464   002612                     __ptext0:
   465                           	callstack 0
   466   002612                     _main:
   467                           	callstack 121
   468   002612                     
   469                           ;C:/Users/a_hui/OneDrive - Camosun College/term2/ecet165_embedded_mc/labs/lab10/setRTC_t
      +                          est.c: 26:     time current_time;;C:/Users/a_hui/OneDrive - Camosun College/term2/ecet16
      +                          5_embedded_mc/labs/lab10/setRTC_test.c: 27:     current_time.hours = 12;
   470   002612  0E0C               	movlw	12
   471   002614  6E3C               	movwf	main@current_time^(0+1280),c
   472                           
   473                           ;C:/Users/a_hui/OneDrive - Camosun College/term2/ecet165_embedded_mc/labs/lab10/setRTC_t
      +                          est.c: 28:     current_time.minutes = 0;
   474   002616  0E00               	movlw	0
   475   002618  6E3D               	movwf	(main@current_time+1)^(0+1280),c
   476                           
   477                           ;C:/Users/a_hui/OneDrive - Camosun College/term2/ecet165_embedded_mc/labs/lab10/setRTC_t
      +                          est.c: 29:     current_time.seconds = 0;
   478   00261A  0E00               	movlw	0
   479   00261C  6E3E               	movwf	(main@current_time+2)^(0+1280),c
   480                           
   481                           ;C:/Users/a_hui/OneDrive - Camosun College/term2/ecet165_embedded_mc/labs/lab10/setRTC_t
      +                          est.c: 30:     current_time.meridian = 'a';
   482   00261E  0E61               	movlw	97
   483   002620  6E3F               	movwf	(main@current_time+3)^(0+1280),c
   484   002622                     
   485                           ;C:/Users/a_hui/OneDrive - Camosun College/term2/ecet165_embedded_mc/labs/lab10/setRTC_t
      +                          est.c: 36:     char indexer[12] = "HH:MM:SS Xm";
   486   002622  EE21  F14D         	lfsr	2,main@F16727
   487   002626  EE11  F12C         	lfsr	1,main@indexer
   488   00262A  0E0B               	movlw	11
   489   00262C                     u851:
   490   00262C  C4DB F4E3          	movff	plusw2,plusw1
   491   002630  06E8               	decf	wreg,f,c
   492   002632  E2FC               	bc	u851
   493   002634                     
   494                           ;C:/Users/a_hui/OneDrive - Camosun College/term2/ecet165_embedded_mc/labs/lab10/setRTC_t
      +                          est.c: 39:     char key;;C:/Users/a_hui/OneDrive - Camosun College/term2/ecet165_embedde
      +                          d_mc/labs/lab10/setRTC_test.c: 43:     LCDinit();
   495   002634  ECE9  F016         	call	_LCDinit	;wreg free
   496   002638                     
   497                           ;C:/Users/a_hui/OneDrive - Camosun College/term2/ecet165_embedded_mc/labs/lab10/setRTC_t
      +                          est.c: 46:     nSetRTC = 1;
   498   002638  0E01               	movlw	1
   499   00263A  6E59               	movwf	_nSetRTC^(0+1280),c
   500   00263C                     l1929:
   501                           
   502                           ;C:/Users/a_hui/OneDrive - Camosun College/term2/ecet165_embedded_mc/labs/lab10/setRTC_t
      +                          est.c: 51:         if(nSetRTC){
   503   00263C  5059               	movf	_nSetRTC^(0+1280),w,c
   504   00263E  B4D8               	btfsc	status,2,c
   505   002640  EF24  F013         	goto	u861
   506   002644  EF26  F013         	goto	u860
   507   002648                     u861:
   508   002648  EF2C  F013         	goto	l1933
   509   00264C                     u860:
   510   00264C                     
   511                           ;C:/Users/a_hui/OneDrive - Camosun College/term2/ecet165_embedded_mc/labs/lab10/setRTC_t
      +                          est.c: 52:             RTCrun(&current_time);
   512   00264C  0E3C               	movlw	low main@current_time
   513   00264E  6E1D               	movwf	RTCrun@start_time^(0+1280),c
   514   002650  0E05               	movlw	high main@current_time
   515   002652  6E1E               	movwf	(RTCrun@start_time+1)^(0+1280),c
   516   002654  EC78  F015         	call	_RTCrun	;wreg free
   517   002658                     l1933:
   518                           
   519                           ;C:/Users/a_hui/OneDrive - Camosun College/term2/ecet165_embedded_mc/labs/lab10/setRTC_t
      +                          est.c: 56:         LCDinstruct(0x02);
   520   002658  0E02               	movlw	2
   521   00265A  EC8F  F018         	call	_LCDinstruct
   522   00265E                     
   523                           ;C:/Users/a_hui/OneDrive - Camosun College/term2/ecet165_embedded_mc/labs/lab10/setRTC_t
      +                          est.c: 57:         position = 0;
   524   00265E  0E00               	movlw	0
   525   002660  6E3A               	movwf	main@position^(0+1280),c
   526                           
   527                           ;C:/Users/a_hui/OneDrive - Camosun College/term2/ecet165_embedded_mc/labs/lab10/setRTC_t
      +                          est.c: 60:         while(!nSetRTC){
   528   002662  EF87  F014         	goto	l2013
   529   002666                     l1937:
   530                           
   531                           ;C:/Users/a_hui/OneDrive - Camosun College/term2/ecet165_embedded_mc/labs/lab10/setRTC_t
      +                          est.c: 61:             key = keyScan();
   532   002666  EC43  F016         	call	_keyScan	;wreg free
   533   00266A  6E3B               	movwf	main@key^(0+1280),c
   534                           
   535                           ;C:/Users/a_hui/OneDrive - Camosun College/term2/ecet165_embedded_mc/labs/lab10/setRTC_t
      +                          est.c: 64:             switch (key) {
   536   00266C  EF62  F014         	goto	l2011
   537   002670                     l1939:
   538                           
   539                           ;C:/Users/a_hui/OneDrive - Camosun College/term2/ecet165_embedded_mc/labs/lab10/setRTC_t
      +                          est.c: 66:                     LCDgoto(++position);
   540   002670  2A3A               	incf	main@position^(0+1280),f,c
   541   002672  503A               	movf	main@position^(0+1280),w,c
   542   002674  EC4B  F019         	call	_LCDgoto
   543                           
   544                           ;C:/Users/a_hui/OneDrive - Camosun College/term2/ecet165_embedded_mc/labs/lab10/setRTC_t
      +                          est.c: 67:                     break;
   545   002678  EF87  F014         	goto	l2013
   546   00267C                     l1941:
   547                           
   548                           ;C:/Users/a_hui/OneDrive - Camosun College/term2/ecet165_embedded_mc/labs/lab10/setRTC_t
      +                          est.c: 69:                     if(position != 0){
   549   00267C  503A               	movf	main@position^(0+1280),w,c
   550   00267E  B4D8               	btfsc	status,2,c
   551   002680  EF44  F013         	goto	u871
   552   002684  EF46  F013         	goto	u870
   553   002688                     u871:
   554   002688  EF87  F014         	goto	l2013
   555   00268C                     u870:
   556   00268C                     
   557                           ;C:/Users/a_hui/OneDrive - Camosun College/term2/ecet165_embedded_mc/labs/lab10/setRTC_t
      +                          est.c: 70:                         LCDgoto(--position);
   558   00268C  063A               	decf	main@position^(0+1280),f,c
   559   00268E  503A               	movf	main@position^(0+1280),w,c
   560   002690  EC4B  F019         	call	_LCDgoto
   561   002694  EF87  F014         	goto	l2013
   562   002698                     l1945:
   563                           
   564                           ;C:/Users/a_hui/OneDrive - Camosun College/term2/ecet165_embedded_mc/labs/lab10/setRTC_t
      +                          est.c: 74:                     current_time.hours = 12;
   565   002698  0E0C               	movlw	12
   566   00269A  6E3C               	movwf	main@current_time^(0+1280),c
   567                           
   568                           ;C:/Users/a_hui/OneDrive - Camosun College/term2/ecet165_embedded_mc/labs/lab10/setRTC_t
      +                          est.c: 75:                     current_time.minutes = 0;
   569   00269C  0E00               	movlw	0
   570   00269E  6E3D               	movwf	(main@current_time+1)^(0+1280),c
   571                           
   572                           ;C:/Users/a_hui/OneDrive - Camosun College/term2/ecet165_embedded_mc/labs/lab10/setRTC_t
      +                          est.c: 76:                     current_time.seconds = 0;
   573   0026A0  0E00               	movlw	0
   574   0026A2  6E3E               	movwf	(main@current_time+2)^(0+1280),c
   575                           
   576                           ;C:/Users/a_hui/OneDrive - Camosun College/term2/ecet165_embedded_mc/labs/lab10/setRTC_t
      +                          est.c: 77:                     current_time.meridian = 'a';
   577   0026A4  0E61               	movlw	97
   578   0026A6  6E3F               	movwf	(main@current_time+3)^(0+1280),c
   579                           
   580                           ;C:/Users/a_hui/OneDrive - Camosun College/term2/ecet165_embedded_mc/labs/lab10/setRTC_t
      +                          est.c: 78:                     nSetRTC = 1;
   581   0026A8  0E01               	movlw	1
   582   0026AA  6E59               	movwf	_nSetRTC^(0+1280),c
   583                           
   584                           ;C:/Users/a_hui/OneDrive - Camosun College/term2/ecet165_embedded_mc/labs/lab10/setRTC_t
      +                          est.c: 79:                     break;
   585   0026AC  EF87  F014         	goto	l2013
   586   0026B0                     l1947:
   587                           
   588                           ;C:/Users/a_hui/OneDrive - Camosun College/term2/ecet165_embedded_mc/labs/lab10/setRTC_t
      +                          est.c: 81:                     nSetRTC = 1;
   589   0026B0  0E01               	movlw	1
   590   0026B2  6E59               	movwf	_nSetRTC^(0+1280),c
   591                           
   592                           ;C:/Users/a_hui/OneDrive - Camosun College/term2/ecet165_embedded_mc/labs/lab10/setRTC_t
      +                          est.c: 82:                     break;
   593   0026B4  EF87  F014         	goto	l2013
   594   0026B8                     l1949:
   595                           
   596                           ;C:/Users/a_hui/OneDrive - Camosun College/term2/ecet165_embedded_mc/labs/lab10/setRTC_t
      +                          est.c: 86:                     current_time.meridian = (current_time.meridian == 'a')? '
      +                          p' : 'a';
   597   0026B8  0E61               	movlw	97
   598   0026BA  183F               	xorwf	(main@current_time+3)^(0+1280),w,c
   599   0026BC  B4D8               	btfsc	status,2,c
   600   0026BE  EF63  F013         	goto	u881
   601   0026C2  EF65  F013         	goto	u880
   602   0026C6                     u881:
   603   0026C6  EF6B  F013         	goto	l1953
   604   0026CA                     u880:
   605   0026CA  0E00               	movlw	0
   606   0026CC  6E39               	movwf	(_main$73+1)^(0+1280),c
   607   0026CE  0E61               	movlw	97
   608   0026D0  6E38               	movwf	_main$73^(0+1280),c
   609   0026D2  EF6F  F013         	goto	l1955
   610   0026D6                     l1953:
   611   0026D6  0E00               	movlw	0
   612   0026D8  6E39               	movwf	(_main$73+1)^(0+1280),c
   613   0026DA  0E70               	movlw	112
   614   0026DC  6E38               	movwf	_main$73^(0+1280),c
   615   0026DE                     l1955:
   616   0026DE  C538  F53F         	movff	_main$73,main@current_time+3
   617   0026E2                     
   618                           ;C:/Users/a_hui/OneDrive - Camosun College/term2/ecet165_embedded_mc/labs/lab10/setRTC_t
      +                          est.c: 87:                     LCDgoto(0x09);
   619   0026E2  0E09               	movlw	9
   620   0026E4  EC4B  F019         	call	_LCDgoto
   621   0026E8                     
   622                           ;C:/Users/a_hui/OneDrive - Camosun College/term2/ecet165_embedded_mc/labs/lab10/setRTC_t
      +                          est.c: 88:                     LCDprintc(current_time.meridian);
   623   0026E8  503F               	movf	(main@current_time+3)^(0+1280),w,c
   624   0026EA  EC18  F018         	call	_LCDprintc
   625   0026EE                     
   626                           ;C:/Users/a_hui/OneDrive - Camosun College/term2/ecet165_embedded_mc/labs/lab10/setRTC_t
      +                          est.c: 89:                     LCDgoto(position);
   627   0026EE  503A               	movf	main@position^(0+1280),w,c
   628   0026F0  EC4B  F019         	call	_LCDgoto
   629                           
   630                           ;C:/Users/a_hui/OneDrive - Camosun College/term2/ecet165_embedded_mc/labs/lab10/setRTC_t
      +                          est.c: 90:                     break;
   631   0026F4  EF87  F014         	goto	l2013
   632   0026F8                     l1963:
   633                           
   634                           ;C:/Users/a_hui/OneDrive - Camosun College/term2/ecet165_embedded_mc/labs/lab10/setRTC_t
      +                          est.c: 95:                             if ((position % 3)==0){
   635   0026F8  C53A  F502         	movff	main@position,___awmod@dividend
   636   0026FC  6A03               	clrf	(___awmod@dividend+1)^(0+1280),c
   637   0026FE  0E00               	movlw	0
   638   002700  6E05               	movwf	(___awmod@divisor+1)^(0+1280),c
   639   002702  0E03               	movlw	3
   640   002704  6E04               	movwf	___awmod@divisor^(0+1280),c
   641   002706  ECC0  F017         	call	___awmod	;wreg free
   642   00270A  5002               	movf	?___awmod^(0+1280),w,c
   643   00270C  1003               	iorwf	(?___awmod+1)^(0+1280),w,c
   644   00270E  A4D8               	btfss	status,2,c
   645   002710  EF8C  F013         	goto	u891
   646   002714  EF8E  F013         	goto	u890
   647   002718                     u891:
   648   002718  EF9F  F013         	goto	l1967
   649   00271C                     u890:
   650   00271C                     
   651                           ;C:/Users/a_hui/OneDrive - Camosun College/term2/ecet165_embedded_mc/labs/lab10/setRTC_t
      +                          est.c: 96:                                 current_time.hours = (current_time.hours % 10
      +                          ) + 10*(key-'0');
   652   00271C  C53C  F502         	movff	main@current_time,___awmod@dividend
   653   002720  6A03               	clrf	(___awmod@dividend+1)^(0+1280),c
   654   002722  0E00               	movlw	0
   655   002724  6E05               	movwf	(___awmod@divisor+1)^(0+1280),c
   656   002726  0E0A               	movlw	10
   657   002728  6E04               	movwf	___awmod@divisor^(0+1280),c
   658   00272A  ECC0  F017         	call	___awmod	;wreg free
   659   00272E  503B               	movf	main@key^(0+1280),w,c
   660   002730  0D0A               	mullw	10
   661   002732  50F3               	movf	243,w,c
   662   002734  2402               	addwf	?___awmod^(0+1280),w,c
   663   002736  0F20               	addlw	32
   664   002738  6E3C               	movwf	main@current_time^(0+1280),c
   665                           
   666                           ;C:/Users/a_hui/OneDrive - Camosun College/term2/ecet165_embedded_mc/labs/lab10/setRTC_t
      +                          est.c: 97:                             }else{
   667   00273A  EFAD  F013         	goto	l1971
   668   00273E                     l1967:
   669                           
   670                           ;C:/Users/a_hui/OneDrive - Camosun College/term2/ecet165_embedded_mc/labs/lab10/setRTC_t
      +                          est.c: 98:                                 current_time.hours -= current_time.hours % 10
      +                          ;
   671   00273E  C53C  F502         	movff	main@current_time,___awmod@dividend
   672   002742  6A03               	clrf	(___awmod@dividend+1)^(0+1280),c
   673   002744  0E00               	movlw	0
   674   002746  6E05               	movwf	(___awmod@divisor+1)^(0+1280),c
   675   002748  0E0A               	movlw	10
   676   00274A  6E04               	movwf	___awmod@divisor^(0+1280),c
   677   00274C  ECC0  F017         	call	___awmod	;wreg free
   678   002750  5002               	movf	?___awmod^(0+1280),w,c
   679   002752  5E3C               	subwf	main@current_time^(0+1280),f,c
   680   002754                     
   681                           ;C:/Users/a_hui/OneDrive - Camosun College/term2/ecet165_embedded_mc/labs/lab10/setRTC_t
      +                          est.c: 99:                                 current_time.hours += key - '0';
   682   002754  503B               	movf	main@key^(0+1280),w,c
   683   002756  0FD0               	addlw	208
   684   002758  263C               	addwf	main@current_time^(0+1280),f,c
   685   00275A                     l1971:
   686                           
   687                           ;C:/Users/a_hui/OneDrive - Camosun College/term2/ecet165_embedded_mc/labs/lab10/setRTC_t
      +                          est.c: 101:                             current_time.hours = (current_time.hours - 1) % 
      +                          12 + 1;
   688   00275A  0EFF               	movlw	255
   689   00275C  243C               	addwf	main@current_time^(0+1280),w,c
   690   00275E  6E02               	movwf	___awmod@dividend^(0+1280),c
   691   002760  6A03               	clrf	(___awmod@dividend+1)^(0+1280),c
   692   002762  0EFF               	movlw	255
   693   002764  2203               	addwfc	(___awmod@dividend+1)^(0+1280),f,c
   694   002766  0E00               	movlw	0
   695   002768  6E05               	movwf	(___awmod@divisor+1)^(0+1280),c
   696   00276A  0E0C               	movlw	12
   697   00276C  6E04               	movwf	___awmod@divisor^(0+1280),c
   698   00276E  ECC0  F017         	call	___awmod	;wreg free
   699   002772  2802               	incf	?___awmod^(0+1280),w,c
   700   002774  6E3C               	movwf	main@current_time^(0+1280),c
   701   002776                     
   702                           ;C:/Users/a_hui/OneDrive - Camosun College/term2/ecet165_embedded_mc/labs/lab10/setRTC_t
      +                          est.c: 102:                             LCDprintc(key);
   703   002776  503B               	movf	main@key^(0+1280),w,c
   704   002778  EC18  F018         	call	_LCDprintc
   705   00277C                     l1975:
   706                           
   707                           ;C:/Users/a_hui/OneDrive - Camosun College/term2/ecet165_embedded_mc/labs/lab10/setRTC_t
      +                          est.c: 103:                             position++;
   708   00277C  2A3A               	incf	main@position^(0+1280),f,c
   709                           
   710                           ;C:/Users/a_hui/OneDrive - Camosun College/term2/ecet165_embedded_mc/labs/lab10/setRTC_t
      +                          est.c: 104:                             break;
   711   00277E  EF87  F014         	goto	l2013
   712   002782                     l1977:
   713                           
   714                           ;C:/Users/a_hui/OneDrive - Camosun College/term2/ecet165_embedded_mc/labs/lab10/setRTC_t
      +                          est.c: 106:                             if ((position % 3)==0){
   715   002782  C53A  F502         	movff	main@position,___awmod@dividend
   716   002786  6A03               	clrf	(___awmod@dividend+1)^(0+1280),c
   717   002788  0E00               	movlw	0
   718   00278A  6E05               	movwf	(___awmod@divisor+1)^(0+1280),c
   719   00278C  0E03               	movlw	3
   720   00278E  6E04               	movwf	___awmod@divisor^(0+1280),c
   721   002790  ECC0  F017         	call	___awmod	;wreg free
   722   002794  5002               	movf	?___awmod^(0+1280),w,c
   723   002796  1003               	iorwf	(?___awmod+1)^(0+1280),w,c
   724   002798  A4D8               	btfss	status,2,c
   725   00279A  EFD1  F013         	goto	u901
   726   00279E  EFD3  F013         	goto	u900
   727   0027A2                     u901:
   728   0027A2  EFE4  F013         	goto	l1981
   729   0027A6                     u900:
   730   0027A6                     
   731                           ;C:/Users/a_hui/OneDrive - Camosun College/term2/ecet165_embedded_mc/labs/lab10/setRTC_t
      +                          est.c: 107:                                 current_time.minutes = (current_time.minutes
      +                           % 10) + 10*(key-'0');
   732   0027A6  C53D  F502         	movff	main@current_time+1,___awmod@dividend
   733   0027AA  6A03               	clrf	(___awmod@dividend+1)^(0+1280),c
   734   0027AC  0E00               	movlw	0
   735   0027AE  6E05               	movwf	(___awmod@divisor+1)^(0+1280),c
   736   0027B0  0E0A               	movlw	10
   737   0027B2  6E04               	movwf	___awmod@divisor^(0+1280),c
   738   0027B4  ECC0  F017         	call	___awmod	;wreg free
   739   0027B8  503B               	movf	main@key^(0+1280),w,c
   740   0027BA  0D0A               	mullw	10
   741   0027BC  50F3               	movf	243,w,c
   742   0027BE  2402               	addwf	?___awmod^(0+1280),w,c
   743   0027C0  0F20               	addlw	32
   744   0027C2  6E3D               	movwf	(main@current_time+1)^(0+1280),c
   745                           
   746                           ;C:/Users/a_hui/OneDrive - Camosun College/term2/ecet165_embedded_mc/labs/lab10/setRTC_t
      +                          est.c: 108:                             }else{
   747   0027C4  EFF2  F013         	goto	l1985
   748   0027C8                     l1981:
   749                           
   750                           ;C:/Users/a_hui/OneDrive - Camosun College/term2/ecet165_embedded_mc/labs/lab10/setRTC_t
      +                          est.c: 109:                                 current_time.minutes -= current_time.minutes
      +                           % 10;
   751   0027C8  C53D  F502         	movff	main@current_time+1,___awmod@dividend
   752   0027CC  6A03               	clrf	(___awmod@dividend+1)^(0+1280),c
   753   0027CE  0E00               	movlw	0
   754   0027D0  6E05               	movwf	(___awmod@divisor+1)^(0+1280),c
   755   0027D2  0E0A               	movlw	10
   756   0027D4  6E04               	movwf	___awmod@divisor^(0+1280),c
   757   0027D6  ECC0  F017         	call	___awmod	;wreg free
   758   0027DA  5002               	movf	?___awmod^(0+1280),w,c
   759   0027DC  5E3D               	subwf	(main@current_time+1)^(0+1280),f,c
   760   0027DE                     
   761                           ;C:/Users/a_hui/OneDrive - Camosun College/term2/ecet165_embedded_mc/labs/lab10/setRTC_t
      +                          est.c: 110:                                 current_time.minutes += key - '0';
   762   0027DE  503B               	movf	main@key^(0+1280),w,c
   763   0027E0  0FD0               	addlw	208
   764   0027E2  263D               	addwf	(main@current_time+1)^(0+1280),f,c
   765   0027E4                     l1985:
   766                           
   767                           ;C:/Users/a_hui/OneDrive - Camosun College/term2/ecet165_embedded_mc/labs/lab10/setRTC_t
      +                          est.c: 112:                             current_time.minutes = current_time.minutes % 60
      +                          ;
   768   0027E4  C53D  F502         	movff	main@current_time+1,___awmod@dividend
   769   0027E8  6A03               	clrf	(___awmod@dividend+1)^(0+1280),c
   770   0027EA  0E00               	movlw	0
   771   0027EC  6E05               	movwf	(___awmod@divisor+1)^(0+1280),c
   772   0027EE  0E3C               	movlw	60
   773   0027F0  6E04               	movwf	___awmod@divisor^(0+1280),c
   774   0027F2  ECC0  F017         	call	___awmod	;wreg free
   775   0027F6  5002               	movf	?___awmod^(0+1280),w,c
   776   0027F8  6E3D               	movwf	(main@current_time+1)^(0+1280),c
   777   0027FA                     
   778                           ;C:/Users/a_hui/OneDrive - Camosun College/term2/ecet165_embedded_mc/labs/lab10/setRTC_t
      +                          est.c: 113:                             LCDprintc(key);
   779   0027FA  503B               	movf	main@key^(0+1280),w,c
   780   0027FC  EC18  F018         	call	_LCDprintc
   781   002800  EFBE  F013         	goto	l1975
   782   002804                     l1991:
   783                           
   784                           ;C:/Users/a_hui/OneDrive - Camosun College/term2/ecet165_embedded_mc/labs/lab10/setRTC_t
      +                          est.c: 117:                             if ((position % 3)==0){
   785   002804  C53A  F502         	movff	main@position,___awmod@dividend
   786   002808  6A03               	clrf	(___awmod@dividend+1)^(0+1280),c
   787   00280A  0E00               	movlw	0
   788   00280C  6E05               	movwf	(___awmod@divisor+1)^(0+1280),c
   789   00280E  0E03               	movlw	3
   790   002810  6E04               	movwf	___awmod@divisor^(0+1280),c
   791   002812  ECC0  F017         	call	___awmod	;wreg free
   792   002816  5002               	movf	?___awmod^(0+1280),w,c
   793   002818  1003               	iorwf	(?___awmod+1)^(0+1280),w,c
   794   00281A  A4D8               	btfss	status,2,c
   795   00281C  EF12  F014         	goto	u911
   796   002820  EF14  F014         	goto	u910
   797   002824                     u911:
   798   002824  EF25  F014         	goto	l1995
   799   002828                     u910:
   800   002828                     
   801                           ;C:/Users/a_hui/OneDrive - Camosun College/term2/ecet165_embedded_mc/labs/lab10/setRTC_t
      +                          est.c: 118:                                 current_time.seconds = (current_time.seconds
      +                           % 10) + 10*(key-'0');
   802   002828  C53E  F502         	movff	main@current_time+2,___awmod@dividend
   803   00282C  6A03               	clrf	(___awmod@dividend+1)^(0+1280),c
   804   00282E  0E00               	movlw	0
   805   002830  6E05               	movwf	(___awmod@divisor+1)^(0+1280),c
   806   002832  0E0A               	movlw	10
   807   002834  6E04               	movwf	___awmod@divisor^(0+1280),c
   808   002836  ECC0  F017         	call	___awmod	;wreg free
   809   00283A  503B               	movf	main@key^(0+1280),w,c
   810   00283C  0D0A               	mullw	10
   811   00283E  50F3               	movf	243,w,c
   812   002840  2402               	addwf	?___awmod^(0+1280),w,c
   813   002842  0F20               	addlw	32
   814   002844  6E3E               	movwf	(main@current_time+2)^(0+1280),c
   815                           
   816                           ;C:/Users/a_hui/OneDrive - Camosun College/term2/ecet165_embedded_mc/labs/lab10/setRTC_t
      +                          est.c: 119:                             }else{
   817   002846  EF33  F014         	goto	l1999
   818   00284A                     l1995:
   819                           
   820                           ;C:/Users/a_hui/OneDrive - Camosun College/term2/ecet165_embedded_mc/labs/lab10/setRTC_t
      +                          est.c: 120:                                 current_time.seconds -= current_time.seconds
      +                           % 10;
   821   00284A  C53E  F502         	movff	main@current_time+2,___awmod@dividend
   822   00284E  6A03               	clrf	(___awmod@dividend+1)^(0+1280),c
   823   002850  0E00               	movlw	0
   824   002852  6E05               	movwf	(___awmod@divisor+1)^(0+1280),c
   825   002854  0E0A               	movlw	10
   826   002856  6E04               	movwf	___awmod@divisor^(0+1280),c
   827   002858  ECC0  F017         	call	___awmod	;wreg free
   828   00285C  5002               	movf	?___awmod^(0+1280),w,c
   829   00285E  5E3E               	subwf	(main@current_time+2)^(0+1280),f,c
   830   002860                     
   831                           ;C:/Users/a_hui/OneDrive - Camosun College/term2/ecet165_embedded_mc/labs/lab10/setRTC_t
      +                          est.c: 121:                                 current_time.seconds += key - '0';
   832   002860  503B               	movf	main@key^(0+1280),w,c
   833   002862  0FD0               	addlw	208
   834   002864  263E               	addwf	(main@current_time+2)^(0+1280),f,c
   835   002866                     l1999:
   836                           
   837                           ;C:/Users/a_hui/OneDrive - Camosun College/term2/ecet165_embedded_mc/labs/lab10/setRTC_t
      +                          est.c: 123:                             current_time.seconds = current_time.seconds % 60
      +                          ;
   838   002866  C53E  F502         	movff	main@current_time+2,___awmod@dividend
   839   00286A  6A03               	clrf	(___awmod@dividend+1)^(0+1280),c
   840   00286C  0E00               	movlw	0
   841   00286E  6E05               	movwf	(___awmod@divisor+1)^(0+1280),c
   842   002870  0E3C               	movlw	60
   843   002872  6E04               	movwf	___awmod@divisor^(0+1280),c
   844   002874  ECC0  F017         	call	___awmod	;wreg free
   845   002878  5002               	movf	?___awmod^(0+1280),w,c
   846   00287A  6E3E               	movwf	(main@current_time+2)^(0+1280),c
   847   00287C                     
   848                           ;C:/Users/a_hui/OneDrive - Camosun College/term2/ecet165_embedded_mc/labs/lab10/setRTC_t
      +                          est.c: 124:                             LCDprintc(key);
   849   00287C  503B               	movf	main@key^(0+1280),w,c
   850   00287E  EC18  F018         	call	_LCDprintc
   851   002882  EFBE  F013         	goto	l1975
   852   002886                     l2007:
   853   002886  0E2C               	movlw	low main@indexer
   854   002888  243A               	addwf	main@position^(0+1280),w,c
   855   00288A  6ED9               	movwf	fsr2l,c
   856   00288C  6ADA               	clrf	fsr2h,c
   857   00288E  0E05               	movlw	high main@indexer
   858   002890  22DA               	addwfc	fsr2h,f,c
   859   002892  50DF               	movf	indf2,w,c
   860   002894  6E2A               	movwf	??_main^(0+1280),c
   861   002896  6A2B               	clrf	(??_main+1)^(0+1280),c
   862                           
   863                           ; Switch on 2 bytes has been partitioned into a top level switch of size 1, and 1 sub-sw
      +                          itches
   864                           ; Switch size 1, requested type "simple"
   865                           ; Number of cases is 1, Range of values is 0 to 0
   866                           ; switch strategies available:
   867                           ; Name         Instructions Cycles
   868                           ; simple_byte            4     3 (average)
   869                           ;	Chosen strategy is simple_byte
   870   002898  502B               	movf	(??_main+1)^(0+1280),w,c
   871   00289A  0A00               	xorlw	0	; case 0
   872   00289C  B4D8               	btfsc	status,2,c
   873   00289E  EF53  F014         	goto	l2095
   874   0028A2  EF87  F014         	goto	l29
   875   0028A6                     l2095:
   876                           
   877                           ; Switch size 1, requested type "simple"
   878                           ; Number of cases is 3, Range of values is 72 to 83
   879                           ; switch strategies available:
   880                           ; Name         Instructions Cycles
   881                           ; simple_byte           10     6 (average)
   882                           ;	Chosen strategy is simple_byte
   883   0028A6  502A               	movf	??_main^(0+1280),w,c
   884   0028A8  0A48               	xorlw	72	; case 72
   885   0028AA  B4D8               	btfsc	status,2,c
   886   0028AC  EF7C  F013         	goto	l1963
   887   0028B0  0A05               	xorlw	5	; case 77
   888   0028B2  B4D8               	btfsc	status,2,c
   889   0028B4  EFC1  F013         	goto	l1977
   890   0028B8  0A1E               	xorlw	30	; case 83
   891   0028BA  B4D8               	btfsc	status,2,c
   892   0028BC  EF02  F014         	goto	l1991
   893   0028C0  EF87  F014         	goto	l29
   894   0028C4                     l2011:
   895   0028C4  503B               	movf	main@key^(0+1280),w,c
   896   0028C6  6E2A               	movwf	??_main^(0+1280),c
   897   0028C8  6A2B               	clrf	(??_main+1)^(0+1280),c
   898                           
   899                           ; Switch on 2 bytes has been partitioned into a top level switch of size 1, and 1 sub-sw
      +                          itches
   900                           ; Switch size 1, requested type "simple"
   901                           ; Number of cases is 1, Range of values is 0 to 0
   902                           ; switch strategies available:
   903                           ; Name         Instructions Cycles
   904                           ; simple_byte            4     3 (average)
   905                           ;	Chosen strategy is simple_byte
   906   0028CA  502B               	movf	(??_main+1)^(0+1280),w,c
   907   0028CC  0A00               	xorlw	0	; case 0
   908   0028CE  B4D8               	btfsc	status,2,c
   909   0028D0  EF6C  F014         	goto	l2097
   910   0028D4  EF43  F014         	goto	l2007
   911   0028D8                     l2097:
   912                           
   913                           ; Switch size 1, requested type "simple"
   914                           ; Number of cases is 6, Range of values is 35 to 68
   915                           ; switch strategies available:
   916                           ; Name         Instructions Cycles
   917                           ; simple_byte           19    10 (average)
   918                           ;	Chosen strategy is simple_byte
   919   0028D8  502A               	movf	??_main^(0+1280),w,c
   920   0028DA  0A23               	xorlw	35	; case 35
   921   0028DC  B4D8               	btfsc	status,2,c
   922   0028DE  EF87  F014         	goto	l2013
   923   0028E2  0A09               	xorlw	9	; case 42
   924   0028E4  B4D8               	btfsc	status,2,c
   925   0028E6  EF5C  F013         	goto	l1949
   926   0028EA  0A6B               	xorlw	107	; case 65
   927   0028EC  B4D8               	btfsc	status,2,c
   928   0028EE  EF38  F013         	goto	l1939
   929   0028F2  0A03               	xorlw	3	; case 66
   930   0028F4  B4D8               	btfsc	status,2,c
   931   0028F6  EF3E  F013         	goto	l1941
   932   0028FA  0A01               	xorlw	1	; case 67
   933   0028FC  B4D8               	btfsc	status,2,c
   934   0028FE  EF4C  F013         	goto	l1945
   935   002902  0A07               	xorlw	7	; case 68
   936   002904  B4D8               	btfsc	status,2,c
   937   002906  EF58  F013         	goto	l1947
   938   00290A  EF43  F014         	goto	l2007
   939   00290E                     l29:
   940   00290E                     l2013:
   941                           
   942                           ;C:/Users/a_hui/OneDrive - Camosun College/term2/ecet165_embedded_mc/labs/lab10/setRTC_t
      +                          est.c: 60:         while(!nSetRTC){
   943   00290E  5059               	movf	_nSetRTC^(0+1280),w,c
   944   002910  B4D8               	btfsc	status,2,c
   945   002912  EF8D  F014         	goto	u921
   946   002916  EF8F  F014         	goto	u920
   947   00291A                     u921:
   948   00291A  EF33  F013         	goto	l1937
   949   00291E                     u920:
   950   00291E  EF1E  F013         	goto	l1929
   951   002922  EF81  F000         	goto	start
   952   002926                     __end_of_main:
   953                           	callstack 0
   954                           
   955 ;; *************** function _keyScan *****************
   956 ;; Defined at:
   957 ;;		line 27 in file "C:/Users/a_hui/OneDrive - Camosun College/term2/ecet165_embedded_mc/labs/matrixkeypad/keypad18f.c"
   958 ;; Parameters:    Size  Location     Type
   959 ;;		None
   960 ;; Auto vars:     Size  Location     Type
   961 ;;  lookup         16    4[COMRAM] unsigned char [4][4]
   962 ;;  rowshift        1   22[COMRAM] unsigned char 
   963 ;;  cols            1   21[COMRAM] unsigned char 
   964 ;;  colshift        1   20[COMRAM] unsigned char 
   965 ;; Return value:  Size  Location     Type
   966 ;;                  1    wreg      unsigned char 
   967 ;; Registers used:
   968 ;;		wreg, fsr1l, fsr1h, fsr2l, fsr2h, status,2, status,0, prodl, prodh
   969 ;; Tracked objects:
   970 ;;		On entry : 0/0
   971 ;;		On exit  : 0/0
   972 ;;		Unchanged: 0/0
   973 ;; Data sizes:     COMRAM   BANK5   BANK6   BANK7   BANK8   BANK9  BANK10  BANK11  BANK12  BANK13  BANK14  BANK15  BANK1
      +6  BANK17  BANK18  BANK19  BANK20  BANK21  BANK22  BANK23  BANK24  BANK25  BANK26  BANK27  BANK28  BANK29  BANK30  BANK3
      +1  BANK32  BANK33  BANK34  BANK35  BANK36
   974 ;;      Params:         0       0       0       0       0       0       0       0       0       0       0       0       
      +0       0       0       0       0       0       0       0       0       0       0       0       0       0       0       
      +0       0       0       0       0       0
   975 ;;      Locals:        19       0       0       0       0       0       0       0       0       0       0       0       
      +0       0       0       0       0       0       0       0       0       0       0       0       0       0       0       
      +0       0       0       0       0       0
   976 ;;      Temps:          3       0       0       0       0       0       0       0       0       0       0       0       
      +0       0       0       0       0       0       0       0       0       0       0       0       0       0       0       
      +0       0       0       0       0       0
   977 ;;      Totals:        22       0       0       0       0       0       0       0       0       0       0       0       
      +0       0       0       0       0       0       0       0       0       0       0       0       0       0       0       
      +0       0       0       0       0       0
   978 ;;Total ram usage:       22 bytes
   979 ;; Hardware stack levels used: 1
   980 ;; Hardware stack levels required when called: 2
   981 ;; This function calls:
   982 ;;		Nothing
   983 ;; This function is called by:
   984 ;;		_main
   985 ;; This function uses a non-reentrant model
   986 ;;
   987                           
   988                           	psect	text1
   989   002C86                     __ptext1:
   990                           	callstack 0
   991   002C86                     _keyScan:
   992                           	callstack 124
   993   002C86                     
   994                           ;C:/Users/a_hui/OneDrive - Camosun College/term2/ecet165_embedded_mc/labs/matrixkeypad/k
      +                          eypad18f.c: 29:     unsigned char colshift = 0x00;
   995   002C86  0E00               	movlw	0
   996   002C88  6E15               	movwf	keyScan@colshift^(0+1280),c
   997                           
   998                           ;C:/Users/a_hui/OneDrive - Camosun College/term2/ecet165_embedded_mc/labs/matrixkeypad/k
      +                          eypad18f.c: 30:     unsigned char cols = 0x0;
   999   002C8A  0E00               	movlw	0
  1000   002C8C  6E16               	movwf	keyScan@cols^(0+1280),c
  1001                           
  1002                           ;C:/Users/a_hui/OneDrive - Camosun College/term2/ecet165_embedded_mc/labs/matrixkeypad/k
      +                          eypad18f.c: 31:     unsigned char rowshift = 0x00;
  1003   002C8E  0E00               	movlw	0
  1004   002C90  6E17               	movwf	keyScan@rowshift^(0+1280),c
  1005   002C92                     
  1006                           ;C:/Users/a_hui/OneDrive - Camosun College/term2/ecet165_embedded_mc/labs/matrixkeypad/k
      +                          eypad18f.c: 34:     char lookup[4][4] = {
  1007   002C92  EE21  F160         	lfsr	2,keyScan@F16694
  1008   002C96  EE11  F105         	lfsr	1,keyScan@lookup
  1009   002C9A  0E0F               	movlw	15
  1010   002C9C                     u771:
  1011   002C9C  C4DB F4E3          	movff	plusw2,plusw1
  1012   002CA0  06E8               	decf	wreg,f,c
  1013   002CA2  E2FC               	bc	u771
  1014   002CA4                     
  1015                           ;C:/Users/a_hui/OneDrive - Camosun College/term2/ecet165_embedded_mc/labs/matrixkeypad/k
      +                          eypad18f.c: 41:     ANSELF = 0x00; TRISF = 0xF0; WPUF = 0xF0; _delay((unsigned long)((1)
      +                          *(64000000/4000000.0)));;
  1016   002CA4  0E00               	movlw	0
  1017   002CA6  0104               	movlb	4	; () banked
  1018   002CA8  6F28               	movwf	40,b	;volatile
  1019   002CAA                     
  1020                           ; BSR set to: 4
  1021   002CAA  0EF0               	movlw	240
  1022   002CAC  6ECB               	movwf	203,c	;volatile
  1023   002CAE                     
  1024                           ; BSR set to: 4
  1025   002CAE  0EF0               	movlw	240
  1026   002CB0  6F29               	movwf	41,b	;volatile
  1027   002CB2                     
  1028                           ; BSR set to: 4
  1029   002CB2  0E05               	movlw	5
  1030   002CB4                     u957:
  1031   002CB4  2EE8               	decfsz	wreg,f,c
  1032   002CB6  D7FE               	bra	u957
  1033   002CB8  F000               	nop	
  1034   002CBA                     
  1035                           ;C:/Users/a_hui/OneDrive - Camosun College/term2/ecet165_embedded_mc/labs/matrixkeypad/k
      +                          eypad18f.c: 42:     LATF = 0x00;
  1036   002CBA  0E00               	movlw	0
  1037   002CBC  6EC3               	movwf	195,c	;volatile
  1038   002CBE                     l1879:
  1039   002CBE  0EF0               	movlw	240
  1040   002CC0  18D3               	xorwf	211,w,c	;volatile
  1041   002CC2  B4D8               	btfsc	status,2,c
  1042   002CC4  EF66  F016         	goto	u781
  1043   002CC8  EF68  F016         	goto	u780
  1044   002CCC                     u781:
  1045   002CCC  EF5F  F016         	goto	l1879
  1046   002CD0                     u780:
  1047   002CD0                     
  1048                           ;C:/Users/a_hui/OneDrive - Camosun College/term2/ecet165_embedded_mc/labs/matrixkeypad/k
      +                          eypad18f.c: 46:     _delay((unsigned long)((15)*(64000000/4000.0)));
  1049   002CD0  0E02               	movlw	2
  1050   002CD2  6E03               	movwf	(??_keyScan+1)^(0+1280),c
  1051   002CD4  0E38               	movlw	56
  1052   002CD6  6E02               	movwf	??_keyScan^(0+1280),c
  1053   002CD8  0EAD               	movlw	173
  1054   002CDA                     u967:
  1055   002CDA  2EE8               	decfsz	wreg,f,c
  1056   002CDC  D7FE               	bra	u967
  1057   002CDE  2E02               	decfsz	??_keyScan^(0+1280),f,c
  1058   002CE0  D7FC               	bra	u967
  1059   002CE2  2E03               	decfsz	(??_keyScan+1)^(0+1280),f,c
  1060   002CE4  D7FA               	bra	u967
  1061   002CE6  F000               	nop	
  1062                           
  1063                           ;C:/Users/a_hui/OneDrive - Camosun College/term2/ecet165_embedded_mc/labs/matrixkeypad/k
      +                          eypad18f.c: 49:     while(!(cols)){
  1064   002CE8  EF9B  F016         	goto	l1895
  1065   002CEC                     l1883:
  1066                           
  1067                           ;C:/Users/a_hui/OneDrive - Camosun College/term2/ecet165_embedded_mc/labs/matrixkeypad/k
      +                          eypad18f.c: 50:         if(rowshift > 0x3){
  1068   002CEC  0E03               	movlw	3
  1069   002CEE  6417               	cpfsgt	keyScan@rowshift^(0+1280),c
  1070   002CF0  EF7C  F016         	goto	u791
  1071   002CF4  EF7E  F016         	goto	u790
  1072   002CF8                     u791:
  1073   002CF8  EF80  F016         	goto	l1887
  1074   002CFC                     u790:
  1075   002CFC                     
  1076                           ;C:/Users/a_hui/OneDrive - Camosun College/term2/ecet165_embedded_mc/labs/matrixkeypad/k
      +                          eypad18f.c: 51:             rowshift = 0x0;
  1077   002CFC  0E00               	movlw	0
  1078   002CFE  6E17               	movwf	keyScan@rowshift^(0+1280),c
  1079   002D00                     l1887:
  1080                           
  1081                           ;C:/Users/a_hui/OneDrive - Camosun College/term2/ecet165_embedded_mc/labs/matrixkeypad/k
      +                          eypad18f.c: 54:         LATF = ~(0x08>>rowshift);
  1082   002D00  C517  F502         	movff	keyScan@rowshift,??_keyScan
  1083   002D04  0E08               	movlw	8
  1084   002D06  6E03               	movwf	(??_keyScan+1)^(0+1280),c
  1085   002D08  0E00               	movlw	0
  1086   002D0A  6E04               	movwf	(??_keyScan+2)^(0+1280),c
  1087   002D0C  2A02               	incf	??_keyScan^(0+1280),f,c
  1088   002D0E  EF8C  F016         	goto	u804
  1089   002D12                     u805:
  1090   002D12  3404               	rlcf	(??_keyScan+2)^(0+1280),w,c
  1091   002D14  3204               	rrcf	(??_keyScan+2)^(0+1280),f,c
  1092   002D16  3203               	rrcf	(??_keyScan+1)^(0+1280),f,c
  1093   002D18                     u804:
  1094   002D18  2E02               	decfsz	??_keyScan^(0+1280),f,c
  1095   002D1A  EF89  F016         	goto	u805
  1096   002D1E  5003               	movf	(??_keyScan+1)^(0+1280),w,c
  1097   002D20  0AFF               	xorlw	255
  1098   002D22  6EC3               	movwf	195,c	;volatile
  1099   002D24                     
  1100                           ;C:/Users/a_hui/OneDrive - Camosun College/term2/ecet165_embedded_mc/labs/matrixkeypad/k
      +                          eypad18f.c: 56:         _delay((unsigned long)((1)*(64000000/4000000.0)));
  1101   002D24  0E05               	movlw	5
  1102   002D26                     u977:
  1103   002D26  2EE8               	decfsz	wreg,f,c
  1104   002D28  D7FE               	bra	u977
  1105   002D2A  F000               	nop	
  1106   002D2C                     
  1107                           ;C:/Users/a_hui/OneDrive - Camosun College/term2/ecet165_embedded_mc/labs/matrixkeypad/k
      +                          eypad18f.c: 58:         cols = (~(PORTF)& 0xF0);
  1108   002D2C  50D3               	movf	211,w,c	;volatile
  1109   002D2E  0AFF               	xorlw	255
  1110   002D30  0BF0               	andlw	240
  1111   002D32  6E16               	movwf	keyScan@cols^(0+1280),c
  1112   002D34                     
  1113                           ;C:/Users/a_hui/OneDrive - Camosun College/term2/ecet165_embedded_mc/labs/matrixkeypad/k
      +                          eypad18f.c: 59:         rowshift++;
  1114   002D34  2A17               	incf	keyScan@rowshift^(0+1280),f,c
  1115   002D36                     l1895:
  1116                           
  1117                           ;C:/Users/a_hui/OneDrive - Camosun College/term2/ecet165_embedded_mc/labs/matrixkeypad/k
      +                          eypad18f.c: 49:     while(!(cols)){
  1118   002D36  5016               	movf	keyScan@cols^(0+1280),w,c
  1119   002D38  B4D8               	btfsc	status,2,c
  1120   002D3A  EFA1  F016         	goto	u811
  1121   002D3E  EFA3  F016         	goto	u810
  1122   002D42                     u811:
  1123   002D42  EF76  F016         	goto	l1883
  1124   002D46                     u810:
  1125   002D46                     
  1126                           ;C:/Users/a_hui/OneDrive - Camosun College/term2/ecet165_embedded_mc/labs/matrixkeypad/k
      +                          eypad18f.c: 63:     rowshift--;
  1127   002D46  0617               	decf	keyScan@rowshift^(0+1280),f,c
  1128   002D48                     
  1129                           ;C:/Users/a_hui/OneDrive - Camosun College/term2/ecet165_embedded_mc/labs/matrixkeypad/k
      +                          eypad18f.c: 66:     LATF = 0x00;
  1130   002D48  0E00               	movlw	0
  1131   002D4A  6EC3               	movwf	195,c	;volatile
  1132   002D4C                     
  1133                           ;C:/Users/a_hui/OneDrive - Camosun College/term2/ecet165_embedded_mc/labs/matrixkeypad/k
      +                          eypad18f.c: 67:     _delay((unsigned long)((1)*(64000000/4000000.0)));
  1134   002D4C  0E05               	movlw	5
  1135   002D4E                     u987:
  1136   002D4E  2EE8               	decfsz	wreg,f,c
  1137   002D50  D7FE               	bra	u987
  1138   002D52  F000               	nop	
  1139   002D54                     l1903:
  1140   002D54  0EF0               	movlw	240
  1141   002D56  18D3               	xorwf	211,w,c	;volatile
  1142   002D58  A4D8               	btfss	status,2,c
  1143   002D5A  EFB1  F016         	goto	u821
  1144   002D5E  EFB3  F016         	goto	u820
  1145   002D62                     u821:
  1146   002D62  EFAA  F016         	goto	l1903
  1147   002D66                     u820:
  1148   002D66                     
  1149                           ;C:/Users/a_hui/OneDrive - Camosun College/term2/ecet165_embedded_mc/labs/matrixkeypad/k
      +                          eypad18f.c: 71:     LATF = 0xF0;
  1150   002D66  0EF0               	movlw	240
  1151   002D68  6EC3               	movwf	195,c	;volatile
  1152   002D6A                     
  1153                           ;C:/Users/a_hui/OneDrive - Camosun College/term2/ecet165_embedded_mc/labs/matrixkeypad/k
      +                          eypad18f.c: 72:     _delay((unsigned long)((15)*(64000000/4000.0)));
  1154   002D6A  0E02               	movlw	2
  1155   002D6C  6E03               	movwf	(??_keyScan+1)^(0+1280),c
  1156   002D6E  0E38               	movlw	56
  1157   002D70  6E02               	movwf	??_keyScan^(0+1280),c
  1158   002D72  0EAD               	movlw	173
  1159   002D74                     u997:
  1160   002D74  2EE8               	decfsz	wreg,f,c
  1161   002D76  D7FE               	bra	u997
  1162   002D78  2E02               	decfsz	??_keyScan^(0+1280),f,c
  1163   002D7A  D7FC               	bra	u997
  1164   002D7C  2E03               	decfsz	(??_keyScan+1)^(0+1280),f,c
  1165   002D7E  D7FA               	bra	u997
  1166   002D80  F000               	nop	
  1167                           
  1168                           ;C:/Users/a_hui/OneDrive - Camosun College/term2/ecet165_embedded_mc/labs/matrixkeypad/k
      +                          eypad18f.c: 75:     while(!(cols<<colshift & 0x80)){
  1169   002D82  EFC4  F016         	goto	l1911
  1170   002D86                     l1909:
  1171                           
  1172                           ;C:/Users/a_hui/OneDrive - Camosun College/term2/ecet165_embedded_mc/labs/matrixkeypad/k
      +                          eypad18f.c: 76:         colshift++;
  1173   002D86  2A15               	incf	keyScan@colshift^(0+1280),f,c
  1174   002D88                     l1911:
  1175                           
  1176                           ;C:/Users/a_hui/OneDrive - Camosun College/term2/ecet165_embedded_mc/labs/matrixkeypad/k
      +                          eypad18f.c: 75:     while(!(cols<<colshift & 0x80)){
  1177   002D88  C515  F502         	movff	keyScan@colshift,??_keyScan
  1178   002D8C  5016               	movf	keyScan@cols^(0+1280),w,c
  1179   002D8E  6E03               	movwf	(??_keyScan+1)^(0+1280),c
  1180   002D90  6A04               	clrf	(??_keyScan+2)^(0+1280),c
  1181   002D92  2A02               	incf	??_keyScan^(0+1280),f,c
  1182   002D94  EFCF  F016         	goto	u834
  1183   002D98                     u835:
  1184   002D98  90D8               	bcf	status,0,c
  1185   002D9A  3603               	rlcf	(??_keyScan+1)^(0+1280),f,c
  1186   002D9C  3604               	rlcf	(??_keyScan+2)^(0+1280),f,c
  1187   002D9E                     u834:
  1188   002D9E  2E02               	decfsz	??_keyScan^(0+1280),f,c
  1189   002DA0  EFCC  F016         	goto	u835
  1190   002DA4  AE03               	btfss	(??_keyScan+1)^(0+1280),7,c
  1191   002DA6  EFD7  F016         	goto	u841
  1192   002DAA  EFD9  F016         	goto	u840
  1193   002DAE                     u841:
  1194   002DAE  EFC3  F016         	goto	l1909
  1195   002DB2                     u840:
  1196   002DB2                     
  1197                           ;C:/Users/a_hui/OneDrive - Camosun College/term2/ecet165_embedded_mc/labs/matrixkeypad/k
      +                          eypad18f.c: 79:     return lookup[rowshift][colshift];
  1198   002DB2  5017               	movf	keyScan@rowshift^(0+1280),w,c
  1199   002DB4  0D04               	mullw	4
  1200   002DB6  0E05               	movlw	low keyScan@lookup
  1201   002DB8  24F3               	addwf	243,w,c
  1202   002DBA  6E02               	movwf	??_keyScan^(0+1280),c
  1203   002DBC  0E05               	movlw	high keyScan@lookup
  1204   002DBE  20F4               	addwfc	prodh,w,c
  1205   002DC0  6E03               	movwf	(??_keyScan+1)^(0+1280),c
  1206   002DC2  5015               	movf	keyScan@colshift^(0+1280),w,c
  1207   002DC4  2402               	addwf	??_keyScan^(0+1280),w,c
  1208   002DC6  6ED9               	movwf	fsr2l,c
  1209   002DC8  0E00               	movlw	0
  1210   002DCA  2003               	addwfc	(??_keyScan+1)^(0+1280),w,c
  1211   002DCC  6EDA               	movwf	fsr2h,c
  1212   002DCE  50DF               	movf	indf2,w,c
  1213   002DD0  0012               	return		;funcret
  1214   002DD2                     __end_of_keyScan:
  1215                           	callstack 0
  1216                           
  1217 ;; *************** function _RTCrun *****************
  1218 ;; Defined at:
  1219 ;;		line 23 in file "C:/Users/a_hui/OneDrive - Camosun College/term2/ecet165_embedded_mc/labs/lab9/RealTimeClock.c"
  1220 ;; Parameters:    Size  Location     Type
  1221 ;;  start_time      2   28[COMRAM] PTR struct realtime
  1222 ;;		 -> main@current_time(4), 
  1223 ;; Auto vars:     Size  Location     Type
  1224 ;;  current_time    8   31[COMRAM] PTR unsigned char [4]
  1225 ;;		 -> NULL(0), current_time.meridian(1), current_time.seconds(1), current_time.minutes(1), 
  1226 ;;		 -> current_time.hours(1), main@current_time(4), 
  1227 ;; Return value:  Size  Location     Type
  1228 ;;                  1    wreg      void 
  1229 ;; Registers used:
  1230 ;;		wreg, fsr2l, fsr2h, status,2, status,0, tblptrl, tblptrh, tblptru, cstack
  1231 ;; Tracked objects:
  1232 ;;		On entry : 0/0
  1233 ;;		On exit  : 0/0
  1234 ;;		Unchanged: 0/0
  1235 ;; Data sizes:     COMRAM   BANK5   BANK6   BANK7   BANK8   BANK9  BANK10  BANK11  BANK12  BANK13  BANK14  BANK15  BANK1
      +6  BANK17  BANK18  BANK19  BANK20  BANK21  BANK22  BANK23  BANK24  BANK25  BANK26  BANK27  BANK28  BANK29  BANK30  BANK3
      +1  BANK32  BANK33  BANK34  BANK35  BANK36
  1236 ;;      Params:         2       0       0       0       0       0       0       0       0       0       0       0       
      +0       0       0       0       0       0       0       0       0       0       0       0       0       0       0       
      +0       0       0       0       0       0
  1237 ;;      Locals:        10       0       0       0       0       0       0       0       0       0       0       0       
      +0       0       0       0       0       0       0       0       0       0       0       0       0       0       0       
      +0       0       0       0       0       0
  1238 ;;      Temps:          1       0       0       0       0       0       0       0       0       0       0       0       
      +0       0       0       0       0       0       0       0       0       0       0       0       0       0       0       
      +0       0       0       0       0       0
  1239 ;;      Totals:        13       0       0       0       0       0       0       0       0       0       0       0       
      +0       0       0       0       0       0       0       0       0       0       0       0       0       0       0       
      +0       0       0       0       0       0
  1240 ;;Total ram usage:       13 bytes
  1241 ;; Hardware stack levels used: 1
  1242 ;; Hardware stack levels required when called: 5
  1243 ;; This function calls:
  1244 ;;		_LCDinstruct
  1245 ;;		_LCDprintf
  1246 ;;		_timerInit
  1247 ;; This function is called by:
  1248 ;;		_main
  1249 ;; This function uses a non-reentrant model
  1250 ;;
  1251                           
  1252                           	psect	text2
  1253   002AF0                     __ptext2:
  1254                           	callstack 0
  1255   002AF0                     _RTCrun:
  1256                           	callstack 121
  1257   002AF0                     
  1258                           ;C:/Users/a_hui/OneDrive - Camosun College/term2/ecet165_embedded_mc/labs/lab9/RealTimeC
      +                          lock.c: 25:     char* current_time[4] = {&start_time->hours, &start_time->minutes, &star
      +                          t_time->seconds, &start_time->meridian};
  1259   002AF0  EE21  F120         	lfsr	2,RTCrun@current_time
  1260   002AF4  0E07               	movlw	7
  1261   002AF6                     u691:
  1262   002AF6  6ADE               	clrf	postinc2,c
  1263   002AF8  06E8               	decf	wreg,f,c
  1264   002AFA  E2FD               	bc	u691
  1265   002AFC  C51D  F520         	movff	RTCrun@start_time,RTCrun@current_time
  1266   002B00  C51E  F521         	movff	RTCrun@start_time+1,RTCrun@current_time+1
  1267   002B04  0E01               	movlw	1
  1268   002B06  241D               	addwf	RTCrun@start_time^(0+1280),w,c
  1269   002B08  6E22               	movwf	(RTCrun@current_time+2)^(0+1280),c
  1270   002B0A  0E00               	movlw	0
  1271   002B0C  201E               	addwfc	(RTCrun@start_time+1)^(0+1280),w,c
  1272   002B0E  6E23               	movwf	(RTCrun@current_time+3)^(0+1280),c
  1273   002B10  0E02               	movlw	2
  1274   002B12  241D               	addwf	RTCrun@start_time^(0+1280),w,c
  1275   002B14  6E24               	movwf	(RTCrun@current_time+4)^(0+1280),c
  1276   002B16  0E00               	movlw	0
  1277   002B18  201E               	addwfc	(RTCrun@start_time+1)^(0+1280),w,c
  1278   002B1A  6E25               	movwf	(RTCrun@current_time+5)^(0+1280),c
  1279   002B1C  0E03               	movlw	3
  1280   002B1E  241D               	addwf	RTCrun@start_time^(0+1280),w,c
  1281   002B20  6E26               	movwf	(RTCrun@current_time+6)^(0+1280),c
  1282   002B22  0E00               	movlw	0
  1283   002B24  201E               	addwfc	(RTCrun@start_time+1)^(0+1280),w,c
  1284   002B26  6E27               	movwf	(RTCrun@current_time+7)^(0+1280),c
  1285   002B28                     
  1286                           ;C:/Users/a_hui/OneDrive - Camosun College/term2/ecet165_embedded_mc/labs/lab9/RealTimeC
      +                          lock.c: 28:     nSetRTC = 1;
  1287   002B28  0E01               	movlw	1
  1288   002B2A  6E59               	movwf	_nSetRTC^(0+1280),c
  1289   002B2C                     
  1290                           ;C:/Users/a_hui/OneDrive - Camosun College/term2/ecet165_embedded_mc/labs/lab9/RealTimeC
      +                          lock.c: 31:     timerInit();
  1291   002B2C  EC22  F019         	call	_timerInit	;wreg free
  1292   002B30                     
  1293                           ;C:/Users/a_hui/OneDrive - Camosun College/term2/ecet165_embedded_mc/labs/lab9/RealTimeC
      +                          lock.c: 34:     TRISBbits.TRISB4 = 1;
  1294   002B30  88C7               	bsf	199,4,c	;volatile
  1295   002B32                     
  1296                           ;C:/Users/a_hui/OneDrive - Camosun College/term2/ecet165_embedded_mc/labs/lab9/RealTimeC
      +                          lock.c: 35:     ANSELBbits.ANSELB4 = 0;
  1297   002B32  0104               	movlb	4	; () banked
  1298   002B34  9908               	bcf	8,4,b	;volatile
  1299   002B36                     
  1300                           ; BSR set to: 4
  1301                           ;C:/Users/a_hui/OneDrive - Camosun College/term2/ecet165_embedded_mc/labs/lab9/RealTimeC
      +                          lock.c: 36:     WPUBbits.WPUB4 = 1;
  1302   002B36  8909               	bsf	9,4,b	;volatile
  1303   002B38                     
  1304                           ; BSR set to: 4
  1305                           ;C:/Users/a_hui/OneDrive - Camosun College/term2/ecet165_embedded_mc/labs/lab9/RealTimeC
      +                          lock.c: 40:     INTCON0bits.IPEN = 1;
  1306   002B38  8AD6               	bsf	214,5,c	;volatile
  1307   002B3A                     
  1308                           ; BSR set to: 4
  1309                           ;C:/Users/a_hui/OneDrive - Camosun College/term2/ecet165_embedded_mc/labs/lab9/RealTimeC
      +                          lock.c: 43:     PIE0bits.IOCIE = 1;
  1310   002B3A  8E9E               	bsf	158,7,c	;volatile
  1311   002B3C                     
  1312                           ; BSR set to: 4
  1313                           ;C:/Users/a_hui/OneDrive - Camosun College/term2/ecet165_embedded_mc/labs/lab9/RealTimeC
      +                          lock.c: 44:     IOCBN4 = 1;
  1314   002B3C  890E               	bsf	14,4,b	;volatile
  1315   002B3E                     
  1316                           ; BSR set to: 4
  1317                           ;C:/Users/a_hui/OneDrive - Camosun College/term2/ecet165_embedded_mc/labs/lab9/RealTimeC
      +                          lock.c: 45:     IOCBF = 0x00;
  1318   002B3E  0E00               	movlw	0
  1319   002B40  6F0F               	movwf	15,b	;volatile
  1320                           
  1321                           ;C:/Users/a_hui/OneDrive - Camosun College/term2/ecet165_embedded_mc/labs/lab9/RealTimeC
      +                          lock.c: 50:     while(nSetRTC){
  1322   002B42  EF3A  F016         	goto	l1863
  1323   002B46                     l1831:
  1324                           
  1325                           ;C:/Users/a_hui/OneDrive - Camosun College/term2/ecet165_embedded_mc/labs/lab9/RealTimeC
      +                          lock.c: 52:         if(tick_count > 99){
  1326   002B46  0E63               	movlw	99
  1327   002B48  644C               	cpfsgt	_tick_count^(0+1280),c	;volatile
  1328   002B4A  EFA9  F015         	goto	u701
  1329   002B4E  EFAB  F015         	goto	u700
  1330   002B52                     u701:
  1331   002B52  EF3A  F016         	goto	l1863
  1332   002B56                     u700:
  1333   002B56                     
  1334                           ;C:/Users/a_hui/OneDrive - Camosun College/term2/ecet165_embedded_mc/labs/lab9/RealTimeC
      +                          lock.c: 53:             tick_count -= 100;
  1335   002B56  0E64               	movlw	100
  1336   002B58  5E4C               	subwf	_tick_count^(0+1280),f,c	;volatile
  1337   002B5A                     
  1338                           ;C:/Users/a_hui/OneDrive - Camosun College/term2/ecet165_embedded_mc/labs/lab9/RealTimeC
      +                          lock.c: 54:             (start_time)->seconds++;
  1339   002B5A  EE20 F002          	lfsr	2,2
  1340   002B5E  501D               	movf	RTCrun@start_time^(0+1280),w,c
  1341   002B60  26D9               	addwf	fsr2l,f,c
  1342   002B62  501E               	movf	(RTCrun@start_time+1)^(0+1280),w,c
  1343   002B64  22DA               	addwfc	fsr2h,f,c
  1344   002B66  2ADF               	incf	indf2,f,c
  1345   002B68                     
  1346                           ;C:/Users/a_hui/OneDrive - Camosun College/term2/ecet165_embedded_mc/labs/lab9/RealTimeC
      +                          lock.c: 55:             if((start_time)->seconds > 59){
  1347   002B68  EE20 F002          	lfsr	2,2
  1348   002B6C  501D               	movf	RTCrun@start_time^(0+1280),w,c
  1349   002B6E  26D9               	addwf	fsr2l,f,c
  1350   002B70  501E               	movf	(RTCrun@start_time+1)^(0+1280),w,c
  1351   002B72  22DA               	addwfc	fsr2h,f,c
  1352   002B74  0E3B               	movlw	59
  1353   002B76  64DF               	cpfsgt	indf2,c
  1354   002B78  EFC0  F015         	goto	u711
  1355   002B7C  EFC2  F015         	goto	u710
  1356   002B80                     u711:
  1357   002B80  EF2D  F016         	goto	l1859
  1358   002B84                     u710:
  1359   002B84                     
  1360                           ;C:/Users/a_hui/OneDrive - Camosun College/term2/ecet165_embedded_mc/labs/lab9/RealTimeC
      +                          lock.c: 56:                 (start_time)->seconds = 0;
  1361   002B84  EE20 F002          	lfsr	2,2
  1362   002B88  501D               	movf	RTCrun@start_time^(0+1280),w,c
  1363   002B8A  26D9               	addwf	fsr2l,f,c
  1364   002B8C  501E               	movf	(RTCrun@start_time+1)^(0+1280),w,c
  1365   002B8E  22DA               	addwfc	fsr2h,f,c
  1366   002B90  0E00               	movlw	0
  1367   002B92  6EDF               	movwf	indf2,c
  1368                           
  1369                           ;C:/Users/a_hui/OneDrive - Camosun College/term2/ecet165_embedded_mc/labs/lab9/RealTimeC
      +                          lock.c: 57:                 (start_time)->minutes++;
  1370   002B94  EE20 F001          	lfsr	2,1
  1371   002B98  501D               	movf	RTCrun@start_time^(0+1280),w,c
  1372   002B9A  26D9               	addwf	fsr2l,f,c
  1373   002B9C  501E               	movf	(RTCrun@start_time+1)^(0+1280),w,c
  1374   002B9E  22DA               	addwfc	fsr2h,f,c
  1375   002BA0  2ADF               	incf	indf2,f,c
  1376                           
  1377                           ;C:/Users/a_hui/OneDrive - Camosun College/term2/ecet165_embedded_mc/labs/lab9/RealTimeC
      +                          lock.c: 58:                 if((start_time)->minutes>59){
  1378   002BA2  EE20 F001          	lfsr	2,1
  1379   002BA6  501D               	movf	RTCrun@start_time^(0+1280),w,c
  1380   002BA8  26D9               	addwf	fsr2l,f,c
  1381   002BAA  501E               	movf	(RTCrun@start_time+1)^(0+1280),w,c
  1382   002BAC  22DA               	addwfc	fsr2h,f,c
  1383   002BAE  0E3B               	movlw	59
  1384   002BB0  64DF               	cpfsgt	indf2,c
  1385   002BB2  EFDD  F015         	goto	u721
  1386   002BB6  EFDF  F015         	goto	u720
  1387   002BBA                     u721:
  1388   002BBA  EF2D  F016         	goto	l1859
  1389   002BBE                     u720:
  1390   002BBE                     
  1391                           ;C:/Users/a_hui/OneDrive - Camosun College/term2/ecet165_embedded_mc/labs/lab9/RealTimeC
      +                          lock.c: 59:                     (start_time)->minutes = 0;
  1392   002BBE  EE20 F001          	lfsr	2,1
  1393   002BC2  501D               	movf	RTCrun@start_time^(0+1280),w,c
  1394   002BC4  26D9               	addwf	fsr2l,f,c
  1395   002BC6  501E               	movf	(RTCrun@start_time+1)^(0+1280),w,c
  1396   002BC8  22DA               	addwfc	fsr2h,f,c
  1397   002BCA  0E00               	movlw	0
  1398   002BCC  6EDF               	movwf	indf2,c
  1399   002BCE                     
  1400                           ;C:/Users/a_hui/OneDrive - Camosun College/term2/ecet165_embedded_mc/labs/lab9/RealTimeC
      +                          lock.c: 60:                     (start_time)->hours++;
  1401   002BCE  C51D  F4D9         	movff	RTCrun@start_time,fsr2l
  1402   002BD2  C51E  F4DA         	movff	RTCrun@start_time+1,fsr2h
  1403   002BD6  2ADF               	incf	indf2,f,c
  1404   002BD8                     
  1405                           ;C:/Users/a_hui/OneDrive - Camosun College/term2/ecet165_embedded_mc/labs/lab9/RealTimeC
      +                          lock.c: 61:                     if((start_time)->hours>11){
  1406   002BD8  C51D  F4D9         	movff	RTCrun@start_time,fsr2l
  1407   002BDC  C51E  F4DA         	movff	RTCrun@start_time+1,fsr2h
  1408   002BE0  0E0B               	movlw	11
  1409   002BE2  64DF               	cpfsgt	indf2,c
  1410   002BE4  EFF6  F015         	goto	u731
  1411   002BE8  EFF8  F015         	goto	u730
  1412   002BEC                     u731:
  1413   002BEC  EF2D  F016         	goto	l1859
  1414   002BF0                     u730:
  1415   002BF0                     
  1416                           ;C:/Users/a_hui/OneDrive - Camosun College/term2/ecet165_embedded_mc/labs/lab9/RealTimeC
      +                          lock.c: 62:                         if((start_time)->hours >12){
  1417   002BF0  C51D  F4D9         	movff	RTCrun@start_time,fsr2l
  1418   002BF4  C51E  F4DA         	movff	RTCrun@start_time+1,fsr2h
  1419   002BF8  0E0C               	movlw	12
  1420   002BFA  64DF               	cpfsgt	indf2,c
  1421   002BFC  EF02  F016         	goto	u741
  1422   002C00  EF04  F016         	goto	u740
  1423   002C04                     u741:
  1424   002C04  EF0C  F016         	goto	l1851
  1425   002C08                     u740:
  1426   002C08                     
  1427                           ;C:/Users/a_hui/OneDrive - Camosun College/term2/ecet165_embedded_mc/labs/lab9/RealTimeC
      +                          lock.c: 63:                             (start_time)->hours = 1;
  1428   002C08  C51D  F4D9         	movff	RTCrun@start_time,fsr2l
  1429   002C0C  C51E  F4DA         	movff	RTCrun@start_time+1,fsr2h
  1430   002C10  0E01               	movlw	1
  1431   002C12  6EDF               	movwf	indf2,c
  1432                           
  1433                           ;C:/Users/a_hui/OneDrive - Camosun College/term2/ecet165_embedded_mc/labs/lab9/RealTimeC
      +                          lock.c: 64:                         }else{
  1434   002C14  EF2D  F016         	goto	l1859
  1435   002C18                     l1851:
  1436                           
  1437                           ;C:/Users/a_hui/OneDrive - Camosun College/term2/ecet165_embedded_mc/labs/lab9/RealTimeC
      +                          lock.c: 65:                         (start_time)->meridian = (
  1438   002C18  EE20 F003          	lfsr	2,3
  1439   002C1C  501D               	movf	RTCrun@start_time^(0+1280),w,c
  1440   002C1E  26D9               	addwf	fsr2l,f,c
  1441   002C20  501E               	movf	(RTCrun@start_time+1)^(0+1280),w,c
  1442   002C22  22DA               	addwfc	fsr2h,f,c
  1443   002C24  0E61               	movlw	97
  1444   002C26  18DE               	xorwf	postinc2,w,c
  1445   002C28  B4D8               	btfsc	status,2,c
  1446   002C2A  EF19  F016         	goto	u751
  1447   002C2E  EF1B  F016         	goto	u750
  1448   002C32                     u751:
  1449   002C32  EF21  F016         	goto	l1855
  1450   002C36                     u750:
  1451   002C36  0E00               	movlw	0
  1452   002C38  6E29               	movwf	(_RTCrun$294+1)^(0+1280),c
  1453   002C3A  0E61               	movlw	97
  1454   002C3C  6E28               	movwf	_RTCrun$294^(0+1280),c
  1455   002C3E  EF25  F016         	goto	l1857
  1456   002C42                     l1855:
  1457   002C42  0E00               	movlw	0
  1458   002C44  6E29               	movwf	(_RTCrun$294+1)^(0+1280),c
  1459   002C46  0E70               	movlw	112
  1460   002C48  6E28               	movwf	_RTCrun$294^(0+1280),c
  1461   002C4A                     l1857:
  1462   002C4A  EE20 F003          	lfsr	2,3
  1463   002C4E  501D               	movf	RTCrun@start_time^(0+1280),w,c
  1464   002C50  26D9               	addwf	fsr2l,f,c
  1465   002C52  501E               	movf	(RTCrun@start_time+1)^(0+1280),w,c
  1466   002C54  22DA               	addwfc	fsr2h,f,c
  1467   002C56  C528  F4DF         	movff	_RTCrun$294,indf2
  1468   002C5A                     l1859:
  1469                           
  1470                           ;C:/Users/a_hui/OneDrive - Camosun College/term2/ecet165_embedded_mc/labs/lab9/RealTimeC
      +                          lock.c: 74:         LCDinstruct(0x02);
  1471   002C5A  0E02               	movlw	2
  1472   002C5C  EC8F  F018         	call	_LCDinstruct
  1473   002C60                     
  1474                           ;C:/Users/a_hui/OneDrive - Camosun College/term2/ecet165_embedded_mc/labs/lab9/RealTimeC
      +                          lock.c: 75:         LCDprintf("%i2:%i2:%i2 %cm", current_time);
  1475   002C60  0E01               	movlw	low STR_1
  1476   002C62  6E15               	movwf	LCDprintf@shell^(0+1280),c
  1477   002C64  0E26               	movlw	high STR_1
  1478   002C66  6E16               	movwf	(LCDprintf@shell+1)^(0+1280),c
  1479   002C68  0E20               	movlw	low RTCrun@current_time
  1480   002C6A  6E17               	movwf	LCDprintf@inputs^(0+1280),c
  1481   002C6C  0E05               	movlw	high RTCrun@current_time
  1482   002C6E  6E18               	movwf	(LCDprintf@inputs+1)^(0+1280),c
  1483   002C70  EC93  F014         	call	_LCDprintf	;wreg free
  1484   002C74                     l1863:
  1485                           
  1486                           ;C:/Users/a_hui/OneDrive - Camosun College/term2/ecet165_embedded_mc/labs/lab9/RealTimeC
      +                          lock.c: 50:     while(nSetRTC){
  1487   002C74  5059               	movf	_nSetRTC^(0+1280),w,c
  1488   002C76  A4D8               	btfss	status,2,c
  1489   002C78  EF40  F016         	goto	u761
  1490   002C7C  EF42  F016         	goto	u760
  1491   002C80                     u761:
  1492   002C80  EFA3  F015         	goto	l1831
  1493   002C84                     u760:
  1494   002C84  0012               	return		;funcret
  1495   002C86                     __end_of_RTCrun:
  1496                           	callstack 0
  1497                           
  1498 ;; *************** function _timerInit *****************
  1499 ;; Defined at:
  1500 ;;		line 4 in file "C:/Users/a_hui/OneDrive - Camosun College/term2/ecet165_embedded_mc/labs/lab8/timer0.c"
  1501 ;; Parameters:    Size  Location     Type
  1502 ;;		None
  1503 ;; Auto vars:     Size  Location     Type
  1504 ;;		None
  1505 ;; Return value:  Size  Location     Type
  1506 ;;                  1    wreg      void 
  1507 ;; Registers used:
  1508 ;;		wreg, status,2
  1509 ;; Tracked objects:
  1510 ;;		On entry : 0/0
  1511 ;;		On exit  : 0/0
  1512 ;;		Unchanged: 0/0
  1513 ;; Data sizes:     COMRAM   BANK5   BANK6   BANK7   BANK8   BANK9  BANK10  BANK11  BANK12  BANK13  BANK14  BANK15  BANK1
      +6  BANK17  BANK18  BANK19  BANK20  BANK21  BANK22  BANK23  BANK24  BANK25  BANK26  BANK27  BANK28  BANK29  BANK30  BANK3
      +1  BANK32  BANK33  BANK34  BANK35  BANK36
  1514 ;;      Params:         0       0       0       0       0       0       0       0       0       0       0       0       
      +0       0       0       0       0       0       0       0       0       0       0       0       0       0       0       
      +0       0       0       0       0       0
  1515 ;;      Locals:         0       0       0       0       0       0       0       0       0       0       0       0       
      +0       0       0       0       0       0       0       0       0       0       0       0       0       0       0       
      +0       0       0       0       0       0
  1516 ;;      Temps:          0       0       0       0       0       0       0       0       0       0       0       0       
      +0       0       0       0       0       0       0       0       0       0       0       0       0       0       0       
      +0       0       0       0       0       0
  1517 ;;      Totals:         0       0       0       0       0       0       0       0       0       0       0       0       
      +0       0       0       0       0       0       0       0       0       0       0       0       0       0       0       
      +0       0       0       0       0       0
  1518 ;;Total ram usage:        0 bytes
  1519 ;; Hardware stack levels used: 1
  1520 ;; Hardware stack levels required when called: 2
  1521 ;; This function calls:
  1522 ;;		Nothing
  1523 ;; This function is called by:
  1524 ;;		_RTCrun
  1525 ;; This function uses a non-reentrant model
  1526 ;;
  1527                           
  1528                           	psect	text3
  1529   003244                     __ptext3:
  1530                           	callstack 0
  1531   003244                     _timerInit:
  1532                           	callstack 123
  1533   003244                     
  1534                           ;C:/Users/a_hui/OneDrive - Camosun College/term2/ecet165_embedded_mc/labs/lab8/timer0.c:
      +                           5:     T0CON0 = 0b10001001;
  1535   003244  0E89               	movlw	137
  1536   003246  0103               	movlb	3	; () banked
  1537   003248  6F1A               	movwf	26,b	;volatile
  1538                           
  1539                           ;C:/Users/a_hui/OneDrive - Camosun College/term2/ecet165_embedded_mc/labs/lab8/timer0.c:
      +                           6:     T0CON1 = 0b10110001;
  1540   00324A  0EB1               	movlw	177
  1541   00324C  6F1B               	movwf	27,b	;volatile
  1542                           
  1543                           ;C:/Users/a_hui/OneDrive - Camosun College/term2/ecet165_embedded_mc/labs/lab8/timer0.c:
      +                           7:     TMR0H = 0xF9;
  1544   00324E  0EF9               	movlw	249
  1545   003250  6F19               	movwf	25,b	;volatile
  1546                           
  1547                           ;C:/Users/a_hui/OneDrive - Camosun College/term2/ecet165_embedded_mc/labs/lab8/timer0.c:
      +                           8:     tick_count = 0;
  1548   003252  0E00               	movlw	0
  1549   003254  6E4C               	movwf	_tick_count^(0+1280),c	;volatile
  1550   003256                     
  1551                           ; BSR set to: 3
  1552                           ;C:/Users/a_hui/OneDrive - Camosun College/term2/ecet165_embedded_mc/labs/lab8/timer0.c:
      +                           11:     INTCON0bits.GIE = 1;
  1553   003256  8ED6               	bsf	214,7,c	;volatile
  1554   003258                     
  1555                           ; BSR set to: 3
  1556                           ;C:/Users/a_hui/OneDrive - Camosun College/term2/ecet165_embedded_mc/labs/lab8/timer0.c:
      +                           14:     PIE3bits.TMR0IE = 1;
  1557   003258  8EA1               	bsf	161,7,c	;volatile
  1558   00325A                     
  1559                           ; BSR set to: 3
  1560                           ;C:/Users/a_hui/OneDrive - Camosun College/term2/ecet165_embedded_mc/labs/lab8/timer0.c:
      +                           17:     PIR3bits.TMR0IF = 0;
  1561   00325A  9EB1               	bcf	177,7,c	;volatile
  1562   00325C                     
  1563                           ; BSR set to: 3
  1564                           ;C:/Users/a_hui/OneDrive - Camosun College/term2/ecet165_embedded_mc/labs/lab8/timer0.c:
      +                           20:     IPR3bits.TMR0IP = 1;
  1565   00325C  8F65               	bsf	101,7,b	;volatile
  1566   00325E                     
  1567                           ; BSR set to: 3
  1568   00325E  0012               	return		;funcret
  1569   003260                     __end_of_timerInit:
  1570                           	callstack 0
  1571                           
  1572 ;; *************** function _LCDprintf *****************
  1573 ;; Defined at:
  1574 ;;		line 144 in file "C:/Users/a_hui/OneDrive - Camosun College/term2/ecet165_embedded_mc/labs/lab6/lcd18f.c"
  1575 ;; Parameters:    Size  Location     Type
  1576 ;;  shell           2   20[COMRAM] PTR unsigned char 
  1577 ;;		 -> STR_1(16), 
  1578 ;;  inputs          2   22[COMRAM] PTR PTR unsigned char 
  1579 ;;		 -> RTCrun@current_time(8), 
  1580 ;; Auto vars:     Size  Location     Type
  1581 ;;		None
  1582 ;; Return value:  Size  Location     Type
  1583 ;;                  1    wreg      void 
  1584 ;; Registers used:
  1585 ;;		wreg, fsr2l, fsr2h, status,2, status,0, tblptrl, tblptrh, tblptru, cstack
  1586 ;; Tracked objects:
  1587 ;;		On entry : 0/0
  1588 ;;		On exit  : 0/0
  1589 ;;		Unchanged: 0/0
  1590 ;; Data sizes:     COMRAM   BANK5   BANK6   BANK7   BANK8   BANK9  BANK10  BANK11  BANK12  BANK13  BANK14  BANK15  BANK1
      +6  BANK17  BANK18  BANK19  BANK20  BANK21  BANK22  BANK23  BANK24  BANK25  BANK26  BANK27  BANK28  BANK29  BANK30  BANK3
      +1  BANK32  BANK33  BANK34  BANK35  BANK36
  1591 ;;      Params:         4       0       0       0       0       0       0       0       0       0       0       0       
      +0       0       0       0       0       0       0       0       0       0       0       0       0       0       0       
      +0       0       0       0       0       0
  1592 ;;      Locals:         0       0       0       0       0       0       0       0       0       0       0       0       
      +0       0       0       0       0       0       0       0       0       0       0       0       0       0       0       
      +0       0       0       0       0       0
  1593 ;;      Temps:          4       0       0       0       0       0       0       0       0       0       0       0       
      +0       0       0       0       0       0       0       0       0       0       0       0       0       0       0       
      +0       0       0       0       0       0
  1594 ;;      Totals:         8       0       0       0       0       0       0       0       0       0       0       0       
      +0       0       0       0       0       0       0       0       0       0       0       0       0       0       0       
      +0       0       0       0       0       0
  1595 ;;Total ram usage:        8 bytes
  1596 ;; Hardware stack levels used: 1
  1597 ;; Hardware stack levels required when called: 4
  1598 ;; This function calls:
  1599 ;;		_LCDprintc
  1600 ;;		_LCDprints
  1601 ;;		_toString
  1602 ;; This function is called by:
  1603 ;;		_RTCrun
  1604 ;; This function uses a non-reentrant model
  1605 ;;
  1606                           
  1607                           	psect	text4
  1608   002926                     __ptext4:
  1609                           	callstack 0
  1610   002926                     _LCDprintf:
  1611                           	callstack 121
  1612   002926                     l1707:
  1613                           
  1614                           ;C:/Users/a_hui/OneDrive - Camosun College/term2/ecet165_embedded_mc/labs/lab6/lcd18f.c:
      +                           145:     while(*shell != 0x0){
  1615   002926  EF67  F015         	goto	l1743
  1616   00292A                     l1709:
  1617                           
  1618                           ;C:/Users/a_hui/OneDrive - Camosun College/term2/ecet165_embedded_mc/labs/lab6/lcd18f.c:
      +                           147:         if((*shell == '%') & (*(shell+1) == 's')){
  1619   00292A  C515  F4F6         	movff	LCDprintf@shell,tblptrl
  1620   00292E  C516  F4F7         	movff	LCDprintf@shell+1,tblptrh
  1621   002932                     	if	0	;tblptru may be non-zero
  1622   002932                     	endif
  1623   002932                     	if	1	;Program memory is > 0xFFFF, there are 3 active tblptr bytes
  1624   002932  0E00               	movlw	low (__mediumconst shr (0+16))
  1625   002934  6EF8               	movwf	tblptru,c
  1626   002936                     	endif
  1627   002936  0008               	tblrd		*
  1628   002938  50F5               	movf	tablat,w,c
  1629   00293A  0A25               	xorlw	37
  1630   00293C  A4D8               	btfss	status,2,c
  1631   00293E  EFA3  F014         	goto	u621
  1632   002942  EFA5  F014         	goto	u620
  1633   002946                     u621:
  1634   002946  EFCF  F014         	goto	l1719
  1635   00294A                     u620:
  1636   00294A  0E01               	movlw	1
  1637   00294C  2415               	addwf	LCDprintf@shell^(0+1280),w,c
  1638   00294E  6E19               	movwf	??_LCDprintf^(0+1280),c
  1639   002950  0E00               	movlw	0
  1640   002952  2016               	addwfc	(LCDprintf@shell+1)^(0+1280),w,c
  1641   002954  6E1A               	movwf	(??_LCDprintf+1)^(0+1280),c
  1642   002956  C519  F4F6         	movff	??_LCDprintf,tblptrl
  1643   00295A  C51A  F4F7         	movff	??_LCDprintf+1,tblptrh
  1644   00295E                     	if	0	;tblptru may be non-zero
  1645   00295E                     	endif
  1646   00295E                     	if	1	;Program memory is > 0xFFFF, there are 3 active tblptr bytes
  1647   00295E  0E00               	movlw	low (__mediumconst shr (0+16))
  1648   002960  6EF8               	movwf	tblptru,c
  1649   002962                     	endif
  1650   002962  0008               	tblrd		*
  1651   002964  50F5               	movf	tablat,w,c
  1652   002966  0A73               	xorlw	115
  1653   002968  A4D8               	btfss	status,2,c
  1654   00296A  EFB9  F014         	goto	u631
  1655   00296E  EFBB  F014         	goto	u630
  1656   002972                     u631:
  1657   002972  EFCF  F014         	goto	l1719
  1658   002976                     u630:
  1659   002976                     
  1660                           ;C:/Users/a_hui/OneDrive - Camosun College/term2/ecet165_embedded_mc/labs/lab6/lcd18f.c:
      +                           149:             LCDprints(*inputs++);
  1661   002976  C517  F4D9         	movff	LCDprintf@inputs,fsr2l
  1662   00297A  C518  F4DA         	movff	LCDprintf@inputs+1,fsr2h
  1663   00297E  C4DE F513          	movff	postinc2,LCDprints@c
  1664   002982  C4DD F514          	movff	postdec2,LCDprints@c+1
  1665   002986  ECF9  F018         	call	_LCDprints	;wreg free
  1666   00298A                     l1715:
  1667   00298A  0E02               	movlw	2
  1668   00298C  2617               	addwf	LCDprintf@inputs^(0+1280),f,c
  1669   00298E  0E00               	movlw	0
  1670   002990  2218               	addwfc	(LCDprintf@inputs+1)^(0+1280),f,c
  1671   002992                     
  1672                           ;C:/Users/a_hui/OneDrive - Camosun College/term2/ecet165_embedded_mc/labs/lab6/lcd18f.c:
      +                           150:             shell+=2;
  1673   002992  0E02               	movlw	2
  1674   002994  2615               	addwf	LCDprintf@shell^(0+1280),f,c
  1675   002996  0E00               	movlw	0
  1676   002998  2216               	addwfc	(LCDprintf@shell+1)^(0+1280),f,c
  1677                           
  1678                           ;C:/Users/a_hui/OneDrive - Camosun College/term2/ecet165_embedded_mc/labs/lab6/lcd18f.c:
      +                           151:         }
  1679   00299A  EF67  F015         	goto	l1743
  1680   00299E                     l1719:
  1681   00299E  C515  F4F6         	movff	LCDprintf@shell,tblptrl
  1682   0029A2  C516  F4F7         	movff	LCDprintf@shell+1,tblptrh
  1683   0029A6                     	if	0	;tblptru may be non-zero
  1684   0029A6                     	endif
  1685   0029A6                     	if	1	;Program memory is > 0xFFFF, there are 3 active tblptr bytes
  1686   0029A6  0E00               	movlw	low (__mediumconst shr (0+16))
  1687   0029A8  6EF8               	movwf	tblptru,c
  1688   0029AA                     	endif
  1689   0029AA  0008               	tblrd		*
  1690   0029AC  50F5               	movf	tablat,w,c
  1691   0029AE  0A25               	xorlw	37
  1692   0029B0  A4D8               	btfss	status,2,c
  1693   0029B2  EFDD  F014         	goto	u641
  1694   0029B6  EFDF  F014         	goto	u640
  1695   0029BA                     u641:
  1696   0029BA  EF24  F015         	goto	l1729
  1697   0029BE                     u640:
  1698   0029BE  0E01               	movlw	1
  1699   0029C0  2415               	addwf	LCDprintf@shell^(0+1280),w,c
  1700   0029C2  6E19               	movwf	??_LCDprintf^(0+1280),c
  1701   0029C4  0E00               	movlw	0
  1702   0029C6  2016               	addwfc	(LCDprintf@shell+1)^(0+1280),w,c
  1703   0029C8  6E1A               	movwf	(??_LCDprintf+1)^(0+1280),c
  1704   0029CA  C519  F4F6         	movff	??_LCDprintf,tblptrl
  1705   0029CE  C51A  F4F7         	movff	??_LCDprintf+1,tblptrh
  1706   0029D2                     	if	0	;tblptru may be non-zero
  1707   0029D2                     	endif
  1708   0029D2                     	if	1	;Program memory is > 0xFFFF, there are 3 active tblptr bytes
  1709   0029D2  0E00               	movlw	low (__mediumconst shr (0+16))
  1710   0029D4  6EF8               	movwf	tblptru,c
  1711   0029D6                     	endif
  1712   0029D6  0008               	tblrd		*
  1713   0029D8  50F5               	movf	tablat,w,c
  1714   0029DA  0A69               	xorlw	105
  1715   0029DC  A4D8               	btfss	status,2,c
  1716   0029DE  EFF3  F014         	goto	u651
  1717   0029E2  EFF5  F014         	goto	u650
  1718   0029E6                     u651:
  1719   0029E6  EF24  F015         	goto	l1729
  1720   0029EA                     u650:
  1721   0029EA                     
  1722                           ;C:/Users/a_hui/OneDrive - Camosun College/term2/ecet165_embedded_mc/labs/lab6/lcd18f.c:
      +                           155:             LCDprints(toString(**inputs++, (*(shell+2)-'0')));
  1723   0029EA  0E02               	movlw	2
  1724   0029EC  2415               	addwf	LCDprintf@shell^(0+1280),w,c
  1725   0029EE  6E19               	movwf	??_LCDprintf^(0+1280),c
  1726   0029F0  0E00               	movlw	0
  1727   0029F2  2016               	addwfc	(LCDprintf@shell+1)^(0+1280),w,c
  1728   0029F4  6E1A               	movwf	(??_LCDprintf+1)^(0+1280),c
  1729   0029F6  C519  F4F6         	movff	??_LCDprintf,tblptrl
  1730   0029FA  C51A  F4F7         	movff	??_LCDprintf+1,tblptrh
  1731   0029FE                     	if	0	;tblptru may be non-zero
  1732   0029FE                     	endif
  1733   0029FE                     	if	1	;Program memory is > 0xFFFF, there are 3 active tblptr bytes
  1734   0029FE  0E00               	movlw	low (__mediumconst shr (0+16))
  1735   002A00  6EF8               	movwf	tblptru,c
  1736   002A02                     	endif
  1737   002A02  0008               	tblrd		*
  1738   002A04  50F5               	movf	tablat,w,c
  1739   002A06  0FD0               	addlw	208
  1740   002A08  6E0A               	movwf	toString@length^(0+1280),c
  1741   002A0A  C517  F4D9         	movff	LCDprintf@inputs,fsr2l
  1742   002A0E  C518  F4DA         	movff	LCDprintf@inputs+1,fsr2h
  1743   002A12  C4DE F51B          	movff	postinc2,??_LCDprintf+2
  1744   002A16  C4DD F51C          	movff	postdec2,??_LCDprintf+3
  1745   002A1A  C51B  F4D9         	movff	??_LCDprintf+2,fsr2l
  1746   002A1E  C51C  F4DA         	movff	??_LCDprintf+3,fsr2h
  1747   002A22  50DF               	movf	indf2,w,c
  1748   002A24  EC54  F018         	call	_toString
  1749   002A28  C50A  F513         	movff	?_toString,LCDprints@c
  1750   002A2C  C50B  F514         	movff	?_toString+1,LCDprints@c+1
  1751   002A30  ECF9  F018         	call	_LCDprints	;wreg free
  1752   002A34  0E02               	movlw	2
  1753   002A36  2617               	addwf	LCDprintf@inputs^(0+1280),f,c
  1754   002A38  0E00               	movlw	0
  1755   002A3A  2218               	addwfc	(LCDprintf@inputs+1)^(0+1280),f,c
  1756   002A3C                     
  1757                           ;C:/Users/a_hui/OneDrive - Camosun College/term2/ecet165_embedded_mc/labs/lab6/lcd18f.c:
      +                           156:             shell+=3;
  1758   002A3C  0E03               	movlw	3
  1759   002A3E  2615               	addwf	LCDprintf@shell^(0+1280),f,c
  1760   002A40  0E00               	movlw	0
  1761   002A42  2216               	addwfc	(LCDprintf@shell+1)^(0+1280),f,c
  1762                           
  1763                           ;C:/Users/a_hui/OneDrive - Camosun College/term2/ecet165_embedded_mc/labs/lab6/lcd18f.c:
      +                           158:         }else if((*shell == '%') & (*(shell+1) == 'c')){
  1764   002A44  EF93  F014         	goto	l1707
  1765   002A48                     l1729:
  1766   002A48  C515  F4F6         	movff	LCDprintf@shell,tblptrl
  1767   002A4C  C516  F4F7         	movff	LCDprintf@shell+1,tblptrh
  1768   002A50                     	if	0	;tblptru may be non-zero
  1769   002A50                     	endif
  1770   002A50                     	if	1	;Program memory is > 0xFFFF, there are 3 active tblptr bytes
  1771   002A50  0E00               	movlw	low (__mediumconst shr (0+16))
  1772   002A52  6EF8               	movwf	tblptru,c
  1773   002A54                     	endif
  1774   002A54  0008               	tblrd		*
  1775   002A56  50F5               	movf	tablat,w,c
  1776   002A58  0A25               	xorlw	37
  1777   002A5A  A4D8               	btfss	status,2,c
  1778   002A5C  EF32  F015         	goto	u661
  1779   002A60  EF34  F015         	goto	u660
  1780   002A64                     u661:
  1781   002A64  EF5B  F015         	goto	l1739
  1782   002A68                     u660:
  1783   002A68  0E01               	movlw	1
  1784   002A6A  2415               	addwf	LCDprintf@shell^(0+1280),w,c
  1785   002A6C  6E19               	movwf	??_LCDprintf^(0+1280),c
  1786   002A6E  0E00               	movlw	0
  1787   002A70  2016               	addwfc	(LCDprintf@shell+1)^(0+1280),w,c
  1788   002A72  6E1A               	movwf	(??_LCDprintf+1)^(0+1280),c
  1789   002A74  C519  F4F6         	movff	??_LCDprintf,tblptrl
  1790   002A78  C51A  F4F7         	movff	??_LCDprintf+1,tblptrh
  1791   002A7C                     	if	0	;tblptru may be non-zero
  1792   002A7C                     	endif
  1793   002A7C                     	if	1	;Program memory is > 0xFFFF, there are 3 active tblptr bytes
  1794   002A7C  0E00               	movlw	low (__mediumconst shr (0+16))
  1795   002A7E  6EF8               	movwf	tblptru,c
  1796   002A80                     	endif
  1797   002A80  0008               	tblrd		*
  1798   002A82  50F5               	movf	tablat,w,c
  1799   002A84  0A63               	xorlw	99
  1800   002A86  A4D8               	btfss	status,2,c
  1801   002A88  EF48  F015         	goto	u671
  1802   002A8C  EF4A  F015         	goto	u670
  1803   002A90                     u671:
  1804   002A90  EF5B  F015         	goto	l1739
  1805   002A94                     u670:
  1806   002A94                     
  1807                           ;C:/Users/a_hui/OneDrive - Camosun College/term2/ecet165_embedded_mc/labs/lab6/lcd18f.c:
      +                           160:             LCDprintc(**inputs++);
  1808   002A94  C517  F4D9         	movff	LCDprintf@inputs,fsr2l
  1809   002A98  C518  F4DA         	movff	LCDprintf@inputs+1,fsr2h
  1810   002A9C  C4DE F519          	movff	postinc2,??_LCDprintf
  1811   002AA0  C4DD F51A          	movff	postdec2,??_LCDprintf+1
  1812   002AA4  C519  F4D9         	movff	??_LCDprintf,fsr2l
  1813   002AA8  C51A  F4DA         	movff	??_LCDprintf+1,fsr2h
  1814   002AAC  50DF               	movf	indf2,w,c
  1815   002AAE  EC18  F018         	call	_LCDprintc
  1816   002AB2  EFC5  F014         	goto	l1715
  1817   002AB6                     l1739:
  1818                           
  1819                           ;C:/Users/a_hui/OneDrive - Camosun College/term2/ecet165_embedded_mc/labs/lab6/lcd18f.c:
      +                           164:             LCDprintc(*shell++);
  1820   002AB6  C515  F4F6         	movff	LCDprintf@shell,tblptrl
  1821   002ABA  C516  F4F7         	movff	LCDprintf@shell+1,tblptrh
  1822   002ABE                     	if	0	;tblptru may be non-zero
  1823   002ABE                     	endif
  1824   002ABE                     	if	1	;Program memory is > 0xFFFF, there are 3 active tblptr bytes
  1825   002ABE  0E00               	movlw	low (__mediumconst shr (0+16))
  1826   002AC0  6EF8               	movwf	tblptru,c
  1827   002AC2                     	endif
  1828   002AC2  0008               	tblrd		*
  1829   002AC4  50F5               	movf	tablat,w,c
  1830   002AC6  EC18  F018         	call	_LCDprintc
  1831   002ACA  4A15               	infsnz	LCDprintf@shell^(0+1280),f,c
  1832   002ACC  2A16               	incf	(LCDprintf@shell+1)^(0+1280),f,c
  1833   002ACE                     l1743:
  1834                           
  1835                           ;C:/Users/a_hui/OneDrive - Camosun College/term2/ecet165_embedded_mc/labs/lab6/lcd18f.c:
      +                           145:     while(*shell != 0x0){
  1836   002ACE  C515  F4F6         	movff	LCDprintf@shell,tblptrl
  1837   002AD2  C516  F4F7         	movff	LCDprintf@shell+1,tblptrh
  1838   002AD6                     	if	0	;tblptru may be non-zero
  1839   002AD6                     	endif
  1840   002AD6                     	if	1	;Program memory is > 0xFFFF, there are 3 active tblptr bytes
  1841   002AD6  0E00               	movlw	low (__mediumconst shr (0+16))
  1842   002AD8  6EF8               	movwf	tblptru,c
  1843   002ADA                     	endif
  1844   002ADA  0008               	tblrd		*
  1845   002ADC  50F5               	movf	tablat,w,c
  1846   002ADE  0900               	iorlw	0
  1847   002AE0  A4D8               	btfss	status,2,c
  1848   002AE2  EF75  F015         	goto	u681
  1849   002AE6  EF77  F015         	goto	u680
  1850   002AEA                     u681:
  1851   002AEA  EF95  F014         	goto	l1709
  1852   002AEE                     u680:
  1853   002AEE  0012               	return		;funcret
  1854   002AF0                     __end_of_LCDprintf:
  1855                           	callstack 0
  1856                           
  1857 ;; *************** function _toString *****************
  1858 ;; Defined at:
  1859 ;;		line 133 in file "C:/Users/a_hui/OneDrive - Camosun College/term2/ecet165_embedded_mc/labs/lab6/lcd18f.c"
  1860 ;; Parameters:    Size  Location     Type
  1861 ;;  number          1    wreg     unsigned char 
  1862 ;;  length          1    9[COMRAM] unsigned char 
  1863 ;; Auto vars:     Size  Location     Type
  1864 ;;  number          1   15[COMRAM] unsigned char 
  1865 ;;  i               1   17[COMRAM] char 
  1866 ;;  string          4   11[COMRAM] unsigned char [4]
  1867 ;;  copy_num        1   16[COMRAM] unsigned char 
  1868 ;; Return value:  Size  Location     Type
  1869 ;;                  2    9[COMRAM] PTR unsigned char 
  1870 ;; Registers used:
  1871 ;;		wreg, fsr2l, fsr2h, status,2, status,0, cstack
  1872 ;; Tracked objects:
  1873 ;;		On entry : 0/0
  1874 ;;		On exit  : 0/0
  1875 ;;		Unchanged: 0/0
  1876 ;; Data sizes:     COMRAM   BANK5   BANK6   BANK7   BANK8   BANK9  BANK10  BANK11  BANK12  BANK13  BANK14  BANK15  BANK1
      +6  BANK17  BANK18  BANK19  BANK20  BANK21  BANK22  BANK23  BANK24  BANK25  BANK26  BANK27  BANK28  BANK29  BANK30  BANK3
      +1  BANK32  BANK33  BANK34  BANK35  BANK36
  1877 ;;      Params:         2       0       0       0       0       0       0       0       0       0       0       0       
      +0       0       0       0       0       0       0       0       0       0       0       0       0       0       0       
      +0       0       0       0       0       0
  1878 ;;      Locals:         7       0       0       0       0       0       0       0       0       0       0       0       
      +0       0       0       0       0       0       0       0       0       0       0       0       0       0       0       
      +0       0       0       0       0       0
  1879 ;;      Temps:          0       0       0       0       0       0       0       0       0       0       0       0       
      +0       0       0       0       0       0       0       0       0       0       0       0       0       0       0       
      +0       0       0       0       0       0
  1880 ;;      Totals:         9       0       0       0       0       0       0       0       0       0       0       0       
      +0       0       0       0       0       0       0       0       0       0       0       0       0       0       0       
      +0       0       0       0       0       0
  1881 ;;Total ram usage:        9 bytes
  1882 ;; Hardware stack levels used: 1
  1883 ;; Hardware stack levels required when called: 3
  1884 ;; This function calls:
  1885 ;;		___awdiv
  1886 ;;		___awmod
  1887 ;; This function is called by:
  1888 ;;		_LCDprintf
  1889 ;; This function uses a non-reentrant model
  1890 ;;
  1891                           
  1892                           	psect	text5
  1893   0030A8                     __ptext5:
  1894                           	callstack 0
  1895   0030A8                     _toString:
  1896                           	callstack 121
  1897                           
  1898                           ;incstack = 0
  1899                           ;toString@number stored from wreg
  1900   0030A8  6E10               	movwf	toString@number^(0+1280),c
  1901   0030AA                     
  1902                           ;C:/Users/a_hui/OneDrive - Camosun College/term2/ecet165_embedded_mc/labs/lab6/lcd18f.c:
      +                           134:     char string[4] = "";
  1903   0030AA  0E00               	movlw	0
  1904   0030AC  6E0C               	movwf	toString@string^(0+1280),c
  1905   0030AE  0E00               	movlw	0
  1906   0030B0  6E0D               	movwf	(toString@string+1)^(0+1280),c
  1907   0030B2  0E00               	movlw	0
  1908   0030B4  6E0E               	movwf	(toString@string+2)^(0+1280),c
  1909   0030B6  0E00               	movlw	0
  1910   0030B8  6E0F               	movwf	(toString@string+3)^(0+1280),c
  1911   0030BA                     
  1912                           ;C:/Users/a_hui/OneDrive - Camosun College/term2/ecet165_embedded_mc/labs/lab6/lcd18f.c:
      +                           135:     unsigned char copy_num = number;
  1913   0030BA  C510  F511         	movff	toString@number,toString@copy_num
  1914   0030BE                     
  1915                           ;C:/Users/a_hui/OneDrive - Camosun College/term2/ecet165_embedded_mc/labs/lab6/lcd18f.c:
      +                           137:     for(signed char i = length-1; i > -1; i--){
  1916   0030BE  040A               	decf	toString@length^(0+1280),w,c
  1917   0030C0  6E12               	movwf	toString@i^(0+1280),c
  1918   0030C2                     l1645:
  1919   0030C2  BE12               	btfsc	toString@i^(0+1280),7,c
  1920   0030C4  EF68  F018         	goto	u610
  1921   0030C8  EF66  F018         	goto	u611
  1922   0030CC                     u611:
  1923   0030CC  EF6A  F018         	goto	l1649
  1924   0030D0                     u610:
  1925   0030D0  EF8A  F018         	goto	l1657
  1926   0030D4                     l1649:
  1927                           
  1928                           ;C:/Users/a_hui/OneDrive - Camosun College/term2/ecet165_embedded_mc/labs/lab6/lcd18f.c:
      +                           138:         string[i] = (copy_num % 10) + '0';
  1929   0030D4  0E0C               	movlw	low toString@string
  1930   0030D6  2412               	addwf	toString@i^(0+1280),w,c
  1931   0030D8  6ED9               	movwf	fsr2l,c
  1932   0030DA  6ADA               	clrf	fsr2h,c
  1933   0030DC  0E05               	movlw	high toString@string
  1934   0030DE  22DA               	addwfc	fsr2h,f,c
  1935   0030E0  C511  F502         	movff	toString@copy_num,___awmod@dividend
  1936   0030E4  6A03               	clrf	(___awmod@dividend+1)^(0+1280),c
  1937   0030E6  0E00               	movlw	0
  1938   0030E8  6E05               	movwf	(___awmod@divisor+1)^(0+1280),c
  1939   0030EA  0E0A               	movlw	10
  1940   0030EC  6E04               	movwf	___awmod@divisor^(0+1280),c
  1941   0030EE  ECC0  F017         	call	___awmod	;wreg free
  1942   0030F2  5002               	movf	?___awmod^(0+1280),w,c
  1943   0030F4  0F30               	addlw	48
  1944   0030F6  6EDF               	movwf	indf2,c
  1945   0030F8                     
  1946                           ;C:/Users/a_hui/OneDrive - Camosun College/term2/ecet165_embedded_mc/labs/lab6/lcd18f.c:
      +                           139:         copy_num /= 10;
  1947   0030F8  C511  F502         	movff	toString@copy_num,___awdiv@dividend
  1948   0030FC  6A03               	clrf	(___awdiv@dividend+1)^(0+1280),c
  1949   0030FE  0E00               	movlw	0
  1950   003100  6E05               	movwf	(___awdiv@divisor+1)^(0+1280),c
  1951   003102  0E0A               	movlw	10
  1952   003104  6E04               	movwf	___awdiv@divisor^(0+1280),c
  1953   003106  EC5E  F017         	call	___awdiv	;wreg free
  1954   00310A  5002               	movf	?___awdiv^(0+1280),w,c
  1955   00310C  6E11               	movwf	toString@copy_num^(0+1280),c
  1956   00310E                     
  1957                           ;C:/Users/a_hui/OneDrive - Camosun College/term2/ecet165_embedded_mc/labs/lab6/lcd18f.c:
      +                           140:     };
  1958   00310E  0612               	decf	toString@i^(0+1280),f,c
  1959   003110  EF61  F018         	goto	l1645
  1960   003114                     l1657:
  1961                           
  1962                           ;C:/Users/a_hui/OneDrive - Camosun College/term2/ecet165_embedded_mc/labs/lab6/lcd18f.c:
      +                           141:     return &string;
  1963   003114  0E0C               	movlw	low toString@string
  1964   003116  6E0A               	movwf	?_toString^(0+1280),c
  1965   003118  0E05               	movlw	high toString@string
  1966   00311A  6E0B               	movwf	(?_toString+1)^(0+1280),c
  1967   00311C  0012               	return		;funcret
  1968   00311E                     __end_of_toString:
  1969                           	callstack 0
  1970                           
  1971 ;; *************** function ___awmod *****************
  1972 ;; Defined at:
  1973 ;;		line 7 in file "C:\Program Files\Microchip\xc8\v2.40\pic\sources\c99\common\awmod.c"
  1974 ;; Parameters:    Size  Location     Type
  1975 ;;  dividend        2    1[COMRAM] int 
  1976 ;;  divisor         2    3[COMRAM] int 
  1977 ;; Auto vars:     Size  Location     Type
  1978 ;;  sign            1    6[COMRAM] unsigned char 
  1979 ;;  counter         1    5[COMRAM] unsigned char 
  1980 ;; Return value:  Size  Location     Type
  1981 ;;                  2    1[COMRAM] int 
  1982 ;; Registers used:
  1983 ;;		wreg, status,2, status,0
  1984 ;; Tracked objects:
  1985 ;;		On entry : 0/0
  1986 ;;		On exit  : 0/0
  1987 ;;		Unchanged: 0/0
  1988 ;; Data sizes:     COMRAM   BANK5   BANK6   BANK7   BANK8   BANK9  BANK10  BANK11  BANK12  BANK13  BANK14  BANK15  BANK1
      +6  BANK17  BANK18  BANK19  BANK20  BANK21  BANK22  BANK23  BANK24  BANK25  BANK26  BANK27  BANK28  BANK29  BANK30  BANK3
      +1  BANK32  BANK33  BANK34  BANK35  BANK36
  1989 ;;      Params:         4       0       0       0       0       0       0       0       0       0       0       0       
      +0       0       0       0       0       0       0       0       0       0       0       0       0       0       0       
      +0       0       0       0       0       0
  1990 ;;      Locals:         2       0       0       0       0       0       0       0       0       0       0       0       
      +0       0       0       0       0       0       0       0       0       0       0       0       0       0       0       
      +0       0       0       0       0       0
  1991 ;;      Temps:          0       0       0       0       0       0       0       0       0       0       0       0       
      +0       0       0       0       0       0       0       0       0       0       0       0       0       0       0       
      +0       0       0       0       0       0
  1992 ;;      Totals:         6       0       0       0       0       0       0       0       0       0       0       0       
      +0       0       0       0       0       0       0       0       0       0       0       0       0       0       0       
      +0       0       0       0       0       0
  1993 ;;Total ram usage:        6 bytes
  1994 ;; Hardware stack levels used: 1
  1995 ;; Hardware stack levels required when called: 2
  1996 ;; This function calls:
  1997 ;;		Nothing
  1998 ;; This function is called by:
  1999 ;;		_main
  2000 ;;		_toString
  2001 ;; This function uses a non-reentrant model
  2002 ;;
  2003                           
  2004                           	psect	text6
  2005   002F80                     __ptext6:
  2006                           	callstack 0
  2007   002F80                     ___awmod:
  2008                           	callstack 124
  2009   002F80  0E00               	movlw	0
  2010   002F82  6E07               	movwf	___awmod@sign^(0+1280),c
  2011   002F84  BE03               	btfsc	(___awmod@dividend+1)^(0+1280),7,c
  2012   002F86  EFC9  F017         	goto	u540
  2013   002F8A  EFC7  F017         	goto	u541
  2014   002F8E                     u541:
  2015   002F8E  EFCF  F017         	goto	l1591
  2016   002F92                     u540:
  2017   002F92  6C02               	negf	___awmod@dividend^(0+1280),c
  2018   002F94  1E03               	comf	(___awmod@dividend+1)^(0+1280),f,c
  2019   002F96  B0D8               	btfsc	status,0,c
  2020   002F98  2A03               	incf	(___awmod@dividend+1)^(0+1280),f,c
  2021   002F9A  0E01               	movlw	1
  2022   002F9C  6E07               	movwf	___awmod@sign^(0+1280),c
  2023   002F9E                     l1591:
  2024   002F9E  BE05               	btfsc	(___awmod@divisor+1)^(0+1280),7,c
  2025   002FA0  EFD6  F017         	goto	u550
  2026   002FA4  EFD4  F017         	goto	u551
  2027   002FA8                     u551:
  2028   002FA8  EFDA  F017         	goto	l1595
  2029   002FAC                     u550:
  2030   002FAC  6C04               	negf	___awmod@divisor^(0+1280),c
  2031   002FAE  1E05               	comf	(___awmod@divisor+1)^(0+1280),f,c
  2032   002FB0  B0D8               	btfsc	status,0,c
  2033   002FB2  2A05               	incf	(___awmod@divisor+1)^(0+1280),f,c
  2034   002FB4                     l1595:
  2035   002FB4  5004               	movf	___awmod@divisor^(0+1280),w,c
  2036   002FB6  1005               	iorwf	(___awmod@divisor+1)^(0+1280),w,c
  2037   002FB8  B4D8               	btfsc	status,2,c
  2038   002FBA  EFE1  F017         	goto	u561
  2039   002FBE  EFE3  F017         	goto	u560
  2040   002FC2                     u561:
  2041   002FC2  EF07  F018         	goto	l1611
  2042   002FC6                     u560:
  2043   002FC6  0E01               	movlw	1
  2044   002FC8  6E06               	movwf	___awmod@counter^(0+1280),c
  2045   002FCA  EFEB  F017         	goto	l1601
  2046   002FCE                     l1599:
  2047   002FCE  90D8               	bcf	status,0,c
  2048   002FD0  3604               	rlcf	___awmod@divisor^(0+1280),f,c
  2049   002FD2  3605               	rlcf	(___awmod@divisor+1)^(0+1280),f,c
  2050   002FD4  2A06               	incf	___awmod@counter^(0+1280),f,c
  2051   002FD6                     l1601:
  2052   002FD6  AE05               	btfss	(___awmod@divisor+1)^(0+1280),7,c
  2053   002FD8  EFF0  F017         	goto	u571
  2054   002FDC  EFF2  F017         	goto	u570
  2055   002FE0                     u571:
  2056   002FE0  EFE7  F017         	goto	l1599
  2057   002FE4                     u570:
  2058   002FE4                     l1603:
  2059   002FE4  5004               	movf	___awmod@divisor^(0+1280),w,c
  2060   002FE6  5C02               	subwf	___awmod@dividend^(0+1280),w,c
  2061   002FE8  5005               	movf	(___awmod@divisor+1)^(0+1280),w,c
  2062   002FEA  5803               	subwfb	(___awmod@dividend+1)^(0+1280),w,c
  2063   002FEC  A0D8               	btfss	status,0,c
  2064   002FEE  EFFB  F017         	goto	u581
  2065   002FF2  EFFD  F017         	goto	u580
  2066   002FF6                     u581:
  2067   002FF6  EF01  F018         	goto	l1607
  2068   002FFA                     u580:
  2069   002FFA  5004               	movf	___awmod@divisor^(0+1280),w,c
  2070   002FFC  5E02               	subwf	___awmod@dividend^(0+1280),f,c
  2071   002FFE  5005               	movf	(___awmod@divisor+1)^(0+1280),w,c
  2072   003000  5A03               	subwfb	(___awmod@dividend+1)^(0+1280),f,c
  2073   003002                     l1607:
  2074   003002  90D8               	bcf	status,0,c
  2075   003004  3205               	rrcf	(___awmod@divisor+1)^(0+1280),f,c
  2076   003006  3204               	rrcf	___awmod@divisor^(0+1280),f,c
  2077   003008  2E06               	decfsz	___awmod@counter^(0+1280),f,c
  2078   00300A  EFF2  F017         	goto	l1603
  2079   00300E                     l1611:
  2080   00300E  5007               	movf	___awmod@sign^(0+1280),w,c
  2081   003010  B4D8               	btfsc	status,2,c
  2082   003012  EF0D  F018         	goto	u591
  2083   003016  EF0F  F018         	goto	u590
  2084   00301A                     u591:
  2085   00301A  EF13  F018         	goto	l1615
  2086   00301E                     u590:
  2087   00301E  6C02               	negf	___awmod@dividend^(0+1280),c
  2088   003020  1E03               	comf	(___awmod@dividend+1)^(0+1280),f,c
  2089   003022  B0D8               	btfsc	status,0,c
  2090   003024  2A03               	incf	(___awmod@dividend+1)^(0+1280),f,c
  2091   003026                     l1615:
  2092   003026  C502  F502         	movff	___awmod@dividend,?___awmod
  2093   00302A  C503  F503         	movff	___awmod@dividend+1,?___awmod+1
  2094   00302E  0012               	return		;funcret
  2095   003030                     __end_of___awmod:
  2096                           	callstack 0
  2097                           
  2098 ;; *************** function ___awdiv *****************
  2099 ;; Defined at:
  2100 ;;		line 7 in file "C:\Program Files\Microchip\xc8\v2.40\pic\sources\c99\common\awdiv.c"
  2101 ;; Parameters:    Size  Location     Type
  2102 ;;  dividend        2    1[COMRAM] int 
  2103 ;;  divisor         2    3[COMRAM] int 
  2104 ;; Auto vars:     Size  Location     Type
  2105 ;;  quotient        2    7[COMRAM] int 
  2106 ;;  sign            1    6[COMRAM] unsigned char 
  2107 ;;  counter         1    5[COMRAM] unsigned char 
  2108 ;; Return value:  Size  Location     Type
  2109 ;;                  2    1[COMRAM] int 
  2110 ;; Registers used:
  2111 ;;		wreg, status,2, status,0
  2112 ;; Tracked objects:
  2113 ;;		On entry : 0/0
  2114 ;;		On exit  : 0/0
  2115 ;;		Unchanged: 0/0
  2116 ;; Data sizes:     COMRAM   BANK5   BANK6   BANK7   BANK8   BANK9  BANK10  BANK11  BANK12  BANK13  BANK14  BANK15  BANK1
      +6  BANK17  BANK18  BANK19  BANK20  BANK21  BANK22  BANK23  BANK24  BANK25  BANK26  BANK27  BANK28  BANK29  BANK30  BANK3
      +1  BANK32  BANK33  BANK34  BANK35  BANK36
  2117 ;;      Params:         4       0       0       0       0       0       0       0       0       0       0       0       
      +0       0       0       0       0       0       0       0       0       0       0       0       0       0       0       
      +0       0       0       0       0       0
  2118 ;;      Locals:         4       0       0       0       0       0       0       0       0       0       0       0       
      +0       0       0       0       0       0       0       0       0       0       0       0       0       0       0       
      +0       0       0       0       0       0
  2119 ;;      Temps:          0       0       0       0       0       0       0       0       0       0       0       0       
      +0       0       0       0       0       0       0       0       0       0       0       0       0       0       0       
      +0       0       0       0       0       0
  2120 ;;      Totals:         8       0       0       0       0       0       0       0       0       0       0       0       
      +0       0       0       0       0       0       0       0       0       0       0       0       0       0       0       
      +0       0       0       0       0       0
  2121 ;;Total ram usage:        8 bytes
  2122 ;; Hardware stack levels used: 1
  2123 ;; Hardware stack levels required when called: 2
  2124 ;; This function calls:
  2125 ;;		Nothing
  2126 ;; This function is called by:
  2127 ;;		_toString
  2128 ;; This function uses a non-reentrant model
  2129 ;;
  2130                           
  2131                           	psect	text7
  2132   002EBC                     __ptext7:
  2133                           	callstack 0
  2134   002EBC                     ___awdiv:
  2135                           	callstack 121
  2136   002EBC  0E00               	movlw	0
  2137   002EBE  6E07               	movwf	___awdiv@sign^(0+1280),c
  2138   002EC0  BE05               	btfsc	(___awdiv@divisor+1)^(0+1280),7,c
  2139   002EC2  EF67  F017         	goto	u480
  2140   002EC6  EF65  F017         	goto	u481
  2141   002ECA                     u481:
  2142   002ECA  EF6D  F017         	goto	l1547
  2143   002ECE                     u480:
  2144   002ECE  6C04               	negf	___awdiv@divisor^(0+1280),c
  2145   002ED0  1E05               	comf	(___awdiv@divisor+1)^(0+1280),f,c
  2146   002ED2  B0D8               	btfsc	status,0,c
  2147   002ED4  2A05               	incf	(___awdiv@divisor+1)^(0+1280),f,c
  2148   002ED6  0E01               	movlw	1
  2149   002ED8  6E07               	movwf	___awdiv@sign^(0+1280),c
  2150   002EDA                     l1547:
  2151   002EDA  BE03               	btfsc	(___awdiv@dividend+1)^(0+1280),7,c
  2152   002EDC  EF74  F017         	goto	u490
  2153   002EE0  EF72  F017         	goto	u491
  2154   002EE4                     u491:
  2155   002EE4  EF7A  F017         	goto	l1553
  2156   002EE8                     u490:
  2157   002EE8  6C02               	negf	___awdiv@dividend^(0+1280),c
  2158   002EEA  1E03               	comf	(___awdiv@dividend+1)^(0+1280),f,c
  2159   002EEC  B0D8               	btfsc	status,0,c
  2160   002EEE  2A03               	incf	(___awdiv@dividend+1)^(0+1280),f,c
  2161   002EF0  0E01               	movlw	1
  2162   002EF2  1A07               	xorwf	___awdiv@sign^(0+1280),f,c
  2163   002EF4                     l1553:
  2164   002EF4  0E00               	movlw	0
  2165   002EF6  6E09               	movwf	(___awdiv@quotient+1)^(0+1280),c
  2166   002EF8  0E00               	movlw	0
  2167   002EFA  6E08               	movwf	___awdiv@quotient^(0+1280),c
  2168   002EFC  5004               	movf	___awdiv@divisor^(0+1280),w,c
  2169   002EFE  1005               	iorwf	(___awdiv@divisor+1)^(0+1280),w,c
  2170   002F00  B4D8               	btfsc	status,2,c
  2171   002F02  EF85  F017         	goto	u501
  2172   002F06  EF87  F017         	goto	u500
  2173   002F0A                     u501:
  2174   002F0A  EFAF  F017         	goto	l1575
  2175   002F0E                     u500:
  2176   002F0E  0E01               	movlw	1
  2177   002F10  6E06               	movwf	___awdiv@counter^(0+1280),c
  2178   002F12  EF8F  F017         	goto	l1561
  2179   002F16                     l1559:
  2180   002F16  90D8               	bcf	status,0,c
  2181   002F18  3604               	rlcf	___awdiv@divisor^(0+1280),f,c
  2182   002F1A  3605               	rlcf	(___awdiv@divisor+1)^(0+1280),f,c
  2183   002F1C  2A06               	incf	___awdiv@counter^(0+1280),f,c
  2184   002F1E                     l1561:
  2185   002F1E  AE05               	btfss	(___awdiv@divisor+1)^(0+1280),7,c
  2186   002F20  EF94  F017         	goto	u511
  2187   002F24  EF96  F017         	goto	u510
  2188   002F28                     u511:
  2189   002F28  EF8B  F017         	goto	l1559
  2190   002F2C                     u510:
  2191   002F2C                     l1563:
  2192   002F2C  90D8               	bcf	status,0,c
  2193   002F2E  3608               	rlcf	___awdiv@quotient^(0+1280),f,c
  2194   002F30  3609               	rlcf	(___awdiv@quotient+1)^(0+1280),f,c
  2195   002F32  5004               	movf	___awdiv@divisor^(0+1280),w,c
  2196   002F34  5C02               	subwf	___awdiv@dividend^(0+1280),w,c
  2197   002F36  5005               	movf	(___awdiv@divisor+1)^(0+1280),w,c
  2198   002F38  5803               	subwfb	(___awdiv@dividend+1)^(0+1280),w,c
  2199   002F3A  A0D8               	btfss	status,0,c
  2200   002F3C  EFA2  F017         	goto	u521
  2201   002F40  EFA4  F017         	goto	u520
  2202   002F44                     u521:
  2203   002F44  EFA9  F017         	goto	l1571
  2204   002F48                     u520:
  2205   002F48  5004               	movf	___awdiv@divisor^(0+1280),w,c
  2206   002F4A  5E02               	subwf	___awdiv@dividend^(0+1280),f,c
  2207   002F4C  5005               	movf	(___awdiv@divisor+1)^(0+1280),w,c
  2208   002F4E  5A03               	subwfb	(___awdiv@dividend+1)^(0+1280),f,c
  2209   002F50  8008               	bsf	___awdiv@quotient^(0+1280),0,c
  2210   002F52                     l1571:
  2211   002F52  90D8               	bcf	status,0,c
  2212   002F54  3205               	rrcf	(___awdiv@divisor+1)^(0+1280),f,c
  2213   002F56  3204               	rrcf	___awdiv@divisor^(0+1280),f,c
  2214   002F58  2E06               	decfsz	___awdiv@counter^(0+1280),f,c
  2215   002F5A  EF96  F017         	goto	l1563
  2216   002F5E                     l1575:
  2217   002F5E  5007               	movf	___awdiv@sign^(0+1280),w,c
  2218   002F60  B4D8               	btfsc	status,2,c
  2219   002F62  EFB5  F017         	goto	u531
  2220   002F66  EFB7  F017         	goto	u530
  2221   002F6A                     u531:
  2222   002F6A  EFBB  F017         	goto	l1579
  2223   002F6E                     u530:
  2224   002F6E  6C08               	negf	___awdiv@quotient^(0+1280),c
  2225   002F70  1E09               	comf	(___awdiv@quotient+1)^(0+1280),f,c
  2226   002F72  B0D8               	btfsc	status,0,c
  2227   002F74  2A09               	incf	(___awdiv@quotient+1)^(0+1280),f,c
  2228   002F76                     l1579:
  2229   002F76  C508  F502         	movff	___awdiv@quotient,?___awdiv
  2230   002F7A  C509  F503         	movff	___awdiv@quotient+1,?___awdiv+1
  2231   002F7E  0012               	return		;funcret
  2232   002F80                     __end_of___awdiv:
  2233                           	callstack 0
  2234                           
  2235 ;; *************** function _LCDprints *****************
  2236 ;; Defined at:
  2237 ;;		line 86 in file "C:/Users/a_hui/OneDrive - Camosun College/term2/ecet165_embedded_mc/labs/lab6/lcd18f.c"
  2238 ;; Parameters:    Size  Location     Type
  2239 ;;  c               2   18[COMRAM] PTR unsigned char 
  2240 ;;		 -> toString@string(4), NULL(0), current_time.meridian(1), current_time.seconds(1), 
  2241 ;;		 -> current_time.minutes(1), current_time.hours(1), main@current_time(4), 
  2242 ;; Auto vars:     Size  Location     Type
  2243 ;;		None
  2244 ;; Return value:  Size  Location     Type
  2245 ;;                  1    wreg      void 
  2246 ;; Registers used:
  2247 ;;		wreg, fsr2l, fsr2h, status,2, status,0, cstack
  2248 ;; Tracked objects:
  2249 ;;		On entry : 0/0
  2250 ;;		On exit  : 0/0
  2251 ;;		Unchanged: 0/0
  2252 ;; Data sizes:     COMRAM   BANK5   BANK6   BANK7   BANK8   BANK9  BANK10  BANK11  BANK12  BANK13  BANK14  BANK15  BANK1
      +6  BANK17  BANK18  BANK19  BANK20  BANK21  BANK22  BANK23  BANK24  BANK25  BANK26  BANK27  BANK28  BANK29  BANK30  BANK3
      +1  BANK32  BANK33  BANK34  BANK35  BANK36
  2253 ;;      Params:         2       0       0       0       0       0       0       0       0       0       0       0       
      +0       0       0       0       0       0       0       0       0       0       0       0       0       0       0       
      +0       0       0       0       0       0
  2254 ;;      Locals:         0       0       0       0       0       0       0       0       0       0       0       0       
      +0       0       0       0       0       0       0       0       0       0       0       0       0       0       0       
      +0       0       0       0       0       0
  2255 ;;      Temps:          0       0       0       0       0       0       0       0       0       0       0       0       
      +0       0       0       0       0       0       0       0       0       0       0       0       0       0       0       
      +0       0       0       0       0       0
  2256 ;;      Totals:         2       0       0       0       0       0       0       0       0       0       0       0       
      +0       0       0       0       0       0       0       0       0       0       0       0       0       0       0       
      +0       0       0       0       0       0
  2257 ;;Total ram usage:        2 bytes
  2258 ;; Hardware stack levels used: 1
  2259 ;; Hardware stack levels required when called: 3
  2260 ;; This function calls:
  2261 ;;		_LCDprintc
  2262 ;; This function is called by:
  2263 ;;		_LCDprintf
  2264 ;; This function uses a non-reentrant model
  2265 ;;
  2266                           
  2267                           	psect	text8
  2268   0031F2                     __ptext8:
  2269                           	callstack 0
  2270   0031F2                     _LCDprints:
  2271                           	callstack 121
  2272   0031F2                     
  2273                           ;C:/Users/a_hui/OneDrive - Camosun College/term2/ecet165_embedded_mc/labs/lab6/lcd18f.c:
      +                           88:     ANSELD = 0x0; TRISD = 0x0; WPUD = 0xFF; LATDbits.LATD7 = 1; _delay((unsigned lo
      +                          ng)((1)*(64000000/4000000.0)));
  2274   0031F2  0E00               	movlw	0
  2275   0031F4  0104               	movlb	4	; () banked
  2276   0031F6  6F18               	movwf	24,b	;volatile
  2277   0031F8  0E00               	movlw	0
  2278   0031FA  6EC9               	movwf	201,c	;volatile
  2279   0031FC                     
  2280                           ; BSR set to: 4
  2281   0031FC  6919               	setf	25,b	;volatile
  2282   0031FE                     
  2283                           ; BSR set to: 4
  2284   0031FE  8EC1               	bsf	193,7,c	;volatile
  2285   003200                     
  2286                           ; BSR set to: 4
  2287   003200  0E05               	movlw	5
  2288   003202                     u1007:
  2289   003202  2EE8               	decfsz	wreg,f,c
  2290   003204  D7FE               	bra	u1007
  2291   003206  F000               	nop	
  2292   003208                     
  2293                           ;C:/Users/a_hui/OneDrive - Camosun College/term2/ecet165_embedded_mc/labs/lab6/lcd18f.c:
      +                           91:     LATDbits.LATD4 = 1;
  2294   003208  88C1               	bsf	193,4,c	;volatile
  2295   00320A                     
  2296                           ;C:/Users/a_hui/OneDrive - Camosun College/term2/ecet165_embedded_mc/labs/lab6/lcd18f.c:
      +                           92:     LATDbits.LATD5 = 0;
  2297   00320A  9AC1               	bcf	193,5,c	;volatile
  2298   00320C                     
  2299                           ;C:/Users/a_hui/OneDrive - Camosun College/term2/ecet165_embedded_mc/labs/lab6/lcd18f.c:
      +                           94:     _delay((unsigned long)((1)*(64000000/4000000.0)));
  2300   00320C  0E05               	movlw	5
  2301   00320E                     u1017:
  2302   00320E  2EE8               	decfsz	wreg,f,c
  2303   003210  D7FE               	bra	u1017
  2304   003212  F000               	nop	
  2305                           
  2306                           ;C:/Users/a_hui/OneDrive - Camosun College/term2/ecet165_embedded_mc/labs/lab6/lcd18f.c:
      +                           98:     while(*c != 0x0){
  2307   003214  EF15  F019         	goto	l1637
  2308   003218                     l1633:
  2309                           
  2310                           ;C:/Users/a_hui/OneDrive - Camosun College/term2/ecet165_embedded_mc/labs/lab6/lcd18f.c:
      +                           100:         LCDprintc(*c++);
  2311   003218  C513  F4D9         	movff	LCDprints@c,fsr2l
  2312   00321C  C514  F4DA         	movff	LCDprints@c+1,fsr2h
  2313   003220  50DF               	movf	indf2,w,c
  2314   003222  EC18  F018         	call	_LCDprintc
  2315   003226  4A13               	infsnz	LCDprints@c^(0+1280),f,c
  2316   003228  2A14               	incf	(LCDprints@c+1)^(0+1280),f,c
  2317   00322A                     l1637:
  2318                           
  2319                           ;C:/Users/a_hui/OneDrive - Camosun College/term2/ecet165_embedded_mc/labs/lab6/lcd18f.c:
      +                           98:     while(*c != 0x0){
  2320   00322A  C513  F4D9         	movff	LCDprints@c,fsr2l
  2321   00322E  C514  F4DA         	movff	LCDprints@c+1,fsr2h
  2322   003232  50DF               	movf	indf2,w,c
  2323   003234  A4D8               	btfss	status,2,c
  2324   003236  EF1F  F019         	goto	u601
  2325   00323A  EF21  F019         	goto	u600
  2326   00323E                     u601:
  2327   00323E  EF0C  F019         	goto	l1633
  2328   003242                     u600:
  2329   003242  0012               	return		;funcret
  2330   003244                     __end_of_LCDprints:
  2331                           	callstack 0
  2332                           
  2333 ;; *************** function _LCDprintc *****************
  2334 ;; Defined at:
  2335 ;;		line 71 in file "C:/Users/a_hui/OneDrive - Camosun College/term2/ecet165_embedded_mc/labs/lab6/lcd18f.c"
  2336 ;; Parameters:    Size  Location     Type
  2337 ;;  c               1    wreg     unsigned char 
  2338 ;; Auto vars:     Size  Location     Type
  2339 ;;  c               1    2[COMRAM] unsigned char 
  2340 ;; Return value:  Size  Location     Type
  2341 ;;                  1    wreg      void 
  2342 ;; Registers used:
  2343 ;;		wreg, status,2, status,0
  2344 ;; Tracked objects:
  2345 ;;		On entry : 0/0
  2346 ;;		On exit  : 0/0
  2347 ;;		Unchanged: 0/0
  2348 ;; Data sizes:     COMRAM   BANK5   BANK6   BANK7   BANK8   BANK9  BANK10  BANK11  BANK12  BANK13  BANK14  BANK15  BANK1
      +6  BANK17  BANK18  BANK19  BANK20  BANK21  BANK22  BANK23  BANK24  BANK25  BANK26  BANK27  BANK28  BANK29  BANK30  BANK3
      +1  BANK32  BANK33  BANK34  BANK35  BANK36
  2349 ;;      Params:         0       0       0       0       0       0       0       0       0       0       0       0       
      +0       0       0       0       0       0       0       0       0       0       0       0       0       0       0       
      +0       0       0       0       0       0
  2350 ;;      Locals:         1       0       0       0       0       0       0       0       0       0       0       0       
      +0       0       0       0       0       0       0       0       0       0       0       0       0       0       0       
      +0       0       0       0       0       0
  2351 ;;      Temps:          1       0       0       0       0       0       0       0       0       0       0       0       
      +0       0       0       0       0       0       0       0       0       0       0       0       0       0       0       
      +0       0       0       0       0       0
  2352 ;;      Totals:         2       0       0       0       0       0       0       0       0       0       0       0       
      +0       0       0       0       0       0       0       0       0       0       0       0       0       0       0       
      +0       0       0       0       0       0
  2353 ;;Total ram usage:        2 bytes
  2354 ;; Hardware stack levels used: 1
  2355 ;; Hardware stack levels required when called: 2
  2356 ;; This function calls:
  2357 ;;		Nothing
  2358 ;; This function is called by:
  2359 ;;		_main
  2360 ;;		_LCDprints
  2361 ;;		_LCDprintf
  2362 ;;		_LCDreturn
  2363 ;; This function uses a non-reentrant model
  2364 ;;
  2365                           
  2366                           	psect	text9
  2367   003030                     __ptext9:
  2368                           	callstack 0
  2369   003030                     _LCDprintc:
  2370                           	callstack 121
  2371                           
  2372                           ;incstack = 0
  2373                           ;LCDprintc@c stored from wreg
  2374   003030  6E03               	movwf	LCDprintc@c^(0+1280),c
  2375   003032                     
  2376                           ;C:/Users/a_hui/OneDrive - Camosun College/term2/ecet165_embedded_mc/labs/lab6/lcd18f.c:
      +                           72:     ANSELD = 0x0; TRISD = 0x0; WPUD = 0xFF; LATDbits.LATD7 = 1; _delay((unsigned lo
      +                          ng)((1)*(64000000/4000000.0)));
  2377   003032  0E00               	movlw	0
  2378   003034  0104               	movlb	4	; () banked
  2379   003036  6F18               	movwf	24,b	;volatile
  2380   003038  0E00               	movlw	0
  2381   00303A  6EC9               	movwf	201,c	;volatile
  2382   00303C                     
  2383                           ; BSR set to: 4
  2384   00303C  6919               	setf	25,b	;volatile
  2385   00303E                     
  2386                           ; BSR set to: 4
  2387   00303E  8EC1               	bsf	193,7,c	;volatile
  2388   003040                     
  2389                           ; BSR set to: 4
  2390   003040  0E05               	movlw	5
  2391   003042                     u1027:
  2392   003042  2EE8               	decfsz	wreg,f,c
  2393   003044  D7FE               	bra	u1027
  2394   003046  F000               	nop	
  2395   003048                     
  2396                           ;C:/Users/a_hui/OneDrive - Camosun College/term2/ecet165_embedded_mc/labs/lab6/lcd18f.c:
      +                           73:     LATDbits.LATD4 = 1;
  2397   003048  88C1               	bsf	193,4,c	;volatile
  2398   00304A                     
  2399                           ;C:/Users/a_hui/OneDrive - Camosun College/term2/ecet165_embedded_mc/labs/lab6/lcd18f.c:
      +                           74:     LATDbits.LATD5 = 0;
  2400   00304A  9AC1               	bcf	193,5,c	;volatile
  2401   00304C                     
  2402                           ;C:/Users/a_hui/OneDrive - Camosun College/term2/ecet165_embedded_mc/labs/lab6/lcd18f.c:
      +                           77:     LATD = (LATD & 0xF0)|(c>>4);
  2403   00304C  C503  F502         	movff	LCDprintc@c,??_LCDprintc
  2404   003050  3A02               	swapf	??_LCDprintc^(0+1280),f,c
  2405   003052  0E0F               	movlw	15
  2406   003054  1602               	andwf	??_LCDprintc^(0+1280),f,c
  2407   003056  50C1               	movf	193,w,c	;volatile
  2408   003058  0BF0               	andlw	240
  2409   00305A  1002               	iorwf	??_LCDprintc^(0+1280),w,c
  2410   00305C  6EC1               	movwf	193,c	;volatile
  2411   00305E                     
  2412                           ;C:/Users/a_hui/OneDrive - Camosun College/term2/ecet165_embedded_mc/labs/lab6/lcd18f.c:
      +                           78:     _delay((unsigned long)((1)*(64000000/4000000.0)));
  2413   00305E  0E05               	movlw	5
  2414   003060                     u1037:
  2415   003060  2EE8               	decfsz	wreg,f,c
  2416   003062  D7FE               	bra	u1037
  2417   003064  F000               	nop	
  2418   003066                     
  2419                           ;C:/Users/a_hui/OneDrive - Camosun College/term2/ecet165_embedded_mc/labs/lab6/lcd18f.c:
      +                           79:     LATDbits.LATD6 = 1; _delay((unsigned long)((1)*(64000000/4000000.0))); LATDbits
      +                          .LATD6 = 0;
  2420   003066  8CC1               	bsf	193,6,c	;volatile
  2421   003068  0E05               	movlw	5
  2422   00306A                     u1047:
  2423   00306A  2EE8               	decfsz	wreg,f,c
  2424   00306C  D7FE               	bra	u1047
  2425   00306E  F000               	nop	
  2426   003070  9CC1               	bcf	193,6,c	;volatile
  2427   003072                     
  2428                           ;C:/Users/a_hui/OneDrive - Camosun College/term2/ecet165_embedded_mc/labs/lab6/lcd18f.c:
      +                           80:     LATD = (LATD & 0xF0)|(c & 0x0F);
  2429   003072  C503  F502         	movff	LCDprintc@c,??_LCDprintc
  2430   003076  0E0F               	movlw	15
  2431   003078  1602               	andwf	??_LCDprintc^(0+1280),f,c
  2432   00307A  50C1               	movf	193,w,c	;volatile
  2433   00307C  0BF0               	andlw	240
  2434   00307E  1002               	iorwf	??_LCDprintc^(0+1280),w,c
  2435   003080  6EC1               	movwf	193,c	;volatile
  2436   003082                     
  2437                           ;C:/Users/a_hui/OneDrive - Camosun College/term2/ecet165_embedded_mc/labs/lab6/lcd18f.c:
      +                           81:     _delay((unsigned long)((1)*(64000000/4000000.0)));
  2438   003082  0E05               	movlw	5
  2439   003084                     u1057:
  2440   003084  2EE8               	decfsz	wreg,f,c
  2441   003086  D7FE               	bra	u1057
  2442   003088  F000               	nop	
  2443   00308A                     
  2444                           ;C:/Users/a_hui/OneDrive - Camosun College/term2/ecet165_embedded_mc/labs/lab6/lcd18f.c:
      +                           82:     LATDbits.LATD6 = 1; _delay((unsigned long)((1)*(64000000/4000000.0))); LATDbits
      +                          .LATD6 = 0;
  2445   00308A  8CC1               	bsf	193,6,c	;volatile
  2446   00308C  0E05               	movlw	5
  2447   00308E                     u1067:
  2448   00308E  2EE8               	decfsz	wreg,f,c
  2449   003090  D7FE               	bra	u1067
  2450   003092  F000               	nop	
  2451   003094  9CC1               	bcf	193,6,c	;volatile
  2452   003096                     
  2453                           ;C:/Users/a_hui/OneDrive - Camosun College/term2/ecet165_embedded_mc/labs/lab6/lcd18f.c:
      +                           83:     _delay((unsigned long)((5)*(64000000/4000.0)));
  2454   003096  0E68               	movlw	104
  2455   003098  6E02               	movwf	??_LCDprintc^(0+1280),c
  2456   00309A  0EE4               	movlw	228
  2457   00309C                     u1077:
  2458   00309C  2EE8               	decfsz	wreg,f,c
  2459   00309E  D7FE               	bra	u1077
  2460   0030A0  2E02               	decfsz	??_LCDprintc^(0+1280),f,c
  2461   0030A2  D7FC               	bra	u1077
  2462   0030A4  D000               	nop2	
  2463   0030A6  0012               	return		;funcret
  2464   0030A8                     __end_of_LCDprintc:
  2465                           	callstack 0
  2466                           
  2467 ;; *************** function _LCDinit *****************
  2468 ;; Defined at:
  2469 ;;		line 34 in file "C:/Users/a_hui/OneDrive - Camosun College/term2/ecet165_embedded_mc/labs/lab6/lcd18f.c"
  2470 ;; Parameters:    Size  Location     Type
  2471 ;;		None
  2472 ;; Auto vars:     Size  Location     Type
  2473 ;;		None
  2474 ;; Return value:  Size  Location     Type
  2475 ;;                  1    wreg      void 
  2476 ;; Registers used:
  2477 ;;		wreg, status,2, status,0, cstack
  2478 ;; Tracked objects:
  2479 ;;		On entry : 0/0
  2480 ;;		On exit  : 0/0
  2481 ;;		Unchanged: 0/0
  2482 ;; Data sizes:     COMRAM   BANK5   BANK6   BANK7   BANK8   BANK9  BANK10  BANK11  BANK12  BANK13  BANK14  BANK15  BANK1
      +6  BANK17  BANK18  BANK19  BANK20  BANK21  BANK22  BANK23  BANK24  BANK25  BANK26  BANK27  BANK28  BANK29  BANK30  BANK3
      +1  BANK32  BANK33  BANK34  BANK35  BANK36
  2483 ;;      Params:         0       0       0       0       0       0       0       0       0       0       0       0       
      +0       0       0       0       0       0       0       0       0       0       0       0       0       0       0       
      +0       0       0       0       0       0
  2484 ;;      Locals:         0       0       0       0       0       0       0       0       0       0       0       0       
      +0       0       0       0       0       0       0       0       0       0       0       0       0       0       0       
      +0       0       0       0       0       0
  2485 ;;      Temps:          2       0       0       0       0       0       0       0       0       0       0       0       
      +0       0       0       0       0       0       0       0       0       0       0       0       0       0       0       
      +0       0       0       0       0       0
  2486 ;;      Totals:         2       0       0       0       0       0       0       0       0       0       0       0       
      +0       0       0       0       0       0       0       0       0       0       0       0       0       0       0       
      +0       0       0       0       0       0
  2487 ;;Total ram usage:        2 bytes
  2488 ;; Hardware stack levels used: 1
  2489 ;; Hardware stack levels required when called: 3
  2490 ;; This function calls:
  2491 ;;		_LCDinstruct
  2492 ;; This function is called by:
  2493 ;;		_main
  2494 ;; This function uses a non-reentrant model
  2495 ;;
  2496                           
  2497                           	psect	text10
  2498   002DD2                     __ptext10:
  2499                           	callstack 0
  2500   002DD2                     _LCDinit:
  2501                           	callstack 123
  2502   002DD2                     
  2503                           ;C:/Users/a_hui/OneDrive - Camosun College/term2/ecet165_embedded_mc/labs/lab6/lcd18f.c:
      +                           35:     _delay((unsigned long)((50)*(64000000/4000.0)));
  2504   002DD2  0E05               	movlw	5
  2505   002DD4  6E05               	movwf	(??_LCDinit+1)^(0+1280),c
  2506   002DD6  0E0F               	movlw	15
  2507   002DD8  6E04               	movwf	??_LCDinit^(0+1280),c
  2508   002DDA  0EF1               	movlw	241
  2509   002DDC                     u1087:
  2510   002DDC  2EE8               	decfsz	wreg,f,c
  2511   002DDE  D7FE               	bra	u1087
  2512   002DE0  2E04               	decfsz	??_LCDinit^(0+1280),f,c
  2513   002DE2  D7FC               	bra	u1087
  2514   002DE4  2E05               	decfsz	(??_LCDinit+1)^(0+1280),f,c
  2515   002DE6  D7FA               	bra	u1087
  2516   002DE8  F000               	nop	
  2517   002DEA                     
  2518                           ;C:/Users/a_hui/OneDrive - Camosun College/term2/ecet165_embedded_mc/labs/lab6/lcd18f.c:
      +                           37:     ANSELD = 0x0; TRISD = 0x0; WPUD = 0xFF; LATDbits.LATD7 = 1; _delay((unsigned lo
      +                          ng)((1)*(64000000/4000000.0)));
  2519   002DEA  0E00               	movlw	0
  2520   002DEC  0104               	movlb	4	; () banked
  2521   002DEE  6F18               	movwf	24,b	;volatile
  2522   002DF0                     
  2523                           ; BSR set to: 4
  2524   002DF0  0E00               	movlw	0
  2525   002DF2  6EC9               	movwf	201,c	;volatile
  2526   002DF4                     
  2527                           ; BSR set to: 4
  2528   002DF4  6919               	setf	25,b	;volatile
  2529   002DF6                     
  2530                           ; BSR set to: 4
  2531   002DF6  8EC1               	bsf	193,7,c	;volatile
  2532   002DF8  0E05               	movlw	5
  2533   002DFA                     u1097:
  2534   002DFA  2EE8               	decfsz	wreg,f,c
  2535   002DFC  D7FE               	bra	u1097
  2536   002DFE  F000               	nop	
  2537   002E00                     
  2538                           ;C:/Users/a_hui/OneDrive - Camosun College/term2/ecet165_embedded_mc/labs/lab6/lcd18f.c:
      +                           39:     LATDbits.LATD4 = 0;
  2539   002E00  98C1               	bcf	193,4,c	;volatile
  2540   002E02                     
  2541                           ;C:/Users/a_hui/OneDrive - Camosun College/term2/ecet165_embedded_mc/labs/lab6/lcd18f.c:
      +                           40:     LATDbits.LATD5 = 0;
  2542   002E02  9AC1               	bcf	193,5,c	;volatile
  2543                           
  2544                           ;C:/Users/a_hui/OneDrive - Camosun College/term2/ecet165_embedded_mc/labs/lab6/lcd18f.c:
      +                           42:     _delay((unsigned long)((1)*(64000000/4000000.0)));
  2545   002E04  0E05               	movlw	5
  2546   002E06                     u1107:
  2547   002E06  2EE8               	decfsz	wreg,f,c
  2548   002E08  D7FE               	bra	u1107
  2549   002E0A  F000               	nop	
  2550   002E0C                     
  2551                           ;C:/Users/a_hui/OneDrive - Camosun College/term2/ecet165_embedded_mc/labs/lab6/lcd18f.c:
      +                           45:     LATD = (LATD & 0xF0) | 0x03;
  2552   002E0C  50C1               	movf	193,w,c	;volatile
  2553   002E0E  0BF0               	andlw	240
  2554   002E10  0903               	iorlw	3
  2555   002E12  6EC1               	movwf	193,c	;volatile
  2556   002E14                     
  2557                           ;C:/Users/a_hui/OneDrive - Camosun College/term2/ecet165_embedded_mc/labs/lab6/lcd18f.c:
      +                           46:     LATDbits.LATD6 = 1; _delay((unsigned long)((1)*(64000000/4000000.0))); LATDbits
      +                          .LATD6 = 0;
  2558   002E14  8CC1               	bsf	193,6,c	;volatile
  2559   002E16  0E05               	movlw	5
  2560   002E18                     u1117:
  2561   002E18  2EE8               	decfsz	wreg,f,c
  2562   002E1A  D7FE               	bra	u1117
  2563   002E1C  F000               	nop	
  2564   002E1E  9CC1               	bcf	193,6,c	;volatile
  2565   002E20                     
  2566                           ;C:/Users/a_hui/OneDrive - Camosun College/term2/ecet165_embedded_mc/labs/lab6/lcd18f.c:
      +                           47:     _delay((unsigned long)((5)*(64000000/4000.0)));
  2567   002E20  0E68               	movlw	104
  2568   002E22  6E04               	movwf	??_LCDinit^(0+1280),c
  2569   002E24  0EE4               	movlw	228
  2570   002E26                     u1127:
  2571   002E26  2EE8               	decfsz	wreg,f,c
  2572   002E28  D7FE               	bra	u1127
  2573   002E2A  2E04               	decfsz	??_LCDinit^(0+1280),f,c
  2574   002E2C  D7FC               	bra	u1127
  2575   002E2E  D000               	nop2	
  2576   002E30                     
  2577                           ;C:/Users/a_hui/OneDrive - Camosun College/term2/ecet165_embedded_mc/labs/lab6/lcd18f.c:
      +                           49:     LATD = (LATD & 0xF0) | 0x03;
  2578   002E30  50C1               	movf	193,w,c	;volatile
  2579   002E32  0BF0               	andlw	240
  2580   002E34  0903               	iorlw	3
  2581   002E36  6EC1               	movwf	193,c	;volatile
  2582   002E38                     
  2583                           ;C:/Users/a_hui/OneDrive - Camosun College/term2/ecet165_embedded_mc/labs/lab6/lcd18f.c:
      +                           50:     LATDbits.LATD6 = 1; _delay((unsigned long)((1)*(64000000/4000000.0))); LATDbits
      +                          .LATD6 = 0;
  2584   002E38  8CC1               	bsf	193,6,c	;volatile
  2585   002E3A  0E05               	movlw	5
  2586   002E3C                     u1137:
  2587   002E3C  2EE8               	decfsz	wreg,f,c
  2588   002E3E  D7FE               	bra	u1137
  2589   002E40  F000               	nop	
  2590   002E42  9CC1               	bcf	193,6,c	;volatile
  2591                           
  2592                           ;C:/Users/a_hui/OneDrive - Camosun College/term2/ecet165_embedded_mc/labs/lab6/lcd18f.c:
      +                           51:     _delay((unsigned long)((5)*(64000000/4000.0)));
  2593   002E44  0E68               	movlw	104
  2594   002E46  6E04               	movwf	??_LCDinit^(0+1280),c
  2595   002E48  0EE4               	movlw	228
  2596   002E4A                     u1147:
  2597   002E4A  2EE8               	decfsz	wreg,f,c
  2598   002E4C  D7FE               	bra	u1147
  2599   002E4E  2E04               	decfsz	??_LCDinit^(0+1280),f,c
  2600   002E50  D7FC               	bra	u1147
  2601   002E52  D000               	nop2	
  2602   002E54                     
  2603                           ;C:/Users/a_hui/OneDrive - Camosun College/term2/ecet165_embedded_mc/labs/lab6/lcd18f.c:
      +                           53:     LATD = (LATD & 0xF0) | 0x03;
  2604   002E54  50C1               	movf	193,w,c	;volatile
  2605   002E56  0BF0               	andlw	240
  2606   002E58  0903               	iorlw	3
  2607   002E5A  6EC1               	movwf	193,c	;volatile
  2608   002E5C                     
  2609                           ;C:/Users/a_hui/OneDrive - Camosun College/term2/ecet165_embedded_mc/labs/lab6/lcd18f.c:
      +                           54:     LATDbits.LATD6 = 1; _delay((unsigned long)((1)*(64000000/4000000.0))); LATDbits
      +                          .LATD6 = 0;
  2610   002E5C  8CC1               	bsf	193,6,c	;volatile
  2611   002E5E  0E05               	movlw	5
  2612   002E60                     u1157:
  2613   002E60  2EE8               	decfsz	wreg,f,c
  2614   002E62  D7FE               	bra	u1157
  2615   002E64  F000               	nop	
  2616   002E66  9CC1               	bcf	193,6,c	;volatile
  2617   002E68                     
  2618                           ;C:/Users/a_hui/OneDrive - Camosun College/term2/ecet165_embedded_mc/labs/lab6/lcd18f.c:
      +                           55:     _delay((unsigned long)((5)*(64000000/4000.0)));
  2619   002E68  0E68               	movlw	104
  2620   002E6A  6E04               	movwf	??_LCDinit^(0+1280),c
  2621   002E6C  0EE4               	movlw	228
  2622   002E6E                     u1167:
  2623   002E6E  2EE8               	decfsz	wreg,f,c
  2624   002E70  D7FE               	bra	u1167
  2625   002E72  2E04               	decfsz	??_LCDinit^(0+1280),f,c
  2626   002E74  D7FC               	bra	u1167
  2627   002E76  D000               	nop2	
  2628   002E78                     
  2629                           ;C:/Users/a_hui/OneDrive - Camosun College/term2/ecet165_embedded_mc/labs/lab6/lcd18f.c:
      +                           58:     LATD = (LATD & 0xF0) | 0x02;
  2630   002E78  50C1               	movf	193,w,c	;volatile
  2631   002E7A  0BF0               	andlw	240
  2632   002E7C  0902               	iorlw	2
  2633   002E7E  6EC1               	movwf	193,c	;volatile
  2634   002E80                     
  2635                           ;C:/Users/a_hui/OneDrive - Camosun College/term2/ecet165_embedded_mc/labs/lab6/lcd18f.c:
      +                           59:     LATDbits.LATD6 = 1; _delay((unsigned long)((1)*(64000000/4000000.0))); LATDbits
      +                          .LATD6 = 0;
  2636   002E80  8CC1               	bsf	193,6,c	;volatile
  2637   002E82  0E05               	movlw	5
  2638   002E84                     u1177:
  2639   002E84  2EE8               	decfsz	wreg,f,c
  2640   002E86  D7FE               	bra	u1177
  2641   002E88  F000               	nop	
  2642   002E8A  9CC1               	bcf	193,6,c	;volatile
  2643                           
  2644                           ;C:/Users/a_hui/OneDrive - Camosun College/term2/ecet165_embedded_mc/labs/lab6/lcd18f.c:
      +                           60:     _delay((unsigned long)((5)*(64000000/4000.0)));
  2645   002E8C  0E68               	movlw	104
  2646   002E8E  6E04               	movwf	??_LCDinit^(0+1280),c
  2647   002E90  0EE4               	movlw	228
  2648   002E92                     u1187:
  2649   002E92  2EE8               	decfsz	wreg,f,c
  2650   002E94  D7FE               	bra	u1187
  2651   002E96  2E04               	decfsz	??_LCDinit^(0+1280),f,c
  2652   002E98  D7FC               	bra	u1187
  2653   002E9A  D000               	nop2	
  2654   002E9C                     
  2655                           ;C:/Users/a_hui/OneDrive - Camosun College/term2/ecet165_embedded_mc/labs/lab6/lcd18f.c:
      +                           63:     LCDinstruct(0x28);
  2656   002E9C  0E28               	movlw	40
  2657   002E9E  EC8F  F018         	call	_LCDinstruct
  2658   002EA2                     
  2659                           ;C:/Users/a_hui/OneDrive - Camosun College/term2/ecet165_embedded_mc/labs/lab6/lcd18f.c:
      +                           64:     LCDinstruct(0x08);
  2660   002EA2  0E08               	movlw	8
  2661   002EA4  EC8F  F018         	call	_LCDinstruct
  2662   002EA8                     
  2663                           ;C:/Users/a_hui/OneDrive - Camosun College/term2/ecet165_embedded_mc/labs/lab6/lcd18f.c:
      +                           65:     LCDinstruct(0x0F);
  2664   002EA8  0E0F               	movlw	15
  2665   002EAA  EC8F  F018         	call	_LCDinstruct
  2666   002EAE                     
  2667                           ;C:/Users/a_hui/OneDrive - Camosun College/term2/ecet165_embedded_mc/labs/lab6/lcd18f.c:
      +                           66:     LCDinstruct(0x01);
  2668   002EAE  0E01               	movlw	1
  2669   002EB0  EC8F  F018         	call	_LCDinstruct
  2670   002EB4                     
  2671                           ;C:/Users/a_hui/OneDrive - Camosun College/term2/ecet165_embedded_mc/labs/lab6/lcd18f.c:
      +                           67:     LCDinstruct(0x06);
  2672   002EB4  0E06               	movlw	6
  2673   002EB6  EC8F  F018         	call	_LCDinstruct
  2674   002EBA  0012               	return		;funcret
  2675   002EBC                     __end_of_LCDinit:
  2676                           	callstack 0
  2677                           
  2678 ;; *************** function _LCDgoto *****************
  2679 ;; Defined at:
  2680 ;;		line 107 in file "C:/Users/a_hui/OneDrive - Camosun College/term2/ecet165_embedded_mc/labs/lab6/lcd18f.c"
  2681 ;; Parameters:    Size  Location     Type
  2682 ;;  pos             1    wreg     unsigned char 
  2683 ;; Auto vars:     Size  Location     Type
  2684 ;;  pos             1    3[COMRAM] unsigned char 
  2685 ;; Return value:  Size  Location     Type
  2686 ;;                  1    wreg      void 
  2687 ;; Registers used:
  2688 ;;		wreg, status,2, status,0, cstack
  2689 ;; Tracked objects:
  2690 ;;		On entry : 0/0
  2691 ;;		On exit  : 0/0
  2692 ;;		Unchanged: 0/0
  2693 ;; Data sizes:     COMRAM   BANK5   BANK6   BANK7   BANK8   BANK9  BANK10  BANK11  BANK12  BANK13  BANK14  BANK15  BANK1
      +6  BANK17  BANK18  BANK19  BANK20  BANK21  BANK22  BANK23  BANK24  BANK25  BANK26  BANK27  BANK28  BANK29  BANK30  BANK3
      +1  BANK32  BANK33  BANK34  BANK35  BANK36
  2694 ;;      Params:         0       0       0       0       0       0       0       0       0       0       0       0       
      +0       0       0       0       0       0       0       0       0       0       0       0       0       0       0       
      +0       0       0       0       0       0
  2695 ;;      Locals:         1       0       0       0       0       0       0       0       0       0       0       0       
      +0       0       0       0       0       0       0       0       0       0       0       0       0       0       0       
      +0       0       0       0       0       0
  2696 ;;      Temps:          0       0       0       0       0       0       0       0       0       0       0       0       
      +0       0       0       0       0       0       0       0       0       0       0       0       0       0       0       
      +0       0       0       0       0       0
  2697 ;;      Totals:         1       0       0       0       0       0       0       0       0       0       0       0       
      +0       0       0       0       0       0       0       0       0       0       0       0       0       0       0       
      +0       0       0       0       0       0
  2698 ;;Total ram usage:        1 bytes
  2699 ;; Hardware stack levels used: 1
  2700 ;; Hardware stack levels required when called: 3
  2701 ;; This function calls:
  2702 ;;		_LCDinstruct
  2703 ;; This function is called by:
  2704 ;;		_main
  2705 ;;		_LCDreturn
  2706 ;; This function uses a non-reentrant model
  2707 ;;
  2708                           
  2709                           	psect	text11
  2710   003296                     __ptext11:
  2711                           	callstack 0
  2712   003296                     _LCDgoto:
  2713                           	callstack 123
  2714                           
  2715                           ;incstack = 0
  2716                           ;LCDgoto@pos stored from wreg
  2717   003296  6E04               	movwf	LCDgoto@pos^(0+1280),c
  2718   003298                     
  2719                           ;C:/Users/a_hui/OneDrive - Camosun College/term2/ecet165_embedded_mc/labs/lab6/lcd18f.c:
      +                           108:     LCDinstruct(0x80+pos);
  2720   003298  5004               	movf	LCDgoto@pos^(0+1280),w,c
  2721   00329A  0F80               	addlw	128
  2722   00329C  EC8F  F018         	call	_LCDinstruct
  2723   0032A0  0012               	return		;funcret
  2724   0032A2                     __end_of_LCDgoto:
  2725                           	callstack 0
  2726                           
  2727 ;; *************** function _LCDinstruct *****************
  2728 ;; Defined at:
  2729 ;;		line 15 in file "C:/Users/a_hui/OneDrive - Camosun College/term2/ecet165_embedded_mc/labs/lab6/lcd18f.c"
  2730 ;; Parameters:    Size  Location     Type
  2731 ;;  instr           1    wreg     unsigned char 
  2732 ;; Auto vars:     Size  Location     Type
  2733 ;;  instr           1    2[COMRAM] unsigned char 
  2734 ;; Return value:  Size  Location     Type
  2735 ;;                  1    wreg      void 
  2736 ;; Registers used:
  2737 ;;		wreg, status,2, status,0
  2738 ;; Tracked objects:
  2739 ;;		On entry : 0/0
  2740 ;;		On exit  : 0/0
  2741 ;;		Unchanged: 0/0
  2742 ;; Data sizes:     COMRAM   BANK5   BANK6   BANK7   BANK8   BANK9  BANK10  BANK11  BANK12  BANK13  BANK14  BANK15  BANK1
      +6  BANK17  BANK18  BANK19  BANK20  BANK21  BANK22  BANK23  BANK24  BANK25  BANK26  BANK27  BANK28  BANK29  BANK30  BANK3
      +1  BANK32  BANK33  BANK34  BANK35  BANK36
  2743 ;;      Params:         0       0       0       0       0       0       0       0       0       0       0       0       
      +0       0       0       0       0       0       0       0       0       0       0       0       0       0       0       
      +0       0       0       0       0       0
  2744 ;;      Locals:         1       0       0       0       0       0       0       0       0       0       0       0       
      +0       0       0       0       0       0       0       0       0       0       0       0       0       0       0       
      +0       0       0       0       0       0
  2745 ;;      Temps:          1       0       0       0       0       0       0       0       0       0       0       0       
      +0       0       0       0       0       0       0       0       0       0       0       0       0       0       0       
      +0       0       0       0       0       0
  2746 ;;      Totals:         2       0       0       0       0       0       0       0       0       0       0       0       
      +0       0       0       0       0       0       0       0       0       0       0       0       0       0       0       
      +0       0       0       0       0       0
  2747 ;;Total ram usage:        2 bytes
  2748 ;; Hardware stack levels used: 1
  2749 ;; Hardware stack levels required when called: 2
  2750 ;; This function calls:
  2751 ;;		Nothing
  2752 ;; This function is called by:
  2753 ;;		_main
  2754 ;;		_RTCrun
  2755 ;;		_LCDinit
  2756 ;;		_LCDgoto
  2757 ;; This function uses a non-reentrant model
  2758 ;;
  2759                           
  2760                           	psect	text12
  2761   00311E                     __ptext12:
  2762                           	callstack 0
  2763   00311E                     _LCDinstruct:
  2764                           	callstack 123
  2765                           
  2766                           ;incstack = 0
  2767                           ;LCDinstruct@instr stored from wreg
  2768   00311E  6E03               	movwf	LCDinstruct@instr^(0+1280),c
  2769   003120                     
  2770                           ;C:/Users/a_hui/OneDrive - Camosun College/term2/ecet165_embedded_mc/labs/lab6/lcd18f.c:
      +                           17:     ANSELD = 0x0; TRISD = 0x0; WPUD = 0xFF; LATDbits.LATD7 = 1; _delay((unsigned lo
      +                          ng)((1)*(64000000/4000000.0)));
  2771   003120  0E00               	movlw	0
  2772   003122  0104               	movlb	4	; () banked
  2773   003124  6F18               	movwf	24,b	;volatile
  2774   003126  0E00               	movlw	0
  2775   003128  6EC9               	movwf	201,c	;volatile
  2776   00312A                     
  2777                           ; BSR set to: 4
  2778   00312A  6919               	setf	25,b	;volatile
  2779   00312C                     
  2780                           ; BSR set to: 4
  2781   00312C  8EC1               	bsf	193,7,c	;volatile
  2782   00312E                     
  2783                           ; BSR set to: 4
  2784   00312E  0E05               	movlw	5
  2785   003130                     u1197:
  2786   003130  2EE8               	decfsz	wreg,f,c
  2787   003132  D7FE               	bra	u1197
  2788   003134  F000               	nop	
  2789   003136                     
  2790                           ;C:/Users/a_hui/OneDrive - Camosun College/term2/ecet165_embedded_mc/labs/lab6/lcd18f.c:
      +                           20:     LATDbits.LATD5 = 0;
  2791   003136  9AC1               	bcf	193,5,c	;volatile
  2792   003138                     
  2793                           ;C:/Users/a_hui/OneDrive - Camosun College/term2/ecet165_embedded_mc/labs/lab6/lcd18f.c:
      +                           21:     LATDbits.LATD4 = 0;
  2794   003138  98C1               	bcf	193,4,c	;volatile
  2795   00313A                     
  2796                           ;C:/Users/a_hui/OneDrive - Camosun College/term2/ecet165_embedded_mc/labs/lab6/lcd18f.c:
      +                           24:     LATD = (LATD & 0xF0)| (instr >> 4 & 0x0F);
  2797   00313A  C503  F502         	movff	LCDinstruct@instr,??_LCDinstruct
  2798   00313E  3A02               	swapf	??_LCDinstruct^(0+1280),f,c
  2799   003140  0E0F               	movlw	15
  2800   003142  1602               	andwf	??_LCDinstruct^(0+1280),f,c
  2801   003144  0E0F               	movlw	15
  2802   003146  1602               	andwf	??_LCDinstruct^(0+1280),f,c
  2803   003148  50C1               	movf	193,w,c	;volatile
  2804   00314A  0BF0               	andlw	240
  2805   00314C  1002               	iorwf	??_LCDinstruct^(0+1280),w,c
  2806   00314E  6EC1               	movwf	193,c	;volatile
  2807   003150                     
  2808                           ;C:/Users/a_hui/OneDrive - Camosun College/term2/ecet165_embedded_mc/labs/lab6/lcd18f.c:
      +                           25:     LATDbits.LATD6 = 1; _delay((unsigned long)((1)*(64000000/4000000.0))); LATDbits
      +                          .LATD6 = 0;
  2809   003150  8CC1               	bsf	193,6,c	;volatile
  2810   003152  0E05               	movlw	5
  2811   003154                     u1207:
  2812   003154  2EE8               	decfsz	wreg,f,c
  2813   003156  D7FE               	bra	u1207
  2814   003158  F000               	nop	
  2815   00315A  9CC1               	bcf	193,6,c	;volatile
  2816   00315C                     
  2817                           ;C:/Users/a_hui/OneDrive - Camosun College/term2/ecet165_embedded_mc/labs/lab6/lcd18f.c:
      +                           26:     _delay((unsigned long)((1)*(64000000/4000000.0)));
  2818   00315C  0E05               	movlw	5
  2819   00315E                     u1217:
  2820   00315E  2EE8               	decfsz	wreg,f,c
  2821   003160  D7FE               	bra	u1217
  2822   003162  F000               	nop	
  2823   003164                     
  2824                           ;C:/Users/a_hui/OneDrive - Camosun College/term2/ecet165_embedded_mc/labs/lab6/lcd18f.c:
      +                           27:     LATD = (LATD & 0xF0)|(instr & 0x0F);
  2825   003164  C503  F502         	movff	LCDinstruct@instr,??_LCDinstruct
  2826   003168  0E0F               	movlw	15
  2827   00316A  1602               	andwf	??_LCDinstruct^(0+1280),f,c
  2828   00316C  50C1               	movf	193,w,c	;volatile
  2829   00316E  0BF0               	andlw	240
  2830   003170  1002               	iorwf	??_LCDinstruct^(0+1280),w,c
  2831   003172  6EC1               	movwf	193,c	;volatile
  2832   003174                     
  2833                           ;C:/Users/a_hui/OneDrive - Camosun College/term2/ecet165_embedded_mc/labs/lab6/lcd18f.c:
      +                           28:     LATDbits.LATD6 = 1; _delay((unsigned long)((1)*(64000000/4000000.0))); LATDbits
      +                          .LATD6 = 0;
  2834   003174  8CC1               	bsf	193,6,c	;volatile
  2835   003176  0E05               	movlw	5
  2836   003178                     u1227:
  2837   003178  2EE8               	decfsz	wreg,f,c
  2838   00317A  D7FE               	bra	u1227
  2839   00317C  F000               	nop	
  2840   00317E  9CC1               	bcf	193,6,c	;volatile
  2841   003180                     
  2842                           ;C:/Users/a_hui/OneDrive - Camosun College/term2/ecet165_embedded_mc/labs/lab6/lcd18f.c:
      +                           29:     _delay((unsigned long)((5)*(64000000/4000.0)));
  2843   003180  0E68               	movlw	104
  2844   003182  6E02               	movwf	??_LCDinstruct^(0+1280),c
  2845   003184  0EE4               	movlw	228
  2846   003186                     u1237:
  2847   003186  2EE8               	decfsz	wreg,f,c
  2848   003188  D7FE               	bra	u1237
  2849   00318A  2E02               	decfsz	??_LCDinstruct^(0+1280),f,c
  2850   00318C  D7FC               	bra	u1237
  2851   00318E  D000               	nop2	
  2852   003190  0012               	return		;funcret
  2853   003192                     __end_of_LCDinstruct:
  2854                           	callstack 0
  2855                           
  2856 ;; *************** function _setINT *****************
  2857 ;; Defined at:
  2858 ;;		line 80 in file "C:/Users/a_hui/OneDrive - Camosun College/term2/ecet165_embedded_mc/labs/lab9/RealTimeClock.c"
  2859 ;; Parameters:    Size  Location     Type
  2860 ;;		None
  2861 ;; Auto vars:     Size  Location     Type
  2862 ;;		None
  2863 ;; Return value:  Size  Location     Type
  2864 ;;                  1    wreg      void 
  2865 ;; Registers used:
  2866 ;;		wreg, status,2
  2867 ;; Tracked objects:
  2868 ;;		On entry : 0/0
  2869 ;;		On exit  : 0/0
  2870 ;;		Unchanged: 0/0
  2871 ;; Data sizes:     COMRAM   BANK5   BANK6   BANK7   BANK8   BANK9  BANK10  BANK11  BANK12  BANK13  BANK14  BANK15  BANK1
      +6  BANK17  BANK18  BANK19  BANK20  BANK21  BANK22  BANK23  BANK24  BANK25  BANK26  BANK27  BANK28  BANK29  BANK30  BANK3
      +1  BANK32  BANK33  BANK34  BANK35  BANK36
  2872 ;;      Params:         0       0       0       0       0       0       0       0       0       0       0       0       
      +0       0       0       0       0       0       0       0       0       0       0       0       0       0       0       
      +0       0       0       0       0       0
  2873 ;;      Locals:         0       0       0       0       0       0       0       0       0       0       0       0       
      +0       0       0       0       0       0       0       0       0       0       0       0       0       0       0       
      +0       0       0       0       0       0
  2874 ;;      Temps:          1       0       0       0       0       0       0       0       0       0       0       0       
      +0       0       0       0       0       0       0       0       0       0       0       0       0       0       0       
      +0       0       0       0       0       0
  2875 ;;      Totals:         1       0       0       0       0       0       0       0       0       0       0       0       
      +0       0       0       0       0       0       0       0       0       0       0       0       0       0       0       
      +0       0       0       0       0       0
  2876 ;;Total ram usage:        1 bytes
  2877 ;; Hardware stack levels used: 1
  2878 ;; Hardware stack levels required when called: 1
  2879 ;; This function calls:
  2880 ;;		Nothing
  2881 ;; This function is called by:
  2882 ;;		Interrupt level 1
  2883 ;; This function uses a non-reentrant model
  2884 ;;
  2885                           
  2886                           	psect	text13
  2887   003260                     __ptext13:
  2888                           	callstack 0
  2889   003260                     _setINT:
  2890                           	callstack 121
  2891                           
  2892                           ;incstack = 0
  2893   003260  C4D8 F501          	movff	status,??_setINT
  2894   003264                     
  2895                           ;C:/Users/a_hui/OneDrive - Camosun College/term2/ecet165_embedded_mc/labs/lab9/RealTimeC
      +                          lock.c: 81:     IOCBN4 = 0;
  2896   003264  0104               	movlb	4	; () banked
  2897   003266  990E               	bcf	14,4,b	;volatile
  2898                           
  2899                           ;C:/Users/a_hui/OneDrive - Camosun College/term2/ecet165_embedded_mc/labs/lab9/RealTimeC
      +                          lock.c: 82:     IOCBF4 = 0;
  2900   003268  990F               	bcf	15,4,b	;volatile
  2901                           
  2902                           ;C:/Users/a_hui/OneDrive - Camosun College/term2/ecet165_embedded_mc/labs/lab9/RealTimeC
      +                          lock.c: 83:     T0CON0bits.EN = 0;
  2903   00326A  0103               	movlb	3	; () banked
  2904   00326C  9F1A               	bcf	26,7,b	;volatile
  2905   00326E                     
  2906                           ; BSR set to: 3
  2907                           ;C:/Users/a_hui/OneDrive - Camosun College/term2/ecet165_embedded_mc/labs/lab9/RealTimeC
      +                          lock.c: 84:     nSetRTC = 0;
  2908   00326E  0E00               	movlw	0
  2909   003270  6E59               	movwf	_nSetRTC^(0+1280),c
  2910   003272                     
  2911                           ; BSR set to: 3
  2912   003272  C501  F4D8         	movff	??_setINT,status
  2913   003276  0011               	retfie		f
  2914   003278                     __end_of_setINT:
  2915                           	callstack 0
  2916                           
  2917 ;; *************** function _tickINT *****************
  2918 ;; Defined at:
  2919 ;;		line 28 in file "C:/Users/a_hui/OneDrive - Camosun College/term2/ecet165_embedded_mc/labs/lab8/timer0.c"
  2920 ;; Parameters:    Size  Location     Type
  2921 ;;		None
  2922 ;; Auto vars:     Size  Location     Type
  2923 ;;		None
  2924 ;; Return value:  Size  Location     Type
  2925 ;;                  1    wreg      void 
  2926 ;; Registers used:
  2927 ;;		status,2, status,0
  2928 ;; Tracked objects:
  2929 ;;		On entry : 0/0
  2930 ;;		On exit  : 0/0
  2931 ;;		Unchanged: 0/0
  2932 ;; Data sizes:     COMRAM   BANK5   BANK6   BANK7   BANK8   BANK9  BANK10  BANK11  BANK12  BANK13  BANK14  BANK15  BANK1
      +6  BANK17  BANK18  BANK19  BANK20  BANK21  BANK22  BANK23  BANK24  BANK25  BANK26  BANK27  BANK28  BANK29  BANK30  BANK3
      +1  BANK32  BANK33  BANK34  BANK35  BANK36
  2933 ;;      Params:         0       0       0       0       0       0       0       0       0       0       0       0       
      +0       0       0       0       0       0       0       0       0       0       0       0       0       0       0       
      +0       0       0       0       0       0
  2934 ;;      Locals:         0       0       0       0       0       0       0       0       0       0       0       0       
      +0       0       0       0       0       0       0       0       0       0       0       0       0       0       0       
      +0       0       0       0       0       0
  2935 ;;      Temps:          0       0       0       0       0       0       0       0       0       0       0       0       
      +0       0       0       0       0       0       0       0       0       0       0       0       0       0       0       
      +0       0       0       0       0       0
  2936 ;;      Totals:         0       0       0       0       0       0       0       0       0       0       0       0       
      +0       0       0       0       0       0       0       0       0       0       0       0       0       0       0       
      +0       0       0       0       0       0
  2937 ;;Total ram usage:        0 bytes
  2938 ;; Hardware stack levels used: 1
  2939 ;; This function calls:
  2940 ;;		Nothing
  2941 ;; This function is called by:
  2942 ;;		Interrupt level 2
  2943 ;; This function uses a non-reentrant model
  2944 ;;
  2945                           
  2946                           	psect	text14
  2947   0032A4                     __ptext14:
  2948                           	callstack 0
  2949   0032A4                     _tickINT:
  2950                           	callstack 121
  2951   0032A4                     
  2952                           ;C:/Users/a_hui/OneDrive - Camosun College/term2/ecet165_embedded_mc/labs/lab8/timer0.c:
      +                           29:     PIR3bits.TMR0IF = 0;
  2953   0032A4  9EB1               	bcf	177,7,c	;volatile
  2954   0032A6                     
  2955                           ;C:/Users/a_hui/OneDrive - Camosun College/term2/ecet165_embedded_mc/labs/lab8/timer0.c:
      +                           30:     tick_count++;
  2956   0032A6  2A4C               	incf	_tick_count^(0+1280),f,c	;volatile
  2957   0032A8  0011               	retfie		f
  2958   0032AA                     __end_of_tickINT:
  2959                           	callstack 0
  2960                           
  2961 ;; *************** function _defaultINT *****************
  2962 ;; Defined at:
  2963 ;;		line 34 in file "C:/Users/a_hui/OneDrive - Camosun College/term2/ecet165_embedded_mc/labs/lab8/timer0.c"
  2964 ;; Parameters:    Size  Location     Type
  2965 ;;		None
  2966 ;; Auto vars:     Size  Location     Type
  2967 ;;		None
  2968 ;; Return value:  Size  Location     Type
  2969 ;;                  1    wreg      void 
  2970 ;; Registers used:
  2971 ;;		None
  2972 ;; Tracked objects:
  2973 ;;		On entry : 0/0
  2974 ;;		On exit  : 0/0
  2975 ;;		Unchanged: 0/0
  2976 ;; Data sizes:     COMRAM   BANK5   BANK6   BANK7   BANK8   BANK9  BANK10  BANK11  BANK12  BANK13  BANK14  BANK15  BANK1
      +6  BANK17  BANK18  BANK19  BANK20  BANK21  BANK22  BANK23  BANK24  BANK25  BANK26  BANK27  BANK28  BANK29  BANK30  BANK3
      +1  BANK32  BANK33  BANK34  BANK35  BANK36
  2977 ;;      Params:         0       0       0       0       0       0       0       0       0       0       0       0       
      +0       0       0       0       0       0       0       0       0       0       0       0       0       0       0       
      +0       0       0       0       0       0
  2978 ;;      Locals:         0       0       0       0       0       0       0       0       0       0       0       0       
      +0       0       0       0       0       0       0       0       0       0       0       0       0       0       0       
      +0       0       0       0       0       0
  2979 ;;      Temps:          0       0       0       0       0       0       0       0       0       0       0       0       
      +0       0       0       0       0       0       0       0       0       0       0       0       0       0       0       
      +0       0       0       0       0       0
  2980 ;;      Totals:         0       0       0       0       0       0       0       0       0       0       0       0       
      +0       0       0       0       0       0       0       0       0       0       0       0       0       0       0       
      +0       0       0       0       0       0
  2981 ;;Total ram usage:        0 bytes
  2982 ;; Hardware stack levels used: 1
  2983 ;; This function calls:
  2984 ;;		Nothing
  2985 ;; This function is called by:
  2986 ;;		Interrupt level 2
  2987 ;; This function uses a non-reentrant model
  2988 ;;
  2989                           
  2990                           	psect	text15
  2991   0032AC                     __ptext15:
  2992                           	callstack 0
  2993   0032AC                     _defaultINT:
  2994                           	callstack 121
  2995   0032AC  0011               	retfie		f
  2996   0032AE                     __end_of_defaultINT:
  2997                           	callstack 0
  2998                           
  2999                           ;
  3000                           ; Interrupt Vector Table @ 0x8
  3001                           ;
  3002                           
  3003                           	psect	ivt0x8
  3004   000008                     __pivt0x8:
  3005                           	callstack 0
  3006   000008                     ivt0x8_base:
  3007                           	callstack 0
  3008                           
  3009                           ; Vector 0 : SWINT
  3010   000008  0CAB               	dw	_defaultINT shr (0+2)
  3011                           
  3012                           ; Vector 1 : HLVD
  3013   00000A  0CAB               	dw	_defaultINT shr (0+2)
  3014                           
  3015                           ; Vector 2 : OSF
  3016   00000C  0CAB               	dw	_defaultINT shr (0+2)
  3017                           
  3018                           ; Vector 3 : CSW
  3019   00000E  0CAB               	dw	_defaultINT shr (0+2)
  3020                           
  3021                           ; Vector 4 : Undefined
  3022   000010  0040               	dw	ivt0x8_undefint shr (0+2)
  3023                           
  3024                           ; Vector 5 : CLC1
  3025   000012  0CAB               	dw	_defaultINT shr (0+2)
  3026                           
  3027                           ; Vector 6 : Undefined
  3028   000014  0040               	dw	ivt0x8_undefint shr (0+2)
  3029                           
  3030                           ; Vector 7 : IOC
  3031   000016  0C98               	dw	_setINT shr (0+2)
  3032                           
  3033                           ; Vector 8 : INT0
  3034   000018  0CAB               	dw	_defaultINT shr (0+2)
  3035                           
  3036                           ; Vector 9 : ZCD
  3037   00001A  0CAB               	dw	_defaultINT shr (0+2)
  3038                           
  3039                           ; Vector 10 : AD
  3040   00001C  0CAB               	dw	_defaultINT shr (0+2)
  3041                           
  3042                           ; Vector 11 : ACT
  3043   00001E  0CAB               	dw	_defaultINT shr (0+2)
  3044                           
  3045                           ; Vector 12 : CMP1
  3046   000020  0CAB               	dw	_defaultINT shr (0+2)
  3047                           
  3048                           ; Vector 13 : SMT1
  3049   000022  0CAB               	dw	_defaultINT shr (0+2)
  3050                           
  3051                           ; Vector 14 : SMT1PRA
  3052   000024  0CAB               	dw	_defaultINT shr (0+2)
  3053                           
  3054                           ; Vector 15 : SMT1PRW
  3055   000026  0CAB               	dw	_defaultINT shr (0+2)
  3056                           
  3057                           ; Vector 16 : ADT
  3058   000028  0CAB               	dw	_defaultINT shr (0+2)
  3059                           
  3060                           ; Vector 17 : Undefined
  3061   00002A  0040               	dw	ivt0x8_undefint shr (0+2)
  3062                           
  3063                           ; Vector 18 : Undefined
  3064   00002C  0040               	dw	ivt0x8_undefint shr (0+2)
  3065                           
  3066                           ; Vector 19 : Undefined
  3067   00002E  0040               	dw	ivt0x8_undefint shr (0+2)
  3068                           
  3069                           ; Vector 20 : DMA1SCNT
  3070   000030  0CAB               	dw	_defaultINT shr (0+2)
  3071                           
  3072                           ; Vector 21 : DMA1DCNT
  3073   000032  0CAB               	dw	_defaultINT shr (0+2)
  3074                           
  3075                           ; Vector 22 : DMA1OR
  3076   000034  0CAB               	dw	_defaultINT shr (0+2)
  3077                           
  3078                           ; Vector 23 : DMA1A
  3079   000036  0CAB               	dw	_defaultINT shr (0+2)
  3080                           
  3081                           ; Vector 24 : SPI1RX
  3082   000038  0CAB               	dw	_defaultINT shr (0+2)
  3083                           
  3084                           ; Vector 25 : SPI1TX
  3085   00003A  0CAB               	dw	_defaultINT shr (0+2)
  3086                           
  3087                           ; Vector 26 : SPI1
  3088   00003C  0CAB               	dw	_defaultINT shr (0+2)
  3089                           
  3090                           ; Vector 27 : TMR2
  3091   00003E  0CAB               	dw	_defaultINT shr (0+2)
  3092                           
  3093                           ; Vector 28 : TMR1
  3094   000040  0CAB               	dw	_defaultINT shr (0+2)
  3095                           
  3096                           ; Vector 29 : TMR1G
  3097   000042  0CAB               	dw	_defaultINT shr (0+2)
  3098                           
  3099                           ; Vector 30 : CCP1
  3100   000044  0CAB               	dw	_defaultINT shr (0+2)
  3101                           
  3102                           ; Vector 31 : TMR0
  3103   000046  0CA9               	dw	_tickINT shr (0+2)
  3104                           
  3105                           ; Vector 32 : U1RX
  3106   000048  0CAB               	dw	_defaultINT shr (0+2)
  3107                           
  3108                           ; Vector 33 : U1TX
  3109   00004A  0CAB               	dw	_defaultINT shr (0+2)
  3110                           
  3111                           ; Vector 34 : U1E
  3112   00004C  0CAB               	dw	_defaultINT shr (0+2)
  3113                           
  3114                           ; Vector 35 : U1
  3115   00004E  0CAB               	dw	_defaultINT shr (0+2)
  3116                           
  3117                           ; Vector 36 : Undefined
  3118   000050  0040               	dw	ivt0x8_undefint shr (0+2)
  3119                           
  3120                           ; Vector 37 : Undefined
  3121   000052  0040               	dw	ivt0x8_undefint shr (0+2)
  3122                           
  3123                           ; Vector 38 : PWM1PR
  3124   000054  0CAB               	dw	_defaultINT shr (0+2)
  3125                           
  3126                           ; Vector 39 : PWM1
  3127   000056  0CAB               	dw	_defaultINT shr (0+2)
  3128                           
  3129                           ; Vector 40 : SPI2RX
  3130   000058  0CAB               	dw	_defaultINT shr (0+2)
  3131                           
  3132                           ; Vector 41 : SPI2TX
  3133   00005A  0CAB               	dw	_defaultINT shr (0+2)
  3134                           
  3135                           ; Vector 42 : SPI2
  3136   00005C  0CAB               	dw	_defaultINT shr (0+2)
  3137                           
  3138                           ; Vector 43 : Undefined
  3139   00005E  0040               	dw	ivt0x8_undefint shr (0+2)
  3140                           
  3141                           ; Vector 44 : TMR3
  3142   000060  0CAB               	dw	_defaultINT shr (0+2)
  3143                           
  3144                           ; Vector 45 : TMR3G
  3145   000062  0CAB               	dw	_defaultINT shr (0+2)
  3146                           
  3147                           ; Vector 46 : PWM2PR
  3148   000064  0CAB               	dw	_defaultINT shr (0+2)
  3149                           
  3150                           ; Vector 47 : PWM2
  3151   000066  0CAB               	dw	_defaultINT shr (0+2)
  3152                           
  3153                           ; Vector 48 : INT1
  3154   000068  0CAB               	dw	_defaultINT shr (0+2)
  3155                           
  3156                           ; Vector 49 : CLC2
  3157   00006A  0CAB               	dw	_defaultINT shr (0+2)
  3158                           
  3159                           ; Vector 50 : CWG1
  3160   00006C  0CAB               	dw	_defaultINT shr (0+2)
  3161                           
  3162                           ; Vector 51 : NCO1
  3163   00006E  0CAB               	dw	_defaultINT shr (0+2)
  3164                           
  3165                           ; Vector 52 : DMA2SCNT
  3166   000070  0CAB               	dw	_defaultINT shr (0+2)
  3167                           
  3168                           ; Vector 53 : DMA2DCNT
  3169   000072  0CAB               	dw	_defaultINT shr (0+2)
  3170                           
  3171                           ; Vector 54 : DMA2OR
  3172   000074  0CAB               	dw	_defaultINT shr (0+2)
  3173                           
  3174                           ; Vector 55 : DMA2A
  3175   000076  0CAB               	dw	_defaultINT shr (0+2)
  3176                           
  3177                           ; Vector 56 : I2C1RX
  3178   000078  0CAB               	dw	_defaultINT shr (0+2)
  3179                           
  3180                           ; Vector 57 : I2C1TX
  3181   00007A  0CAB               	dw	_defaultINT shr (0+2)
  3182                           
  3183                           ; Vector 58 : I2C1
  3184   00007C  0CAB               	dw	_defaultINT shr (0+2)
  3185                           
  3186                           ; Vector 59 : I2C1E
  3187   00007E  0CAB               	dw	_defaultINT shr (0+2)
  3188                           
  3189                           ; Vector 60 : Undefined
  3190   000080  0040               	dw	ivt0x8_undefint shr (0+2)
  3191                           
  3192                           ; Vector 61 : CLC3
  3193   000082  0CAB               	dw	_defaultINT shr (0+2)
  3194                           
  3195                           ; Vector 62 : PWM3PR
  3196   000084  0CAB               	dw	_defaultINT shr (0+2)
  3197                           
  3198                           ; Vector 63 : PWM3
  3199   000086  0CAB               	dw	_defaultINT shr (0+2)
  3200                           
  3201                           ; Vector 64 : U2RX
  3202   000088  0CAB               	dw	_defaultINT shr (0+2)
  3203                           
  3204                           ; Vector 65 : U2TX
  3205   00008A  0CAB               	dw	_defaultINT shr (0+2)
  3206                           
  3207                           ; Vector 66 : U2E
  3208   00008C  0CAB               	dw	_defaultINT shr (0+2)
  3209                           
  3210                           ; Vector 67 : U2
  3211   00008E  0CAB               	dw	_defaultINT shr (0+2)
  3212                           
  3213                           ; Vector 68 : TMR5
  3214   000090  0CAB               	dw	_defaultINT shr (0+2)
  3215                           
  3216                           ; Vector 69 : TMR5G
  3217   000092  0CAB               	dw	_defaultINT shr (0+2)
  3218                           
  3219                           ; Vector 70 : CCP2
  3220   000094  0CAB               	dw	_defaultINT shr (0+2)
  3221                           
  3222                           ; Vector 71 : SCAN
  3223   000096  0CAB               	dw	_defaultINT shr (0+2)
  3224                           
  3225                           ; Vector 72 : U3RX
  3226   000098  0CAB               	dw	_defaultINT shr (0+2)
  3227                           
  3228                           ; Vector 73 : U3TX
  3229   00009A  0CAB               	dw	_defaultINT shr (0+2)
  3230                           
  3231                           ; Vector 74 : U3E
  3232   00009C  0CAB               	dw	_defaultINT shr (0+2)
  3233                           
  3234                           ; Vector 75 : U3
  3235   00009E  0CAB               	dw	_defaultINT shr (0+2)
  3236                           
  3237                           ; Vector 76 : Undefined
  3238   0000A0  0040               	dw	ivt0x8_undefint shr (0+2)
  3239                           
  3240                           ; Vector 77 : CLC4
  3241   0000A2  0CAB               	dw	_defaultINT shr (0+2)
  3242                           
  3243                           ; Vector 78 : Undefined
  3244   0000A4  0040               	dw	ivt0x8_undefint shr (0+2)
  3245                           
  3246                           ; Vector 79 : Undefined
  3247   0000A6  0040               	dw	ivt0x8_undefint shr (0+2)
  3248                           
  3249                           ; Vector 80 : INT2
  3250   0000A8  0CAB               	dw	_defaultINT shr (0+2)
  3251                           
  3252                           ; Vector 81 : CLC5
  3253   0000AA  0CAB               	dw	_defaultINT shr (0+2)
  3254                           
  3255                           ; Vector 82 : CWG2
  3256   0000AC  0CAB               	dw	_defaultINT shr (0+2)
  3257                           
  3258                           ; Vector 83 : NCO2
  3259   0000AE  0CAB               	dw	_defaultINT shr (0+2)
  3260                           
  3261                           ; Vector 84 : DMA3SCNT
  3262   0000B0  0CAB               	dw	_defaultINT shr (0+2)
  3263                           
  3264                           ; Vector 85 : DMA3DCNT
  3265   0000B2  0CAB               	dw	_defaultINT shr (0+2)
  3266                           
  3267                           ; Vector 86 : DMA3OR
  3268   0000B4  0CAB               	dw	_defaultINT shr (0+2)
  3269                           
  3270                           ; Vector 87 : DMA3A
  3271   0000B6  0CAB               	dw	_defaultINT shr (0+2)
  3272                           
  3273                           ; Vector 88 : CCP3
  3274   0000B8  0CAB               	dw	_defaultINT shr (0+2)
  3275                           
  3276                           ; Vector 89 : CLC6
  3277   0000BA  0CAB               	dw	_defaultINT shr (0+2)
  3278                           
  3279                           ; Vector 90 : CWG3
  3280   0000BC  0CAB               	dw	_defaultINT shr (0+2)
  3281                           
  3282                           ; Vector 91 : TMR4
  3283   0000BE  0CAB               	dw	_defaultINT shr (0+2)
  3284                           
  3285                           ; Vector 92 : DMA4SCNT
  3286   0000C0  0CAB               	dw	_defaultINT shr (0+2)
  3287                           
  3288                           ; Vector 93 : DMA4DCNT
  3289   0000C2  0CAB               	dw	_defaultINT shr (0+2)
  3290                           
  3291                           ; Vector 94 : DMA4OR
  3292   0000C4  0CAB               	dw	_defaultINT shr (0+2)
  3293                           
  3294                           ; Vector 95 : DMA4A
  3295   0000C6  0CAB               	dw	_defaultINT shr (0+2)
  3296                           
  3297                           ; Vector 96 : U4RX
  3298   0000C8  0CAB               	dw	_defaultINT shr (0+2)
  3299                           
  3300                           ; Vector 97 : U4TX
  3301   0000CA  0CAB               	dw	_defaultINT shr (0+2)
  3302                           
  3303                           ; Vector 98 : U4E
  3304   0000CC  0CAB               	dw	_defaultINT shr (0+2)
  3305                           
  3306                           ; Vector 99 : U4
  3307   0000CE  0CAB               	dw	_defaultINT shr (0+2)
  3308                           
  3309                           ; Vector 100 : DMA5SCNT
  3310   0000D0  0CAB               	dw	_defaultINT shr (0+2)
  3311                           
  3312                           ; Vector 101 : DMA5DCNT
  3313   0000D2  0CAB               	dw	_defaultINT shr (0+2)
  3314                           
  3315                           ; Vector 102 : DMA5OR
  3316   0000D4  0CAB               	dw	_defaultINT shr (0+2)
  3317                           
  3318                           ; Vector 103 : DMA5A
  3319   0000D6  0CAB               	dw	_defaultINT shr (0+2)
  3320                           
  3321                           ; Vector 104 : U5RX
  3322   0000D8  0CAB               	dw	_defaultINT shr (0+2)
  3323                           
  3324                           ; Vector 105 : U5TX
  3325   0000DA  0CAB               	dw	_defaultINT shr (0+2)
  3326                           
  3327                           ; Vector 106 : U5E
  3328   0000DC  0CAB               	dw	_defaultINT shr (0+2)
  3329                           
  3330                           ; Vector 107 : U5
  3331   0000DE  0CAB               	dw	_defaultINT shr (0+2)
  3332                           
  3333                           ; Vector 108 : DMA6SCNT
  3334   0000E0  0CAB               	dw	_defaultINT shr (0+2)
  3335                           
  3336                           ; Vector 109 : DMA6DCNT
  3337   0000E2  0CAB               	dw	_defaultINT shr (0+2)
  3338                           
  3339                           ; Vector 110 : DMA6OR
  3340   0000E4  0CAB               	dw	_defaultINT shr (0+2)
  3341                           
  3342                           ; Vector 111 : DMA6A
  3343   0000E6  0CAB               	dw	_defaultINT shr (0+2)
  3344                           
  3345                           ; Vector 112 : Undefined
  3346   0000E8  0040               	dw	ivt0x8_undefint shr (0+2)
  3347                           
  3348                           ; Vector 113 : CLC7
  3349   0000EA  0CAB               	dw	_defaultINT shr (0+2)
  3350                           
  3351                           ; Vector 114 : CMP2
  3352   0000EC  0CAB               	dw	_defaultINT shr (0+2)
  3353                           
  3354                           ; Vector 115 : NCO3
  3355   0000EE  0CAB               	dw	_defaultINT shr (0+2)
  3356                           
  3357                           ; Vector 116 : Undefined
  3358   0000F0  0040               	dw	ivt0x8_undefint shr (0+2)
  3359                           
  3360                           ; Vector 117 : Undefined
  3361   0000F2  0040               	dw	ivt0x8_undefint shr (0+2)
  3362                           
  3363                           ; Vector 118 : Undefined
  3364   0000F4  0040               	dw	ivt0x8_undefint shr (0+2)
  3365                           
  3366                           ; Vector 119 : Undefined
  3367   0000F6  0040               	dw	ivt0x8_undefint shr (0+2)
  3368                           
  3369                           ; Vector 120 : NVM
  3370   0000F8  0CAB               	dw	_defaultINT shr (0+2)
  3371                           
  3372                           ; Vector 121 : CLC8
  3373   0000FA  0CAB               	dw	_defaultINT shr (0+2)
  3374                           
  3375                           ; Vector 122 : CRC
  3376   0000FC  0CAB               	dw	_defaultINT shr (0+2)
  3377                           
  3378                           ; Vector 123 : TMR6
  3379   0000FE  0CAB               	dw	_defaultINT shr (0+2)
  3380   000100                     ivt0x8_undefint:
  3381                           	callstack 0
  3382   000100  00FF               	reset	
  3383                           
  3384                           	psect	rparam
  3385   000000                     
  3386                           	psect	idloc
  3387                           
  3388                           ;Config register IDLOC0 @ 0x200000
  3389                           ;	unspecified, using default values
  3390   200000                     	org	2097152
  3391   200000  0FFF               	dw	4095
  3392                           
  3393                           ;Config register IDLOC1 @ 0x200002
  3394                           ;	unspecified, using default values
  3395   200002                     	org	2097154
  3396   200002  0FFF               	dw	4095
  3397                           
  3398                           ;Config register IDLOC2 @ 0x200004
  3399                           ;	unspecified, using default values
  3400   200004                     	org	2097156
  3401   200004  0FFF               	dw	4095
  3402                           
  3403                           ;Config register IDLOC3 @ 0x200006
  3404                           ;	unspecified, using default values
  3405   200006                     	org	2097158
  3406   200006  0FFF               	dw	4095
  3407                           
  3408                           ;Config register IDLOC4 @ 0x200008
  3409                           ;	unspecified, using default values
  3410   200008                     	org	2097160
  3411   200008  0FFF               	dw	4095
  3412                           
  3413                           ;Config register IDLOC5 @ 0x20000A
  3414                           ;	unspecified, using default values
  3415   20000A                     	org	2097162
  3416   20000A  0FFF               	dw	4095
  3417                           
  3418                           ;Config register IDLOC6 @ 0x20000C
  3419                           ;	unspecified, using default values
  3420   20000C                     	org	2097164
  3421   20000C  0FFF               	dw	4095
  3422                           
  3423                           ;Config register IDLOC7 @ 0x20000E
  3424                           ;	unspecified, using default values
  3425   20000E                     	org	2097166
  3426   20000E  0FFF               	dw	4095
  3427                           
  3428                           ;Config register IDLOC8 @ 0x200010
  3429                           ;	unspecified, using default values
  3430   200010                     	org	2097168
  3431   200010  0FFF               	dw	4095
  3432                           
  3433                           ;Config register IDLOC9 @ 0x200012
  3434                           ;	unspecified, using default values
  3435   200012                     	org	2097170
  3436   200012  0FFF               	dw	4095
  3437                           
  3438                           ;Config register IDLOC10 @ 0x200014
  3439                           ;	unspecified, using default values
  3440   200014                     	org	2097172
  3441   200014  0FFF               	dw	4095
  3442                           
  3443                           ;Config register IDLOC11 @ 0x200016
  3444                           ;	unspecified, using default values
  3445   200016                     	org	2097174
  3446   200016  0FFF               	dw	4095
  3447                           
  3448                           ;Config register IDLOC12 @ 0x200018
  3449                           ;	unspecified, using default values
  3450   200018                     	org	2097176
  3451   200018  0FFF               	dw	4095
  3452                           
  3453                           ;Config register IDLOC13 @ 0x20001A
  3454                           ;	unspecified, using default values
  3455   20001A                     	org	2097178
  3456   20001A  0FFF               	dw	4095
  3457                           
  3458                           ;Config register IDLOC14 @ 0x20001C
  3459                           ;	unspecified, using default values
  3460   20001C                     	org	2097180
  3461   20001C  0FFF               	dw	4095
  3462                           
  3463                           ;Config register IDLOC15 @ 0x20001E
  3464                           ;	unspecified, using default values
  3465   20001E                     	org	2097182
  3466   20001E  0FFF               	dw	4095
  3467                           
  3468                           ;Config register IDLOC16 @ 0x200020
  3469                           ;	unspecified, using default values
  3470   200020                     	org	2097184
  3471   200020  0FFF               	dw	4095
  3472                           
  3473                           ;Config register IDLOC17 @ 0x200022
  3474                           ;	unspecified, using default values
  3475   200022                     	org	2097186
  3476   200022  0FFF               	dw	4095
  3477                           
  3478                           ;Config register IDLOC18 @ 0x200024
  3479                           ;	unspecified, using default values
  3480   200024                     	org	2097188
  3481   200024  0FFF               	dw	4095
  3482                           
  3483                           ;Config register IDLOC19 @ 0x200026
  3484                           ;	unspecified, using default values
  3485   200026                     	org	2097190
  3486   200026  0FFF               	dw	4095
  3487                           
  3488                           ;Config register IDLOC20 @ 0x200028
  3489                           ;	unspecified, using default values
  3490   200028                     	org	2097192
  3491   200028  0FFF               	dw	4095
  3492                           
  3493                           ;Config register IDLOC21 @ 0x20002A
  3494                           ;	unspecified, using default values
  3495   20002A                     	org	2097194
  3496   20002A  0FFF               	dw	4095
  3497                           
  3498                           ;Config register IDLOC22 @ 0x20002C
  3499                           ;	unspecified, using default values
  3500   20002C                     	org	2097196
  3501   20002C  0FFF               	dw	4095
  3502                           
  3503                           ;Config register IDLOC23 @ 0x20002E
  3504                           ;	unspecified, using default values
  3505   20002E                     	org	2097198
  3506   20002E  0FFF               	dw	4095
  3507                           
  3508                           ;Config register IDLOC24 @ 0x200030
  3509                           ;	unspecified, using default values
  3510   200030                     	org	2097200
  3511   200030  0FFF               	dw	4095
  3512                           
  3513                           ;Config register IDLOC25 @ 0x200032
  3514                           ;	unspecified, using default values
  3515   200032                     	org	2097202
  3516   200032  0FFF               	dw	4095
  3517                           
  3518                           ;Config register IDLOC26 @ 0x200034
  3519                           ;	unspecified, using default values
  3520   200034                     	org	2097204
  3521   200034  0FFF               	dw	4095
  3522                           
  3523                           ;Config register IDLOC27 @ 0x200036
  3524                           ;	unspecified, using default values
  3525   200036                     	org	2097206
  3526   200036  0FFF               	dw	4095
  3527                           
  3528                           ;Config register IDLOC28 @ 0x200038
  3529                           ;	unspecified, using default values
  3530   200038                     	org	2097208
  3531   200038  0FFF               	dw	4095
  3532                           
  3533                           ;Config register IDLOC29 @ 0x20003A
  3534                           ;	unspecified, using default values
  3535   20003A                     	org	2097210
  3536   20003A  0FFF               	dw	4095
  3537                           
  3538                           ;Config register IDLOC30 @ 0x20003C
  3539                           ;	unspecified, using default values
  3540   20003C                     	org	2097212
  3541   20003C  0FFF               	dw	4095
  3542                           
  3543                           ;Config register IDLOC31 @ 0x20003E
  3544                           ;	unspecified, using default values
  3545   20003E                     	org	2097214
  3546   20003E  0FFF               	dw	4095
  3547                           
  3548                           	psect	config
  3549                           
  3550                           ;Config register CONFIG1 @ 0x300000
  3551                           ;	External Oscillator Selection
  3552                           ;	FEXTOSC = OFF, Oscillator not enabled
  3553                           ;	Reset Oscillator Selection
  3554                           ;	RSTOSC = HFINTOSC_64MHZ, HFINTOSC with HFFRQ = 64 MHz and CDIV = 1:1
  3555   300000                     	org	3145728
  3556   300000  8C                 	db	140
  3557                           
  3558                           ;Config register CONFIG2 @ 0x300001
  3559                           ;	Clock out Enable bit
  3560                           ;	CLKOUTEN = OFF, CLKOUT function is disabled
  3561                           ;	PRLOCKED One-Way Set Enable bit
  3562                           ;	PR1WAY = ON, PRLOCKED bit can be cleared and set only once
  3563                           ;	Clock Switch Enable bit
  3564                           ;	CSWEN = ON, Writing to NOSC and NDIV is allowed
  3565                           ;	Fail-Safe Clock Monitor Enable bit
  3566                           ;	FCMEN = ON, Fail-Safe Clock Monitor enabled
  3567   300001                     	org	3145729
  3568   300001  FF                 	db	255
  3569                           
  3570                           ;Config register CONFIG3 @ 0x300002
  3571                           ;	MCLR Enable bit
  3572                           ;	MCLRE = EXTMCLR, If LVP = 0, MCLR pin is MCLR; If LVP = 1, RE3 pin function is MCLR
  3573                           ;	Power-up timer selection bits
  3574                           ;	PWRTS = PWRT_OFF, PWRT is disabled
  3575                           ;	Multi-vector enable bit
  3576                           ;	MVECEN = ON, Multi-vector enabled, Vector table used for interrupts
  3577                           ;	IVTLOCK bit One-way set enable bit
  3578                           ;	IVT1WAY = OFF, IVTLOCKED bit can be cleared and set repeatedly
  3579                           ;	Low Power BOR Enable bit
  3580                           ;	LPBOREN = OFF, Low-Power BOR disabled
  3581                           ;	Brown-out Reset Enable bits
  3582                           ;	BOREN = SBORDIS, Brown-out Reset enabled , SBOREN bit is ignored
  3583   300002                     	org	3145730
  3584   300002  EF                 	db	239
  3585                           
  3586                           ;Config register CONFIG4 @ 0x300003
  3587                           ;	Brown-out Reset Voltage Selection bits
  3588                           ;	BORV = VBOR_1P9, Brown-out Reset Voltage (VBOR) set to 1.9V
  3589                           ;	ZCD Disable bit
  3590                           ;	ZCD = OFF, ZCD module is disabled. ZCD can be enabled by setting the ZCDSEN bit of ZCD
      +                          CON
  3591                           ;	PPSLOCK bit One-Way Set Enable bit
  3592                           ;	PPS1WAY = ON, PPSLOCKED bit can be cleared and set only once; PPS registers remain loc
      +                          ked after one clear/set cycle
  3593                           ;	Stack Full/Underflow Reset Enable bit
  3594                           ;	STVREN = ON, Stack full/underflow will cause Reset
  3595                           ;	Low Voltage Programming Enable bit
  3596                           ;	LVP = ON, Low voltage programming enabled. MCLR/VPP pin function is MCLR. MCLRE config
      +                          uration bit is ignored
  3597                           ;	Extended Instruction Set Enable bit
  3598                           ;	XINST = OFF, Extended Instruction Set and Indexed Addressing Mode disabled
  3599   300003                     	org	3145731
  3600   300003  FF                 	db	255
  3601                           
  3602                           ;Config register CONFIG5 @ 0x300004
  3603                           ;	WDT Period selection bits
  3604                           ;	WDTCPS = WDTCPS_31, Divider ratio 1:65536; software control of WDTPS
  3605                           ;	WDT operating mode
  3606                           ;	WDTE = OFF, WDT Disabled; SWDTEN is ignored
  3607   300004                     	org	3145732
  3608   300004  9F                 	db	159
  3609                           
  3610                           ;Config register CONFIG6 @ 0x300005
  3611                           ;	WDT Window Select bits
  3612                           ;	WDTCWS = WDTCWS_7, window always open (100%); software control; keyed access not requi
      +                          red
  3613                           ;	WDT input clock selector
  3614                           ;	WDTCCS = SC, Software Control
  3615   300005                     	org	3145733
  3616   300005  FF                 	db	255
  3617                           
  3618                           ;Config register CONFIG7 @ 0x300006
  3619                           ;	Boot Block Size selection bits
  3620                           ;	BBSIZE = BBSIZE_512, Boot Block size is 512 words
  3621                           ;	Boot Block enable bit
  3622                           ;	BBEN = OFF, Boot block disabled
  3623                           ;	Storage Area Flash enable bit
  3624                           ;	SAFEN = OFF, SAF disabled
  3625                           ;	Background Debugger
  3626                           ;	DEBUG = OFF, Background Debugger disabled
  3627   300006                     	org	3145734
  3628   300006  FF                 	db	255
  3629                           
  3630                           ;Config register CONFIG8 @ 0x300007
  3631                           ;	Boot Block Write Protection bit
  3632                           ;	WRTB = OFF, Boot Block not Write protected
  3633                           ;	Configuration Register Write Protection bit
  3634                           ;	WRTC = OFF, Configuration registers not Write protected
  3635                           ;	Data EEPROM Write Protection bit
  3636                           ;	WRTD = OFF, Data EEPROM not Write protected
  3637                           ;	SAF Write protection bit
  3638                           ;	WRTSAF = OFF, SAF not Write Protected
  3639                           ;	Application Block write protection bit
  3640                           ;	WRTAPP = OFF, Application Block not write protected
  3641   300007                     	org	3145735
  3642   300007  FF                 	db	255
  3643                           
  3644                           ; Padding undefined space
  3645   300008                     	org	3145736
  3646   300008  FF                 	db	255
  3647                           
  3648                           ;Config register CONFIG10 @ 0x300009
  3649                           ;	PFM and Data EEPROM Code Protection bit
  3650                           ;	CP = OFF, PFM and Data EEPROM code protection disabled
  3651   300009                     	org	3145737
  3652   300009  FF                 	db	255
  3653                           tosu	equ	0x4FF
  3654                           tosh	equ	0x4FE
  3655                           tosl	equ	0x4FD
  3656                           stkptr	equ	0x4FC
  3657                           pclatu	equ	0x4FB
  3658                           pclath	equ	0x4FA
  3659                           pcl	equ	0x4F9
  3660                           tblptru	equ	0x4F8
  3661                           tblptrh	equ	0x4F7
  3662                           tblptrl	equ	0x4F6
  3663                           tablat	equ	0x4F5
  3664                           prodh	equ	0x4F4
  3665                           prodl	equ	0x4F3
  3666                           indf0	equ	0x4EF
  3667                           postinc0	equ	0x4EE
  3668                           postdec0	equ	0x4ED
  3669                           preinc0	equ	0x4EC
  3670                           plusw0	equ	0x4EB
  3671                           fsr0h	equ	0x4EA
  3672                           fsr0l	equ	0x4E9
  3673                           wreg	equ	0x4E8
  3674                           indf1	equ	0x4E7
  3675                           postinc1	equ	0x4E6
  3676                           postdec1	equ	0x4E5
  3677                           preinc1	equ	0x4E4
  3678                           plusw1	equ	0x4E3
  3679                           fsr1h	equ	0x4E2
  3680                           fsr1l	equ	0x4E1
  3681                           bsr	equ	0x4E0
  3682                           indf2	equ	0x4DF
  3683                           postinc2	equ	0x4DE
  3684                           postdec2	equ	0x4DD
  3685                           preinc2	equ	0x4DC
  3686                           plusw2	equ	0x4DB
  3687                           fsr2h	equ	0x4DA
  3688                           fsr2l	equ	0x4D9
  3689                           status	equ	0x4D8

Data Sizes:
    Strings     16
    Constant    0
    Data        29
    BSS         13
    Persistent  0
    Stack       0

Auto Spaces:
    Space          Size  Autos    Used
    COMRAM           95     63      89
    BANK5           160      0      16
    BANK6           256      0       0
    BANK7           256      0       0
    BANK8           256      0       0
    BANK9           256      0       0
    BANK10          256      0       0
    BANK11          256      0       0
    BANK12          256      0       0
    BANK13          256      0       0
    BANK14          256      0       0
    BANK15          256      0       0
    BANK16          256      0       0
    BANK17          256      0       0
    BANK18          256      0       0
    BANK19          256      0       0
    BANK20          256      0       0
    BANK21          256      0       0
    BANK22          256      0       0
    BANK23          256      0       0
    BANK24          256      0       0
    BANK25          256      0       0
    BANK26          256      0       0
    BANK27          256      0       0
    BANK28          256      0       0
    BANK29          256      0       0
    BANK30          256      0       0
    BANK31          256      0       0
    BANK32          256      0       0
    BANK33          256      0       0
    BANK34          256      0       0
    BANK35          256      0       0
    BANK36          256      0       0

Pointer List with Targets:

    LCDprintf@inputs	PTR PTR unsigned char  size(2) Largest target is 8
		 -> RTCrun@current_time(COMRAM[8]), 

    LCDprintf@shell	PTR unsigned char  size(2) Largest target is 16
		 -> STR_1(CODE[16]), 

    sp__toString	PTR unsigned char  size(2) Largest target is 4
		 -> toString@string(COMRAM[4]), 

    LCDprints@c	PTR unsigned char  size(2) Largest target is 4
		 -> toString@string(COMRAM[4]), NULL(NULL[0]), current_time.meridian(COMRAM[1]), current_time.seconds(COMRAM[1]), 
		 -> current_time.minutes(COMRAM[1]), current_time.hours(COMRAM[1]), main@current_time(COMRAM[4]), 

    RTCrun@start_time	PTR struct realtime size(2) Largest target is 4
		 -> main@current_time(COMRAM[4]), 

    RTCrun@current_time	PTR unsigned char [4] size(2) Largest target is 4
		 -> NULL(NULL[0]), current_time.meridian(COMRAM[1]), current_time.seconds(COMRAM[1]), current_time.minutes(COMRAM[1]), 
		 -> current_time.hours(COMRAM[1]), main@current_time(COMRAM[4]), 

    RTCrun@F16725	PTR unsigned char [4] size(2) Largest target is 0
		 -> NULL(NULL[0]), 


Critical Paths under _main in COMRAM

    _main->_RTCrun
    _RTCrun->_LCDprintf
    _LCDprintf->_LCDprints
    _toString->___awdiv
    _LCDprints->_toString
    _LCDinit->_LCDinstruct
    _LCDgoto->_LCDinstruct

Critical Paths under _setINT in COMRAM

    None.

Critical Paths under _tickINT in COMRAM

    None.

Critical Paths under _defaultINT in COMRAM

    None.

Critical Paths under _main in BANK5

    None.

Critical Paths under _setINT in BANK5

    None.

Critical Paths under _tickINT in BANK5

    None.

Critical Paths under _defaultINT in BANK5

    None.

Critical Paths under _main in BANK6

    None.

Critical Paths under _setINT in BANK6

    None.

Critical Paths under _tickINT in BANK6

    None.

Critical Paths under _defaultINT in BANK6

    None.

Critical Paths under _main in BANK7

    None.

Critical Paths under _setINT in BANK7

    None.

Critical Paths under _tickINT in BANK7

    None.

Critical Paths under _defaultINT in BANK7

    None.

Critical Paths under _main in BANK8

    None.

Critical Paths under _setINT in BANK8

    None.

Critical Paths under _tickINT in BANK8

    None.

Critical Paths under _defaultINT in BANK8

    None.

Critical Paths under _main in BANK9

    None.

Critical Paths under _setINT in BANK9

    None.

Critical Paths under _tickINT in BANK9

    None.

Critical Paths under _defaultINT in BANK9

    None.

Critical Paths under _main in BANK10

    None.

Critical Paths under _setINT in BANK10

    None.

Critical Paths under _tickINT in BANK10

    None.

Critical Paths under _defaultINT in BANK10

    None.

Critical Paths under _main in BANK11

    None.

Critical Paths under _setINT in BANK11

    None.

Critical Paths under _tickINT in BANK11

    None.

Critical Paths under _defaultINT in BANK11

    None.

Critical Paths under _main in BANK12

    None.

Critical Paths under _setINT in BANK12

    None.

Critical Paths under _tickINT in BANK12

    None.

Critical Paths under _defaultINT in BANK12

    None.

Critical Paths under _main in BANK13

    None.

Critical Paths under _setINT in BANK13

    None.

Critical Paths under _tickINT in BANK13

    None.

Critical Paths under _defaultINT in BANK13

    None.

Critical Paths under _main in BANK14

    None.

Critical Paths under _setINT in BANK14

    None.

Critical Paths under _tickINT in BANK14

    None.

Critical Paths under _defaultINT in BANK14

    None.

Critical Paths under _main in BANK15

    None.

Critical Paths under _setINT in BANK15

    None.

Critical Paths under _tickINT in BANK15

    None.

Critical Paths under _defaultINT in BANK15

    None.

Critical Paths under _main in BANK16

    None.

Critical Paths under _setINT in BANK16

    None.

Critical Paths under _tickINT in BANK16

    None.

Critical Paths under _defaultINT in BANK16

    None.

Critical Paths under _main in BANK17

    None.

Critical Paths under _setINT in BANK17

    None.

Critical Paths under _tickINT in BANK17

    None.

Critical Paths under _defaultINT in BANK17

    None.

Critical Paths under _main in BANK18

    None.

Critical Paths under _setINT in BANK18

    None.

Critical Paths under _tickINT in BANK18

    None.

Critical Paths under _defaultINT in BANK18

    None.

Critical Paths under _main in BANK19

    None.

Critical Paths under _setINT in BANK19

    None.

Critical Paths under _tickINT in BANK19

    None.

Critical Paths under _defaultINT in BANK19

    None.

Critical Paths under _main in BANK20

    None.

Critical Paths under _setINT in BANK20

    None.

Critical Paths under _tickINT in BANK20

    None.

Critical Paths under _defaultINT in BANK20

    None.

Critical Paths under _main in BANK21

    None.

Critical Paths under _setINT in BANK21

    None.

Critical Paths under _tickINT in BANK21

    None.

Critical Paths under _defaultINT in BANK21

    None.

Critical Paths under _main in BANK22

    None.

Critical Paths under _setINT in BANK22

    None.

Critical Paths under _tickINT in BANK22

    None.

Critical Paths under _defaultINT in BANK22

    None.

Critical Paths under _main in BANK23

    None.

Critical Paths under _setINT in BANK23

    None.

Critical Paths under _tickINT in BANK23

    None.

Critical Paths under _defaultINT in BANK23

    None.

Critical Paths under _main in BANK24

    None.

Critical Paths under _setINT in BANK24

    None.

Critical Paths under _tickINT in BANK24

    None.

Critical Paths under _defaultINT in BANK24

    None.

Critical Paths under _main in BANK25

    None.

Critical Paths under _setINT in BANK25

    None.

Critical Paths under _tickINT in BANK25

    None.

Critical Paths under _defaultINT in BANK25

    None.

Critical Paths under _main in BANK26

    None.

Critical Paths under _setINT in BANK26

    None.

Critical Paths under _tickINT in BANK26

    None.

Critical Paths under _defaultINT in BANK26

    None.

Critical Paths under _main in BANK27

    None.

Critical Paths under _setINT in BANK27

    None.

Critical Paths under _tickINT in BANK27

    None.

Critical Paths under _defaultINT in BANK27

    None.

Critical Paths under _main in BANK28

    None.

Critical Paths under _setINT in BANK28

    None.

Critical Paths under _tickINT in BANK28

    None.

Critical Paths under _defaultINT in BANK28

    None.

Critical Paths under _main in BANK29

    None.

Critical Paths under _setINT in BANK29

    None.

Critical Paths under _tickINT in BANK29

    None.

Critical Paths under _defaultINT in BANK29

    None.

Critical Paths under _main in BANK30

    None.

Critical Paths under _setINT in BANK30

    None.

Critical Paths under _tickINT in BANK30

    None.

Critical Paths under _defaultINT in BANK30

    None.

Critical Paths under _main in BANK31

    None.

Critical Paths under _setINT in BANK31

    None.

Critical Paths under _tickINT in BANK31

    None.

Critical Paths under _defaultINT in BANK31

    None.

Critical Paths under _main in BANK32

    None.

Critical Paths under _setINT in BANK32

    None.

Critical Paths under _tickINT in BANK32

    None.

Critical Paths under _defaultINT in BANK32

    None.

Critical Paths under _main in BANK33

    None.

Critical Paths under _setINT in BANK33

    None.

Critical Paths under _tickINT in BANK33

    None.

Critical Paths under _defaultINT in BANK33

    None.

Critical Paths under _main in BANK34

    None.

Critical Paths under _setINT in BANK34

    None.

Critical Paths under _tickINT in BANK34

    None.

Critical Paths under _defaultINT in BANK34

    None.

Critical Paths under _main in BANK35

    None.

Critical Paths under _setINT in BANK35

    None.

Critical Paths under _tickINT in BANK35

    None.

Critical Paths under _defaultINT in BANK35

    None.

Critical Paths under _main in BANK36

    None.

Critical Paths under _setINT in BANK36

    None.

Critical Paths under _tickINT in BANK36

    None.

Critical Paths under _defaultINT in BANK36

    None.

Call Graph Tables:

 ---------------------------------------------------------------------------------
 (Depth) Function   	        Calls       Base Space   Used Autos Params    Refs
 ---------------------------------------------------------------------------------
 (0) _main                                                22    22      0    8078
                                             41 COMRAM    22    22      0
                            _LCDgoto
                            _LCDinit
                        _LCDinstruct
                          _LCDprintc
                             _RTCrun
                            ___awmod
                            _keyScan
 ---------------------------------------------------------------------------------
 (1) _keyScan                                             22    22      0     187
                                              1 COMRAM    22    22      0
 ---------------------------------------------------------------------------------
 (1) _RTCrun                                              13    11      2    4310
                                             28 COMRAM    13    11      2
                        _LCDinstruct
                          _LCDprintf
                          _timerInit
 ---------------------------------------------------------------------------------
 (2) _timerInit                                            0     0      0       0
 ---------------------------------------------------------------------------------
 (2) _LCDprintf                                            8     4      4    3715
                                             20 COMRAM     8     4      4
                          _LCDprintc
                          _LCDprints
                           _toString
 ---------------------------------------------------------------------------------
 (3) _toString                                             9     7      2    3007
                                              9 COMRAM     9     7      2
                            ___awdiv
                            ___awmod
 ---------------------------------------------------------------------------------
 (1) ___awmod                                              6     2      4    2272
                                              1 COMRAM     6     2      4
 ---------------------------------------------------------------------------------
 (4) ___awdiv                                              8     4      4     452
                                              1 COMRAM     8     4      4
 ---------------------------------------------------------------------------------
 (3) _LCDprints                                            2     0      2     241
                                             18 COMRAM     2     0      2
                          _LCDprintc
                           _toString (ARG)
 ---------------------------------------------------------------------------------
 (4) _LCDprintc                                            2     2      0      44
                                              1 COMRAM     2     2      0
 ---------------------------------------------------------------------------------
 (1) _LCDinit                                              2     2      0      44
                                              3 COMRAM     2     2      0
                        _LCDinstruct
 ---------------------------------------------------------------------------------
 (1) _LCDgoto                                              1     1      0      66
                                              3 COMRAM     1     1      0
                        _LCDinstruct
 ---------------------------------------------------------------------------------
 (2) _LCDinstruct                                          2     2      0      44
                                              1 COMRAM     2     2      0
 ---------------------------------------------------------------------------------
 Estimated maximum stack depth 4
 ---------------------------------------------------------------------------------
 (Depth) Function   	        Calls       Base Space   Used Autos Params    Refs
 ---------------------------------------------------------------------------------
 (5) _setINT                                               1     1      0       0
                                              0 COMRAM     1     1      0
 ---------------------------------------------------------------------------------
 Estimated maximum stack depth 5
 ---------------------------------------------------------------------------------
 (Depth) Function   	        Calls       Base Space   Used Autos Params    Refs
 ---------------------------------------------------------------------------------
 (6) _tickINT                                              0     0      0       0
 ---------------------------------------------------------------------------------
 Estimated maximum stack depth 6
 ---------------------------------------------------------------------------------
 (Depth) Function   	        Calls       Base Space   Used Autos Params    Refs
 ---------------------------------------------------------------------------------
 (6) _defaultINT                                           0     0      0       0
 ---------------------------------------------------------------------------------
 Estimated maximum stack depth 6
 ---------------------------------------------------------------------------------

 Call Graph Graphs:

 _main (ROOT)
   _LCDgoto
     _LCDinstruct
   _LCDinit
     _LCDinstruct
   _LCDinstruct
   _LCDprintc
   _RTCrun
     _LCDinstruct
     _LCDprintf
       _LCDprintc
       _LCDprints
         _LCDprintc
         _toString (ARG)
           ___awdiv
           ___awmod
       _toString
     _timerInit
   ___awmod
   _keyScan

 _setINT (ROOT)

 _tickINT (ROOT)

 _defaultINT (ROOT)

 Address spaces:
Name               Size   Autos  Total    Cost      Usage
BIGRAM            1FFF      0       0      70        0.0%
EEDATA             400      0       0       0        0.0%
BITBIGSFRlll       319      0       0      87        0.0%
BITBIGSFR_1        100      0       0      69        0.0%
BITBANK36          100      0       0      67        0.0%
BANK36             100      0       0      68        0.0%
BITBANK35          100      0       0      65        0.0%
BANK35             100      0       0      66        0.0%
BITBANK34          100      0       0      63        0.0%
BANK34             100      0       0      64        0.0%
BITBANK33          100      0       0      61        0.0%
BANK33             100      0       0      62        0.0%
BITBANK32          100      0       0      59        0.0%
BANK32             100      0       0      60        0.0%
BITBANK31          100      0       0      57        0.0%
BANK31             100      0       0      58        0.0%
BITBANK30          100      0       0      55        0.0%
BANK30             100      0       0      56        0.0%
BITBANK29          100      0       0      53        0.0%
BANK29             100      0       0      54        0.0%
BITBANK28          100      0       0      51        0.0%
BANK28             100      0       0      52        0.0%
BITBANK27          100      0       0      49        0.0%
BANK27             100      0       0      50        0.0%
BITBANK26          100      0       0      47        0.0%
BANK26             100      0       0      48        0.0%
BITBANK25          100      0       0      45        0.0%
BANK25             100      0       0      46        0.0%
BITBANK24          100      0       0      42        0.0%
BANK24             100      0       0      43        0.0%
BITBANK23          100      0       0      40        0.0%
BANK23             100      0       0      41        0.0%
BITBANK22          100      0       0      38        0.0%
BANK22             100      0       0      39        0.0%
BITBANK21          100      0       0      36        0.0%
BANK21             100      0       0      37        0.0%
BITBANK20          100      0       0      34        0.0%
BANK20             100      0       0      35        0.0%
BITBANK19          100      0       0      32        0.0%
BANK19             100      0       0      33        0.0%
BITBANK18          100      0       0      30        0.0%
BANK18             100      0       0      31        0.0%
BITBANK17          100      0       0      28        0.0%
BANK17             100      0       0      29        0.0%
BITBANK16          100      0       0      26        0.0%
BANK16             100      0       0      27        0.0%
BITBANK15          100      0       0      24        0.0%
BANK15             100      0       0      25        0.0%
BITBANK14          100      0       0      22        0.0%
BANK14             100      0       0      23        0.0%
BITBANK13          100      0       0      20        0.0%
BANK13             100      0       0      21        0.0%
BITBANK12          100      0       0      18        0.0%
BANK12             100      0       0      19        0.0%
BITBANK11          100      0       0      16        0.0%
BANK11             100      0       0      17        0.0%
BITBANK10          100      0       0      14        0.0%
BANK10             100      0       0      15        0.0%
BITBANK9           100      0       0      12        0.0%
BANK9              100      0       0      13        0.0%
BITBANK8           100      0       0      10        0.0%
BANK8              100      0       0      11        0.0%
BITBANK7           100      0       0       8        0.0%
BANK7              100      0       0       9        0.0%
BITBANK6           100      0       0       6        0.0%
BANK6              100      0       0       7        0.0%
BITBIGSFRllhh       A2      0       0      85        0.0%
BITBANK5            A0      0       0       4        0.0%
BANK5               A0      0      10       5       10.0%
BITBIGSFRlhlhhh     74      0       0      81        0.0%
BITCOMRAM           5F      0       0       0        0.0%
COMRAM              5F     3F      59       1       93.7%
BITBIGSFRllhl       49      0       0      86        0.0%
BITBIGSFRhh         29      0       0      71        0.0%
BITBIGSFRlhhlhh      F      0       0      78        0.0%
BITBIGSFRlhhlhl      F      0       0      79        0.0%
BITBIGSFRlhlhhl      E      0       0      82        0.0%
BITBIGSFRlhlhl       8      0       0      83        0.0%
BITBIGSFRhlhhl       7      0       0      73        0.0%
BITBIGSFRlhll        4      0       0      84        0.0%
BITBIGSFRlhhhh       3      0       0      76        0.0%
BITBIGSFRhlhhh       2      0       0      72        0.0%
BITBIGSFRlhhll       2      0       0      80        0.0%
BITBIGSFRlhhhl       1      0       0      77        0.0%
BITBIGSFRhlhl        1      0       0      74        0.0%
BITBIGSFRhll         1      0       0      75        0.0%
BIGSFR_1             0      0       0     200        0.0%
BIGSFR               0      0       0     200        0.0%
BITSFR_6             0      0       0     200        0.0%
SFR_6                0      0       0     200        0.0%
BITSFR_5             0      0       0     200        0.0%
SFR_5                0      0       0     200        0.0%
BITSFR_4             0      0       0     200        0.0%
SFR_4                0      0       0     200        0.0%
BITSFR_3             0      0       0     200        0.0%
SFR_3                0      0       0     200        0.0%
BITSFR_2             0      0       0     200        0.0%
SFR_2                0      0       0     200        0.0%
BITSFR_1             0      0       0     200        0.0%
SFR_1                0      0       0     200        0.0%
BITSFR               0      0       0     200        0.0%
SFR                  0      0       0     200        0.0%
STACK                0      0       0       2        0.0%
NULL                 0      0       0       0        0.0%
ABS                  0      0      69      44        0.0%
DATA                 0      0      69       3        0.0%
CODE                 0      0       0       0        0.0%


Microchip Technology PIC18 Macro Assembler V2.40 build 20220703182018 
Symbol Table                                                                                   Tue Mar 21 12:42:55 2023

                     l29 290E             ___awdiv@sign 0507                      l102 2C84  
                    l122 3190                      l125 2EBA                      l221 2DD0  
                    l134 3242                      l150 311C                      l128 30A6  
                    l137 32A0                      l162 2AEE                      l181 325E  
                    l455 2F7E                      l468 302E                      u500 2F0E  
                    u501 2F0A                      u510 2F2C                      u511 2F28  
                    u600 3242                      u520 2F48                      u601 323E  
                    u521 2F44                      u530 2F6E                      u610 30D0  
                    u531 2F6A                      u611 30CC                      u540 2F92  
                    u620 294A                      u700 2B56                      u541 2F8E  
                    u621 2946                      u701 2B52                      u550 2FAC  
                    u630 2976                      u710 2B84                      u551 2FA8  
                    u631 2972                      u711 2B80                      u480 2ECE  
                    u560 2FC6                      u640 29BE                      u720 2BBE  
                    u481 2ECA                      u561 2FC2                      u641 29BA  
                    u721 2BBA                      u490 2EE8                      u570 2FE4  
                    u650 29EA                      u730 2BF0                      u810 2D46  
                    u491 2EE4                      u571 2FE0                      u651 29E6  
                    u731 2BEC                      u811 2D42                      u580 2FFA  
                    u660 2A68                      u740 2C08                      u820 2D66  
                    u804 2D18                      u900 27A6                      u581 2FF6  
                    u661 2A64                      u741 2C04                      u821 2D62  
                    u805 2D12                      u901 27A2                      u590 301E  
                    u670 2A94                      u750 2C36                      u910 2828  
                    u591 301A                      u671 2A90                      u751 2C32  
                    u911 2824                      u680 2AEE                      u760 2C84  
                    u840 2DB2                      u920 291E                      u681 2AEA  
                    u761 2C80                      u841 2DAE                      u921 291A  
                    u834 2D9E                      u691 2AF6                      u835 2D98  
                    u771 2C9C                      u851 262C                      u780 2CD0  
                    u860 264C                      u781 2CCC                      u861 2648  
                    u790 2CFC                      u870 268C                      u791 2CF8  
                    u871 2688               _RTCrun$294 0528                      u880 26CA  
                    u881 26C6                      u890 271C                      u891 2718  
                    u957 2CB4                      u967 2CDA                      u977 2D26  
                    u987 2D4E                      u997 2D74             ___awmod@sign 0507  
                    prod 0004F3                      wreg 0004E8                     l2001 287C  
                   l2011 28C4                     l2013 290E                     l2007 2886  
                   l1511 3048                     l1503 3032                     l1521 3068  
                   l1513 304A                     l1505 303C                     l1601 2FD6  
                   l1531 308C                     l1523 3070                     l1515 304C  
                   l1507 303E                     l1603 2FE4                     l1611 300E  
                   l1533 3094                     l1525 3072                     l1517 305E  
                   l1509 3040                     l1621 31FC                     l1541 2EC0  
                   l1613 301E                     l1605 2FFA                     l1701 325A  
                   l1535 3096                     l1527 3082                     l1519 3066  
                   l1631 320C                     l1623 31FE                     l1551 2EF0  
                   l1543 2ECE                     l1615 3026                     l1607 3002  
                   l1711 294A                     l1703 325C                     l2095 28A6  
                   l1529 308A                     l1633 3218                     l1625 3200  
                   l1561 2F1E                     l1553 2EF4                     l1545 2ED6  
                   l1609 3008                     l1641 30BA                     l1721 29BE  
                   l1713 2976                     l2097 28D8                     l1635 3226  
                   l1627 3208                     l1619 31F2                     l1571 2F52  
                   l1563 2F2C                     l1555 2EFC                     l1547 2EDA  
                   l1539 2EBC                     l1651 30F8                     l1643 30BE  
                   l1731 2A68                     l1723 29EA                     l1715 298A  
                   l1707 2926                     l1811 2B1C                     l1803 2AF0  
                   l1661 3120                     l1637 322A                     l1629 320A  
                   l1573 2F58                     l1565 2F32                     l1557 2F0E  
                   l1549 2EE8                     l1653 310E                     l1645 30C2  
                   l1741 2ACA                     l1733 2A94                     l1725 2A34  
                   l1717 2992                     l1709 292A                     l1821 2B36  
                   l1813 2B28                     l1805 2AFC                     l1901 2D4C  
                   l1671 3138                     l1663 312A                     l1751 2DF4  
                   l1567 2F48                     l1559 2F16                     l1575 2F5E  
                   l1591 2F9E                     l1583 2F80                     l1639 30AA  
                   l1727 2A3C                     l1719 299E                     l1743 2ACE  
                   l1831 2B46                     l1823 2B38                     l1815 2B2C  
                   l1807 2B04                     l1911 2D88                     l1903 2D54  
                   l1681 315C                     l1673 313A                     l1665 312C  
                   l1761 2E14                     l1753 2DF6                     l1745 2DD2  
                   l1577 2F6E                     l1569 2F50                     l1593 2FAC  
                   l1585 2F84                     l1657 3114                     l1649 30D4  
                   l1729 2A48                     l1841 2BBE                     l1833 2B56  
                   l1825 2B3A                     l1817 2B30                     l1809 2B10  
                   l1913 2DB2                     l1905 2D66                     l1921 2612  
                   l1691 3180                     l1683 3164                     l1675 3150  
                   l1667 312E                     l1771 2E38                     l1763 2E16  
                   l1755 2E00                     l1747 2DEA                     l1579 2F76  
                   l1595 2FB4                     l1587 2F92                     l1739 2AB6  
                   l1851 2C18                     l1843 2BCE                     l1835 2B5A  
                   l1827 2B3C                     l1819 2B32                     l1907 2D6A  
                   l1931 264C                     l1923 2622                     l1685 3174  
                   l1677 3152                     l1669 3136                     l1917 3298  
                   l1781 2E66                     l1773 2E42                     l1765 2E1E  
                   l1757 2E02                     l1749 2DF0                     l1597 2FC6  
                   l1589 2F9A                     l1861 2C60                     l1853 2C36  
                   l1845 2BD8                     l1837 2B68                     l1829 2B3E  
                   l1909 2D86                     l1941 267C                     l1933 2658  
                   l1925 2634                     l1687 3176                     l1679 315A  
                   l1791 2E9C                     l1783 2E68                     l1775 2E54  
                   l1767 2E20                     l1759 2E0C                     l1599 2FCE  
                   l1695 3244                     l1855 2C42                     l1847 2BF0  
                   l1839 2B84                     l1863 2C74                     l1871 2CAA  
                   l1951 26CA                     l1943 268C                     l1935 265E  
                   l1927 2638                     l1689 317E                     l1793 2EA2  
                   l1785 2E78                     l1777 2E5C                     l1769 2E30  
                   l1697 3256                     l1857 2C4A                     l1849 2C08  
                   l1881 2CD0                     l1873 2CAE                     l1865 2C86  
                   l1961 26EE                     l1953 26D6                     l1945 2698  
                   l1937 2666                     l1929 263C                     l1795 2EA8  
                   l1787 2E80                     l1779 2E5E                     l1699 3258  
                   l1859 2C5A                     l1891 2D2C                     l1883 2CEC  
                   l1875 2CB2                     l1867 2C92                     l1971 275A  
                   l1963 26F8                     l1955 26DE                     l1947 26B0  
                   l1939 2670                     l1797 2EAE                     l1789 2E8A  
                   l1893 2D34                     l1885 2CFC                     l1877 2CBA  
                   l1869 2CA4                     l1981 27C8                     l1973 2776  
                   l1965 271C                     l1957 26E2                     l1949 26B8  
                   l1799 2EB4                     l1887 2D00                     l1895 2D36  
                   l1879 2CBE                     l1991 2804                     l1983 27DE  
                   l1975 277C                     l1967 273E                     l1959 26E8  
        __end_of_LCDinit 2EBC                     l1897 2D46                     l1889 2D24  
                   l1993 2828                     l1985 27E4                     l1977 2782  
                   l1969 2754                     l1899 2D48                     l1995 284A  
                   l1987 27FA                     l1979 27A6                     l1997 2860  
        __end_of_LCDgoto 32A2                     l1999 2866                     STR_1 2601  
                   u1007 3202                     u1017 320E                     u1107 2E06  
                   u1027 3042                     u1117 2E18                     u1037 3060  
                   u1207 3154                     u1127 2E26                     u1047 306A  
                   u1217 315E                     u1137 2E3C                     u1057 3084  
                   u1227 3178                     u1147 2E4A                     u1067 308E  
                   u1237 3186                     u1157 2E60                     u1077 309C  
                   u1167 2E6E                     u1087 2DDC                     _LATD 0004C1  
                   u1177 2E84                     u1097 2DFA                     _LATF 0004C3  
                   u1187 2E92                     u1197 3130              main@indexer 052C  
                   _WPUD 000419                     _WPUF 000429                     _main 2612  
                   fsr2h 0004DA                     indf2 0004DF                     fsr1l 0004E1  
                   fsr2l 0004D9                     prodl 0004F3                     start 0102  
           ___param_bank 000000             ?_LCDinstruct 0501                    ?_main 0501  
        __end_of___awdiv 2F80          __end_of___awmod 3030          ___awdiv@divisor 0504  
                  _IOCBF 00040F                    i1l107 3272                    i2l191 32AC  
                  i2l186 32A8          ___awdiv@counter 0506                    _TMR0H 000319  
                  _PORTF 0004D3                    _TRISD 0004C9                    _TRISF 0004CB  
        __end_of_keyScan 2DD2          __end_of_tickINT 32AA                    tablat 0004F5  
           main@position 053A                    plusw1 0004E3                    plusw2 0004DB  
                  status 0004D8              keyScan@cols 0516          __initialization 3192  
           __end_of_main 2926                   ??_main 052A            __activetblptr 000003  
              ??_LCDinit 0504                ??_LCDgoto 0504         ___awdiv@dividend 0502  
                 _ANSELD 000418                   _ANSELF 000428                   _T0CON0 00031A  
                 _T0CON1 00031B        __end_of_LCDprintc 30A8        __end_of_LCDprintf 2AF0  
      __end_of_LCDprints 3244                   _IOCBF4 00207C                   _IOCBN4 002074  
                 i1l1417 3264                   i1l1419 326E                   i2l1461 32AC  
                 i2l1455 32A4                   i2l1457 32A6                   _RTCrun 2AF0  
              ??___awdiv 0506                ??___awmod 0506                   _setINT 3260  
                 clear_0 31D8         ___awdiv@quotient 0508          ___awmod@divisor 0504  
                 isa$std 000001          ___awmod@counter 0506                ??_keyScan 0502  
           __pdataCOMRAM 054D         __end_of_toString 311E                ??_tickINT 0501  
           __mediumconst 0000                   tblptrh 0004F7                   tblptrl 0004F6  
                 tblptru 0004F8               __accesstop 0560  __end_of__initialization 31EC  
          ___rparam_used 000001           __pcstackCOMRAM 0501             __pidataBANK5 3278  
         ivt0x8_undefint 0100               _defaultINT 32AC                  ?_RTCrun 051D  
                IVTBASEH 00045E                  IVTBASEL 00045D                  IVTBASEU 00045F  
                ?_setINT 0501             RTCrun@F16725 0540                  _LCDinit 2DD2  
                _LCDgoto 3296                  __Hparam 0000                  __Lparam 0000  
              ?_toString 050A                  ___awdiv 2EBC                  ___awmod 2F80  
           __psmallconst 2600                  _nSetRTC 0559                  __pcinit 3192  
                _main$73 0538                  __ramtop 2600                  __ptext0 2612  
                __ptext1 2C86                  __ptext2 2AF0                  __ptext3 3244  
                __ptext4 2926                  __ptext5 30A8                  __ptext6 2F80  
                __ptext7 2EBC                  __ptext8 31F2                  __ptext9 3030  
                _keyScan 2C86         ___awmod@dividend 0502                  _tickINT 32A4  
                main@key 053B     end_of_initialization 31EC            keyScan@F16694 0560  
            ?_defaultINT 0501         LCDinstruct@instr 0503                _LCDprintc 3030  
              _LCDprintf 2926                _LCDprints 31F2        __end_of_timerInit 3260  
             _tick_count 054C               ??_toString 050C                  postdec1 0004E5  
                postdec2 0004DD                  postinc0 0004EE                  postinc2 0004DE  
             main@F16727 054D            keyScan@lookup 0505                _TRISBbits 0004C7  
       main@current_time 053C               ?_LCDprintc 0501               ?_LCDprintf 0515  
             ?_LCDprints 0513           __end_of_RTCrun 2C86            __pidataCOMRAM 3288  
         __end_of_setINT 3278         RTCrun@start_time 051D      start_initialization 3192  
        LCDprintf@inputs 0517               ivt0x8_base 0008                 ??_RTCrun 051F  
             LCDgoto@pos 0504               LCDprintc@c 0503              __pdataBANK5 0560  
             LCDprints@c 0513                 ??_setINT 0501            ??_LCDinstruct 0502  
            __pbssCOMRAM 0540                 ?_LCDinit 0501                 ?_LCDgoto 0501  
         toString@F16722 0548              ??_LCDprintc 0502              ??_LCDprintf 0519  
            ??_LCDprints 0515                 ?___awdiv 0502                 ?___awmod 0502  
         toString@length 050A           toString@number 0510           toString@string 050C  
               ?_keyScan 0501              __smallconst 2600                 ?_tickINT 0501  
    __end_of_LCDinstruct 3192         toString@copy_num 0511             ??_defaultINT 0501  
               _LATDbits 0004C1                 _PIE0bits 00049E                 _IPR3bits 000365  
               _PIE3bits 0004A1                 _PIR3bits 0004B1                _timerInit 3244  
     __end_of_defaultINT 32AE                 _WPUBbits 000409              _INTCON0bits 0004D6  
              copy_data0 31A6                copy_data1 31C6           LCDprintf@shell 0515  
               __Hrparam 0000                 __Lrparam 0000               ?_timerInit 0501  
            _LCDinstruct 311E               _ANSELBbits 000408               _T0CON0bits 00031A  
     RTCrun@current_time 0520                 __pivt0x8 0008                 __ptext10 2DD2  
               __ptext11 3296                 __ptext12 311E                 __ptext13 3260  
               __ptext14 32A4                 __ptext15 32AC                toString@i 0512  
               _toString 30A8                 isa$xinst 000000                 intlevel1 0000  
               intlevel2 0000              ??_timerInit 0502          keyScan@colshift 0515  
        keyScan@rowshift 0517  
