

Microchip MPLAB XC8 Assembler V2.40 build 20220703182018 
                                                                                               Mon Apr 03 17:00:06 2023

Microchip MPLAB XC8 C Compiler v2.40 (Free license) build 20220703182018 Og1 
     1                           	processor	18F57Q43
     2                           	fnconf	rparam,??,?,0
     3                           	pagewidth 120
     4                           	opt	flic
     5                           	psect	smallconst,global,reloc=2,class=SMALLCONST,delta=1,noexec
     6                           	psect	cinit,global,reloc=2,class=CODE,delta=1
     7                           	psect	bssBANK5,global,class=BANK5,space=1,delta=1,lowdata,noexec
     8                           	psect	cstackBANK5,global,class=BANK5,space=1,delta=1,lowdata,noexec
     9                           	psect	cstackCOMRAM,global,class=COMRAM,space=1,delta=1,lowdata,noexec
    10                           	psect	text0,global,reloc=2,class=CODE,delta=1
    11                           	psect	text1,global,reloc=2,class=CODE,delta=1
    12                           	psect	text2,global,reloc=2,class=CODE,delta=1
    13                           	psect	text3,global,reloc=2,class=CODE,delta=1,group=1
    14                           	psect	text4,global,reloc=2,class=CODE,delta=1,group=1
    15                           	psect	text5,global,reloc=2,class=CODE,delta=1,group=1
    16                           	psect	text6,global,reloc=2,class=CODE,delta=1,group=1
    17                           	psect	text7,global,reloc=2,class=CODE,delta=1
    18                           	psect	text8,global,reloc=2,class=CODE,delta=1
    19                           	psect	text9,global,reloc=2,class=CODE,delta=1,group=1
    20                           	psect	text10,global,reloc=2,class=CODE,delta=1,group=1
    21                           	psect	text11,global,reloc=2,class=CODE,delta=1,group=1
    22                           	psect	text12,global,reloc=2,class=CODE,delta=1,group=1
    23                           	psect	text13,global,reloc=2,class=CODE,delta=1,group=1
    24                           	psect	text14,global,reloc=2,class=CODE,delta=1,group=1
    25                           	psect	text15,global,reloc=2,class=CODE,delta=1
    26                           	psect	text16,global,reloc=2,class=CODE,delta=1
    27                           	psect	text17,global,reloc=2,class=CODE,delta=1
    28                           	psect	text18,global,reloc=2,class=CODE,delta=1
    29                           	psect	text19,global,reloc=2,class=CODE,delta=1
    30                           	psect	intsave_regs,global,class=BIGRAM,space=1,delta=1,noexec
    31                           	psect	rparam,global,class=COMRAM,space=1,delta=1,noexec
    32                           	psect	idloc,global,abs,ovrld,class=IDLOC,space=5,delta=1,noexec
    33                           	psect	config,global,abs,ovrld,class=CONFIG,space=4,delta=1,noexec
    34   000000                     
    35                           ; Generated 09/02/2023 GMT
    36                           ; 
    37                           ; Copyright © 2023, Microchip Technology Inc. and its subsidiaries ("Microchip")
    38                           ; All rights reserved.
    39                           ; 
    40                           ; This software is developed by Microchip Technology Inc. and its subsidiaries ("Microch
      +                          ip").
    41                           ; 
    42                           ; Redistribution and use in source and binary forms, with or without modification, are
    43                           ; permitted provided that the following conditions are met:
    44                           ; 
    45                           ;     1. Redistributions of source code must retain the above copyright notice, this lis
      +                          t of
    46                           ;        conditions and the following disclaimer.
    47                           ; 
    48                           ;     2. Redistributions in binary form must reproduce the above copyright notice, this 
      +                          list
    49                           ;        of conditions and the following disclaimer in the documentation and/or other
    50                           ;        materials provided with the distribution. Publication is not required when
    51                           ;        this file is used in an embedded application.
    52                           ; 
    53                           ;     3. Microchip's name may not be used to endorse or promote products derived from th
      +                          is
    54                           ;        software without specific prior written permission.
    55                           ; 
    56                           ; THIS SOFTWARE IS PROVIDED BY MICROCHIP "AS IS" AND ANY EXPRESS OR IMPLIED WARRANTIES,
    57                           ; INCLUDING, BUT NOT LIMITED TO, THE IMPLIED WARRANTIES OF MERCHANTABILITY AND FITNESS F
      +                          OR
    58                           ; PURPOSE ARE DISCLAIMED.  IN NO EVENT SHALL MICROCHIP BE LIABLE FOR ANY DIRECT, INDIREC
      +                          T,
    59                           ; INCIDENTAL, SPECIAL, EXEMPLARY, OR CONSEQUENTIAL DAMAGES (INCLUDING BUT NOT LIMITED TO
    60                           ; PROCUREMENT OF SUBSTITUTE GOODS OR SERVICES; LOSS OF USE, DATA OR PROFITS; OR BUSINESS
    61                           ; INTERRUPTION) HOWSOEVER CAUSED AND ON ANY THEORY OF LIABILITY, WHETHER IN CONTRACT, ST
      +                          RICT
    62                           ; LIABILITY, OR TORT (INCLUDING NEGLIGENCE OR OTHERWISE) ARISING IN ANY WAY OUT OF THE U
      +                          SE OF
    63                           ; THIS SOFTWARE, EVEN IF ADVISED OF THE POSSIBILITY OF SUCH DAMAGE.
    64                           ; 
    65                           ; 
    66                           ; Code-generator required, PIC18F57Q43 Definitions
    67                           ; 
    68                           ; SFR Addresses
    69   000000                     _LATD	set	1217
    70   000000                     _ADRESL	set	1002
    71   000000                     _ADRESH	set	1003
    72   000000                     _ADPCH	set	1004
    73   000000                     _ADCON0bits	set	1011
    74   000000                     _ANSELD	set	1048
    75   000000                     _LATDbits	set	1217
    76   000000                     _WPUD	set	1049
    77   000000                     _TRISD	set	1225
    78   000000                     _TRISAbits	set	1222
    79   000000                     _ANSELAbits	set	1024
    80                           
    81                           	psect	smallconst
    82   002600                     __psmallconst:
    83                           	callstack 0
    84   002600  00                 	db	0
    85   002601                     STR_1:
    86   002601  50                 	db	80	;'P'
    87   002602  6F                 	db	111	;'o'
    88   002603  74                 	db	116	;'t'
    89   002604  20                 	db	32
    90   002605  76                 	db	118	;'v'
    91   002606  6F                 	db	111	;'o'
    92   002607  6C                 	db	108	;'l'
    93   002608  74                 	db	116	;'t'
    94   002609  61                 	db	97	;'a'
    95   00260A  67                 	db	103	;'g'
    96   00260B  65                 	db	101	;'e'
    97   00260C  3A                 	db	58	;':'
    98   00260D  20                 	db	32
    99   00260E  00                 	db	0
   100   00260F                     STR_2:
   101   00260F  25                 	db	37
   102   002610  31                 	db	49	;'1'
   103   002611  66                 	db	102	;'f'
   104   002612  32                 	db	50	;'2'
   105   002613  20                 	db	32
   106   002614  56                 	db	86	;'V'
   107   002615  00                 	db	0
   108   002616  00                 	db	0	; dummy byte at the end
   109   000000                     
   110                           ; #config settings
   111                           
   112                           	psect	cinit
   113   00402E                     __pcinit:
   114                           	callstack 0
   115   00402E                     start_initialization:
   116                           	callstack 0
   117   00402E                     __initialization:
   118                           	callstack 0
   119                           
   120                           ; Clear objects allocated to BANK5 (26 bytes)
   121   00402E  EE01  F18B         	lfsr	0,__pbssBANK5
   122   004032  0E1A               	movlw	26
   123   004034                     clear_0:
   124   004034  6AEE               	clrf	postinc0,c
   125   004036  06E8               	decf	wreg,f,c
   126   004038  E1FD               	bnz	clear_0
   127   00403A                     end_of_initialization:
   128                           	callstack 0
   129   00403A                     __end_of__initialization:
   130                           	callstack 0
   131   00403A  0E00               	movlw	low (__Lsmallconst shr (0+16))
   132   00403C  6EF8               	movwf	tblptru,c
   133   00403E  0E26               	movlw	high __Lsmallconst
   134   004040  6EF7               	movwf	tblptrh,c
   135   004042  0100               	movlb	0
   136   004044  EF6A  F01C         	goto	_main	;jump to C main() function
   137                           
   138                           	psect	bssBANK5
   139   00058B                     __pbssBANK5:
   140                           	callstack 0
   141   00058B                     	ds	20
   142   00059F                     	ds	6
   143                           
   144                           	psect	cstackBANK5
   145   000560                     __pcstackBANK5:
   146                           	callstack 0
   147   000560                     ??_LCDprintf:
   148   000560                     ?_analogMap:
   149                           	callstack 0
   150   000560                     analogMap@analog_reading:
   151                           	callstack 0
   152                           
   153                           ; 2 bytes @ 0x0
   154   000560                     	ds	2
   155   000562                     analogMap@analog_max:
   156                           	callstack 0
   157                           
   158                           ; 2 bytes @ 0x2
   159   000562                     	ds	2
   160   000564                     analogMap@analog_min:
   161                           	callstack 0
   162                           
   163                           ; 2 bytes @ 0x4
   164   000564                     	ds	2
   165   000566                     analogMap@sensor_max:
   166                           	callstack 0
   167                           
   168                           ; 4 bytes @ 0x6
   169   000566                     	ds	1
   170   000567                     LCDprintf@f_string:
   171                           	callstack 0
   172                           
   173                           ; 20 bytes @ 0x7
   174   000567                     	ds	3
   175   00056A                     analogMap@sensor_min:
   176                           	callstack 0
   177                           
   178                           ; 4 bytes @ 0xA
   179   00056A                     	ds	4
   180   00056E                     _analogMap$890:
   181                           	callstack 0
   182                           
   183                           ; 4 bytes @ 0xE
   184   00056E                     	ds	13
   185   00057B                     LCDprintf@i:
   186                           	callstack 0
   187                           
   188                           ; 1 bytes @ 0x1B
   189   00057B                     	ds	1
   190   00057C                     LCDprintf@f_input:
   191                           	callstack 0
   192                           
   193                           ; 4 bytes @ 0x1C
   194   00057C                     	ds	4
   195   000580                     LCDprintf@f_int:
   196                           	callstack 0
   197                           
   198                           ; 2 bytes @ 0x20
   199   000580                     	ds	2
   200   000582                     LCDprintf@indexer:
   201                           	callstack 0
   202                           
   203                           ; 1 bytes @ 0x22
   204   000582                     	ds	1
   205   000583                     LCDprintf@args:
   206                           	callstack 0
   207                           
   208                           ; 2 bytes @ 0x23
   209   000583                     	ds	2
   210   000585                     ??_main:
   211                           
   212                           ; 1 bytes @ 0x25
   213   000585                     	ds	2
   214   000587                     main@pot_voltage:
   215                           	callstack 0
   216                           
   217                           ; 4 bytes @ 0x27
   218   000587                     	ds	4
   219                           
   220                           	psect	cstackCOMRAM
   221   000501                     __pcstackCOMRAM:
   222                           	callstack 0
   223   000501                     ??_LCDinstruct:
   224   000501                     ??_LCDprintc:
   225   000501                     ?_analogRead:
   226                           	callstack 0
   227   000501                     ?___awdiv:
   228                           	callstack 0
   229   000501                     ?___awmod:
   230                           	callstack 0
   231   000501                     ?___lwdiv:
   232                           	callstack 0
   233   000501                     ?___lwmod:
   234                           	callstack 0
   235   000501                     ?___fltol:
   236                           	callstack 0
   237   000501                     ?___xxtofl:
   238                           	callstack 0
   239   000501                     ___awdiv@dividend:
   240                           	callstack 0
   241   000501                     ___awmod@dividend:
   242                           	callstack 0
   243   000501                     ___lwdiv@dividend:
   244                           	callstack 0
   245   000501                     ___lwmod@dividend:
   246                           	callstack 0
   247   000501                     analogRead@pin_ansel:
   248                           	callstack 0
   249   000501                     ___fltol@f1:
   250                           	callstack 0
   251   000501                     ___xxtofl@val:
   252                           	callstack 0
   253                           
   254                           ; 4 bytes @ 0x0
   255   000501                     	ds	1
   256   000502                     LCDinstruct@instr:
   257                           	callstack 0
   258   000502                     LCDprintc@c:
   259                           	callstack 0
   260                           
   261                           ; 1 bytes @ 0x1
   262   000502                     	ds	1
   263   000503                     ??_LCDinit:
   264   000503                     LCDgoto@pos:
   265                           	callstack 0
   266   000503                     ___awdiv@divisor:
   267                           	callstack 0
   268   000503                     ___awmod@divisor:
   269                           	callstack 0
   270   000503                     ___lwdiv@divisor:
   271                           	callstack 0
   272   000503                     ___lwmod@divisor:
   273                           	callstack 0
   274                           
   275                           ; 2 bytes @ 0x2
   276   000503                     	ds	2
   277   000505                     ??___fltol:
   278   000505                     ??___xxtofl:
   279   000505                     ___awdiv@counter:
   280                           	callstack 0
   281   000505                     ___awmod@counter:
   282                           	callstack 0
   283   000505                     ___lwmod@counter:
   284                           	callstack 0
   285   000505                     ___lwdiv@quotient:
   286                           	callstack 0
   287   000505                     analogRead@pin_tris:
   288                           	callstack 0
   289                           
   290                           ; 4 bytes @ 0x4
   291   000505                     	ds	1
   292   000506                     ___awdiv@sign:
   293                           	callstack 0
   294   000506                     ___awmod@sign:
   295                           	callstack 0
   296                           
   297                           ; 1 bytes @ 0x5
   298   000506                     	ds	1
   299   000507                     ___lwdiv@counter:
   300                           	callstack 0
   301   000507                     ___awdiv@quotient:
   302                           	callstack 0
   303                           
   304                           ; 2 bytes @ 0x6
   305   000507                     	ds	1
   306   000508                     ?_toString:
   307                           	callstack 0
   308   000508                     toString@number:
   309                           	callstack 0
   310                           
   311                           ; 2 bytes @ 0x7
   312   000508                     	ds	1
   313   000509                     analogRead@pin_designation:
   314                           	callstack 0
   315   000509                     ___fltol@sign1:
   316                           	callstack 0
   317   000509                     ___xxtofl@sign:
   318                           	callstack 0
   319                           
   320                           ; 1 bytes @ 0x8
   321   000509                     	ds	1
   322   00050A                     ??_analogRead:
   323   00050A                     toString@length:
   324                           	callstack 0
   325   00050A                     ___fltol@exp1:
   326                           	callstack 0
   327   00050A                     ___xxtofl@exp:
   328                           	callstack 0
   329                           
   330                           ; 1 bytes @ 0x9
   331   00050A                     	ds	1
   332   00050B                     ___xxtofl@arg:
   333                           	callstack 0
   334   00050B                     toString@string:
   335                           	callstack 0
   336                           
   337                           ; 6 bytes @ 0xA
   338   00050B                     	ds	4
   339   00050F                     ?___fldiv:
   340                           	callstack 0
   341   00050F                     ___fldiv@b:
   342                           	callstack 0
   343                           
   344                           ; 4 bytes @ 0xE
   345   00050F                     	ds	2
   346   000511                     toString@i:
   347                           	callstack 0
   348                           
   349                           ; 1 bytes @ 0x10
   350   000511                     	ds	1
   351   000512                     LCDprints@c:
   352                           	callstack 0
   353                           
   354                           ; 2 bytes @ 0x11
   355   000512                     	ds	1
   356   000513                     ___fldiv@a:
   357                           	callstack 0
   358                           
   359                           ; 4 bytes @ 0x12
   360   000513                     	ds	1
   361   000514                     
   362                           ; 1 bytes @ 0x13
   363   000514                     	ds	3
   364   000517                     ??___fldiv:
   365                           
   366                           ; 1 bytes @ 0x16
   367   000517                     	ds	4
   368   00051B                     ___fldiv@rem:
   369                           	callstack 0
   370                           
   371                           ; 4 bytes @ 0x1A
   372   00051B                     	ds	4
   373   00051F                     ___fldiv@sign:
   374                           	callstack 0
   375                           
   376                           ; 1 bytes @ 0x1E
   377   00051F                     	ds	1
   378   000520                     ___fldiv@new_exp:
   379                           	callstack 0
   380                           
   381                           ; 2 bytes @ 0x1F
   382   000520                     	ds	2
   383   000522                     ___fldiv@grs:
   384                           	callstack 0
   385                           
   386                           ; 4 bytes @ 0x21
   387   000522                     	ds	4
   388   000526                     ___fldiv@bexp:
   389                           	callstack 0
   390                           
   391                           ; 1 bytes @ 0x25
   392   000526                     	ds	1
   393   000527                     ___fldiv@aexp:
   394                           	callstack 0
   395                           
   396                           ; 1 bytes @ 0x26
   397   000527                     	ds	1
   398   000528                     ?___fladd:
   399                           	callstack 0
   400   000528                     ___fladd@b:
   401                           	callstack 0
   402                           
   403                           ; 4 bytes @ 0x27
   404   000528                     	ds	4
   405   00052C                     ___fladd@a:
   406                           	callstack 0
   407                           
   408                           ; 4 bytes @ 0x2B
   409   00052C                     	ds	4
   410   000530                     ??___fladd:
   411                           
   412                           ; 1 bytes @ 0x2F
   413   000530                     	ds	4
   414   000534                     ___fladd@signs:
   415                           	callstack 0
   416                           
   417                           ; 1 bytes @ 0x33
   418   000534                     	ds	1
   419   000535                     ___fladd@aexp:
   420                           	callstack 0
   421                           
   422                           ; 1 bytes @ 0x34
   423   000535                     	ds	1
   424   000536                     ___fladd@bexp:
   425                           	callstack 0
   426                           
   427                           ; 1 bytes @ 0x35
   428   000536                     	ds	1
   429   000537                     ___fladd@grs:
   430                           	callstack 0
   431                           
   432                           ; 1 bytes @ 0x36
   433   000537                     	ds	1
   434   000538                     ?___flsub:
   435                           	callstack 0
   436   000538                     ___flsub@b:
   437                           	callstack 0
   438                           
   439                           ; 4 bytes @ 0x37
   440   000538                     	ds	4
   441   00053C                     ___flsub@a:
   442                           	callstack 0
   443                           
   444                           ; 4 bytes @ 0x3B
   445   00053C                     	ds	4
   446   000540                     ?___flmul:
   447                           	callstack 0
   448   000540                     ___flmul@b:
   449                           	callstack 0
   450                           
   451                           ; 4 bytes @ 0x3F
   452   000540                     	ds	4
   453   000544                     ___flmul@a:
   454                           	callstack 0
   455                           
   456                           ; 4 bytes @ 0x43
   457   000544                     	ds	4
   458   000548                     ??___flmul:
   459                           
   460                           ; 1 bytes @ 0x47
   461   000548                     	ds	4
   462   00054C                     ___flmul@sign:
   463                           	callstack 0
   464                           
   465                           ; 1 bytes @ 0x4B
   466   00054C                     	ds	1
   467   00054D                     ___flmul@grs:
   468                           	callstack 0
   469                           
   470                           ; 4 bytes @ 0x4C
   471   00054D                     	ds	4
   472   000551                     ___flmul@aexp:
   473                           	callstack 0
   474                           
   475                           ; 1 bytes @ 0x50
   476   000551                     	ds	1
   477   000552                     ___flmul@bexp:
   478                           	callstack 0
   479                           
   480                           ; 1 bytes @ 0x51
   481   000552                     	ds	1
   482   000553                     ___flmul@prod:
   483                           	callstack 0
   484                           
   485                           ; 4 bytes @ 0x52
   486   000553                     	ds	4
   487   000557                     ___flmul@temp:
   488                           	callstack 0
   489                           
   490                           ; 2 bytes @ 0x56
   491   000557                     	ds	2
   492   000559                     ?_LCDprintf:
   493                           	callstack 0
   494   000559                     ??_analogMap:
   495   000559                     LCDprintf@shell:
   496                           	callstack 0
   497                           
   498                           ; 2 bytes @ 0x58
   499   000559                     	ds	6
   500                           
   501 ;;
   502 ;;Main: autosize = 0, tempsize = 2, incstack = 0, save=0
   503 ;;
   504 ;; *************** function _main *****************
   505 ;; Defined at:
   506 ;;		line 24 in file "C:/Users/a_hui/OneDrive - Camosun College/term2/ecet165_embedded_mc/labs/ecet165-labs/lab11/analogT
      +est.c"
   507 ;; Parameters:    Size  Location     Type
   508 ;;		None
   509 ;; Auto vars:     Size  Location     Type
   510 ;;  pot_voltage     4   39[BANK5 ] PTR unsigned char 
   511 ;; Return value:  Size  Location     Type
   512 ;;                  1    wreg      void 
   513 ;; Registers used:
   514 ;;		wreg, fsr2l, fsr2h, status,2, status,0, tblptrl, tblptrh, tblptru, prodl, prodh, cstack
   515 ;; Tracked objects:
   516 ;;		On entry : 0/0
   517 ;;		On exit  : 0/0
   518 ;;		Unchanged: 0/0
   519 ;; Data sizes:     COMRAM   BANK5   BANK6   BANK7   BANK8   BANK9  BANK10  BANK11  BANK12  BANK13  BANK14  BANK15  BANK1
      +6  BANK17  BANK18  BANK19  BANK20  BANK21  BANK22  BANK23  BANK24  BANK25  BANK26  BANK27  BANK28  BANK29  BANK30  BANK3
      +1  BANK32  BANK33  BANK34  BANK35  BANK36
   520 ;;      Params:         0       0       0       0       0       0       0       0       0       0       0       0       
      +0       0       0       0       0       0       0       0       0       0       0       0       0       0       0       
      +0       0       0       0       0       0
   521 ;;      Locals:         0       4       0       0       0       0       0       0       0       0       0       0       
      +0       0       0       0       0       0       0       0       0       0       0       0       0       0       0       
      +0       0       0       0       0       0
   522 ;;      Temps:          0       2       0       0       0       0       0       0       0       0       0       0       
      +0       0       0       0       0       0       0       0       0       0       0       0       0       0       0       
      +0       0       0       0       0       0
   523 ;;      Totals:         0       6       0       0       0       0       0       0       0       0       0       0       
      +0       0       0       0       0       0       0       0       0       0       0       0       0       0       0       
      +0       0       0       0       0       0
   524 ;;Total ram usage:        6 bytes
   525 ;; Hardware stack levels required when called: 3
   526 ;; This function calls:
   527 ;;		_LCDgoto
   528 ;;		_LCDinit
   529 ;;		_LCDinstruct
   530 ;;		_LCDprintf
   531 ;;		_analogMap
   532 ;;		_analogRead
   533 ;; This function is called by:
   534 ;;		Startup code after reset
   535 ;; This function uses a non-reentrant model
   536 ;;
   537                           
   538                           	psect	text0
   539   0038D4                     __ptext0:
   540                           	callstack 0
   541   0038D4                     _main:
   542                           	callstack 124
   543   0038D4                     
   544                           ;C:/Users/a_hui/OneDrive - Camosun College/term2/ecet165_embedded_mc/labs/ecet165-labs/l
      +                          ab11/analogTest.c: 27:     LCDinit();
   545   0038D4  EC5D  F01D         	call	_LCDinit	;wreg free
   546   0038D8                     l113:
   547                           
   548                           ;C:/Users/a_hui/OneDrive - Camosun College/term2/ecet165_embedded_mc/labs/ecet165-labs/l
      +                          ab11/analogTest.c: 34:         LCDinstruct(0x02);
   549   0038D8  0E02               	movlw	2
   550   0038DA  EC3C  F01F         	call	_LCDinstruct
   551   0038DE                     
   552                           ;C:/Users/a_hui/OneDrive - Camosun College/term2/ecet165_embedded_mc/labs/ecet165-labs/l
      +                          ab11/analogTest.c: 35:         pot_voltage = analogMap(analogRead(ANSELAbits.ANSELA3, TR
      +                          ISAbits.TRISA3, 0x03), 4000, 0, 5.00, 0.00);
   553   0038DE  0104               	movlb	4	; () banked
   554   0038E0  B700               	btfsc	0,3,b	;volatile
   555   0038E2  EF75  F01C         	goto	u2671
   556   0038E6  EF7A  F01C         	goto	u2670
   557   0038EA                     u2671:
   558   0038EA  0105               	movlb	5	; () banked
   559   0038EC  6B85               	clrf	??_main& (0+255),b
   560   0038EE  2B85               	incf	??_main& (0+255),f,b
   561   0038F0  EF7C  F01C         	goto	u2678
   562   0038F4                     u2670:
   563   0038F4  0105               	movlb	5	; () banked
   564   0038F6  6B85               	clrf	??_main& (0+255),b
   565   0038F8                     u2678:
   566   0038F8  5185               	movf	??_main& (0+255),w,b
   567   0038FA  6E01               	movwf	analogRead@pin_ansel^(0+1280),c
   568   0038FC  6A02               	clrf	(analogRead@pin_ansel+1)^(0+1280),c
   569   0038FE  6A03               	clrf	(analogRead@pin_ansel+2)^(0+1280),c
   570   003900  6A04               	clrf	(analogRead@pin_ansel+3)^(0+1280),c
   571   003902  B6C6               	btfsc	198,3,c	;volatile
   572   003904  EF86  F01C         	goto	u2681
   573   003908  EF8A  F01C         	goto	u2680
   574   00390C                     u2681:
   575   00390C  6B86               	clrf	(??_main+1)& (0+255),b
   576   00390E  2B86               	incf	(??_main+1)& (0+255),f,b
   577   003910  EF8C  F01C         	goto	u2688
   578   003914                     u2680:
   579   003914  0105               	movlb	5	; () banked
   580   003916  6B86               	clrf	(??_main+1)& (0+255),b
   581   003918                     u2688:
   582   003918  5186               	movf	(??_main+1)& (0+255),w,b
   583   00391A  6E05               	movwf	analogRead@pin_tris^(0+1280),c
   584   00391C  6A06               	clrf	(analogRead@pin_tris+1)^(0+1280),c
   585   00391E  6A07               	clrf	(analogRead@pin_tris+2)^(0+1280),c
   586   003920  6A08               	clrf	(analogRead@pin_tris+3)^(0+1280),c
   587   003922  0E03               	movlw	3
   588   003924  6E09               	movwf	analogRead@pin_designation^(0+1280),c
   589   003926  ECD1  F01F         	call	_analogRead	;wreg free
   590   00392A  C501  F560         	movff	?_analogRead,analogMap@analog_reading
   591   00392E  C502  F561         	movff	?_analogRead+1,analogMap@analog_reading+1
   592   003932  0E0F               	movlw	15
   593   003934  0105               	movlb	5	; () banked
   594   003936  6F63               	movwf	(analogMap@analog_max+1)& (0+255),b
   595   003938  0EA0               	movlw	160
   596   00393A  6F62               	movwf	analogMap@analog_max& (0+255),b
   597   00393C  0E00               	movlw	0
   598   00393E  6F65               	movwf	(analogMap@analog_min+1)& (0+255),b
   599   003940  0E00               	movlw	0
   600   003942  6F64               	movwf	analogMap@analog_min& (0+255),b
   601   003944  0E00               	movlw	0
   602   003946  6F66               	movwf	analogMap@sensor_max& (0+255),b
   603   003948  0E00               	movlw	0
   604   00394A  6F67               	movwf	(analogMap@sensor_max+1)& (0+255),b
   605   00394C  0EA0               	movlw	160
   606   00394E  6F68               	movwf	(analogMap@sensor_max+2)& (0+255),b
   607   003950  0E40               	movlw	64
   608   003952  6F69               	movwf	(analogMap@sensor_max+3)& (0+255),b
   609   003954  0E00               	movlw	0
   610   003956  6F6A               	movwf	analogMap@sensor_min& (0+255),b
   611   003958  0E00               	movlw	0
   612   00395A  6F6B               	movwf	(analogMap@sensor_min+1)& (0+255),b
   613   00395C  0E00               	movlw	0
   614   00395E  6F6C               	movwf	(analogMap@sensor_min+2)& (0+255),b
   615   003960  0E00               	movlw	0
   616   003962  6F6D               	movwf	(analogMap@sensor_min+3)& (0+255),b
   617   003964  ECE4  F01C         	call	_analogMap	;wreg free
   618   003968  C560  F587         	movff	?_analogMap,main@pot_voltage
   619   00396C  C561  F588         	movff	?_analogMap+1,main@pot_voltage+1
   620   003970  C562  F589         	movff	?_analogMap+2,main@pot_voltage+2
   621   003974  C563  F58A         	movff	?_analogMap+3,main@pot_voltage+3
   622   003978                     
   623                           ;C:/Users/a_hui/OneDrive - Camosun College/term2/ecet165_embedded_mc/labs/ecet165-labs/l
      +                          ab11/analogTest.c: 36:         LCDprintf("Pot voltage: ");
   624   003978  0E01               	movlw	low STR_1
   625   00397A  6E59               	movwf	LCDprintf@shell^(0+1280),c
   626   00397C  0E26               	movlw	high STR_1
   627   00397E  6E5A               	movwf	(LCDprintf@shell+1)^(0+1280),c
   628   003980  EC4E  F019         	call	_LCDprintf	;wreg free
   629   003984                     
   630                           ;C:/Users/a_hui/OneDrive - Camosun College/term2/ecet165_embedded_mc/labs/ecet165-labs/l
      +                          ab11/analogTest.c: 37:         LCDgoto(0x40);
   631   003984  0E40               	movlw	64
   632   003986  EC24  F020         	call	_LCDgoto
   633   00398A                     
   634                           ;C:/Users/a_hui/OneDrive - Camosun College/term2/ecet165_embedded_mc/labs/ecet165-labs/l
      +                          ab11/analogTest.c: 38:         LCDprintf("%1f2 V", pot_voltage);
   635   00398A  0E0F               	movlw	low STR_2
   636   00398C  6E59               	movwf	LCDprintf@shell^(0+1280),c
   637   00398E  0E26               	movlw	high STR_2
   638   003990  6E5A               	movwf	(LCDprintf@shell+1)^(0+1280),c
   639   003992  C587  F55B         	movff	main@pot_voltage,?_LCDprintf+2
   640   003996  C588  F55C         	movff	main@pot_voltage+1,?_LCDprintf+3
   641   00399A  C589  F55D         	movff	main@pot_voltage+2,?_LCDprintf+4
   642   00399E  C58A  F55E         	movff	main@pot_voltage+3,?_LCDprintf+5
   643   0039A2  EC4E  F019         	call	_LCDprintf	;wreg free
   644   0039A6                     
   645                           ;C:/Users/a_hui/OneDrive - Camosun College/term2/ecet165_embedded_mc/labs/ecet165-labs/l
      +                          ab11/analogTest.c: 39:         _delay((unsigned long)((1000)*(64000000/4000.0)));
   646   0039A6  0E52               	movlw	82
   647   0039A8  0105               	movlb	5	; () banked
   648   0039AA  6F86               	movwf	(??_main+1)& (0+255),b
   649   0039AC  0E2B               	movlw	43
   650   0039AE  6F85               	movwf	??_main& (0+255),b
   651   0039B0  0E00               	movlw	0
   652   0039B2                     u2697:
   653   0039B2  2EE8               	decfsz	wreg,f,c
   654   0039B4  D7FE               	bra	u2697
   655   0039B6  2F85               	decfsz	??_main& (0+255),f,b
   656   0039B8  D7FC               	bra	u2697
   657   0039BA  2F86               	decfsz	(??_main+1)& (0+255),f,b
   658   0039BC  D7FA               	bra	u2697
   659   0039BE  F000               	nop	
   660   0039C0  EF6C  F01C         	goto	l113
   661   0039C4  EFFE  F0FF         	goto	start
   662   0039C8                     __end_of_main:
   663                           	callstack 0
   664                           
   665 ;; *************** function _analogRead *****************
   666 ;; Defined at:
   667 ;;		line 30 in file "C:/Users/a_hui/OneDrive - Camosun College/term2/ecet165_embedded_mc/labs/ecet165-labs/lab11/analog1
      +8f.c"
   668 ;; Parameters:    Size  Location     Type
   669 ;;  pin_ansel       4    0[COMRAM] unsigned long 
   670 ;;  pin_tris        4    4[COMRAM] unsigned long 
   671 ;;  pin_designat    1    8[COMRAM] unsigned char 
   672 ;; Auto vars:     Size  Location     Type
   673 ;;		None
   674 ;; Return value:  Size  Location     Type
   675 ;;                  2    0[COMRAM] unsigned int 
   676 ;; Registers used:
   677 ;;		wreg, status,2, status,0
   678 ;; Tracked objects:
   679 ;;		On entry : 0/0
   680 ;;		On exit  : 0/0
   681 ;;		Unchanged: 0/0
   682 ;; Data sizes:     COMRAM   BANK5   BANK6   BANK7   BANK8   BANK9  BANK10  BANK11  BANK12  BANK13  BANK14  BANK15  BANK1
      +6  BANK17  BANK18  BANK19  BANK20  BANK21  BANK22  BANK23  BANK24  BANK25  BANK26  BANK27  BANK28  BANK29  BANK30  BANK3
      +1  BANK32  BANK33  BANK34  BANK35  BANK36
   683 ;;      Params:         9       0       0       0       0       0       0       0       0       0       0       0       
      +0       0       0       0       0       0       0       0       0       0       0       0       0       0       0       
      +0       0       0       0       0       0
   684 ;;      Locals:         0       0       0       0       0       0       0       0       0       0       0       0       
      +0       0       0       0       0       0       0       0       0       0       0       0       0       0       0       
      +0       0       0       0       0       0
   685 ;;      Temps:          2       0       0       0       0       0       0       0       0       0       0       0       
      +0       0       0       0       0       0       0       0       0       0       0       0       0       0       0       
      +0       0       0       0       0       0
   686 ;;      Totals:        11       0       0       0       0       0       0       0       0       0       0       0       
      +0       0       0       0       0       0       0       0       0       0       0       0       0       0       0       
      +0       0       0       0       0       0
   687 ;;Total ram usage:       11 bytes
   688 ;; Hardware stack levels used: 1
   689 ;; This function calls:
   690 ;;		Nothing
   691 ;; This function is called by:
   692 ;;		_main
   693 ;; This function uses a non-reentrant model
   694 ;;
   695                           
   696                           	psect	text1
   697   003FA2                     __ptext1:
   698                           	callstack 0
   699   003FA2                     _analogRead:
   700                           	callstack 126
   701   003FA2                     
   702                           ;C:/Users/a_hui/OneDrive - Camosun College/term2/ecet165_embedded_mc/labs/ecet165-labs/l
      +                          ab11/analog18f.c: 32:      ADCON0bits.FM = 1;
   703   003FA2  0103               	movlb	3	; () banked
   704   003FA4  51F3               	movf	243,w,b	;volatile
   705   003FA6  0BF3               	andlw	-13
   706   003FA8  0904               	iorlw	4
   707   003FAA  6FF3               	movwf	243,b	;volatile
   708   003FAC                     
   709                           ; BSR set to: 3
   710                           ;C:/Users/a_hui/OneDrive - Camosun College/term2/ecet165_embedded_mc/labs/ecet165-labs/l
      +                          ab11/analog18f.c: 33:      ADCON0bits.CS = 1;
   711   003FAC  89F3               	bsf	243,4,b	;volatile
   712   003FAE                     
   713                           ; BSR set to: 3
   714                           ;C:/Users/a_hui/OneDrive - Camosun College/term2/ecet165_embedded_mc/labs/ecet165-labs/l
      +                          ab11/analog18f.c: 34:      ADPCH = pin_designation;
   715   003FAE  C509  F3EC         	movff	analogRead@pin_designation,1004	;volatile
   716                           
   717                           ;C:/Users/a_hui/OneDrive - Camosun College/term2/ecet165_embedded_mc/labs/ecet165-labs/l
      +                          ab11/analog18f.c: 36:      pin_ansel = 1;
   718   003FB2  0E01               	movlw	1
   719   003FB4  6E01               	movwf	analogRead@pin_ansel^(0+1280),c
   720   003FB6  0E00               	movlw	0
   721   003FB8  6E02               	movwf	(analogRead@pin_ansel+1)^(0+1280),c
   722   003FBA  0E00               	movlw	0
   723   003FBC  6E03               	movwf	(analogRead@pin_ansel+2)^(0+1280),c
   724   003FBE  0E00               	movlw	0
   725   003FC0  6E04               	movwf	(analogRead@pin_ansel+3)^(0+1280),c
   726   003FC2                     
   727                           ; BSR set to: 3
   728                           ;C:/Users/a_hui/OneDrive - Camosun College/term2/ecet165_embedded_mc/labs/ecet165-labs/l
      +                          ab11/analog18f.c: 37:      ADCON0bits.ON = 1;
   729   003FC2  8FF3               	bsf	243,7,b	;volatile
   730   003FC4                     
   731                           ; BSR set to: 3
   732                           ;C:/Users/a_hui/OneDrive - Camosun College/term2/ecet165_embedded_mc/labs/ecet165-labs/l
      +                          ab11/analog18f.c: 39:      ADCON0bits.GO = 1;
   733   003FC4  81F3               	bsf	243,0,b	;volatile
   734   003FC6                     l84:
   735                           
   736                           ; BSR set to: 3
   737                           ;C:/Users/a_hui/OneDrive - Camosun College/term2/ecet165_embedded_mc/labs/ecet165-labs/l
      +                          ab11/analog18f.c: 40:      while(ADCON0bits.GO)
   738   003FC6  B1F3               	btfsc	243,0,b	;volatile
   739   003FC8  EFE8  F01F         	goto	u2641
   740   003FCC  EFEA  F01F         	goto	u2640
   741   003FD0                     u2641:
   742   003FD0  EFE3  F01F         	goto	l84
   743   003FD4                     u2640:
   744   003FD4                     
   745                           ; BSR set to: 3
   746                           ;C:/Users/a_hui/OneDrive - Camosun College/term2/ecet165_embedded_mc/labs/ecet165-labs/l
      +                          ab11/analog18f.c: 42:      return ((ADRESH<<8)+ADRESL);
   747   003FD4  51EB               	movf	235,w,b	;volatile
   748   003FD6  6E0B               	movwf	(??_analogRead+1)^(0+1280),c
   749   003FD8  6A0A               	clrf	??_analogRead^(0+1280),c
   750   003FDA  51EA               	movf	234,w,b	;volatile
   751   003FDC  240A               	addwf	??_analogRead^(0+1280),w,c
   752   003FDE  6E01               	movwf	?_analogRead^(0+1280),c
   753   003FE0  0E00               	movlw	0
   754   003FE2  200B               	addwfc	(??_analogRead+1)^(0+1280),w,c
   755   003FE4  6E02               	movwf	(?_analogRead+1)^(0+1280),c
   756   003FE6                     
   757                           ; BSR set to: 3
   758   003FE6  0012               	return		;funcret
   759   003FE8                     __end_of_analogRead:
   760                           	callstack 0
   761                           
   762 ;; *************** function _analogMap *****************
   763 ;; Defined at:
   764 ;;		line 57 in file "C:/Users/a_hui/OneDrive - Camosun College/term2/ecet165_embedded_mc/labs/ecet165-labs/lab11/analog1
      +8f.c"
   765 ;; Parameters:    Size  Location     Type
   766 ;;  analog_readi    2    0[BANK5 ] unsigned int 
   767 ;;  analog_max      2    2[BANK5 ] unsigned int 
   768 ;;  analog_min      2    4[BANK5 ] unsigned int 
   769 ;;  sensor_max      4    6[BANK5 ] float 
   770 ;;  sensor_min      4   10[BANK5 ] float 
   771 ;; Auto vars:     Size  Location     Type
   772 ;;		None
   773 ;; Return value:  Size  Location     Type
   774 ;;                  4    0[BANK5 ] float 
   775 ;; Registers used:
   776 ;;		wreg, status,2, status,0, prodl, prodh, cstack
   777 ;; Tracked objects:
   778 ;;		On entry : 0/0
   779 ;;		On exit  : 0/0
   780 ;;		Unchanged: 0/0
   781 ;; Data sizes:     COMRAM   BANK5   BANK6   BANK7   BANK8   BANK9  BANK10  BANK11  BANK12  BANK13  BANK14  BANK15  BANK1
      +6  BANK17  BANK18  BANK19  BANK20  BANK21  BANK22  BANK23  BANK24  BANK25  BANK26  BANK27  BANK28  BANK29  BANK30  BANK3
      +1  BANK32  BANK33  BANK34  BANK35  BANK36
   782 ;;      Params:         0      14       0       0       0       0       0       0       0       0       0       0       
      +0       0       0       0       0       0       0       0       0       0       0       0       0       0       0       
      +0       0       0       0       0       0
   783 ;;      Locals:         0       4       0       0       0       0       0       0       0       0       0       0       
      +0       0       0       0       0       0       0       0       0       0       0       0       0       0       0       
      +0       0       0       0       0       0
   784 ;;      Temps:          4       0       0       0       0       0       0       0       0       0       0       0       
      +0       0       0       0       0       0       0       0       0       0       0       0       0       0       0       
      +0       0       0       0       0       0
   785 ;;      Totals:         4      18       0       0       0       0       0       0       0       0       0       0       
      +0       0       0       0       0       0       0       0       0       0       0       0       0       0       0       
      +0       0       0       0       0       0
   786 ;;Total ram usage:       22 bytes
   787 ;; Hardware stack levels used: 1
   788 ;; Hardware stack levels required when called: 2
   789 ;; This function calls:
   790 ;;		___fladd
   791 ;;		___fldiv
   792 ;;		___flmul
   793 ;;		___flsub
   794 ;;		___xxtofl
   795 ;; This function is called by:
   796 ;;		_main
   797 ;; This function uses a non-reentrant model
   798 ;;
   799                           
   800                           	psect	text2
   801   0039C8                     __ptext2:
   802                           	callstack 0
   803   0039C8                     _analogMap:
   804                           	callstack 124
   805   0039C8                     
   806                           ;C:/Users/a_hui/OneDrive - Camosun College/term2/ecet165_embedded_mc/labs/ecet165-labs/l
      +                          ab11/analog18f.c: 58:             unsigned int analog_reading,;C:/Users/a_hui/OneDrive -
      +                           Camosun College/term2/ecet165_embedded_mc/labs/ecet165-labs/lab11/analog18f.c: 59:     
      +                                  unsigned int analog_max,;C:/Users/a_hui/OneDrive - Camosun College/term2/ecet165
      +                          _embedded_mc/labs/ecet165-labs/lab11/analog18f.c: 60:             unsigned int analog_mi
      +                          n,;C:/Users/a_hui/OneDrive - Camosun College/term2/ecet165_embedded_mc/labs/ecet165-labs
      +                          /lab11/analog18f.c: 61:             float sensor_max,
   807   0039C8  C56A  F53C         	movff	analogMap@sensor_min,___flsub@a
   808   0039CC  C56B  F53D         	movff	analogMap@sensor_min+1,___flsub@a+1
   809   0039D0  C56C  F53E         	movff	analogMap@sensor_min+2,___flsub@a+2
   810   0039D4  C56D  F53F         	movff	analogMap@sensor_min+3,___flsub@a+3
   811   0039D8  C566  F538         	movff	analogMap@sensor_max,___flsub@b
   812   0039DC  C567  F539         	movff	analogMap@sensor_max+1,___flsub@b+1
   813   0039E0  C568  F53A         	movff	analogMap@sensor_max+2,___flsub@b+2
   814   0039E4  C569  F53B         	movff	analogMap@sensor_max+3,___flsub@b+3
   815   0039E8  ECF4  F01F         	call	___flsub	;wreg free
   816   0039EC  C538  F544         	movff	?___flsub,___flmul@a
   817   0039F0  C539  F545         	movff	?___flsub+1,___flmul@a+1
   818   0039F4  C53A  F546         	movff	?___flsub+2,___flmul@a+2
   819   0039F8  C53B  F547         	movff	?___flsub+3,___flmul@a+3
   820   0039FC  0105               	movlb	5	; () banked
   821   0039FE  5164               	movf	analogMap@analog_min& (0+255),w,b
   822   003A00  5D62               	subwf	analogMap@analog_max& (0+255),w,b
   823   003A02  6E59               	movwf	??_analogMap^(0+1280),c
   824   003A04  5165               	movf	(analogMap@analog_min+1)& (0+255),w,b
   825   003A06  5963               	subwfb	(analogMap@analog_max+1)& (0+255),w,b
   826   003A08  6E5A               	movwf	(??_analogMap+1)^(0+1280),c
   827   003A0A  C559  F501         	movff	??_analogMap,___xxtofl@val
   828   003A0E  C55A  F502         	movff	??_analogMap+1,___xxtofl@val+1
   829   003A12  6A03               	clrf	(___xxtofl@val+2)^(0+1280),c
   830   003A14  6A04               	clrf	(___xxtofl@val+3)^(0+1280),c
   831   003A16  0E00               	movlw	0
   832   003A18  EC0D  F01B         	call	___xxtofl
   833   003A1C  C501  F513         	movff	?___xxtofl,___fldiv@a
   834   003A20  C502  F514         	movff	?___xxtofl+1,___fldiv@a+1
   835   003A24  C503  F515         	movff	?___xxtofl+2,___fldiv@a+2
   836   003A28  C504  F516         	movff	?___xxtofl+3,___fldiv@a+3
   837   003A2C  0105               	movlb	5	; () banked
   838   003A2E  5164               	movf	analogMap@analog_min& (0+255),w,b
   839   003A30  5D60               	subwf	analogMap@analog_reading& (0+255),w,b
   840   003A32  6E5B               	movwf	(??_analogMap+2)^(0+1280),c
   841   003A34  5165               	movf	(analogMap@analog_min+1)& (0+255),w,b
   842   003A36  5961               	subwfb	(analogMap@analog_reading+1)& (0+255),w,b
   843   003A38  6E5C               	movwf	(??_analogMap+3)^(0+1280),c
   844   003A3A  C55B  F501         	movff	??_analogMap+2,___xxtofl@val
   845   003A3E  C55C  F502         	movff	??_analogMap+3,___xxtofl@val+1
   846   003A42  6A03               	clrf	(___xxtofl@val+2)^(0+1280),c
   847   003A44  6A04               	clrf	(___xxtofl@val+3)^(0+1280),c
   848   003A46  0E00               	movlw	0
   849   003A48  EC0D  F01B         	call	___xxtofl
   850   003A4C  C501  F50F         	movff	?___xxtofl,___fldiv@b
   851   003A50  C502  F510         	movff	?___xxtofl+1,___fldiv@b+1
   852   003A54  C503  F511         	movff	?___xxtofl+2,___fldiv@b+2
   853   003A58  C504  F512         	movff	?___xxtofl+3,___fldiv@b+3
   854   003A5C  EC81  F017         	call	___fldiv	;wreg free
   855   003A60  C50F  F540         	movff	?___fldiv,___flmul@b
   856   003A64  C510  F541         	movff	?___fldiv+1,___flmul@b+1
   857   003A68  C511  F542         	movff	?___fldiv+2,___flmul@b+2
   858   003A6C  C512  F543         	movff	?___fldiv+3,___flmul@b+3
   859   003A70  EC6C  F015         	call	___flmul	;wreg free
   860   003A74  C540  F56E         	movff	?___flmul,_analogMap$890
   861   003A78  C541  F56F         	movff	?___flmul+1,_analogMap$890+1
   862   003A7C  C542  F570         	movff	?___flmul+2,_analogMap$890+2
   863   003A80  C543  F571         	movff	?___flmul+3,_analogMap$890+3
   864   003A84                     
   865                           ;C:/Users/a_hui/OneDrive - Camosun College/term2/ecet165_embedded_mc/labs/ecet165-labs/l
      +                          ab11/analog18f.c: 58:             unsigned int analog_reading,;C:/Users/a_hui/OneDrive -
      +                           Camosun College/term2/ecet165_embedded_mc/labs/ecet165-labs/lab11/analog18f.c: 59:     
      +                                  unsigned int analog_max,;C:/Users/a_hui/OneDrive - Camosun College/term2/ecet165
      +                          _embedded_mc/labs/ecet165-labs/lab11/analog18f.c: 60:             unsigned int analog_mi
      +                          n,;C:/Users/a_hui/OneDrive - Camosun College/term2/ecet165_embedded_mc/labs/ecet165-labs
      +                          /lab11/analog18f.c: 61:             float sensor_max,
   866   003A84  C56E  F528         	movff	_analogMap$890,___fladd@b
   867   003A88  C56F  F529         	movff	_analogMap$890+1,___fladd@b+1
   868   003A8C  C570  F52A         	movff	_analogMap$890+2,___fladd@b+2
   869   003A90  C571  F52B         	movff	_analogMap$890+3,___fladd@b+3
   870   003A94  C56A  F52C         	movff	analogMap@sensor_min,___fladd@a
   871   003A98  C56B  F52D         	movff	analogMap@sensor_min+1,___fladd@a+1
   872   003A9C  C56C  F52E         	movff	analogMap@sensor_min+2,___fladd@a+2
   873   003AA0  C56D  F52F         	movff	analogMap@sensor_min+3,___fladd@a+3
   874   003AA4  EC0C  F013         	call	___fladd	;wreg free
   875   003AA8  C528  F560         	movff	?___fladd,?_analogMap
   876   003AAC  C529  F561         	movff	?___fladd+1,?_analogMap+1
   877   003AB0  C52A  F562         	movff	?___fladd+2,?_analogMap+2
   878   003AB4  C52B  F563         	movff	?___fladd+3,?_analogMap+3
   879   003AB8  0012               	return		;funcret
   880   003ABA                     __end_of_analogMap:
   881                           	callstack 0
   882                           
   883 ;; *************** function ___xxtofl *****************
   884 ;; Defined at:
   885 ;;		line 10 in file "C:\Program Files\Microchip\xc8\v2.40\pic\sources\c99\common\xxtofl.c"
   886 ;; Parameters:    Size  Location     Type
   887 ;;  sign            1    wreg     unsigned char 
   888 ;;  val             4    0[COMRAM] long 
   889 ;; Auto vars:     Size  Location     Type
   890 ;;  sign            1    8[COMRAM] unsigned char 
   891 ;;  arg             4   10[COMRAM] unsigned long 
   892 ;;  exp             1    9[COMRAM] unsigned char 
   893 ;; Return value:  Size  Location     Type
   894 ;;                  4    0[COMRAM] unsigned char 
   895 ;; Registers used:
   896 ;;		wreg, status,2, status,0
   897 ;; Tracked objects:
   898 ;;		On entry : 0/0
   899 ;;		On exit  : 0/0
   900 ;;		Unchanged: 0/0
   901 ;; Data sizes:     COMRAM   BANK5   BANK6   BANK7   BANK8   BANK9  BANK10  BANK11  BANK12  BANK13  BANK14  BANK15  BANK1
      +6  BANK17  BANK18  BANK19  BANK20  BANK21  BANK22  BANK23  BANK24  BANK25  BANK26  BANK27  BANK28  BANK29  BANK30  BANK3
      +1  BANK32  BANK33  BANK34  BANK35  BANK36
   902 ;;      Params:         4       0       0       0       0       0       0       0       0       0       0       0       
      +0       0       0       0       0       0       0       0       0       0       0       0       0       0       0       
      +0       0       0       0       0       0
   903 ;;      Locals:         6       0       0       0       0       0       0       0       0       0       0       0       
      +0       0       0       0       0       0       0       0       0       0       0       0       0       0       0       
      +0       0       0       0       0       0
   904 ;;      Temps:          4       0       0       0       0       0       0       0       0       0       0       0       
      +0       0       0       0       0       0       0       0       0       0       0       0       0       0       0       
      +0       0       0       0       0       0
   905 ;;      Totals:        14       0       0       0       0       0       0       0       0       0       0       0       
      +0       0       0       0       0       0       0       0       0       0       0       0       0       0       0       
      +0       0       0       0       0       0
   906 ;;Total ram usage:       14 bytes
   907 ;; Hardware stack levels used: 1
   908 ;; This function calls:
   909 ;;		Nothing
   910 ;; This function is called by:
   911 ;;		_analogMap
   912 ;; This function uses a non-reentrant model
   913 ;;
   914                           
   915                           	psect	text3
   916   00361A                     __ptext3:
   917                           	callstack 0
   918   00361A                     ___xxtofl:
   919                           	callstack 125
   920                           
   921                           ;incstack = 0
   922                           ;___xxtofl@sign stored from wreg
   923   00361A  6E09               	movwf	___xxtofl@sign^(0+1280),c
   924   00361C  5009               	movf	___xxtofl@sign^(0+1280),w,c
   925   00361E  B4D8               	btfsc	status,2,c
   926   003620  EF14  F01B         	goto	u2441
   927   003624  EF16  F01B         	goto	u2440
   928   003628                     u2441:
   929   003628  EF38  F01B         	goto	l774
   930   00362C                     u2440:
   931   00362C  BE04               	btfsc	(___xxtofl@val+3)^(0+1280),7,c
   932   00362E  EF1D  F01B         	goto	u2450
   933   003632  EF1B  F01B         	goto	u2451
   934   003636                     u2451:
   935   003636  EF38  F01B         	goto	l774
   936   00363A                     u2450:
   937   00363A  C501  F505         	movff	___xxtofl@val,??___xxtofl
   938   00363E  C502  F506         	movff	___xxtofl@val+1,??___xxtofl+1
   939   003642  C503  F507         	movff	___xxtofl@val+2,??___xxtofl+2
   940   003646  C504  F508         	movff	___xxtofl@val+3,??___xxtofl+3
   941   00364A  1E05               	comf	??___xxtofl^(0+1280),f,c
   942   00364C  1E06               	comf	(??___xxtofl+1)^(0+1280),f,c
   943   00364E  1E07               	comf	(??___xxtofl+2)^(0+1280),f,c
   944   003650  1E08               	comf	(??___xxtofl+3)^(0+1280),f,c
   945   003652  2A05               	incf	??___xxtofl^(0+1280),f,c
   946   003654  0E00               	movlw	0
   947   003656  2206               	addwfc	(??___xxtofl+1)^(0+1280),f,c
   948   003658  2207               	addwfc	(??___xxtofl+2)^(0+1280),f,c
   949   00365A  2208               	addwfc	(??___xxtofl+3)^(0+1280),f,c
   950   00365C  C505  F50B         	movff	??___xxtofl,___xxtofl@arg
   951   003660  C506  F50C         	movff	??___xxtofl+1,___xxtofl@arg+1
   952   003664  C507  F50D         	movff	??___xxtofl+2,___xxtofl@arg+2
   953   003668  C508  F50E         	movff	??___xxtofl+3,___xxtofl@arg+3
   954   00366C  EF40  F01B         	goto	l2538
   955   003670                     l774:
   956   003670  C501  F50B         	movff	___xxtofl@val,___xxtofl@arg
   957   003674  C502  F50C         	movff	___xxtofl@val+1,___xxtofl@arg+1
   958   003678  C503  F50D         	movff	___xxtofl@val+2,___xxtofl@arg+2
   959   00367C  C504  F50E         	movff	___xxtofl@val+3,___xxtofl@arg+3
   960   003680                     l2538:
   961   003680  5001               	movf	___xxtofl@val^(0+1280),w,c
   962   003682  1002               	iorwf	(___xxtofl@val+1)^(0+1280),w,c
   963   003684  1003               	iorwf	(___xxtofl@val+2)^(0+1280),w,c
   964   003686  1004               	iorwf	(___xxtofl@val+3)^(0+1280),w,c
   965   003688  A4D8               	btfss	status,2,c
   966   00368A  EF49  F01B         	goto	u2461
   967   00368E  EF4B  F01B         	goto	u2460
   968   003692                     u2461:
   969   003692  EF55  F01B         	goto	l2544
   970   003696                     u2460:
   971   003696  0E00               	movlw	0
   972   003698  6E01               	movwf	?___xxtofl^(0+1280),c
   973   00369A  0E00               	movlw	0
   974   00369C  6E02               	movwf	(?___xxtofl+1)^(0+1280),c
   975   00369E  0E00               	movlw	0
   976   0036A0  6E03               	movwf	(?___xxtofl+2)^(0+1280),c
   977   0036A2  0E00               	movlw	0
   978   0036A4  6E04               	movwf	(?___xxtofl+3)^(0+1280),c
   979   0036A6  EFE6  F01B         	goto	l777
   980   0036AA                     l2544:
   981   0036AA  0E96               	movlw	150
   982   0036AC  6E0A               	movwf	___xxtofl@exp^(0+1280),c
   983   0036AE  EF5F  F01B         	goto	l2548
   984   0036B2                     l2546:
   985   0036B2  2A0A               	incf	___xxtofl@exp^(0+1280),f,c
   986   0036B4  90D8               	bcf	status,0,c
   987   0036B6  320E               	rrcf	(___xxtofl@arg+3)^(0+1280),f,c
   988   0036B8  320D               	rrcf	(___xxtofl@arg+2)^(0+1280),f,c
   989   0036BA  320C               	rrcf	(___xxtofl@arg+1)^(0+1280),f,c
   990   0036BC  320B               	rrcf	___xxtofl@arg^(0+1280),f,c
   991   0036BE                     l2548:
   992   0036BE  0E00               	movlw	0
   993   0036C0  140B               	andwf	___xxtofl@arg^(0+1280),w,c
   994   0036C2  6E05               	movwf	??___xxtofl^(0+1280),c
   995   0036C4  0E00               	movlw	0
   996   0036C6  140C               	andwf	(___xxtofl@arg+1)^(0+1280),w,c
   997   0036C8  6E06               	movwf	(??___xxtofl+1)^(0+1280),c
   998   0036CA  0E00               	movlw	0
   999   0036CC  140D               	andwf	(___xxtofl@arg+2)^(0+1280),w,c
  1000   0036CE  6E07               	movwf	(??___xxtofl+2)^(0+1280),c
  1001   0036D0  0EFE               	movlw	254
  1002   0036D2  140E               	andwf	(___xxtofl@arg+3)^(0+1280),w,c
  1003   0036D4  6E08               	movwf	(??___xxtofl+3)^(0+1280),c
  1004   0036D6  5005               	movf	??___xxtofl^(0+1280),w,c
  1005   0036D8  1006               	iorwf	(??___xxtofl+1)^(0+1280),w,c
  1006   0036DA  1007               	iorwf	(??___xxtofl+2)^(0+1280),w,c
  1007   0036DC  1008               	iorwf	(??___xxtofl+3)^(0+1280),w,c
  1008   0036DE  A4D8               	btfss	status,2,c
  1009   0036E0  EF74  F01B         	goto	u2471
  1010   0036E4  EF76  F01B         	goto	u2470
  1011   0036E8                     u2471:
  1012   0036E8  EF59  F01B         	goto	l2546
  1013   0036EC                     u2470:
  1014   0036EC  EF84  F01B         	goto	l781
  1015   0036F0                     l2550:
  1016   0036F0  2A0A               	incf	___xxtofl@exp^(0+1280),f,c
  1017   0036F2  0E01               	movlw	1
  1018   0036F4  260B               	addwf	___xxtofl@arg^(0+1280),f,c
  1019   0036F6  0E00               	movlw	0
  1020   0036F8  220C               	addwfc	(___xxtofl@arg+1)^(0+1280),f,c
  1021   0036FA  220D               	addwfc	(___xxtofl@arg+2)^(0+1280),f,c
  1022   0036FC  220E               	addwfc	(___xxtofl@arg+3)^(0+1280),f,c
  1023   0036FE  90D8               	bcf	status,0,c
  1024   003700  320E               	rrcf	(___xxtofl@arg+3)^(0+1280),f,c
  1025   003702  320D               	rrcf	(___xxtofl@arg+2)^(0+1280),f,c
  1026   003704  320C               	rrcf	(___xxtofl@arg+1)^(0+1280),f,c
  1027   003706  320B               	rrcf	___xxtofl@arg^(0+1280),f,c
  1028   003708                     l781:
  1029   003708  0E00               	movlw	0
  1030   00370A  140B               	andwf	___xxtofl@arg^(0+1280),w,c
  1031   00370C  6E05               	movwf	??___xxtofl^(0+1280),c
  1032   00370E  0E00               	movlw	0
  1033   003710  140C               	andwf	(___xxtofl@arg+1)^(0+1280),w,c
  1034   003712  6E06               	movwf	(??___xxtofl+1)^(0+1280),c
  1035   003714  0E00               	movlw	0
  1036   003716  140D               	andwf	(___xxtofl@arg+2)^(0+1280),w,c
  1037   003718  6E07               	movwf	(??___xxtofl+2)^(0+1280),c
  1038   00371A  0EFF               	movlw	255
  1039   00371C  140E               	andwf	(___xxtofl@arg+3)^(0+1280),w,c
  1040   00371E  6E08               	movwf	(??___xxtofl+3)^(0+1280),c
  1041   003720  5005               	movf	??___xxtofl^(0+1280),w,c
  1042   003722  1006               	iorwf	(??___xxtofl+1)^(0+1280),w,c
  1043   003724  1007               	iorwf	(??___xxtofl+2)^(0+1280),w,c
  1044   003726  1008               	iorwf	(??___xxtofl+3)^(0+1280),w,c
  1045   003728  A4D8               	btfss	status,2,c
  1046   00372A  EF99  F01B         	goto	u2481
  1047   00372E  EF9B  F01B         	goto	u2480
  1048   003732                     u2481:
  1049   003732  EF78  F01B         	goto	l2550
  1050   003736                     u2480:
  1051   003736  EFA3  F01B         	goto	l2558
  1052   00373A                     l2556:
  1053   00373A  060A               	decf	___xxtofl@exp^(0+1280),f,c
  1054   00373C  90D8               	bcf	status,0,c
  1055   00373E  360B               	rlcf	___xxtofl@arg^(0+1280),f,c
  1056   003740  360C               	rlcf	(___xxtofl@arg+1)^(0+1280),f,c
  1057   003742  360D               	rlcf	(___xxtofl@arg+2)^(0+1280),f,c
  1058   003744  360E               	rlcf	(___xxtofl@arg+3)^(0+1280),f,c
  1059   003746                     l2558:
  1060   003746  BE0D               	btfsc	(___xxtofl@arg+2)^(0+1280),7,c
  1061   003748  EFA8  F01B         	goto	u2491
  1062   00374C  EFAA  F01B         	goto	u2490
  1063   003750                     u2491:
  1064   003750  EFB2  F01B         	goto	l788
  1065   003754                     u2490:
  1066   003754  0E02               	movlw	2
  1067   003756  600A               	cpfslt	___xxtofl@exp^(0+1280),c
  1068   003758  EFB0  F01B         	goto	u2501
  1069   00375C  EFB2  F01B         	goto	u2500
  1070   003760                     u2501:
  1071   003760  EF9D  F01B         	goto	l2556
  1072   003764                     u2500:
  1073   003764                     l788:
  1074   003764  B00A               	btfsc	___xxtofl@exp^(0+1280),0,c
  1075   003766  EFB7  F01B         	goto	u2511
  1076   00376A  EFB9  F01B         	goto	u2510
  1077   00376E                     u2511:
  1078   00376E  EFBA  F01B         	goto	l2564
  1079   003772                     u2510:
  1080   003772  9E0D               	bcf	(___xxtofl@arg+2)^(0+1280),7,c
  1081   003774                     l2564:
  1082   003774  90D8               	bcf	status,0,c
  1083   003776  320A               	rrcf	___xxtofl@exp^(0+1280),f,c
  1084   003778  C50A  F505         	movff	___xxtofl@exp,??___xxtofl
  1085   00377C  6A06               	clrf	(??___xxtofl+1)^(0+1280),c
  1086   00377E  6A07               	clrf	(??___xxtofl+2)^(0+1280),c
  1087   003780  6A08               	clrf	(??___xxtofl+3)^(0+1280),c
  1088   003782  C505  F508         	movff	??___xxtofl,??___xxtofl+3
  1089   003786  6A07               	clrf	(??___xxtofl+2)^(0+1280),c
  1090   003788  6A06               	clrf	(??___xxtofl+1)^(0+1280),c
  1091   00378A  6A05               	clrf	??___xxtofl^(0+1280),c
  1092   00378C  5005               	movf	??___xxtofl^(0+1280),w,c
  1093   00378E  120B               	iorwf	___xxtofl@arg^(0+1280),f,c
  1094   003790  5006               	movf	(??___xxtofl+1)^(0+1280),w,c
  1095   003792  120C               	iorwf	(___xxtofl@arg+1)^(0+1280),f,c
  1096   003794  5007               	movf	(??___xxtofl+2)^(0+1280),w,c
  1097   003796  120D               	iorwf	(___xxtofl@arg+2)^(0+1280),f,c
  1098   003798  5008               	movf	(??___xxtofl+3)^(0+1280),w,c
  1099   00379A  120E               	iorwf	(___xxtofl@arg+3)^(0+1280),f,c
  1100   00379C  5009               	movf	___xxtofl@sign^(0+1280),w,c
  1101   00379E  B4D8               	btfsc	status,2,c
  1102   0037A0  EFD4  F01B         	goto	u2521
  1103   0037A4  EFD6  F01B         	goto	u2520
  1104   0037A8                     u2521:
  1105   0037A8  EFDE  F01B         	goto	l2574
  1106   0037AC                     u2520:
  1107   0037AC  BE04               	btfsc	(___xxtofl@val+3)^(0+1280),7,c
  1108   0037AE  EFDD  F01B         	goto	u2530
  1109   0037B2  EFDB  F01B         	goto	u2531
  1110   0037B6                     u2531:
  1111   0037B6  EFDE  F01B         	goto	l2574
  1112   0037BA                     u2530:
  1113   0037BA  8E0E               	bsf	(___xxtofl@arg+3)^(0+1280),7,c
  1114   0037BC                     l2574:
  1115   0037BC  C50B  F501         	movff	___xxtofl@arg,?___xxtofl
  1116   0037C0  C50C  F502         	movff	___xxtofl@arg+1,?___xxtofl+1
  1117   0037C4  C50D  F503         	movff	___xxtofl@arg+2,?___xxtofl+2
  1118   0037C8  C50E  F504         	movff	___xxtofl@arg+3,?___xxtofl+3
  1119   0037CC                     l777:
  1120   0037CC  0012               	return		;funcret
  1121   0037CE                     __end_of___xxtofl:
  1122                           	callstack 0
  1123                           
  1124 ;; *************** function ___flsub *****************
  1125 ;; Defined at:
  1126 ;;		line 245 in file "C:\Program Files\Microchip\xc8\v2.40\pic\sources\c99\common\sprcadd.c"
  1127 ;; Parameters:    Size  Location     Type
  1128 ;;  b               4   55[COMRAM] unsigned char 
  1129 ;;  a               4   59[COMRAM] unsigned char 
  1130 ;; Auto vars:     Size  Location     Type
  1131 ;;		None
  1132 ;; Return value:  Size  Location     Type
  1133 ;;                  4   55[COMRAM] unsigned char 
  1134 ;; Registers used:
  1135 ;;		wreg, status,2, status,0, cstack
  1136 ;; Tracked objects:
  1137 ;;		On entry : 0/0
  1138 ;;		On exit  : 0/0
  1139 ;;		Unchanged: 0/0
  1140 ;; Data sizes:     COMRAM   BANK5   BANK6   BANK7   BANK8   BANK9  BANK10  BANK11  BANK12  BANK13  BANK14  BANK15  BANK1
      +6  BANK17  BANK18  BANK19  BANK20  BANK21  BANK22  BANK23  BANK24  BANK25  BANK26  BANK27  BANK28  BANK29  BANK30  BANK3
      +1  BANK32  BANK33  BANK34  BANK35  BANK36
  1141 ;;      Params:         8       0       0       0       0       0       0       0       0       0       0       0       
      +0       0       0       0       0       0       0       0       0       0       0       0       0       0       0       
      +0       0       0       0       0       0
  1142 ;;      Locals:         0       0       0       0       0       0       0       0       0       0       0       0       
      +0       0       0       0       0       0       0       0       0       0       0       0       0       0       0       
      +0       0       0       0       0       0
  1143 ;;      Temps:          0       0       0       0       0       0       0       0       0       0       0       0       
      +0       0       0       0       0       0       0       0       0       0       0       0       0       0       0       
      +0       0       0       0       0       0
  1144 ;;      Totals:         8       0       0       0       0       0       0       0       0       0       0       0       
      +0       0       0       0       0       0       0       0       0       0       0       0       0       0       0       
      +0       0       0       0       0       0
  1145 ;;Total ram usage:        8 bytes
  1146 ;; Hardware stack levels used: 1
  1147 ;; Hardware stack levels required when called: 1
  1148 ;; This function calls:
  1149 ;;		___fladd
  1150 ;; This function is called by:
  1151 ;;		_analogMap
  1152 ;; This function uses a non-reentrant model
  1153 ;;
  1154                           
  1155                           	psect	text4
  1156   003FE8                     __ptext4:
  1157                           	callstack 0
  1158   003FE8                     ___flsub:
  1159                           	callstack 124
  1160   003FE8  0E00               	movlw	0
  1161   003FEA  1A3C               	xorwf	___flsub@a^(0+1280),f,c
  1162   003FEC  0E00               	movlw	0
  1163   003FEE  1A3D               	xorwf	(___flsub@a+1)^(0+1280),f,c
  1164   003FF0  0E00               	movlw	0
  1165   003FF2  1A3E               	xorwf	(___flsub@a+2)^(0+1280),f,c
  1166   003FF4  0E80               	movlw	128
  1167   003FF6  1A3F               	xorwf	(___flsub@a+3)^(0+1280),f,c
  1168   003FF8  C538  F528         	movff	___flsub@b,___fladd@b
  1169   003FFC  C539  F529         	movff	___flsub@b+1,___fladd@b+1
  1170   004000  C53A  F52A         	movff	___flsub@b+2,___fladd@b+2
  1171   004004  C53B  F52B         	movff	___flsub@b+3,___fladd@b+3
  1172   004008  C53C  F52C         	movff	___flsub@a,___fladd@a
  1173   00400C  C53D  F52D         	movff	___flsub@a+1,___fladd@a+1
  1174   004010  C53E  F52E         	movff	___flsub@a+2,___fladd@a+2
  1175   004014  C53F  F52F         	movff	___flsub@a+3,___fladd@a+3
  1176   004018  EC0C  F013         	call	___fladd	;wreg free
  1177   00401C  C528  F538         	movff	?___fladd,?___flsub
  1178   004020  C529  F539         	movff	?___fladd+1,?___flsub+1
  1179   004024  C52A  F53A         	movff	?___fladd+2,?___flsub+2
  1180   004028  C52B  F53B         	movff	?___fladd+3,?___flsub+3
  1181   00402C  0012               	return		;funcret
  1182   00402E                     __end_of___flsub:
  1183                           	callstack 0
  1184                           
  1185 ;; *************** function ___fladd *****************
  1186 ;; Defined at:
  1187 ;;		line 10 in file "C:\Program Files\Microchip\xc8\v2.40\pic\sources\c99\common\sprcadd.c"
  1188 ;; Parameters:    Size  Location     Type
  1189 ;;  b               4   39[COMRAM] unsigned char 
  1190 ;;  a               4   43[COMRAM] unsigned char 
  1191 ;; Auto vars:     Size  Location     Type
  1192 ;;  grs             1   54[COMRAM] unsigned char 
  1193 ;;  bexp            1   53[COMRAM] unsigned char 
  1194 ;;  aexp            1   52[COMRAM] unsigned char 
  1195 ;;  signs           1   51[COMRAM] unsigned char 
  1196 ;; Return value:  Size  Location     Type
  1197 ;;                  4   39[COMRAM] unsigned char 
  1198 ;; Registers used:
  1199 ;;		wreg, status,2, status,0
  1200 ;; Tracked objects:
  1201 ;;		On entry : 0/0
  1202 ;;		On exit  : 0/0
  1203 ;;		Unchanged: 0/0
  1204 ;; Data sizes:     COMRAM   BANK5   BANK6   BANK7   BANK8   BANK9  BANK10  BANK11  BANK12  BANK13  BANK14  BANK15  BANK1
      +6  BANK17  BANK18  BANK19  BANK20  BANK21  BANK22  BANK23  BANK24  BANK25  BANK26  BANK27  BANK28  BANK29  BANK30  BANK3
      +1  BANK32  BANK33  BANK34  BANK35  BANK36
  1205 ;;      Params:         8       0       0       0       0       0       0       0       0       0       0       0       
      +0       0       0       0       0       0       0       0       0       0       0       0       0       0       0       
      +0       0       0       0       0       0
  1206 ;;      Locals:         4       0       0       0       0       0       0       0       0       0       0       0       
      +0       0       0       0       0       0       0       0       0       0       0       0       0       0       0       
      +0       0       0       0       0       0
  1207 ;;      Temps:          4       0       0       0       0       0       0       0       0       0       0       0       
      +0       0       0       0       0       0       0       0       0       0       0       0       0       0       0       
      +0       0       0       0       0       0
  1208 ;;      Totals:        16       0       0       0       0       0       0       0       0       0       0       0       
      +0       0       0       0       0       0       0       0       0       0       0       0       0       0       0       
      +0       0       0       0       0       0
  1209 ;;Total ram usage:       16 bytes
  1210 ;; Hardware stack levels used: 1
  1211 ;; This function calls:
  1212 ;;		Nothing
  1213 ;; This function is called by:
  1214 ;;		_analogMap
  1215 ;;		___flsub
  1216 ;; This function uses a non-reentrant model
  1217 ;;
  1218                           
  1219                           	psect	text5
  1220   002618                     __ptext5:
  1221                           	callstack 0
  1222   002618                     ___fladd:
  1223                           	callstack 124
  1224   002618  502B               	movf	(___fladd@b+3)^(0+1280),w,c
  1225   00261A  0B80               	andlw	128
  1226   00261C  6E34               	movwf	___fladd@signs^(0+1280),c
  1227   00261E  502B               	movf	(___fladd@b+3)^(0+1280),w,c
  1228   002620  242B               	addwf	(___fladd@b+3)^(0+1280),w,c
  1229   002622  6E36               	movwf	___fladd@bexp^(0+1280),c
  1230   002624  AE2A               	btfss	(___fladd@b+2)^(0+1280),7,c
  1231   002626  EF17  F013         	goto	u1351
  1232   00262A  EF19  F013         	goto	u1350
  1233   00262E                     u1351:
  1234   00262E  EF1A  F013         	goto	l1826
  1235   002632                     u1350:
  1236   002632  8036               	bsf	___fladd@bexp^(0+1280),0,c
  1237   002634                     l1826:
  1238   002634  5036               	movf	___fladd@bexp^(0+1280),w,c
  1239   002636  B4D8               	btfsc	status,2,c
  1240   002638  EF20  F013         	goto	u1361
  1241   00263C  EF22  F013         	goto	u1360
  1242   002640                     u1361:
  1243   002640  EF37  F013         	goto	l1836
  1244   002644                     u1360:
  1245   002644  2836               	incf	___fladd@bexp^(0+1280),w,c
  1246   002646  A4D8               	btfss	status,2,c
  1247   002648  EF28  F013         	goto	u1371
  1248   00264C  EF2A  F013         	goto	u1370
  1249   002650                     u1371:
  1250   002650  EF32  F013         	goto	l1832
  1251   002654                     u1370:
  1252   002654  0E00               	movlw	0
  1253   002656  6E28               	movwf	___fladd@b^(0+1280),c
  1254   002658  0E00               	movlw	0
  1255   00265A  6E29               	movwf	(___fladd@b+1)^(0+1280),c
  1256   00265C  0E00               	movlw	0
  1257   00265E  6E2A               	movwf	(___fladd@b+2)^(0+1280),c
  1258   002660  0E00               	movlw	0
  1259   002662  6E2B               	movwf	(___fladd@b+3)^(0+1280),c
  1260   002664                     l1832:
  1261   002664  8E2A               	bsf	(___fladd@b+2)^(0+1280),7,c
  1262   002666  0E00               	movlw	0
  1263   002668  6E2B               	movwf	(___fladd@b+3)^(0+1280),c
  1264   00266A  EF3F  F013         	goto	l1838
  1265   00266E                     l1836:
  1266   00266E  0E00               	movlw	0
  1267   002670  6E28               	movwf	___fladd@b^(0+1280),c
  1268   002672  0E00               	movlw	0
  1269   002674  6E29               	movwf	(___fladd@b+1)^(0+1280),c
  1270   002676  0E00               	movlw	0
  1271   002678  6E2A               	movwf	(___fladd@b+2)^(0+1280),c
  1272   00267A  0E00               	movlw	0
  1273   00267C  6E2B               	movwf	(___fladd@b+3)^(0+1280),c
  1274   00267E                     l1838:
  1275   00267E  502F               	movf	(___fladd@a+3)^(0+1280),w,c
  1276   002680  0B80               	andlw	128
  1277   002682  6E35               	movwf	___fladd@aexp^(0+1280),c
  1278   002684  5034               	movf	___fladd@signs^(0+1280),w,c
  1279   002686  1835               	xorwf	___fladd@aexp^(0+1280),w,c
  1280   002688  B4D8               	btfsc	status,2,c
  1281   00268A  EF49  F013         	goto	u1381
  1282   00268E  EF4B  F013         	goto	u1380
  1283   002692                     u1381:
  1284   002692  EF4C  F013         	goto	l1844
  1285   002696                     u1380:
  1286   002696  8C34               	bsf	___fladd@signs^(0+1280),6,c
  1287   002698                     l1844:
  1288   002698  502F               	movf	(___fladd@a+3)^(0+1280),w,c
  1289   00269A  242F               	addwf	(___fladd@a+3)^(0+1280),w,c
  1290   00269C  6E35               	movwf	___fladd@aexp^(0+1280),c
  1291   00269E  AE2E               	btfss	(___fladd@a+2)^(0+1280),7,c
  1292   0026A0  EF54  F013         	goto	u1391
  1293   0026A4  EF56  F013         	goto	u1390
  1294   0026A8                     u1391:
  1295   0026A8  EF57  F013         	goto	l1850
  1296   0026AC                     u1390:
  1297   0026AC  8035               	bsf	___fladd@aexp^(0+1280),0,c
  1298   0026AE                     l1850:
  1299   0026AE  5035               	movf	___fladd@aexp^(0+1280),w,c
  1300   0026B0  B4D8               	btfsc	status,2,c
  1301   0026B2  EF5D  F013         	goto	u1401
  1302   0026B6  EF5F  F013         	goto	u1400
  1303   0026BA                     u1401:
  1304   0026BA  EF74  F013         	goto	l1860
  1305   0026BE                     u1400:
  1306   0026BE  2835               	incf	___fladd@aexp^(0+1280),w,c
  1307   0026C0  A4D8               	btfss	status,2,c
  1308   0026C2  EF65  F013         	goto	u1411
  1309   0026C6  EF67  F013         	goto	u1410
  1310   0026CA                     u1411:
  1311   0026CA  EF6F  F013         	goto	l1856
  1312   0026CE                     u1410:
  1313   0026CE  0E00               	movlw	0
  1314   0026D0  6E2C               	movwf	___fladd@a^(0+1280),c
  1315   0026D2  0E00               	movlw	0
  1316   0026D4  6E2D               	movwf	(___fladd@a+1)^(0+1280),c
  1317   0026D6  0E00               	movlw	0
  1318   0026D8  6E2E               	movwf	(___fladd@a+2)^(0+1280),c
  1319   0026DA  0E00               	movlw	0
  1320   0026DC  6E2F               	movwf	(___fladd@a+3)^(0+1280),c
  1321   0026DE                     l1856:
  1322   0026DE  8E2E               	bsf	(___fladd@a+2)^(0+1280),7,c
  1323   0026E0  0E00               	movlw	0
  1324   0026E2  6E2F               	movwf	(___fladd@a+3)^(0+1280),c
  1325   0026E4  EF7C  F013         	goto	l1862
  1326   0026E8                     l1860:
  1327   0026E8  0E00               	movlw	0
  1328   0026EA  6E2C               	movwf	___fladd@a^(0+1280),c
  1329   0026EC  0E00               	movlw	0
  1330   0026EE  6E2D               	movwf	(___fladd@a+1)^(0+1280),c
  1331   0026F0  0E00               	movlw	0
  1332   0026F2  6E2E               	movwf	(___fladd@a+2)^(0+1280),c
  1333   0026F4  0E00               	movlw	0
  1334   0026F6  6E2F               	movwf	(___fladd@a+3)^(0+1280),c
  1335   0026F8                     l1862:
  1336   0026F8  5036               	movf	___fladd@bexp^(0+1280),w,c
  1337   0026FA  5C35               	subwf	___fladd@aexp^(0+1280),w,c
  1338   0026FC  B0D8               	btfsc	status,0,c
  1339   0026FE  EF83  F013         	goto	u1421
  1340   002702  EF85  F013         	goto	u1420
  1341   002706                     u1421:
  1342   002706  EFAC  F013         	goto	l1898
  1343   00270A                     u1420:
  1344   00270A  AC34               	btfss	___fladd@signs^(0+1280),6,c
  1345   00270C  EF8A  F013         	goto	u1431
  1346   002710  EF8C  F013         	goto	u1430
  1347   002714                     u1431:
  1348   002714  EF8E  F013         	goto	l1868
  1349   002718                     u1430:
  1350   002718  0E80               	movlw	128
  1351   00271A  1A34               	xorwf	___fladd@signs^(0+1280),f,c
  1352   00271C                     l1868:
  1353   00271C  C536  F537         	movff	___fladd@bexp,___fladd@grs
  1354   002720  C535  F536         	movff	___fladd@aexp,___fladd@bexp
  1355   002724  C537  F535         	movff	___fladd@grs,___fladd@aexp
  1356   002728  C528  F537         	movff	___fladd@b,___fladd@grs
  1357   00272C  C52C  F528         	movff	___fladd@a,___fladd@b
  1358   002730  C537  F52C         	movff	___fladd@grs,___fladd@a
  1359   002734  C529  F537         	movff	___fladd@b+1,___fladd@grs
  1360   002738  C52D  F529         	movff	___fladd@a+1,___fladd@b+1
  1361   00273C  C537  F52D         	movff	___fladd@grs,___fladd@a+1
  1362   002740  C52A  F537         	movff	___fladd@b+2,___fladd@grs
  1363   002744  C52E  F52A         	movff	___fladd@a+2,___fladd@b+2
  1364   002748  C537  F52E         	movff	___fladd@grs,___fladd@a+2
  1365   00274C  C52B  F537         	movff	___fladd@b+3,___fladd@grs
  1366   002750  C52F  F52B         	movff	___fladd@a+3,___fladd@b+3
  1367   002754  C537  F52F         	movff	___fladd@grs,___fladd@a+3
  1368   002758                     l1898:
  1369   002758  0E00               	movlw	0
  1370   00275A  6E37               	movwf	___fladd@grs^(0+1280),c
  1371   00275C  5036               	movf	___fladd@bexp^(0+1280),w,c
  1372   00275E  C535  F530         	movff	___fladd@aexp,??___fladd
  1373   002762  6A31               	clrf	(??___fladd+1)^(0+1280),c
  1374   002764  5E30               	subwf	??___fladd^(0+1280),f,c
  1375   002766  0E00               	movlw	0
  1376   002768  5A31               	subwfb	(??___fladd+1)^(0+1280),f,c
  1377   00276A  BE31               	btfsc	(??___fladd+1)^(0+1280),7,c
  1378   00276C  EFC1  F013         	goto	u1441
  1379   002770  5031               	movf	(??___fladd+1)^(0+1280),w,c
  1380   002772  E109               	bnz	u1440
  1381   002774  0E1A               	movlw	26
  1382   002776  5C30               	subwf	??___fladd^(0+1280),w,c
  1383   002778  A0D8               	btfss	status,0,c
  1384   00277A  EFC1  F013         	goto	u1441
  1385   00277E  EFC3  F013         	goto	u1440
  1386   002782                     u1441:
  1387   002782  EFFA  F013         	goto	l648
  1388   002786                     u1440:
  1389   002786  5028               	movf	___fladd@b^(0+1280),w,c
  1390   002788  1029               	iorwf	(___fladd@b+1)^(0+1280),w,c
  1391   00278A  102A               	iorwf	(___fladd@b+2)^(0+1280),w,c
  1392   00278C  102B               	iorwf	(___fladd@b+3)^(0+1280),w,c
  1393   00278E  A4D8               	btfss	status,2,c
  1394   002790  EFCC  F013         	goto	u1451
  1395   002794  EFCF  F013         	goto	u1450
  1396   002798                     u1451:
  1397   002798  0E01               	movlw	1
  1398   00279A  EFD0  F013         	goto	u1460
  1399   00279E                     u1450:
  1400   00279E  0E00               	movlw	0
  1401   0027A0                     u1460:
  1402   0027A0  6E37               	movwf	___fladd@grs^(0+1280),c
  1403   0027A2  0E00               	movlw	0
  1404   0027A4  6E28               	movwf	___fladd@b^(0+1280),c
  1405   0027A6  0E00               	movlw	0
  1406   0027A8  6E29               	movwf	(___fladd@b+1)^(0+1280),c
  1407   0027AA  0E00               	movlw	0
  1408   0027AC  6E2A               	movwf	(___fladd@b+2)^(0+1280),c
  1409   0027AE  0E00               	movlw	0
  1410   0027B0  6E2B               	movwf	(___fladd@b+3)^(0+1280),c
  1411   0027B2  C535  F536         	movff	___fladd@aexp,___fladd@bexp
  1412   0027B6  EF03  F014         	goto	l647
  1413   0027BA                     l649:
  1414   0027BA  A037               	btfss	___fladd@grs^(0+1280),0,c
  1415   0027BC  EFE2  F013         	goto	u1471
  1416   0027C0  EFE4  F013         	goto	u1470
  1417   0027C4                     u1471:
  1418   0027C4  EFEA  F013         	goto	l1910
  1419   0027C8                     u1470:
  1420   0027C8  90D8               	bcf	status,0,c
  1421   0027CA  3037               	rrcf	___fladd@grs^(0+1280),w,c
  1422   0027CC  0901               	iorlw	1
  1423   0027CE  6E37               	movwf	___fladd@grs^(0+1280),c
  1424   0027D0  EFEC  F013         	goto	l1912
  1425   0027D4                     l1910:
  1426   0027D4  90D8               	bcf	status,0,c
  1427   0027D6  3237               	rrcf	___fladd@grs^(0+1280),f,c
  1428   0027D8                     l1912:
  1429   0027D8  A028               	btfss	___fladd@b^(0+1280),0,c
  1430   0027DA  EFF1  F013         	goto	u1481
  1431   0027DE  EFF3  F013         	goto	u1480
  1432   0027E2                     u1481:
  1433   0027E2  EFF4  F013         	goto	l1916
  1434   0027E6                     u1480:
  1435   0027E6  8E37               	bsf	___fladd@grs^(0+1280),7,c
  1436   0027E8                     l1916:
  1437   0027E8  342B               	rlcf	(___fladd@b+3)^(0+1280),w,c
  1438   0027EA  322B               	rrcf	(___fladd@b+3)^(0+1280),f,c
  1439   0027EC  322A               	rrcf	(___fladd@b+2)^(0+1280),f,c
  1440   0027EE  3229               	rrcf	(___fladd@b+1)^(0+1280),f,c
  1441   0027F0  3228               	rrcf	___fladd@b^(0+1280),f,c
  1442   0027F2  2A36               	incf	___fladd@bexp^(0+1280),f,c
  1443   0027F4                     l648:
  1444   0027F4  5035               	movf	___fladd@aexp^(0+1280),w,c
  1445   0027F6  5C36               	subwf	___fladd@bexp^(0+1280),w,c
  1446   0027F8  A0D8               	btfss	status,0,c
  1447   0027FA  EF01  F014         	goto	u1491
  1448   0027FE  EF03  F014         	goto	u1490
  1449   002802                     u1491:
  1450   002802  EFDD  F013         	goto	l649
  1451   002806                     u1490:
  1452   002806                     l647:
  1453   002806  BC34               	btfsc	___fladd@signs^(0+1280),6,c
  1454   002808  EF08  F014         	goto	u1501
  1455   00280C  EF0A  F014         	goto	u1500
  1456   002810                     u1501:
  1457   002810  EF4A  F014         	goto	l1944
  1458   002814                     u1500:
  1459   002814  5036               	movf	___fladd@bexp^(0+1280),w,c
  1460   002816  A4D8               	btfss	status,2,c
  1461   002818  EF10  F014         	goto	u1511
  1462   00281C  EF12  F014         	goto	u1510
  1463   002820                     u1511:
  1464   002820  EF1C  F014         	goto	l1926
  1465   002824                     u1510:
  1466   002824  0E00               	movlw	0
  1467   002826  6E28               	movwf	?___fladd^(0+1280),c
  1468   002828  0E00               	movlw	0
  1469   00282A  6E29               	movwf	(?___fladd+1)^(0+1280),c
  1470   00282C  0E00               	movlw	0
  1471   00282E  6E2A               	movwf	(?___fladd+2)^(0+1280),c
  1472   002830  0E00               	movlw	0
  1473   002832  6E2B               	movwf	(?___fladd+3)^(0+1280),c
  1474   002834  EF6B  F015         	goto	l656
  1475   002838                     l1926:
  1476   002838  502C               	movf	___fladd@a^(0+1280),w,c
  1477   00283A  2628               	addwf	___fladd@b^(0+1280),f,c
  1478   00283C  502D               	movf	(___fladd@a+1)^(0+1280),w,c
  1479   00283E  2229               	addwfc	(___fladd@b+1)^(0+1280),f,c
  1480   002840  502E               	movf	(___fladd@a+2)^(0+1280),w,c
  1481   002842  222A               	addwfc	(___fladd@b+2)^(0+1280),f,c
  1482   002844  502F               	movf	(___fladd@a+3)^(0+1280),w,c
  1483   002846  222B               	addwfc	(___fladd@b+3)^(0+1280),f,c
  1484   002848  A02B               	btfss	(___fladd@b+3)^(0+1280),0,c
  1485   00284A  EF29  F014         	goto	u1521
  1486   00284E  EF2B  F014         	goto	u1520
  1487   002852                     u1521:
  1488   002852  EFD7  F014         	goto	l1980
  1489   002856                     u1520:
  1490   002856  A037               	btfss	___fladd@grs^(0+1280),0,c
  1491   002858  EF30  F014         	goto	u1531
  1492   00285C  EF32  F014         	goto	u1530
  1493   002860                     u1531:
  1494   002860  EF38  F014         	goto	l1934
  1495   002864                     u1530:
  1496   002864  90D8               	bcf	status,0,c
  1497   002866  3037               	rrcf	___fladd@grs^(0+1280),w,c
  1498   002868  0901               	iorlw	1
  1499   00286A  6E37               	movwf	___fladd@grs^(0+1280),c
  1500   00286C  EF3A  F014         	goto	l1936
  1501   002870                     l1934:
  1502   002870  90D8               	bcf	status,0,c
  1503   002872  3237               	rrcf	___fladd@grs^(0+1280),f,c
  1504   002874                     l1936:
  1505   002874  A028               	btfss	___fladd@b^(0+1280),0,c
  1506   002876  EF3F  F014         	goto	u1541
  1507   00287A  EF41  F014         	goto	u1540
  1508   00287E                     u1541:
  1509   00287E  EF42  F014         	goto	l1940
  1510   002882                     u1540:
  1511   002882  8E37               	bsf	___fladd@grs^(0+1280),7,c
  1512   002884                     l1940:
  1513   002884  342B               	rlcf	(___fladd@b+3)^(0+1280),w,c
  1514   002886  322B               	rrcf	(___fladd@b+3)^(0+1280),f,c
  1515   002888  322A               	rrcf	(___fladd@b+2)^(0+1280),f,c
  1516   00288A  3229               	rrcf	(___fladd@b+1)^(0+1280),f,c
  1517   00288C  3228               	rrcf	___fladd@b^(0+1280),f,c
  1518   00288E  2A36               	incf	___fladd@bexp^(0+1280),f,c
  1519   002890  EFD7  F014         	goto	l1980
  1520   002894                     l1944:
  1521   002894  502C               	movf	___fladd@a^(0+1280),w,c
  1522   002896  5C28               	subwf	___fladd@b^(0+1280),w,c
  1523   002898  502D               	movf	(___fladd@a+1)^(0+1280),w,c
  1524   00289A  5829               	subwfb	(___fladd@b+1)^(0+1280),w,c
  1525   00289C  502E               	movf	(___fladd@a+2)^(0+1280),w,c
  1526   00289E  582A               	subwfb	(___fladd@b+2)^(0+1280),w,c
  1527   0028A0  502B               	movf	(___fladd@b+3)^(0+1280),w,c
  1528   0028A2  0A80               	xorlw	128
  1529   0028A4  6E30               	movwf	??___fladd^(0+1280),c
  1530   0028A6  502F               	movf	(___fladd@a+3)^(0+1280),w,c
  1531   0028A8  0A80               	xorlw	128
  1532   0028AA  5830               	subwfb	??___fladd^(0+1280),w,c
  1533   0028AC  B0D8               	btfsc	status,0,c
  1534   0028AE  EF5B  F014         	goto	u1551
  1535   0028B2  EF5D  F014         	goto	u1550
  1536   0028B6                     u1551:
  1537   0028B6  EF88  F014         	goto	l1954
  1538   0028BA                     u1550:
  1539   0028BA  5028               	movf	___fladd@b^(0+1280),w,c
  1540   0028BC  5C2C               	subwf	___fladd@a^(0+1280),w,c
  1541   0028BE  6E30               	movwf	??___fladd^(0+1280),c
  1542   0028C0  5029               	movf	(___fladd@b+1)^(0+1280),w,c
  1543   0028C2  582D               	subwfb	(___fladd@a+1)^(0+1280),w,c
  1544   0028C4  6E31               	movwf	(??___fladd+1)^(0+1280),c
  1545   0028C6  502A               	movf	(___fladd@b+2)^(0+1280),w,c
  1546   0028C8  582E               	subwfb	(___fladd@a+2)^(0+1280),w,c
  1547   0028CA  6E32               	movwf	(??___fladd+2)^(0+1280),c
  1548   0028CC  502B               	movf	(___fladd@b+3)^(0+1280),w,c
  1549   0028CE  582F               	subwfb	(___fladd@a+3)^(0+1280),w,c
  1550   0028D0  6E33               	movwf	(??___fladd+3)^(0+1280),c
  1551   0028D2  0EFF               	movlw	255
  1552   0028D4  2430               	addwf	??___fladd^(0+1280),w,c
  1553   0028D6  6E28               	movwf	___fladd@b^(0+1280),c
  1554   0028D8  0EFF               	movlw	255
  1555   0028DA  2031               	addwfc	(??___fladd+1)^(0+1280),w,c
  1556   0028DC  6E29               	movwf	(___fladd@b+1)^(0+1280),c
  1557   0028DE  0EFF               	movlw	255
  1558   0028E0  2032               	addwfc	(??___fladd+2)^(0+1280),w,c
  1559   0028E2  6E2A               	movwf	(___fladd@b+2)^(0+1280),c
  1560   0028E4  0EFF               	movlw	255
  1561   0028E6  2033               	addwfc	(??___fladd+3)^(0+1280),w,c
  1562   0028E8  6E2B               	movwf	(___fladd@b+3)^(0+1280),c
  1563   0028EA  0E80               	movlw	128
  1564   0028EC  1A34               	xorwf	___fladd@signs^(0+1280),f,c
  1565   0028EE  6C37               	negf	___fladd@grs^(0+1280),c
  1566   0028F0  5037               	movf	___fladd@grs^(0+1280),w,c
  1567   0028F2  A4D8               	btfss	status,2,c
  1568   0028F4  EF7E  F014         	goto	u1561
  1569   0028F8  EF80  F014         	goto	u1560
  1570   0028FC                     u1561:
  1571   0028FC  EF90  F014         	goto	l664
  1572   002900                     u1560:
  1573   002900  0E01               	movlw	1
  1574   002902  2628               	addwf	___fladd@b^(0+1280),f,c
  1575   002904  0E00               	movlw	0
  1576   002906  2229               	addwfc	(___fladd@b+1)^(0+1280),f,c
  1577   002908  222A               	addwfc	(___fladd@b+2)^(0+1280),f,c
  1578   00290A  222B               	addwfc	(___fladd@b+3)^(0+1280),f,c
  1579   00290C  EF90  F014         	goto	l664
  1580   002910                     l1954:
  1581   002910  502C               	movf	___fladd@a^(0+1280),w,c
  1582   002912  5E28               	subwf	___fladd@b^(0+1280),f,c
  1583   002914  502D               	movf	(___fladd@a+1)^(0+1280),w,c
  1584   002916  5A29               	subwfb	(___fladd@b+1)^(0+1280),f,c
  1585   002918  502E               	movf	(___fladd@a+2)^(0+1280),w,c
  1586   00291A  5A2A               	subwfb	(___fladd@b+2)^(0+1280),f,c
  1587   00291C  502F               	movf	(___fladd@a+3)^(0+1280),w,c
  1588   00291E  5A2B               	subwfb	(___fladd@b+3)^(0+1280),f,c
  1589   002920                     l664:
  1590   002920  5028               	movf	___fladd@b^(0+1280),w,c
  1591   002922  1029               	iorwf	(___fladd@b+1)^(0+1280),w,c
  1592   002924  102A               	iorwf	(___fladd@b+2)^(0+1280),w,c
  1593   002926  102B               	iorwf	(___fladd@b+3)^(0+1280),w,c
  1594   002928  A4D8               	btfss	status,2,c
  1595   00292A  EF99  F014         	goto	u1571
  1596   00292E  EF9B  F014         	goto	u1570
  1597   002932                     u1571:
  1598   002932  EFD0  F014         	goto	l1978
  1599   002936                     u1570:
  1600   002936  5037               	movf	___fladd@grs^(0+1280),w,c
  1601   002938  A4D8               	btfss	status,2,c
  1602   00293A  EFA1  F014         	goto	u1581
  1603   00293E  EFA3  F014         	goto	u1580
  1604   002942                     u1581:
  1605   002942  EFD0  F014         	goto	l1978
  1606   002946                     u1580:
  1607   002946  0E00               	movlw	0
  1608   002948  6E28               	movwf	?___fladd^(0+1280),c
  1609   00294A  0E00               	movlw	0
  1610   00294C  6E29               	movwf	(?___fladd+1)^(0+1280),c
  1611   00294E  0E00               	movlw	0
  1612   002950  6E2A               	movwf	(?___fladd+2)^(0+1280),c
  1613   002952  0E00               	movlw	0
  1614   002954  6E2B               	movwf	(?___fladd+3)^(0+1280),c
  1615   002956  EF6B  F015         	goto	l656
  1616   00295A                     l1962:
  1617   00295A  90D8               	bcf	status,0,c
  1618   00295C  3628               	rlcf	___fladd@b^(0+1280),f,c
  1619   00295E  3629               	rlcf	(___fladd@b+1)^(0+1280),f,c
  1620   002960  362A               	rlcf	(___fladd@b+2)^(0+1280),f,c
  1621   002962  362B               	rlcf	(___fladd@b+3)^(0+1280),f,c
  1622   002964  AE37               	btfss	___fladd@grs^(0+1280),7,c
  1623   002966  EFB7  F014         	goto	u1591
  1624   00296A  EFB9  F014         	goto	u1590
  1625   00296E                     u1591:
  1626   00296E  EFBA  F014         	goto	l1968
  1627   002972                     u1590:
  1628   002972  8028               	bsf	___fladd@b^(0+1280),0,c
  1629   002974                     l1968:
  1630   002974  A037               	btfss	___fladd@grs^(0+1280),0,c
  1631   002976  EFBF  F014         	goto	u1601
  1632   00297A  EFC1  F014         	goto	u1600
  1633   00297E                     u1601:
  1634   00297E  EFC5  F014         	goto	l1972
  1635   002982                     u1600:
  1636   002982  80D8               	bsf	status,0,c
  1637   002984  3637               	rlcf	___fladd@grs^(0+1280),f,c
  1638   002986  EFC7  F014         	goto	l1974
  1639   00298A                     l1972:
  1640   00298A  90D8               	bcf	status,0,c
  1641   00298C  3637               	rlcf	___fladd@grs^(0+1280),f,c
  1642   00298E                     l1974:
  1643   00298E  5036               	movf	___fladd@bexp^(0+1280),w,c
  1644   002990  B4D8               	btfsc	status,2,c
  1645   002992  EFCD  F014         	goto	u1611
  1646   002996  EFCF  F014         	goto	u1610
  1647   00299A                     u1611:
  1648   00299A  EFD0  F014         	goto	l1978
  1649   00299E                     u1610:
  1650   00299E  0636               	decf	___fladd@bexp^(0+1280),f,c
  1651   0029A0                     l1978:
  1652   0029A0  AE2A               	btfss	(___fladd@b+2)^(0+1280),7,c
  1653   0029A2  EFD5  F014         	goto	u1621
  1654   0029A6  EFD7  F014         	goto	u1620
  1655   0029AA                     u1621:
  1656   0029AA  EFAD  F014         	goto	l1962
  1657   0029AE                     u1620:
  1658   0029AE                     l1980:
  1659   0029AE  0E00               	movlw	0
  1660   0029B0  6E35               	movwf	___fladd@aexp^(0+1280),c
  1661   0029B2  AE37               	btfss	___fladd@grs^(0+1280),7,c
  1662   0029B4  EFDE  F014         	goto	u1631
  1663   0029B8  EFE0  F014         	goto	u1630
  1664   0029BC                     u1631:
  1665   0029BC  EFF8  F014         	goto	l673
  1666   0029C0                     u1630:
  1667   0029C0  C537  F530         	movff	___fladd@grs,??___fladd
  1668   0029C4  0E7F               	movlw	127
  1669   0029C6  1630               	andwf	??___fladd^(0+1280),f,c
  1670   0029C8  B4D8               	btfsc	status,2,c
  1671   0029CA  EFE9  F014         	goto	u1641
  1672   0029CE  EFEB  F014         	goto	u1640
  1673   0029D2                     u1641:
  1674   0029D2  EFEF  F014         	goto	l674
  1675   0029D6                     u1640:
  1676   0029D6                     l1986:
  1677   0029D6  0E01               	movlw	1
  1678   0029D8  6E35               	movwf	___fladd@aexp^(0+1280),c
  1679   0029DA  EFF8  F014         	goto	l673
  1680   0029DE                     l674:
  1681   0029DE  A028               	btfss	___fladd@b^(0+1280),0,c
  1682   0029E0  EFF4  F014         	goto	u1651
  1683   0029E4  EFF6  F014         	goto	u1650
  1684   0029E8                     u1651:
  1685   0029E8  EFF8  F014         	goto	l673
  1686   0029EC                     u1650:
  1687   0029EC  EFEB  F014         	goto	l1986
  1688   0029F0                     l673:
  1689   0029F0  5035               	movf	___fladd@aexp^(0+1280),w,c
  1690   0029F2  B4D8               	btfsc	status,2,c
  1691   0029F4  EFFE  F014         	goto	u1661
  1692   0029F8  EF00  F015         	goto	u1660
  1693   0029FC                     u1661:
  1694   0029FC  EF2B  F015         	goto	l1998
  1695   002A00                     u1660:
  1696   002A00  0E01               	movlw	1
  1697   002A02  2628               	addwf	___fladd@b^(0+1280),f,c
  1698   002A04  0E00               	movlw	0
  1699   002A06  2229               	addwfc	(___fladd@b+1)^(0+1280),f,c
  1700   002A08  222A               	addwfc	(___fladd@b+2)^(0+1280),f,c
  1701   002A0A  222B               	addwfc	(___fladd@b+3)^(0+1280),f,c
  1702   002A0C  A02B               	btfss	(___fladd@b+3)^(0+1280),0,c
  1703   002A0E  EF0B  F015         	goto	u1671
  1704   002A12  EF0D  F015         	goto	u1670
  1705   002A16                     u1671:
  1706   002A16  EF2B  F015         	goto	l1998
  1707   002A1A                     u1670:
  1708   002A1A  C528  F530         	movff	___fladd@b,??___fladd
  1709   002A1E  C529  F531         	movff	___fladd@b+1,??___fladd+1
  1710   002A22  C52A  F532         	movff	___fladd@b+2,??___fladd+2
  1711   002A26  C52B  F533         	movff	___fladd@b+3,??___fladd+3
  1712   002A2A  3433               	rlcf	(??___fladd+3)^(0+1280),w,c
  1713   002A2C  3233               	rrcf	(??___fladd+3)^(0+1280),f,c
  1714   002A2E  3232               	rrcf	(??___fladd+2)^(0+1280),f,c
  1715   002A30  3231               	rrcf	(??___fladd+1)^(0+1280),f,c
  1716   002A32  3230               	rrcf	??___fladd^(0+1280),f,c
  1717   002A34  C530  F528         	movff	??___fladd,___fladd@b
  1718   002A38  C531  F529         	movff	??___fladd+1,___fladd@b+1
  1719   002A3C  C532  F52A         	movff	??___fladd+2,___fladd@b+2
  1720   002A40  C533  F52B         	movff	??___fladd+3,___fladd@b+3
  1721   002A44  2836               	incf	___fladd@bexp^(0+1280),w,c
  1722   002A46  B4D8               	btfsc	status,2,c
  1723   002A48  EF28  F015         	goto	u1681
  1724   002A4C  EF2A  F015         	goto	u1680
  1725   002A50                     u1681:
  1726   002A50  EF2B  F015         	goto	l1998
  1727   002A54                     u1680:
  1728   002A54  2A36               	incf	___fladd@bexp^(0+1280),f,c
  1729   002A56                     l1998:
  1730   002A56  2836               	incf	___fladd@bexp^(0+1280),w,c
  1731   002A58  B4D8               	btfsc	status,2,c
  1732   002A5A  EF31  F015         	goto	u1691
  1733   002A5E  EF33  F015         	goto	u1690
  1734   002A62                     u1691:
  1735   002A62  EF3B  F015         	goto	l2002
  1736   002A66                     u1690:
  1737   002A66  5036               	movf	___fladd@bexp^(0+1280),w,c
  1738   002A68  A4D8               	btfss	status,2,c
  1739   002A6A  EF39  F015         	goto	u1701
  1740   002A6E  EF3B  F015         	goto	u1700
  1741   002A72                     u1701:
  1742   002A72  EF4D  F015         	goto	l2006
  1743   002A76                     u1700:
  1744   002A76                     l2002:
  1745   002A76  0E00               	movlw	0
  1746   002A78  6E28               	movwf	___fladd@b^(0+1280),c
  1747   002A7A  0E00               	movlw	0
  1748   002A7C  6E29               	movwf	(___fladd@b+1)^(0+1280),c
  1749   002A7E  0E00               	movlw	0
  1750   002A80  6E2A               	movwf	(___fladd@b+2)^(0+1280),c
  1751   002A82  0E00               	movlw	0
  1752   002A84  6E2B               	movwf	(___fladd@b+3)^(0+1280),c
  1753   002A86  5036               	movf	___fladd@bexp^(0+1280),w,c
  1754   002A88  A4D8               	btfss	status,2,c
  1755   002A8A  EF49  F015         	goto	u1711
  1756   002A8E  EF4B  F015         	goto	u1710
  1757   002A92                     u1711:
  1758   002A92  EF4D  F015         	goto	l2006
  1759   002A96                     u1710:
  1760   002A96  0E00               	movlw	0
  1761   002A98  6E34               	movwf	___fladd@signs^(0+1280),c
  1762   002A9A                     l2006:
  1763   002A9A  A036               	btfss	___fladd@bexp^(0+1280),0,c
  1764   002A9C  EF52  F015         	goto	u1721
  1765   002AA0  EF54  F015         	goto	u1720
  1766   002AA4                     u1721:
  1767   002AA4  EF57  F015         	goto	l2010
  1768   002AA8                     u1720:
  1769   002AA8  8E2A               	bsf	(___fladd@b+2)^(0+1280),7,c
  1770   002AAA  EF58  F015         	goto	l2012
  1771   002AAE                     l2010:
  1772   002AAE  9E2A               	bcf	(___fladd@b+2)^(0+1280),7,c
  1773   002AB0                     l2012:
  1774   002AB0  90D8               	bcf	status,0,c
  1775   002AB2  3036               	rrcf	___fladd@bexp^(0+1280),w,c
  1776   002AB4  6E2B               	movwf	(___fladd@b+3)^(0+1280),c
  1777   002AB6  AE34               	btfss	___fladd@signs^(0+1280),7,c
  1778   002AB8  EF60  F015         	goto	u1731
  1779   002ABC  EF62  F015         	goto	u1730
  1780   002AC0                     u1731:
  1781   002AC0  EF63  F015         	goto	l2018
  1782   002AC4                     u1730:
  1783   002AC4  8E2B               	bsf	(___fladd@b+3)^(0+1280),7,c
  1784   002AC6                     l2018:
  1785   002AC6  C528  F528         	movff	___fladd@b,?___fladd
  1786   002ACA  C529  F529         	movff	___fladd@b+1,?___fladd+1
  1787   002ACE  C52A  F52A         	movff	___fladd@b+2,?___fladd+2
  1788   002AD2  C52B  F52B         	movff	___fladd@b+3,?___fladd+3
  1789   002AD6                     l656:
  1790   002AD6  0012               	return		;funcret
  1791   002AD8                     __end_of___fladd:
  1792                           	callstack 0
  1793                           
  1794 ;; *************** function ___fldiv *****************
  1795 ;; Defined at:
  1796 ;;		line 11 in file "C:\Program Files\Microchip\xc8\v2.40\pic\sources\c99\common\sprcdiv.c"
  1797 ;; Parameters:    Size  Location     Type
  1798 ;;  b               4   14[COMRAM] unsigned char 
  1799 ;;  a               4   18[COMRAM] unsigned char 
  1800 ;; Auto vars:     Size  Location     Type
  1801 ;;  grs             4   33[COMRAM] unsigned long 
  1802 ;;  rem             4   26[COMRAM] unsigned long 
  1803 ;;  new_exp         2   31[COMRAM] short 
  1804 ;;  aexp            1   38[COMRAM] unsigned char 
  1805 ;;  bexp            1   37[COMRAM] unsigned char 
  1806 ;;  sign            1   30[COMRAM] unsigned char 
  1807 ;; Return value:  Size  Location     Type
  1808 ;;                  4   14[COMRAM] unsigned char 
  1809 ;; Registers used:
  1810 ;;		wreg, status,2, status,0
  1811 ;; Tracked objects:
  1812 ;;		On entry : 0/0
  1813 ;;		On exit  : 0/0
  1814 ;;		Unchanged: 0/0
  1815 ;; Data sizes:     COMRAM   BANK5   BANK6   BANK7   BANK8   BANK9  BANK10  BANK11  BANK12  BANK13  BANK14  BANK15  BANK1
      +6  BANK17  BANK18  BANK19  BANK20  BANK21  BANK22  BANK23  BANK24  BANK25  BANK26  BANK27  BANK28  BANK29  BANK30  BANK3
      +1  BANK32  BANK33  BANK34  BANK35  BANK36
  1816 ;;      Params:         8       0       0       0       0       0       0       0       0       0       0       0       
      +0       0       0       0       0       0       0       0       0       0       0       0       0       0       0       
      +0       0       0       0       0       0
  1817 ;;      Locals:        13       0       0       0       0       0       0       0       0       0       0       0       
      +0       0       0       0       0       0       0       0       0       0       0       0       0       0       0       
      +0       0       0       0       0       0
  1818 ;;      Temps:          4       0       0       0       0       0       0       0       0       0       0       0       
      +0       0       0       0       0       0       0       0       0       0       0       0       0       0       0       
      +0       0       0       0       0       0
  1819 ;;      Totals:        25       0       0       0       0       0       0       0       0       0       0       0       
      +0       0       0       0       0       0       0       0       0       0       0       0       0       0       0       
      +0       0       0       0       0       0
  1820 ;;Total ram usage:       25 bytes
  1821 ;; Hardware stack levels used: 1
  1822 ;; This function calls:
  1823 ;;		Nothing
  1824 ;; This function is called by:
  1825 ;;		_analogMap
  1826 ;; This function uses a non-reentrant model
  1827 ;;
  1828                           
  1829                           	psect	text6
  1830   002F02                     __ptext6:
  1831                           	callstack 0
  1832   002F02                     ___fldiv:
  1833                           	callstack 125
  1834   002F02  5012               	movf	(___fldiv@b+3)^(0+1280),w,c
  1835   002F04  0B80               	andlw	128
  1836   002F06  6E1F               	movwf	___fldiv@sign^(0+1280),c
  1837   002F08  5012               	movf	(___fldiv@b+3)^(0+1280),w,c
  1838   002F0A  2412               	addwf	(___fldiv@b+3)^(0+1280),w,c
  1839   002F0C  6E26               	movwf	___fldiv@bexp^(0+1280),c
  1840   002F0E  AE11               	btfss	(___fldiv@b+2)^(0+1280),7,c
  1841   002F10  EF8C  F017         	goto	u1831
  1842   002F14  EF8E  F017         	goto	u1830
  1843   002F18                     u1831:
  1844   002F18  EF8F  F017         	goto	l2140
  1845   002F1C                     u1830:
  1846   002F1C  8026               	bsf	___fldiv@bexp^(0+1280),0,c
  1847   002F1E                     l2140:
  1848   002F1E  5026               	movf	___fldiv@bexp^(0+1280),w,c
  1849   002F20  B4D8               	btfsc	status,2,c
  1850   002F22  EF95  F017         	goto	u1841
  1851   002F26  EF97  F017         	goto	u1840
  1852   002F2A                     u1841:
  1853   002F2A  EFAC  F017         	goto	l2150
  1854   002F2E                     u1840:
  1855   002F2E  2826               	incf	___fldiv@bexp^(0+1280),w,c
  1856   002F30  A4D8               	btfss	status,2,c
  1857   002F32  EF9D  F017         	goto	u1851
  1858   002F36  EF9F  F017         	goto	u1850
  1859   002F3A                     u1851:
  1860   002F3A  EFA7  F017         	goto	l2146
  1861   002F3E                     u1850:
  1862   002F3E  0E00               	movlw	0
  1863   002F40  6E0F               	movwf	___fldiv@b^(0+1280),c
  1864   002F42  0E00               	movlw	0
  1865   002F44  6E10               	movwf	(___fldiv@b+1)^(0+1280),c
  1866   002F46  0E00               	movlw	0
  1867   002F48  6E11               	movwf	(___fldiv@b+2)^(0+1280),c
  1868   002F4A  0E00               	movlw	0
  1869   002F4C  6E12               	movwf	(___fldiv@b+3)^(0+1280),c
  1870   002F4E                     l2146:
  1871   002F4E  8E11               	bsf	(___fldiv@b+2)^(0+1280),7,c
  1872   002F50  0E00               	movlw	0
  1873   002F52  6E12               	movwf	(___fldiv@b+3)^(0+1280),c
  1874   002F54  EFB4  F017         	goto	l2152
  1875   002F58                     l2150:
  1876   002F58  0E00               	movlw	0
  1877   002F5A  6E0F               	movwf	___fldiv@b^(0+1280),c
  1878   002F5C  0E00               	movlw	0
  1879   002F5E  6E10               	movwf	(___fldiv@b+1)^(0+1280),c
  1880   002F60  0E00               	movlw	0
  1881   002F62  6E11               	movwf	(___fldiv@b+2)^(0+1280),c
  1882   002F64  0E00               	movlw	0
  1883   002F66  6E12               	movwf	(___fldiv@b+3)^(0+1280),c
  1884   002F68                     l2152:
  1885   002F68  5016               	movf	(___fldiv@a+3)^(0+1280),w,c
  1886   002F6A  0B80               	andlw	128
  1887   002F6C  1A1F               	xorwf	___fldiv@sign^(0+1280),f,c
  1888   002F6E  5016               	movf	(___fldiv@a+3)^(0+1280),w,c
  1889   002F70  2416               	addwf	(___fldiv@a+3)^(0+1280),w,c
  1890   002F72  6E27               	movwf	___fldiv@aexp^(0+1280),c
  1891   002F74  AE15               	btfss	(___fldiv@a+2)^(0+1280),7,c
  1892   002F76  EFBF  F017         	goto	u1861
  1893   002F7A  EFC1  F017         	goto	u1860
  1894   002F7E                     u1861:
  1895   002F7E  EFC2  F017         	goto	l2160
  1896   002F82                     u1860:
  1897   002F82  8027               	bsf	___fldiv@aexp^(0+1280),0,c
  1898   002F84                     l2160:
  1899   002F84  5027               	movf	___fldiv@aexp^(0+1280),w,c
  1900   002F86  B4D8               	btfsc	status,2,c
  1901   002F88  EFC8  F017         	goto	u1871
  1902   002F8C  EFCA  F017         	goto	u1870
  1903   002F90                     u1871:
  1904   002F90  EFDF  F017         	goto	l2170
  1905   002F94                     u1870:
  1906   002F94  2827               	incf	___fldiv@aexp^(0+1280),w,c
  1907   002F96  A4D8               	btfss	status,2,c
  1908   002F98  EFD0  F017         	goto	u1881
  1909   002F9C  EFD2  F017         	goto	u1880
  1910   002FA0                     u1881:
  1911   002FA0  EFDA  F017         	goto	l2166
  1912   002FA4                     u1880:
  1913   002FA4  0E00               	movlw	0
  1914   002FA6  6E13               	movwf	___fldiv@a^(0+1280),c
  1915   002FA8  0E00               	movlw	0
  1916   002FAA  6E14               	movwf	(___fldiv@a+1)^(0+1280),c
  1917   002FAC  0E00               	movlw	0
  1918   002FAE  6E15               	movwf	(___fldiv@a+2)^(0+1280),c
  1919   002FB0  0E00               	movlw	0
  1920   002FB2  6E16               	movwf	(___fldiv@a+3)^(0+1280),c
  1921   002FB4                     l2166:
  1922   002FB4  8E15               	bsf	(___fldiv@a+2)^(0+1280),7,c
  1923   002FB6  0E00               	movlw	0
  1924   002FB8  6E16               	movwf	(___fldiv@a+3)^(0+1280),c
  1925   002FBA  EFE7  F017         	goto	l2172
  1926   002FBE                     l2170:
  1927   002FBE  0E00               	movlw	0
  1928   002FC0  6E13               	movwf	___fldiv@a^(0+1280),c
  1929   002FC2  0E00               	movlw	0
  1930   002FC4  6E14               	movwf	(___fldiv@a+1)^(0+1280),c
  1931   002FC6  0E00               	movlw	0
  1932   002FC8  6E15               	movwf	(___fldiv@a+2)^(0+1280),c
  1933   002FCA  0E00               	movlw	0
  1934   002FCC  6E16               	movwf	(___fldiv@a+3)^(0+1280),c
  1935   002FCE                     l2172:
  1936   002FCE  5013               	movf	___fldiv@a^(0+1280),w,c
  1937   002FD0  1014               	iorwf	(___fldiv@a+1)^(0+1280),w,c
  1938   002FD2  1015               	iorwf	(___fldiv@a+2)^(0+1280),w,c
  1939   002FD4  1016               	iorwf	(___fldiv@a+3)^(0+1280),w,c
  1940   002FD6  A4D8               	btfss	status,2,c
  1941   002FD8  EFF0  F017         	goto	u1891
  1942   002FDC  EFF2  F017         	goto	u1890
  1943   002FE0                     u1891:
  1944   002FE0  EF0A  F018         	goto	l2184
  1945   002FE4                     u1890:
  1946   002FE4  0E00               	movlw	0
  1947   002FE6  6E0F               	movwf	___fldiv@b^(0+1280),c
  1948   002FE8  0E00               	movlw	0
  1949   002FEA  6E10               	movwf	(___fldiv@b+1)^(0+1280),c
  1950   002FEC  0E00               	movlw	0
  1951   002FEE  6E11               	movwf	(___fldiv@b+2)^(0+1280),c
  1952   002FF0  0E00               	movlw	0
  1953   002FF2  6E12               	movwf	(___fldiv@b+3)^(0+1280),c
  1954   002FF4  0E80               	movlw	128
  1955   002FF6  1211               	iorwf	(___fldiv@b+2)^(0+1280),f,c
  1956   002FF8  0E7F               	movlw	127
  1957   002FFA  1212               	iorwf	(___fldiv@b+3)^(0+1280),f,c
  1958   002FFC                     l2178:
  1959   002FFC  501F               	movf	___fldiv@sign^(0+1280),w,c
  1960   002FFE  1212               	iorwf	(___fldiv@b+3)^(0+1280),f,c
  1961   003000  C50F  F50F         	movff	___fldiv@b,?___fldiv
  1962   003004  C510  F510         	movff	___fldiv@b+1,?___fldiv+1
  1963   003008  C511  F511         	movff	___fldiv@b+2,?___fldiv+2
  1964   00300C  C512  F512         	movff	___fldiv@b+3,?___fldiv+3
  1965   003010  EF4D  F019         	goto	l701
  1966   003014                     l2184:
  1967   003014  5026               	movf	___fldiv@bexp^(0+1280),w,c
  1968   003016  A4D8               	btfss	status,2,c
  1969   003018  EF10  F018         	goto	u1901
  1970   00301C  EF12  F018         	goto	u1900
  1971   003020                     u1901:
  1972   003020  EF1C  F018         	goto	l2192
  1973   003024                     u1900:
  1974   003024  0E00               	movlw	0
  1975   003026  6E0F               	movwf	?___fldiv^(0+1280),c
  1976   003028  0E00               	movlw	0
  1977   00302A  6E10               	movwf	(?___fldiv+1)^(0+1280),c
  1978   00302C  0E00               	movlw	0
  1979   00302E  6E11               	movwf	(?___fldiv+2)^(0+1280),c
  1980   003030  0E00               	movlw	0
  1981   003032  6E12               	movwf	(?___fldiv+3)^(0+1280),c
  1982   003034  EF4D  F019         	goto	l701
  1983   003038                     l2192:
  1984   003038  5027               	movf	___fldiv@aexp^(0+1280),w,c
  1985   00303A  C526  F517         	movff	___fldiv@bexp,??___fldiv
  1986   00303E  6A18               	clrf	(??___fldiv+1)^(0+1280),c
  1987   003040  5E17               	subwf	??___fldiv^(0+1280),f,c
  1988   003042  0E00               	movlw	0
  1989   003044  5A18               	subwfb	(??___fldiv+1)^(0+1280),f,c
  1990   003046  0E7F               	movlw	127
  1991   003048  2417               	addwf	??___fldiv^(0+1280),w,c
  1992   00304A  6E20               	movwf	___fldiv@new_exp^(0+1280),c
  1993   00304C  0E00               	movlw	0
  1994   00304E  2018               	addwfc	(??___fldiv+1)^(0+1280),w,c
  1995   003050  6E21               	movwf	(___fldiv@new_exp+1)^(0+1280),c
  1996   003052  C50F  F51B         	movff	___fldiv@b,___fldiv@rem
  1997   003056  C510  F51C         	movff	___fldiv@b+1,___fldiv@rem+1
  1998   00305A  C511  F51D         	movff	___fldiv@b+2,___fldiv@rem+2
  1999   00305E  C512  F51E         	movff	___fldiv@b+3,___fldiv@rem+3
  2000   003062  0E00               	movlw	0
  2001   003064  6E0F               	movwf	___fldiv@b^(0+1280),c
  2002   003066  0E00               	movlw	0
  2003   003068  6E10               	movwf	(___fldiv@b+1)^(0+1280),c
  2004   00306A  0E00               	movlw	0
  2005   00306C  6E11               	movwf	(___fldiv@b+2)^(0+1280),c
  2006   00306E  0E00               	movlw	0
  2007   003070  6E12               	movwf	(___fldiv@b+3)^(0+1280),c
  2008   003072  0E00               	movlw	0
  2009   003074  6E22               	movwf	___fldiv@grs^(0+1280),c
  2010   003076  0E00               	movlw	0
  2011   003078  6E23               	movwf	(___fldiv@grs+1)^(0+1280),c
  2012   00307A  0E00               	movlw	0
  2013   00307C  6E24               	movwf	(___fldiv@grs+2)^(0+1280),c
  2014   00307E  0E00               	movlw	0
  2015   003080  6E25               	movwf	(___fldiv@grs+3)^(0+1280),c
  2016   003082  0E00               	movlw	0
  2017   003084  6E27               	movwf	___fldiv@aexp^(0+1280),c
  2018   003086  EF7D  F018         	goto	l703
  2019   00308A                     l2202:
  2020   00308A  5027               	movf	___fldiv@aexp^(0+1280),w,c
  2021   00308C  B4D8               	btfsc	status,2,c
  2022   00308E  EF4B  F018         	goto	u1911
  2023   003092  EF4D  F018         	goto	u1910
  2024   003096                     u1911:
  2025   003096  EF64  F018         	goto	l2210
  2026   00309A                     u1910:
  2027   00309A  90D8               	bcf	status,0,c
  2028   00309C  361B               	rlcf	___fldiv@rem^(0+1280),f,c
  2029   00309E  361C               	rlcf	(___fldiv@rem+1)^(0+1280),f,c
  2030   0030A0  361D               	rlcf	(___fldiv@rem+2)^(0+1280),f,c
  2031   0030A2  361E               	rlcf	(___fldiv@rem+3)^(0+1280),f,c
  2032   0030A4  90D8               	bcf	status,0,c
  2033   0030A6  360F               	rlcf	___fldiv@b^(0+1280),f,c
  2034   0030A8  3610               	rlcf	(___fldiv@b+1)^(0+1280),f,c
  2035   0030AA  3611               	rlcf	(___fldiv@b+2)^(0+1280),f,c
  2036   0030AC  3612               	rlcf	(___fldiv@b+3)^(0+1280),f,c
  2037   0030AE  AE25               	btfss	(___fldiv@grs+3)^(0+1280),7,c
  2038   0030B0  EF5C  F018         	goto	u1921
  2039   0030B4  EF5E  F018         	goto	u1920
  2040   0030B8                     u1921:
  2041   0030B8  EF5F  F018         	goto	l706
  2042   0030BC                     u1920:
  2043   0030BC  800F               	bsf	___fldiv@b^(0+1280),0,c
  2044   0030BE                     l706:
  2045   0030BE  90D8               	bcf	status,0,c
  2046   0030C0  3622               	rlcf	___fldiv@grs^(0+1280),f,c
  2047   0030C2  3623               	rlcf	(___fldiv@grs+1)^(0+1280),f,c
  2048   0030C4  3624               	rlcf	(___fldiv@grs+2)^(0+1280),f,c
  2049   0030C6  3625               	rlcf	(___fldiv@grs+3)^(0+1280),f,c
  2050   0030C8                     l2210:
  2051   0030C8  5013               	movf	___fldiv@a^(0+1280),w,c
  2052   0030CA  5C1B               	subwf	___fldiv@rem^(0+1280),w,c
  2053   0030CC  5014               	movf	(___fldiv@a+1)^(0+1280),w,c
  2054   0030CE  581C               	subwfb	(___fldiv@rem+1)^(0+1280),w,c
  2055   0030D0  5015               	movf	(___fldiv@a+2)^(0+1280),w,c
  2056   0030D2  581D               	subwfb	(___fldiv@rem+2)^(0+1280),w,c
  2057   0030D4  5016               	movf	(___fldiv@a+3)^(0+1280),w,c
  2058   0030D6  581E               	subwfb	(___fldiv@rem+3)^(0+1280),w,c
  2059   0030D8  A0D8               	btfss	status,0,c
  2060   0030DA  EF71  F018         	goto	u1931
  2061   0030DE  EF73  F018         	goto	u1930
  2062   0030E2                     u1931:
  2063   0030E2  EF7C  F018         	goto	l2216
  2064   0030E6                     u1930:
  2065   0030E6  8C25               	bsf	(___fldiv@grs+3)^(0+1280),6,c
  2066   0030E8  5013               	movf	___fldiv@a^(0+1280),w,c
  2067   0030EA  5E1B               	subwf	___fldiv@rem^(0+1280),f,c
  2068   0030EC  5014               	movf	(___fldiv@a+1)^(0+1280),w,c
  2069   0030EE  5A1C               	subwfb	(___fldiv@rem+1)^(0+1280),f,c
  2070   0030F0  5015               	movf	(___fldiv@a+2)^(0+1280),w,c
  2071   0030F2  5A1D               	subwfb	(___fldiv@rem+2)^(0+1280),f,c
  2072   0030F4  5016               	movf	(___fldiv@a+3)^(0+1280),w,c
  2073   0030F6  5A1E               	subwfb	(___fldiv@rem+3)^(0+1280),f,c
  2074   0030F8                     l2216:
  2075   0030F8  2A27               	incf	___fldiv@aexp^(0+1280),f,c
  2076   0030FA                     l703:
  2077   0030FA  0E19               	movlw	25
  2078   0030FC  6427               	cpfsgt	___fldiv@aexp^(0+1280),c
  2079   0030FE  EF83  F018         	goto	u1941
  2080   003102  EF85  F018         	goto	u1940
  2081   003106                     u1941:
  2082   003106  EF45  F018         	goto	l2202
  2083   00310A                     u1940:
  2084   00310A  501B               	movf	___fldiv@rem^(0+1280),w,c
  2085   00310C  101C               	iorwf	(___fldiv@rem+1)^(0+1280),w,c
  2086   00310E  101D               	iorwf	(___fldiv@rem+2)^(0+1280),w,c
  2087   003110  101E               	iorwf	(___fldiv@rem+3)^(0+1280),w,c
  2088   003112  B4D8               	btfsc	status,2,c
  2089   003114  EF8E  F018         	goto	u1951
  2090   003118  EF90  F018         	goto	u1950
  2091   00311C                     u1951:
  2092   00311C  EFA8  F018         	goto	l2228
  2093   003120                     u1950:
  2094   003120  8022               	bsf	___fldiv@grs^(0+1280),0,c
  2095   003122  EFA8  F018         	goto	l2228
  2096   003126                     l2222:
  2097   003126  90D8               	bcf	status,0,c
  2098   003128  360F               	rlcf	___fldiv@b^(0+1280),f,c
  2099   00312A  3610               	rlcf	(___fldiv@b+1)^(0+1280),f,c
  2100   00312C  3611               	rlcf	(___fldiv@b+2)^(0+1280),f,c
  2101   00312E  3612               	rlcf	(___fldiv@b+3)^(0+1280),f,c
  2102   003130  AE25               	btfss	(___fldiv@grs+3)^(0+1280),7,c
  2103   003132  EF9D  F018         	goto	u1961
  2104   003136  EF9F  F018         	goto	u1960
  2105   00313A                     u1961:
  2106   00313A  EFA0  F018         	goto	l712
  2107   00313E                     u1960:
  2108   00313E  800F               	bsf	___fldiv@b^(0+1280),0,c
  2109   003140                     l712:
  2110   003140  90D8               	bcf	status,0,c
  2111   003142  3622               	rlcf	___fldiv@grs^(0+1280),f,c
  2112   003144  3623               	rlcf	(___fldiv@grs+1)^(0+1280),f,c
  2113   003146  3624               	rlcf	(___fldiv@grs+2)^(0+1280),f,c
  2114   003148  3625               	rlcf	(___fldiv@grs+3)^(0+1280),f,c
  2115   00314A  0620               	decf	___fldiv@new_exp^(0+1280),f,c
  2116   00314C  A0D8               	btfss	status,0,c
  2117   00314E  0621               	decf	(___fldiv@new_exp+1)^(0+1280),f,c
  2118   003150                     l2228:
  2119   003150  AE11               	btfss	(___fldiv@b+2)^(0+1280),7,c
  2120   003152  EFAD  F018         	goto	u1971
  2121   003156  EFAF  F018         	goto	u1970
  2122   00315A                     u1971:
  2123   00315A  EF93  F018         	goto	l2222
  2124   00315E                     u1970:
  2125   00315E  0E00               	movlw	0
  2126   003160  6E27               	movwf	___fldiv@aexp^(0+1280),c
  2127   003162  AE25               	btfss	(___fldiv@grs+3)^(0+1280),7,c
  2128   003164  EFB6  F018         	goto	u1981
  2129   003168  EFB8  F018         	goto	u1980
  2130   00316C                     u1981:
  2131   00316C  EFDC  F018         	goto	l714
  2132   003170                     u1980:
  2133   003170  0EFF               	movlw	255
  2134   003172  1422               	andwf	___fldiv@grs^(0+1280),w,c
  2135   003174  6E17               	movwf	??___fldiv^(0+1280),c
  2136   003176  0EFF               	movlw	255
  2137   003178  1423               	andwf	(___fldiv@grs+1)^(0+1280),w,c
  2138   00317A  6E18               	movwf	(??___fldiv+1)^(0+1280),c
  2139   00317C  0EFF               	movlw	255
  2140   00317E  1424               	andwf	(___fldiv@grs+2)^(0+1280),w,c
  2141   003180  6E19               	movwf	(??___fldiv+2)^(0+1280),c
  2142   003182  0E7F               	movlw	127
  2143   003184  1425               	andwf	(___fldiv@grs+3)^(0+1280),w,c
  2144   003186  6E1A               	movwf	(??___fldiv+3)^(0+1280),c
  2145   003188  5017               	movf	??___fldiv^(0+1280),w,c
  2146   00318A  1018               	iorwf	(??___fldiv+1)^(0+1280),w,c
  2147   00318C  1019               	iorwf	(??___fldiv+2)^(0+1280),w,c
  2148   00318E  101A               	iorwf	(??___fldiv+3)^(0+1280),w,c
  2149   003190  B4D8               	btfsc	status,2,c
  2150   003192  EFCD  F018         	goto	u1991
  2151   003196  EFCF  F018         	goto	u1990
  2152   00319A                     u1991:
  2153   00319A  EFD3  F018         	goto	l715
  2154   00319E                     u1990:
  2155   00319E                     l2236:
  2156   00319E  0E01               	movlw	1
  2157   0031A0  6E27               	movwf	___fldiv@aexp^(0+1280),c
  2158   0031A2  EFDC  F018         	goto	l714
  2159   0031A6                     l715:
  2160   0031A6  A00F               	btfss	___fldiv@b^(0+1280),0,c
  2161   0031A8  EFD8  F018         	goto	u2001
  2162   0031AC  EFDA  F018         	goto	u2000
  2163   0031B0                     u2001:
  2164   0031B0  EFDC  F018         	goto	l714
  2165   0031B4                     u2000:
  2166   0031B4  EFCF  F018         	goto	l2236
  2167   0031B8                     l714:
  2168   0031B8  5027               	movf	___fldiv@aexp^(0+1280),w,c
  2169   0031BA  B4D8               	btfsc	status,2,c
  2170   0031BC  EFE2  F018         	goto	u2011
  2171   0031C0  EFE4  F018         	goto	u2010
  2172   0031C4                     u2011:
  2173   0031C4  EF08  F019         	goto	l2248
  2174   0031C8                     u2010:
  2175   0031C8  0E01               	movlw	1
  2176   0031CA  260F               	addwf	___fldiv@b^(0+1280),f,c
  2177   0031CC  0E00               	movlw	0
  2178   0031CE  2210               	addwfc	(___fldiv@b+1)^(0+1280),f,c
  2179   0031D0  2211               	addwfc	(___fldiv@b+2)^(0+1280),f,c
  2180   0031D2  2212               	addwfc	(___fldiv@b+3)^(0+1280),f,c
  2181   0031D4  A012               	btfss	(___fldiv@b+3)^(0+1280),0,c
  2182   0031D6  EFEF  F018         	goto	u2021
  2183   0031DA  EFF1  F018         	goto	u2020
  2184   0031DE                     u2021:
  2185   0031DE  EF08  F019         	goto	l2248
  2186   0031E2                     u2020:
  2187   0031E2  C50F  F517         	movff	___fldiv@b,??___fldiv
  2188   0031E6  C510  F518         	movff	___fldiv@b+1,??___fldiv+1
  2189   0031EA  C511  F519         	movff	___fldiv@b+2,??___fldiv+2
  2190   0031EE  C512  F51A         	movff	___fldiv@b+3,??___fldiv+3
  2191   0031F2  341A               	rlcf	(??___fldiv+3)^(0+1280),w,c
  2192   0031F4  321A               	rrcf	(??___fldiv+3)^(0+1280),f,c
  2193   0031F6  3219               	rrcf	(??___fldiv+2)^(0+1280),f,c
  2194   0031F8  3218               	rrcf	(??___fldiv+1)^(0+1280),f,c
  2195   0031FA  3217               	rrcf	??___fldiv^(0+1280),f,c
  2196   0031FC  C517  F50F         	movff	??___fldiv,___fldiv@b
  2197   003200  C518  F510         	movff	??___fldiv+1,___fldiv@b+1
  2198   003204  C519  F511         	movff	??___fldiv+2,___fldiv@b+2
  2199   003208  C51A  F512         	movff	??___fldiv+3,___fldiv@b+3
  2200   00320C  4A20               	infsnz	___fldiv@new_exp^(0+1280),f,c
  2201   00320E  2A21               	incf	(___fldiv@new_exp+1)^(0+1280),f,c
  2202   003210                     l2248:
  2203   003210  BE21               	btfsc	(___fldiv@new_exp+1)^(0+1280),7,c
  2204   003212  EF13  F019         	goto	u2031
  2205   003216  5021               	movf	(___fldiv@new_exp+1)^(0+1280),w,c
  2206   003218  E108               	bnz	u2030
  2207   00321A  2820               	incf	___fldiv@new_exp^(0+1280),w,c
  2208   00321C  A0D8               	btfss	status,0,c
  2209   00321E  EF13  F019         	goto	u2031
  2210   003222  EF15  F019         	goto	u2030
  2211   003226                     u2031:
  2212   003226  EF20  F019         	goto	l2252
  2213   00322A                     u2030:
  2214   00322A  0E00               	movlw	0
  2215   00322C  6E21               	movwf	(___fldiv@new_exp+1)^(0+1280),c
  2216   00322E  6820               	setf	___fldiv@new_exp^(0+1280),c
  2217   003230  0E00               	movlw	0
  2218   003232  6E0F               	movwf	___fldiv@b^(0+1280),c
  2219   003234  0E00               	movlw	0
  2220   003236  6E10               	movwf	(___fldiv@b+1)^(0+1280),c
  2221   003238  0E00               	movlw	0
  2222   00323A  6E11               	movwf	(___fldiv@b+2)^(0+1280),c
  2223   00323C  0E00               	movlw	0
  2224   00323E  6E12               	movwf	(___fldiv@b+3)^(0+1280),c
  2225   003240                     l2252:
  2226   003240  BE21               	btfsc	(___fldiv@new_exp+1)^(0+1280),7,c
  2227   003242  EF2D  F019         	goto	u2040
  2228   003246  5021               	movf	(___fldiv@new_exp+1)^(0+1280),w,c
  2229   003248  E106               	bnz	u2041
  2230   00324A  0420               	decf	___fldiv@new_exp^(0+1280),w,c
  2231   00324C  B0D8               	btfsc	status,0,c
  2232   00324E  EF2B  F019         	goto	u2041
  2233   003252  EF2D  F019         	goto	u2040
  2234   003256                     u2041:
  2235   003256  EF3B  F019         	goto	l2256
  2236   00325A                     u2040:
  2237   00325A  0E00               	movlw	0
  2238   00325C  6E21               	movwf	(___fldiv@new_exp+1)^(0+1280),c
  2239   00325E  0E00               	movlw	0
  2240   003260  6E20               	movwf	___fldiv@new_exp^(0+1280),c
  2241   003262  0E00               	movlw	0
  2242   003264  6E0F               	movwf	___fldiv@b^(0+1280),c
  2243   003266  0E00               	movlw	0
  2244   003268  6E10               	movwf	(___fldiv@b+1)^(0+1280),c
  2245   00326A  0E00               	movlw	0
  2246   00326C  6E11               	movwf	(___fldiv@b+2)^(0+1280),c
  2247   00326E  0E00               	movlw	0
  2248   003270  6E12               	movwf	(___fldiv@b+3)^(0+1280),c
  2249   003272  0E00               	movlw	0
  2250   003274  6E1F               	movwf	___fldiv@sign^(0+1280),c
  2251   003276                     l2256:
  2252   003276  C520  F526         	movff	___fldiv@new_exp,___fldiv@bexp
  2253   00327A  A026               	btfss	___fldiv@bexp^(0+1280),0,c
  2254   00327C  EF42  F019         	goto	u2051
  2255   003280  EF44  F019         	goto	u2050
  2256   003284                     u2051:
  2257   003284  EF47  F019         	goto	l2262
  2258   003288                     u2050:
  2259   003288  8E11               	bsf	(___fldiv@b+2)^(0+1280),7,c
  2260   00328A  EF48  F019         	goto	l2264
  2261   00328E                     l2262:
  2262   00328E  9E11               	bcf	(___fldiv@b+2)^(0+1280),7,c
  2263   003290                     l2264:
  2264   003290  90D8               	bcf	status,0,c
  2265   003292  3026               	rrcf	___fldiv@bexp^(0+1280),w,c
  2266   003294  6E12               	movwf	(___fldiv@b+3)^(0+1280),c
  2267   003296  EFFE  F017         	goto	l2178
  2268   00329A                     l701:
  2269   00329A  0012               	return		;funcret
  2270   00329C                     __end_of___fldiv:
  2271                           	callstack 0
  2272                           
  2273 ;; *************** function _LCDprintf *****************
  2274 ;; Defined at:
  2275 ;;		line 143 in file "C:/Users/a_hui/OneDrive - Camosun College/term2/ecet165_embedded_mc/labs/ecet165-labs/lab6/lcd18f.
      +c"
  2276 ;; Parameters:    Size  Location     Type
  2277 ;;  shell           2   88[COMRAM] PTR unsigned char 
  2278 ;;		 -> STR_2(7), STR_1(14), 
  2279 ;; Auto vars:     Size  Location     Type
  2280 ;;  i               1   27[BANK5 ] unsigned char 
  2281 ;;  f_string       20    7[BANK5 ] unsigned char [20]
  2282 ;;  f_input         4   28[BANK5 ] unsigned char [20]
  2283 ;;  args            2   35[BANK5 ] PTR void [1]
  2284 ;;		 -> ?_LCDprintf(1), 
  2285 ;;  f_int           2   32[BANK5 ] int 
  2286 ;;  indexer         1   34[BANK5 ] char 
  2287 ;; Return value:  Size  Location     Type
  2288 ;;                  1    wreg      void 
  2289 ;; Registers used:
  2290 ;;		wreg, fsr2l, fsr2h, status,2, status,0, tblptrl, tblptrh, tblptru, prodl, prodh, cstack
  2291 ;; Tracked objects:
  2292 ;;		On entry : 0/0
  2293 ;;		On exit  : 0/0
  2294 ;;		Unchanged: 0/0
  2295 ;; Data sizes:     COMRAM   BANK5   BANK6   BANK7   BANK8   BANK9  BANK10  BANK11  BANK12  BANK13  BANK14  BANK15  BANK1
      +6  BANK17  BANK18  BANK19  BANK20  BANK21  BANK22  BANK23  BANK24  BANK25  BANK26  BANK27  BANK28  BANK29  BANK30  BANK3
      +1  BANK32  BANK33  BANK34  BANK35  BANK36
  2296 ;;      Params:         6       0       0       0       0       0       0       0       0       0       0       0       
      +0       0       0       0       0       0       0       0       0       0       0       0       0       0       0       
      +0       0       0       0       0       0
  2297 ;;      Locals:         0      30       0       0       0       0       0       0       0       0       0       0       
      +0       0       0       0       0       0       0       0       0       0       0       0       0       0       0       
      +0       0       0       0       0       0
  2298 ;;      Temps:          0       7       0       0       0       0       0       0       0       0       0       0       
      +0       0       0       0       0       0       0       0       0       0       0       0       0       0       0       
      +0       0       0       0       0       0
  2299 ;;      Totals:         6      37       0       0       0       0       0       0       0       0       0       0       
      +0       0       0       0       0       0       0       0       0       0       0       0       0       0       0       
      +0       0       0       0       0       0
  2300 ;;Total ram usage:       43 bytes
  2301 ;; Hardware stack levels used: 1
  2302 ;; Hardware stack levels required when called: 2
  2303 ;; This function calls:
  2304 ;;		_LCDprintc
  2305 ;;		_LCDprints
  2306 ;;		___awdiv
  2307 ;;		___awmod
  2308 ;;		___flmul
  2309 ;;		___fltol
  2310 ;;		_toString
  2311 ;; This function is called by:
  2312 ;;		_main
  2313 ;; This function uses a non-reentrant model
  2314 ;;
  2315                           
  2316                           	psect	text7
  2317   00329C                     __ptext7:
  2318                           	callstack 0
  2319   00329C                     _LCDprintf:
  2320                           	callstack 124
  2321   00329C                     
  2322                           ;C:/Users/a_hui/OneDrive - Camosun College/term2/ecet165_embedded_mc/labs/ecet165-labs/l
      +                          ab6/lcd18f.c: 145:     double f_input;;C:/Users/a_hui/OneDrive - Camosun College/term2/e
      +                          cet165_embedded_mc/labs/ecet165-labs/lab6/lcd18f.c: 146:     int f_int;;C:/Users/a_hui/O
      +                          neDrive - Camosun College/term2/ecet165_embedded_mc/labs/ecet165-labs/lab6/lcd18f.c: 147
      +                          :     signed char indexer;;C:/Users/a_hui/OneDrive - Camosun College/term2/ecet165_embed
      +                          ded_mc/labs/ecet165-labs/lab6/lcd18f.c: 149:     va_list args;;C:/Users/a_hui/OneDrive -
      +                           Camosun College/term2/ecet165_embedded_mc/labs/ecet165-labs/lab6/lcd18f.c: 150:     *ar
      +                          gs = __va_start();
  2323   00329C  0E5B               	movlw	low (?_LCDprintf+2)
  2324   00329E  0105               	movlb	5	; () banked
  2325   0032A0  6F83               	movwf	LCDprintf@args& (0+255),b
  2326   0032A2  0E05               	movlw	high (?_LCDprintf+2)
  2327   0032A4  6F84               	movwf	(LCDprintf@args+1)& (0+255),b
  2328                           
  2329                           ;C:/Users/a_hui/OneDrive - Camosun College/term2/ecet165_embedded_mc/labs/ecet165-labs/l
      +                          ab6/lcd18f.c: 152:     while(*shell != 0x0){
  2330   0032A6  EFFE  F01A         	goto	l2710
  2331   0032AA                     l2642:
  2332                           
  2333                           ;C:/Users/a_hui/OneDrive - Camosun College/term2/ecet165_embedded_mc/labs/ecet165-labs/l
      +                          ab6/lcd18f.c: 154:         if(*shell != '%'){
  2334   0032AA  C559  F4F6         	movff	LCDprintf@shell,tblptrl
  2335   0032AE  C55A  F4F7         	movff	LCDprintf@shell+1,tblptrh
  2336   0032B2                     	if	0	;tblptru may be non-zero
  2337   0032B2                     	endif
  2338   0032B2                     	if	0	;tblptru may be non-zero
  2339   0032B2                     	endif
  2340   0032B2  0008               	tblrd		*
  2341   0032B4  50F5               	movf	tablat,w,c
  2342   0032B6  0A25               	xorlw	37
  2343   0032B8  B4D8               	btfsc	status,2,c
  2344   0032BA  EF61  F019         	goto	u2541
  2345   0032BE  EF63  F019         	goto	u2540
  2346   0032C2                     u2541:
  2347   0032C2  EF6F  F019         	goto	l2648
  2348   0032C6                     u2540:
  2349   0032C6                     
  2350                           ;C:/Users/a_hui/OneDrive - Camosun College/term2/ecet165_embedded_mc/labs/ecet165-labs/l
      +                          ab6/lcd18f.c: 155:             LCDprintc(*shell++);
  2351   0032C6  C559  F4F6         	movff	LCDprintf@shell,tblptrl
  2352   0032CA  C55A  F4F7         	movff	LCDprintf@shell+1,tblptrh
  2353   0032CE                     	if	0	;tblptru may be non-zero
  2354   0032CE                     	endif
  2355   0032CE                     	if	0	;tblptru may be non-zero
  2356   0032CE                     	endif
  2357   0032CE  0008               	tblrd		*
  2358   0032D0  50F5               	movf	tablat,w,c
  2359   0032D2  EC8C  F01E         	call	_LCDprintc
  2360   0032D6                     l2646:
  2361   0032D6  4A59               	infsnz	LCDprintf@shell^(0+1280),f,c
  2362   0032D8  2A5A               	incf	(LCDprintf@shell+1)^(0+1280),f,c
  2363                           
  2364                           ;C:/Users/a_hui/OneDrive - Camosun College/term2/ecet165_embedded_mc/labs/ecet165-labs/l
      +                          ab6/lcd18f.c: 157:         }else if(*(shell+1) == 's'){
  2365   0032DA  EFFE  F01A         	goto	l2710
  2366   0032DE                     l2648:
  2367   0032DE  0E01               	movlw	1
  2368   0032E0  2459               	addwf	LCDprintf@shell^(0+1280),w,c
  2369   0032E2  0105               	movlb	5	; () banked
  2370   0032E4  6F60               	movwf	??_LCDprintf& (0+255),b
  2371   0032E6  0E00               	movlw	0
  2372   0032E8  205A               	addwfc	(LCDprintf@shell+1)^(0+1280),w,c
  2373   0032EA  6F61               	movwf	(??_LCDprintf+1)& (0+255),b
  2374   0032EC  C560  F4F6         	movff	??_LCDprintf,tblptrl
  2375   0032F0  C561  F4F7         	movff	??_LCDprintf+1,tblptrh
  2376   0032F4                     	if	0	;tblptru may be non-zero
  2377   0032F4                     	endif
  2378   0032F4                     	if	0	;tblptru may be non-zero
  2379   0032F4                     	endif
  2380   0032F4  0008               	tblrd		*
  2381   0032F6  50F5               	movf	tablat,w,c
  2382   0032F8  0A73               	xorlw	115
  2383   0032FA  A4D8               	btfss	status,2,c
  2384   0032FC  EF82  F019         	goto	u2551
  2385   003300  EF84  F019         	goto	u2550
  2386   003304                     u2551:
  2387   003304  EF99  F019         	goto	l2656
  2388   003308                     u2550:
  2389   003308                     
  2390                           ; BSR set to: 5
  2391                           ;C:/Users/a_hui/OneDrive - Camosun College/term2/ecet165_embedded_mc/labs/ecet165-labs/l
      +                          ab6/lcd18f.c: 159:             LCDprints((*(char* *)__va_arg(*(char* **)args, (char*)0))
      +                          );
  2392   003308  C583  F4D9         	movff	LCDprintf@args,fsr2l
  2393   00330C  C584  F4DA         	movff	LCDprintf@args+1,fsr2h
  2394   003310  C4DE F512          	movff	postinc2,LCDprints@c
  2395   003314  C4DD F513          	movff	postdec2,LCDprints@c+1
  2396   003318  ECA8  F01F         	call	_LCDprints	;wreg free
  2397   00331C  0E02               	movlw	2
  2398   00331E  0105               	movlb	5	; () banked
  2399   003320  2783               	addwf	LCDprintf@args& (0+255),f,b
  2400   003322  0E00               	movlw	0
  2401   003324  2384               	addwfc	(LCDprintf@args+1)& (0+255),f,b
  2402   003326                     l2654:
  2403                           
  2404                           ; BSR set to: 5
  2405                           ;C:/Users/a_hui/OneDrive - Camosun College/term2/ecet165_embedded_mc/labs/ecet165-labs/l
      +                          ab6/lcd18f.c: 160:             shell+=2;
  2406   003326  0E02               	movlw	2
  2407   003328  2659               	addwf	LCDprintf@shell^(0+1280),f,c
  2408   00332A  0E00               	movlw	0
  2409   00332C  225A               	addwfc	(LCDprintf@shell+1)^(0+1280),f,c
  2410                           
  2411                           ;C:/Users/a_hui/OneDrive - Camosun College/term2/ecet165_embedded_mc/labs/ecet165-labs/l
      +                          ab6/lcd18f.c: 161:         }
  2412   00332E  EFFE  F01A         	goto	l2710
  2413   003332                     l2656:
  2414                           
  2415                           ; BSR set to: 5
  2416   003332  0E01               	movlw	1
  2417   003334  2459               	addwf	LCDprintf@shell^(0+1280),w,c
  2418   003336  6F60               	movwf	??_LCDprintf& (0+255),b
  2419   003338  0E00               	movlw	0
  2420   00333A  205A               	addwfc	(LCDprintf@shell+1)^(0+1280),w,c
  2421   00333C  6F61               	movwf	(??_LCDprintf+1)& (0+255),b
  2422   00333E  C560  F4F6         	movff	??_LCDprintf,tblptrl
  2423   003342  C561  F4F7         	movff	??_LCDprintf+1,tblptrh
  2424   003346                     	if	0	;tblptru may be non-zero
  2425   003346                     	endif
  2426   003346                     	if	0	;tblptru may be non-zero
  2427   003346                     	endif
  2428   003346  0008               	tblrd		*
  2429   003348  50F5               	movf	tablat,w,c
  2430   00334A  0A69               	xorlw	105
  2431   00334C  A4D8               	btfss	status,2,c
  2432   00334E  EFAB  F019         	goto	u2561
  2433   003352  EFAD  F019         	goto	u2560
  2434   003356                     u2561:
  2435   003356  EFD6  F019         	goto	l2664
  2436   00335A                     u2560:
  2437   00335A                     
  2438                           ; BSR set to: 5
  2439                           ;C:/Users/a_hui/OneDrive - Camosun College/term2/ecet165_embedded_mc/labs/ecet165-labs/l
      +                          ab6/lcd18f.c: 165:             LCDprints(toString((*(unsigned int *)__va_arg(*(unsigned 
      +                          int **)args, (unsigned int)0)), (*(shell+2)-'0')));
  2440   00335A  C583  F4D9         	movff	LCDprintf@args,fsr2l
  2441   00335E  C584  F4DA         	movff	LCDprintf@args+1,fsr2h
  2442   003362  C4DE F508          	movff	postinc2,toString@number
  2443   003366  C4DD F509          	movff	postdec2,toString@number+1
  2444   00336A  0E02               	movlw	2
  2445   00336C  2459               	addwf	LCDprintf@shell^(0+1280),w,c
  2446   00336E  6F60               	movwf	??_LCDprintf& (0+255),b
  2447   003370  0E00               	movlw	0
  2448   003372  205A               	addwfc	(LCDprintf@shell+1)^(0+1280),w,c
  2449   003374  6F61               	movwf	(??_LCDprintf+1)& (0+255),b
  2450   003376  C560  F4F6         	movff	??_LCDprintf,tblptrl
  2451   00337A  C561  F4F7         	movff	??_LCDprintf+1,tblptrh
  2452   00337E                     	if	0	;tblptru may be non-zero
  2453   00337E                     	endif
  2454   00337E                     	if	0	;tblptru may be non-zero
  2455   00337E                     	endif
  2456   00337E  0008               	tblrd		*
  2457   003380  50F5               	movf	tablat,w,c
  2458   003382  0FD0               	addlw	208
  2459   003384  6E0A               	movwf	toString@length^(0+1280),c
  2460   003386  ECC8  F01E         	call	_toString	;wreg free
  2461   00338A  C508  F512         	movff	?_toString,LCDprints@c
  2462   00338E  C509  F513         	movff	?_toString+1,LCDprints@c+1
  2463   003392  ECA8  F01F         	call	_LCDprints	;wreg free
  2464   003396  0E02               	movlw	2
  2465   003398  0105               	movlb	5	; () banked
  2466   00339A  2783               	addwf	LCDprintf@args& (0+255),f,b
  2467   00339C  0E00               	movlw	0
  2468   00339E  2384               	addwfc	(LCDprintf@args+1)& (0+255),f,b
  2469   0033A0                     
  2470                           ; BSR set to: 5
  2471                           ;C:/Users/a_hui/OneDrive - Camosun College/term2/ecet165_embedded_mc/labs/ecet165-labs/l
      +                          ab6/lcd18f.c: 166:             shell+=3;
  2472   0033A0  0E03               	movlw	3
  2473   0033A2  2659               	addwf	LCDprintf@shell^(0+1280),f,c
  2474   0033A4  0E00               	movlw	0
  2475   0033A6  225A               	addwfc	(LCDprintf@shell+1)^(0+1280),f,c
  2476                           
  2477                           ;C:/Users/a_hui/OneDrive - Camosun College/term2/ecet165_embedded_mc/labs/ecet165-labs/l
      +                          ab6/lcd18f.c: 168:         }else if(*(shell+1) == 'c'){
  2478   0033A8  EFFE  F01A         	goto	l2710
  2479   0033AC                     l2664:
  2480                           
  2481                           ; BSR set to: 5
  2482   0033AC  0E01               	movlw	1
  2483   0033AE  2459               	addwf	LCDprintf@shell^(0+1280),w,c
  2484   0033B0  6F60               	movwf	??_LCDprintf& (0+255),b
  2485   0033B2  0E00               	movlw	0
  2486   0033B4  205A               	addwfc	(LCDprintf@shell+1)^(0+1280),w,c
  2487   0033B6  6F61               	movwf	(??_LCDprintf+1)& (0+255),b
  2488   0033B8  C560  F4F6         	movff	??_LCDprintf,tblptrl
  2489   0033BC  C561  F4F7         	movff	??_LCDprintf+1,tblptrh
  2490   0033C0                     	if	0	;tblptru may be non-zero
  2491   0033C0                     	endif
  2492   0033C0                     	if	0	;tblptru may be non-zero
  2493   0033C0                     	endif
  2494   0033C0  0008               	tblrd		*
  2495   0033C2  50F5               	movf	tablat,w,c
  2496   0033C4  0A63               	xorlw	99
  2497   0033C6  A4D8               	btfss	status,2,c
  2498   0033C8  EFE8  F019         	goto	u2571
  2499   0033CC  EFEA  F019         	goto	u2570
  2500   0033D0                     u2571:
  2501   0033D0  EFF8  F019         	goto	l2672
  2502   0033D4                     u2570:
  2503   0033D4                     
  2504                           ; BSR set to: 5
  2505                           ;C:/Users/a_hui/OneDrive - Camosun College/term2/ecet165_embedded_mc/labs/ecet165-labs/l
      +                          ab6/lcd18f.c: 170:             LCDprintc((*(char *)__va_arg(*(char **)args, (char)0)));
  2506   0033D4  C583  F4D9         	movff	LCDprintf@args,fsr2l
  2507   0033D8  C584  F4DA         	movff	LCDprintf@args+1,fsr2h
  2508   0033DC  50DF               	movf	indf2,w,c
  2509   0033DE  EC8C  F01E         	call	_LCDprintc
  2510   0033E2  0E02               	movlw	2
  2511   0033E4  0105               	movlb	5	; () banked
  2512   0033E6  2783               	addwf	LCDprintf@args& (0+255),f,b
  2513   0033E8  0E00               	movlw	0
  2514   0033EA  2384               	addwfc	(LCDprintf@args+1)& (0+255),f,b
  2515   0033EC  EF93  F019         	goto	l2654
  2516   0033F0                     l2672:
  2517                           
  2518                           ; BSR set to: 5
  2519   0033F0  0E02               	movlw	2
  2520   0033F2  2459               	addwf	LCDprintf@shell^(0+1280),w,c
  2521   0033F4  6F60               	movwf	??_LCDprintf& (0+255),b
  2522   0033F6  0E00               	movlw	0
  2523   0033F8  205A               	addwfc	(LCDprintf@shell+1)^(0+1280),w,c
  2524   0033FA  6F61               	movwf	(??_LCDprintf+1)& (0+255),b
  2525   0033FC  C560  F4F6         	movff	??_LCDprintf,tblptrl
  2526   003400  C561  F4F7         	movff	??_LCDprintf+1,tblptrh
  2527   003404                     	if	0	;tblptru may be non-zero
  2528   003404                     	endif
  2529   003404                     	if	0	;tblptru may be non-zero
  2530   003404                     	endif
  2531   003404  0008               	tblrd		*
  2532   003406  50F5               	movf	tablat,w,c
  2533   003408  0A66               	xorlw	102
  2534   00340A  A4D8               	btfss	status,2,c
  2535   00340C  EF0A  F01A         	goto	u2581
  2536   003410  EF0C  F01A         	goto	u2580
  2537   003414                     u2581:
  2538   003414  EFF4  F01A         	goto	l2706
  2539   003418                     u2580:
  2540   003418                     
  2541                           ; BSR set to: 5
  2542                           ;C:/Users/a_hui/OneDrive - Camosun College/term2/ecet165_embedded_mc/labs/ecet165-labs/l
      +                          ab6/lcd18f.c: 176:             char f_string[20] = "";
  2543   003418  EE21  F167         	lfsr	2,LCDprintf@f_string
  2544   00341C  0E13               	movlw	19
  2545   00341E                     u2591:
  2546   00341E  6ADE               	clrf	postinc2,c
  2547   003420  06E8               	decf	wreg,f,c
  2548   003422  E2FD               	bc	u2591
  2549   003424                     
  2550                           ; BSR set to: 5
  2551                           ;C:/Users/a_hui/OneDrive - Camosun College/term2/ecet165_embedded_mc/labs/ecet165-labs/l
      +                          ab6/lcd18f.c: 178:             f_input = (*(float *)__va_arg(*(float **)args, (float)0))
      +                          ;
  2552   003424  C583  F4D9         	movff	LCDprintf@args,fsr2l
  2553   003428  C584  F4DA         	movff	LCDprintf@args+1,fsr2h
  2554   00342C  C4DE F57C          	movff	postinc2,LCDprintf@f_input
  2555   003430  C4DE F57D          	movff	postinc2,LCDprintf@f_input+1
  2556   003434  C4DE F57E          	movff	postinc2,LCDprintf@f_input+2
  2557   003438  C4DE F57F          	movff	postinc2,LCDprintf@f_input+3
  2558   00343C  0E04               	movlw	4
  2559   00343E  2783               	addwf	LCDprintf@args& (0+255),f,b
  2560   003440  0E00               	movlw	0
  2561   003442  2384               	addwfc	(LCDprintf@args+1)& (0+255),f,b
  2562   003444                     
  2563                           ; BSR set to: 5
  2564                           ;C:/Users/a_hui/OneDrive - Camosun College/term2/ecet165_embedded_mc/labs/ecet165-labs/l
      +                          ab6/lcd18f.c: 179:             for(unsigned char i = 0; i<(*(shell+3)-'0'); i++){
  2565   003444  0E00               	movlw	0
  2566   003446  6F7B               	movwf	LCDprintf@i& (0+255),b
  2567   003448  EF42  F01A         	goto	l2684
  2568   00344C                     l2680:
  2569                           
  2570                           ; BSR set to: 5
  2571                           ;C:/Users/a_hui/OneDrive - Camosun College/term2/ecet165_embedded_mc/labs/ecet165-labs/l
      +                          ab6/lcd18f.c: 180:                 f_input *= 10;
  2572   00344C  C57C  F540         	movff	LCDprintf@f_input,___flmul@b
  2573   003450  C57D  F541         	movff	LCDprintf@f_input+1,___flmul@b+1
  2574   003454  C57E  F542         	movff	LCDprintf@f_input+2,___flmul@b+2
  2575   003458  C57F  F543         	movff	LCDprintf@f_input+3,___flmul@b+3
  2576   00345C  0E00               	movlw	0
  2577   00345E  6E44               	movwf	___flmul@a^(0+1280),c
  2578   003460  0E00               	movlw	0
  2579   003462  6E45               	movwf	(___flmul@a+1)^(0+1280),c
  2580   003464  0E20               	movlw	32
  2581   003466  6E46               	movwf	(___flmul@a+2)^(0+1280),c
  2582   003468  0E41               	movlw	65
  2583   00346A  6E47               	movwf	(___flmul@a+3)^(0+1280),c
  2584   00346C  EC6C  F015         	call	___flmul	;wreg free
  2585   003470  C540  F57C         	movff	?___flmul,LCDprintf@f_input
  2586   003474  C541  F57D         	movff	?___flmul+1,LCDprintf@f_input+1
  2587   003478  C542  F57E         	movff	?___flmul+2,LCDprintf@f_input+2
  2588   00347C  C543  F57F         	movff	?___flmul+3,LCDprintf@f_input+3
  2589   003480                     
  2590                           ;C:/Users/a_hui/OneDrive - Camosun College/term2/ecet165_embedded_mc/labs/ecet165-labs/l
      +                          ab6/lcd18f.c: 181:             }
  2591   003480  0105               	movlb	5	; () banked
  2592   003482  2B7B               	incf	LCDprintf@i& (0+255),f,b
  2593   003484                     l2684:
  2594                           
  2595                           ; BSR set to: 5
  2596   003484  0E03               	movlw	3
  2597   003486  2459               	addwf	LCDprintf@shell^(0+1280),w,c
  2598   003488  6F60               	movwf	??_LCDprintf& (0+255),b
  2599   00348A  0E00               	movlw	0
  2600   00348C  205A               	addwfc	(LCDprintf@shell+1)^(0+1280),w,c
  2601   00348E  6F61               	movwf	(??_LCDprintf+1)& (0+255),b
  2602   003490  C560  F4F6         	movff	??_LCDprintf,tblptrl
  2603   003494  C561  F4F7         	movff	??_LCDprintf+1,tblptrh
  2604   003498                     	if	0	;tblptru may be non-zero
  2605   003498                     	endif
  2606   003498                     	if	0	;tblptru may be non-zero
  2607   003498                     	endif
  2608   003498  0008               	tblrd		*
  2609   00349A  C4F5 F562          	movff	tablat,??_LCDprintf+2
  2610   00349E  0ED0               	movlw	208
  2611   0034A0  2562               	addwf	(??_LCDprintf+2)& (0+255),w,b
  2612   0034A2  6F63               	movwf	(??_LCDprintf+3)& (0+255),b
  2613   0034A4  6B64               	clrf	(??_LCDprintf+4)& (0+255),b
  2614   0034A6  0EFF               	movlw	255
  2615   0034A8  2364               	addwfc	(??_LCDprintf+4)& (0+255),f,b
  2616   0034AA  517B               	movf	LCDprintf@i& (0+255),w,b
  2617   0034AC  6F65               	movwf	(??_LCDprintf+5)& (0+255),b
  2618   0034AE  6B66               	clrf	(??_LCDprintf+6)& (0+255),b
  2619   0034B0  5163               	movf	(??_LCDprintf+3)& (0+255),w,b
  2620   0034B2  5D65               	subwf	(??_LCDprintf+5)& (0+255),w,b
  2621   0034B4  5164               	movf	(??_LCDprintf+4)& (0+255),w,b
  2622   0034B6  5966               	subwfb	(??_LCDprintf+6)& (0+255),w,b
  2623   0034B8  A0D8               	btfss	status,0,c
  2624   0034BA  EF61  F01A         	goto	u2601
  2625   0034BE  EF63  F01A         	goto	u2600
  2626   0034C2                     u2601:
  2627   0034C2  EF26  F01A         	goto	l2680
  2628   0034C6                     u2600:
  2629   0034C6                     
  2630                           ; BSR set to: 5
  2631                           ;C:/Users/a_hui/OneDrive - Camosun College/term2/ecet165_embedded_mc/labs/ecet165-labs/l
      +                          ab6/lcd18f.c: 182:             f_int = (int)f_input;
  2632   0034C6  C57C  F501         	movff	LCDprintf@f_input,___fltol@f1
  2633   0034CA  C57D  F502         	movff	LCDprintf@f_input+1,___fltol@f1+1
  2634   0034CE  C57E  F503         	movff	LCDprintf@f_input+2,___fltol@f1+2
  2635   0034D2  C57F  F504         	movff	LCDprintf@f_input+3,___fltol@f1+3
  2636   0034D6  ECE7  F01B         	call	___fltol	;wreg free
  2637   0034DA  C501  F580         	movff	?___fltol,LCDprintf@f_int
  2638   0034DE  C502  F581         	movff	?___fltol+1,LCDprintf@f_int+1
  2639   0034E2                     
  2640                           ;C:/Users/a_hui/OneDrive - Camosun College/term2/ecet165_embedded_mc/labs/ecet165-labs/l
      +                          ab6/lcd18f.c: 186:             indexer = (*(shell+1)-'0')+(*(shell+3)-'0');
  2641   0034E2  0E01               	movlw	1
  2642   0034E4  2459               	addwf	LCDprintf@shell^(0+1280),w,c
  2643   0034E6  0105               	movlb	5	; () banked
  2644   0034E8  6F60               	movwf	??_LCDprintf& (0+255),b
  2645   0034EA  0E00               	movlw	0
  2646   0034EC  205A               	addwfc	(LCDprintf@shell+1)^(0+1280),w,c
  2647   0034EE  6F61               	movwf	(??_LCDprintf+1)& (0+255),b
  2648   0034F0  C560  F4F6         	movff	??_LCDprintf,tblptrl
  2649   0034F4  C561  F4F7         	movff	??_LCDprintf+1,tblptrh
  2650   0034F8                     	if	0	;tblptru may be non-zero
  2651   0034F8                     	endif
  2652   0034F8                     	if	0	;tblptru may be non-zero
  2653   0034F8                     	endif
  2654   0034F8  0008               	tblrd		*
  2655   0034FA  C4F5 F562          	movff	tablat,??_LCDprintf+2
  2656   0034FE  0E03               	movlw	3
  2657   003500  2459               	addwf	LCDprintf@shell^(0+1280),w,c
  2658   003502  6F63               	movwf	(??_LCDprintf+3)& (0+255),b
  2659   003504  0E00               	movlw	0
  2660   003506  205A               	addwfc	(LCDprintf@shell+1)^(0+1280),w,c
  2661   003508  6F64               	movwf	(??_LCDprintf+4)& (0+255),b
  2662   00350A  C563  F4F6         	movff	??_LCDprintf+3,tblptrl
  2663   00350E  C564  F4F7         	movff	??_LCDprintf+4,tblptrh
  2664   003512                     	if	0	;tblptru may be non-zero
  2665   003512                     	endif
  2666   003512                     	if	0	;tblptru may be non-zero
  2667   003512                     	endif
  2668   003512  0008               	tblrd		*
  2669   003514  50F5               	movf	tablat,w,c
  2670   003516  2562               	addwf	(??_LCDprintf+2)& (0+255),w,b
  2671   003518  0FA0               	addlw	160
  2672   00351A  6F82               	movwf	LCDprintf@indexer& (0+255),b
  2673                           
  2674                           ;C:/Users/a_hui/OneDrive - Camosun College/term2/ecet165_embedded_mc/labs/ecet165-labs/l
      +                          ab6/lcd18f.c: 187:             while(indexer > -1){
  2675   00351C  EFE1  F01A         	goto	l2700
  2676   003520                     l2690:
  2677                           
  2678                           ; BSR set to: 5
  2679                           ;C:/Users/a_hui/OneDrive - Camosun College/term2/ecet165_embedded_mc/labs/ecet165-labs/l
      +                          ab6/lcd18f.c: 189:                 if(indexer == (*(shell+1)-'0')){
  2680   003520  C582  F560         	movff	LCDprintf@indexer,??_LCDprintf
  2681   003524  6B61               	clrf	(??_LCDprintf+1)& (0+255),b
  2682   003526  BF60               	btfsc	??_LCDprintf& (0+255),7,b
  2683   003528  0761               	decf	(??_LCDprintf+1)& (0+255),f,b
  2684   00352A  0E01               	movlw	1
  2685   00352C  2459               	addwf	LCDprintf@shell^(0+1280),w,c
  2686   00352E  6F62               	movwf	(??_LCDprintf+2)& (0+255),b
  2687   003530  0E00               	movlw	0
  2688   003532  205A               	addwfc	(LCDprintf@shell+1)^(0+1280),w,c
  2689   003534  6F63               	movwf	(??_LCDprintf+3)& (0+255),b
  2690   003536  C562  F4F6         	movff	??_LCDprintf+2,tblptrl
  2691   00353A  C563  F4F7         	movff	??_LCDprintf+3,tblptrh
  2692   00353E                     	if	0	;tblptru may be non-zero
  2693   00353E                     	endif
  2694   00353E                     	if	0	;tblptru may be non-zero
  2695   00353E                     	endif
  2696   00353E  0008               	tblrd		*
  2697   003540  C4F5 F564          	movff	tablat,??_LCDprintf+4
  2698   003544  0ED0               	movlw	208
  2699   003546  2564               	addwf	(??_LCDprintf+4)& (0+255),w,b
  2700   003548  6F65               	movwf	(??_LCDprintf+5)& (0+255),b
  2701   00354A  6B66               	clrf	(??_LCDprintf+6)& (0+255),b
  2702   00354C  0EFF               	movlw	255
  2703   00354E  2366               	addwfc	(??_LCDprintf+6)& (0+255),f,b
  2704   003550  5160               	movf	??_LCDprintf& (0+255),w,b
  2705   003552  1965               	xorwf	(??_LCDprintf+5)& (0+255),w,b
  2706   003554  E107               	bnz	u2611
  2707   003556  5161               	movf	(??_LCDprintf+1)& (0+255),w,b
  2708   003558  1966               	xorwf	(??_LCDprintf+6)& (0+255),w,b
  2709   00355A  A4D8               	btfss	status,2,c
  2710   00355C  EFB2  F01A         	goto	u2611
  2711   003560  EFB4  F01A         	goto	u2610
  2712   003564                     u2611:
  2713   003564  EFBE  F01A         	goto	l2694
  2714   003568                     u2610:
  2715   003568                     
  2716                           ; BSR set to: 5
  2717                           ;C:/Users/a_hui/OneDrive - Camosun College/term2/ecet165_embedded_mc/labs/ecet165-labs/l
      +                          ab6/lcd18f.c: 190:                     f_string[indexer] = '.';
  2718   003568  0E67               	movlw	low LCDprintf@f_string
  2719   00356A  2582               	addwf	LCDprintf@indexer& (0+255),w,b
  2720   00356C  6ED9               	movwf	fsr2l,c
  2721   00356E  6ADA               	clrf	fsr2h,c
  2722   003570  0E05               	movlw	high LCDprintf@f_string
  2723   003572  22DA               	addwfc	fsr2h,f,c
  2724   003574  0E2E               	movlw	46
  2725   003576  6EDF               	movwf	indf2,c
  2726                           
  2727                           ;C:/Users/a_hui/OneDrive - Camosun College/term2/ecet165_embedded_mc/labs/ecet165-labs/l
      +                          ab6/lcd18f.c: 192:                 }else{
  2728   003578  EFDF  F01A         	goto	l2698
  2729   00357C                     l2694:
  2730                           
  2731                           ; BSR set to: 5
  2732                           ;C:/Users/a_hui/OneDrive - Camosun College/term2/ecet165_embedded_mc/labs/ecet165-labs/l
      +                          ab6/lcd18f.c: 193:                     f_string[indexer] = (f_int % 10) + '0';
  2733   00357C  0E67               	movlw	low LCDprintf@f_string
  2734   00357E  2582               	addwf	LCDprintf@indexer& (0+255),w,b
  2735   003580  6ED9               	movwf	fsr2l,c
  2736   003582  6ADA               	clrf	fsr2h,c
  2737   003584  0E05               	movlw	high LCDprintf@f_string
  2738   003586  22DA               	addwfc	fsr2h,f,c
  2739   003588  C580  F501         	movff	LCDprintf@f_int,___awmod@dividend
  2740   00358C  C581  F502         	movff	LCDprintf@f_int+1,___awmod@dividend+1
  2741   003590  0E00               	movlw	0
  2742   003592  6E04               	movwf	(___awmod@divisor+1)^(0+1280),c
  2743   003594  0E0A               	movlw	10
  2744   003596  6E03               	movwf	___awmod@divisor^(0+1280),c
  2745   003598  EC34  F01E         	call	___awmod	;wreg free
  2746   00359C  5001               	movf	?___awmod^(0+1280),w,c
  2747   00359E  0F30               	addlw	48
  2748   0035A0  6EDF               	movwf	indf2,c
  2749   0035A2                     
  2750                           ;C:/Users/a_hui/OneDrive - Camosun College/term2/ecet165_embedded_mc/labs/ecet165-labs/l
      +                          ab6/lcd18f.c: 194:                     f_int /= 10;
  2751   0035A2  C580  F501         	movff	LCDprintf@f_int,___awdiv@dividend
  2752   0035A6  C581  F502         	movff	LCDprintf@f_int+1,___awdiv@dividend+1
  2753   0035AA  0E00               	movlw	0
  2754   0035AC  6E04               	movwf	(___awdiv@divisor+1)^(0+1280),c
  2755   0035AE  0E0A               	movlw	10
  2756   0035B0  6E03               	movwf	___awdiv@divisor^(0+1280),c
  2757   0035B2  ECD2  F01D         	call	___awdiv	;wreg free
  2758   0035B6  C501  F580         	movff	?___awdiv,LCDprintf@f_int
  2759   0035BA  C502  F581         	movff	?___awdiv+1,LCDprintf@f_int+1
  2760   0035BE                     l2698:
  2761                           
  2762                           ;C:/Users/a_hui/OneDrive - Camosun College/term2/ecet165_embedded_mc/labs/ecet165-labs/l
      +                          ab6/lcd18f.c: 196:                 indexer--;
  2763   0035BE  0105               	movlb	5	; () banked
  2764   0035C0  0782               	decf	LCDprintf@indexer& (0+255),f,b
  2765   0035C2                     l2700:
  2766                           
  2767                           ; BSR set to: 5
  2768                           ;C:/Users/a_hui/OneDrive - Camosun College/term2/ecet165_embedded_mc/labs/ecet165-labs/l
      +                          ab6/lcd18f.c: 187:             while(indexer > -1){
  2769   0035C2  BF82               	btfsc	LCDprintf@indexer& (0+255),7,b
  2770   0035C4  EFE8  F01A         	goto	u2620
  2771   0035C8  EFE6  F01A         	goto	u2621
  2772   0035CC                     u2621:
  2773   0035CC  EF90  F01A         	goto	l2690
  2774   0035D0                     u2620:
  2775   0035D0                     
  2776                           ; BSR set to: 5
  2777                           ;C:/Users/a_hui/OneDrive - Camosun College/term2/ecet165_embedded_mc/labs/ecet165-labs/l
      +                          ab6/lcd18f.c: 199:             LCDprints(f_string);
  2778   0035D0  0E67               	movlw	low LCDprintf@f_string
  2779   0035D2  6E12               	movwf	LCDprints@c^(0+1280),c
  2780   0035D4  0E05               	movlw	high LCDprintf@f_string
  2781   0035D6  6E13               	movwf	(LCDprints@c+1)^(0+1280),c
  2782   0035D8  ECA8  F01F         	call	_LCDprints	;wreg free
  2783   0035DC                     
  2784                           ;C:/Users/a_hui/OneDrive - Camosun College/term2/ecet165_embedded_mc/labs/ecet165-labs/l
      +                          ab6/lcd18f.c: 201:             shell+=4;
  2785   0035DC  0E04               	movlw	4
  2786   0035DE  2659               	addwf	LCDprintf@shell^(0+1280),f,c
  2787   0035E0  0E00               	movlw	0
  2788   0035E2  225A               	addwfc	(LCDprintf@shell+1)^(0+1280),f,c
  2789                           
  2790                           ;C:/Users/a_hui/OneDrive - Camosun College/term2/ecet165_embedded_mc/labs/ecet165-labs/l
      +                          ab6/lcd18f.c: 202:         }else{
  2791   0035E4  EFFE  F01A         	goto	l2710
  2792   0035E8                     l2706:
  2793                           
  2794                           ; BSR set to: 5
  2795                           ;C:/Users/a_hui/OneDrive - Camosun College/term2/ecet165_embedded_mc/labs/ecet165-labs/l
      +                          ab6/lcd18f.c: 204:             LCDprintc(*shell++);
  2796   0035E8  C559  F4F6         	movff	LCDprintf@shell,tblptrl
  2797   0035EC  C55A  F4F7         	movff	LCDprintf@shell+1,tblptrh
  2798   0035F0                     	if	0	;tblptru may be non-zero
  2799   0035F0                     	endif
  2800   0035F0                     	if	0	;tblptru may be non-zero
  2801   0035F0                     	endif
  2802   0035F0  0008               	tblrd		*
  2803   0035F2  50F5               	movf	tablat,w,c
  2804   0035F4  EC8C  F01E         	call	_LCDprintc
  2805   0035F8  EF6B  F019         	goto	l2646
  2806   0035FC                     l2710:
  2807                           
  2808                           ;C:/Users/a_hui/OneDrive - Camosun College/term2/ecet165_embedded_mc/labs/ecet165-labs/l
      +                          ab6/lcd18f.c: 152:     while(*shell != 0x0){
  2809   0035FC  C559  F4F6         	movff	LCDprintf@shell,tblptrl
  2810   003600  C55A  F4F7         	movff	LCDprintf@shell+1,tblptrh
  2811   003604                     	if	0	;tblptru may be non-zero
  2812   003604                     	endif
  2813   003604                     	if	0	;tblptru may be non-zero
  2814   003604                     	endif
  2815   003604  0008               	tblrd		*
  2816   003606  50F5               	movf	tablat,w,c
  2817   003608  0900               	iorlw	0
  2818   00360A  A4D8               	btfss	status,2,c
  2819   00360C  EF0A  F01B         	goto	u2631
  2820   003610  EF0C  F01B         	goto	u2630
  2821   003614                     u2631:
  2822   003614  EF55  F019         	goto	l2642
  2823   003618                     u2630:
  2824   003618  0012               	return		;funcret
  2825   00361A                     __end_of_LCDprintf:
  2826                           	callstack 0
  2827                           
  2828 ;; *************** function _toString *****************
  2829 ;; Defined at:
  2830 ;;		line 133 in file "C:/Users/a_hui/OneDrive - Camosun College/term2/ecet165_embedded_mc/labs/ecet165-labs/lab6/lcd18f.
      +c"
  2831 ;; Parameters:    Size  Location     Type
  2832 ;;  number          2    7[COMRAM] unsigned int 
  2833 ;;  length          1    9[COMRAM] unsigned char 
  2834 ;; Auto vars:     Size  Location     Type
  2835 ;;  i               1   16[COMRAM] char 
  2836 ;;  string          6   10[COMRAM] unsigned char [6]
  2837 ;; Return value:  Size  Location     Type
  2838 ;;                  2    7[COMRAM] PTR unsigned char 
  2839 ;; Registers used:
  2840 ;;		wreg, fsr2l, fsr2h, status,2, status,0, cstack
  2841 ;; Tracked objects:
  2842 ;;		On entry : 0/0
  2843 ;;		On exit  : 0/0
  2844 ;;		Unchanged: 0/0
  2845 ;; Data sizes:     COMRAM   BANK5   BANK6   BANK7   BANK8   BANK9  BANK10  BANK11  BANK12  BANK13  BANK14  BANK15  BANK1
      +6  BANK17  BANK18  BANK19  BANK20  BANK21  BANK22  BANK23  BANK24  BANK25  BANK26  BANK27  BANK28  BANK29  BANK30  BANK3
      +1  BANK32  BANK33  BANK34  BANK35  BANK36
  2846 ;;      Params:         3       0       0       0       0       0       0       0       0       0       0       0       
      +0       0       0       0       0       0       0       0       0       0       0       0       0       0       0       
      +0       0       0       0       0       0
  2847 ;;      Locals:         7       0       0       0       0       0       0       0       0       0       0       0       
      +0       0       0       0       0       0       0       0       0       0       0       0       0       0       0       
      +0       0       0       0       0       0
  2848 ;;      Temps:          0       0       0       0       0       0       0       0       0       0       0       0       
      +0       0       0       0       0       0       0       0       0       0       0       0       0       0       0       
      +0       0       0       0       0       0
  2849 ;;      Totals:        10       0       0       0       0       0       0       0       0       0       0       0       
      +0       0       0       0       0       0       0       0       0       0       0       0       0       0       0       
      +0       0       0       0       0       0
  2850 ;;Total ram usage:       10 bytes
  2851 ;; Hardware stack levels used: 1
  2852 ;; Hardware stack levels required when called: 1
  2853 ;; This function calls:
  2854 ;;		___lwdiv
  2855 ;;		___lwmod
  2856 ;; This function is called by:
  2857 ;;		_LCDprintf
  2858 ;; This function uses a non-reentrant model
  2859 ;;
  2860                           
  2861                           	psect	text8
  2862   003D90                     __ptext8:
  2863                           	callstack 0
  2864   003D90                     _toString:
  2865                           	callstack 124
  2866   003D90                     
  2867                           ;C:/Users/a_hui/OneDrive - Camosun College/term2/ecet165_embedded_mc/labs/ecet165-labs/l
      +                          ab6/lcd18f.c: 134:     char string[6] = "";
  2868   003D90  EE21  F10B         	lfsr	2,toString@string
  2869   003D94  0E05               	movlw	5
  2870   003D96                     u1811:
  2871   003D96  6ADE               	clrf	postinc2,c
  2872   003D98  06E8               	decf	wreg,f,c
  2873   003D9A  E2FD               	bc	u1811
  2874   003D9C                     
  2875                           ;C:/Users/a_hui/OneDrive - Camosun College/term2/ecet165_embedded_mc/labs/ecet165-labs/l
      +                          ab6/lcd18f.c: 136:     for(signed char i = length-1; i > -1; i--){
  2876   003D9C  040A               	decf	toString@length^(0+1280),w,c
  2877   003D9E  6E11               	movwf	toString@i^(0+1280),c
  2878   003DA0                     l2118:
  2879   003DA0  BE11               	btfsc	toString@i^(0+1280),7,c
  2880   003DA2  EFD7  F01E         	goto	u1820
  2881   003DA6  EFD5  F01E         	goto	u1821
  2882   003DAA                     u1821:
  2883   003DAA  EFD9  F01E         	goto	l2122
  2884   003DAE                     u1820:
  2885   003DAE  EFFD  F01E         	goto	l2130
  2886   003DB2                     l2122:
  2887                           
  2888                           ;C:/Users/a_hui/OneDrive - Camosun College/term2/ecet165_embedded_mc/labs/ecet165-labs/l
      +                          ab6/lcd18f.c: 137:         string[i] = (number % 10) + '0';
  2889   003DB2  0E0B               	movlw	low toString@string
  2890   003DB4  2411               	addwf	toString@i^(0+1280),w,c
  2891   003DB6  6ED9               	movwf	fsr2l,c
  2892   003DB8  6ADA               	clrf	fsr2h,c
  2893   003DBA  0E05               	movlw	high toString@string
  2894   003DBC  22DA               	addwfc	fsr2h,f,c
  2895   003DBE  C508  F501         	movff	toString@number,___lwmod@dividend
  2896   003DC2  C509  F502         	movff	toString@number+1,___lwmod@dividend+1
  2897   003DC6  0E00               	movlw	0
  2898   003DC8  6E04               	movwf	(___lwmod@divisor+1)^(0+1280),c
  2899   003DCA  0E0A               	movlw	10
  2900   003DCC  6E03               	movwf	___lwmod@divisor^(0+1280),c
  2901   003DCE  EC76  F01F         	call	___lwmod	;wreg free
  2902   003DD2  5001               	movf	?___lwmod^(0+1280),w,c
  2903   003DD4  0F30               	addlw	48
  2904   003DD6  6EDF               	movwf	indf2,c
  2905   003DD8                     
  2906                           ;C:/Users/a_hui/OneDrive - Camosun College/term2/ecet165_embedded_mc/labs/ecet165-labs/l
      +                          ab6/lcd18f.c: 138:         number /= 10;
  2907   003DD8  C508  F501         	movff	toString@number,___lwdiv@dividend
  2908   003DDC  C509  F502         	movff	toString@number+1,___lwdiv@dividend+1
  2909   003DE0  0E00               	movlw	0
  2910   003DE2  6E04               	movwf	(___lwdiv@divisor+1)^(0+1280),c
  2911   003DE4  0E0A               	movlw	10
  2912   003DE6  6E03               	movwf	___lwdiv@divisor^(0+1280),c
  2913   003DE8  EC02  F01F         	call	___lwdiv	;wreg free
  2914   003DEC  C501  F508         	movff	?___lwdiv,toString@number
  2915   003DF0  C502  F509         	movff	?___lwdiv+1,toString@number+1
  2916   003DF4                     
  2917                           ;C:/Users/a_hui/OneDrive - Camosun College/term2/ecet165_embedded_mc/labs/ecet165-labs/l
      +                          ab6/lcd18f.c: 139:     };
  2918   003DF4  0611               	decf	toString@i^(0+1280),f,c
  2919   003DF6  EFD0  F01E         	goto	l2118
  2920   003DFA                     l2130:
  2921                           
  2922                           ;C:/Users/a_hui/OneDrive - Camosun College/term2/ecet165_embedded_mc/labs/ecet165-labs/l
      +                          ab6/lcd18f.c: 140:     return &string;
  2923   003DFA  0E0B               	movlw	low toString@string
  2924   003DFC  6E08               	movwf	?_toString^(0+1280),c
  2925   003DFE  0E05               	movlw	high toString@string
  2926   003E00  6E09               	movwf	(?_toString+1)^(0+1280),c
  2927   003E02  0012               	return		;funcret
  2928   003E04                     __end_of_toString:
  2929                           	callstack 0
  2930                           
  2931 ;; *************** function ___lwmod *****************
  2932 ;; Defined at:
  2933 ;;		line 7 in file "C:\Program Files\Microchip\xc8\v2.40\pic\sources\c99\common\lwmod.c"
  2934 ;; Parameters:    Size  Location     Type
  2935 ;;  dividend        2    0[COMRAM] unsigned int 
  2936 ;;  divisor         2    2[COMRAM] unsigned int 
  2937 ;; Auto vars:     Size  Location     Type
  2938 ;;  counter         1    4[COMRAM] unsigned char 
  2939 ;; Return value:  Size  Location     Type
  2940 ;;                  2    0[COMRAM] unsigned int 
  2941 ;; Registers used:
  2942 ;;		wreg, status,2, status,0
  2943 ;; Tracked objects:
  2944 ;;		On entry : 0/0
  2945 ;;		On exit  : 0/0
  2946 ;;		Unchanged: 0/0
  2947 ;; Data sizes:     COMRAM   BANK5   BANK6   BANK7   BANK8   BANK9  BANK10  BANK11  BANK12  BANK13  BANK14  BANK15  BANK1
      +6  BANK17  BANK18  BANK19  BANK20  BANK21  BANK22  BANK23  BANK24  BANK25  BANK26  BANK27  BANK28  BANK29  BANK30  BANK3
      +1  BANK32  BANK33  BANK34  BANK35  BANK36
  2948 ;;      Params:         4       0       0       0       0       0       0       0       0       0       0       0       
      +0       0       0       0       0       0       0       0       0       0       0       0       0       0       0       
      +0       0       0       0       0       0
  2949 ;;      Locals:         1       0       0       0       0       0       0       0       0       0       0       0       
      +0       0       0       0       0       0       0       0       0       0       0       0       0       0       0       
      +0       0       0       0       0       0
  2950 ;;      Temps:          0       0       0       0       0       0       0       0       0       0       0       0       
      +0       0       0       0       0       0       0       0       0       0       0       0       0       0       0       
      +0       0       0       0       0       0
  2951 ;;      Totals:         5       0       0       0       0       0       0       0       0       0       0       0       
      +0       0       0       0       0       0       0       0       0       0       0       0       0       0       0       
      +0       0       0       0       0       0
  2952 ;;Total ram usage:        5 bytes
  2953 ;; Hardware stack levels used: 1
  2954 ;; This function calls:
  2955 ;;		Nothing
  2956 ;; This function is called by:
  2957 ;;		_toString
  2958 ;; This function uses a non-reentrant model
  2959 ;;
  2960                           
  2961                           	psect	text9
  2962   003EEC                     __ptext9:
  2963                           	callstack 0
  2964   003EEC                     ___lwmod:
  2965                           	callstack 124
  2966   003EEC  5003               	movf	___lwmod@divisor^(0+1280),w,c
  2967   003EEE  1004               	iorwf	(___lwmod@divisor+1)^(0+1280),w,c
  2968   003EF0  B4D8               	btfsc	status,2,c
  2969   003EF2  EF7D  F01F         	goto	u1771
  2970   003EF6  EF7F  F01F         	goto	u1770
  2971   003EFA                     u1771:
  2972   003EFA  EFA3  F01F         	goto	l620
  2973   003EFE                     u1770:
  2974   003EFE  0E01               	movlw	1
  2975   003F00  6E05               	movwf	___lwmod@counter^(0+1280),c
  2976   003F02  EF87  F01F         	goto	l2050
  2977   003F06                     l2048:
  2978   003F06  90D8               	bcf	status,0,c
  2979   003F08  3603               	rlcf	___lwmod@divisor^(0+1280),f,c
  2980   003F0A  3604               	rlcf	(___lwmod@divisor+1)^(0+1280),f,c
  2981   003F0C  2A05               	incf	___lwmod@counter^(0+1280),f,c
  2982   003F0E                     l2050:
  2983   003F0E  AE04               	btfss	(___lwmod@divisor+1)^(0+1280),7,c
  2984   003F10  EF8C  F01F         	goto	u1781
  2985   003F14  EF8E  F01F         	goto	u1780
  2986   003F18                     u1781:
  2987   003F18  EF83  F01F         	goto	l2048
  2988   003F1C                     u1780:
  2989   003F1C                     l2052:
  2990   003F1C  5003               	movf	___lwmod@divisor^(0+1280),w,c
  2991   003F1E  5C01               	subwf	___lwmod@dividend^(0+1280),w,c
  2992   003F20  5004               	movf	(___lwmod@divisor+1)^(0+1280),w,c
  2993   003F22  5802               	subwfb	(___lwmod@dividend+1)^(0+1280),w,c
  2994   003F24  A0D8               	btfss	status,0,c
  2995   003F26  EF97  F01F         	goto	u1791
  2996   003F2A  EF99  F01F         	goto	u1790
  2997   003F2E                     u1791:
  2998   003F2E  EF9D  F01F         	goto	l2056
  2999   003F32                     u1790:
  3000   003F32  5003               	movf	___lwmod@divisor^(0+1280),w,c
  3001   003F34  5E01               	subwf	___lwmod@dividend^(0+1280),f,c
  3002   003F36  5004               	movf	(___lwmod@divisor+1)^(0+1280),w,c
  3003   003F38  5A02               	subwfb	(___lwmod@dividend+1)^(0+1280),f,c
  3004   003F3A                     l2056:
  3005   003F3A  90D8               	bcf	status,0,c
  3006   003F3C  3204               	rrcf	(___lwmod@divisor+1)^(0+1280),f,c
  3007   003F3E  3203               	rrcf	___lwmod@divisor^(0+1280),f,c
  3008   003F40  2E05               	decfsz	___lwmod@counter^(0+1280),f,c
  3009   003F42  EF8E  F01F         	goto	l2052
  3010   003F46                     l620:
  3011   003F46  C501  F501         	movff	___lwmod@dividend,?___lwmod
  3012   003F4A  C502  F502         	movff	___lwmod@dividend+1,?___lwmod+1
  3013   003F4E  0012               	return		;funcret
  3014   003F50                     __end_of___lwmod:
  3015                           	callstack 0
  3016                           
  3017 ;; *************** function ___lwdiv *****************
  3018 ;; Defined at:
  3019 ;;		line 7 in file "C:\Program Files\Microchip\xc8\v2.40\pic\sources\c99\common\lwdiv.c"
  3020 ;; Parameters:    Size  Location     Type
  3021 ;;  dividend        2    0[COMRAM] unsigned int 
  3022 ;;  divisor         2    2[COMRAM] unsigned int 
  3023 ;; Auto vars:     Size  Location     Type
  3024 ;;  quotient        2    4[COMRAM] unsigned int 
  3025 ;;  counter         1    6[COMRAM] unsigned char 
  3026 ;; Return value:  Size  Location     Type
  3027 ;;                  2    0[COMRAM] unsigned int 
  3028 ;; Registers used:
  3029 ;;		wreg, status,2, status,0
  3030 ;; Tracked objects:
  3031 ;;		On entry : 0/0
  3032 ;;		On exit  : 0/0
  3033 ;;		Unchanged: 0/0
  3034 ;; Data sizes:     COMRAM   BANK5   BANK6   BANK7   BANK8   BANK9  BANK10  BANK11  BANK12  BANK13  BANK14  BANK15  BANK1
      +6  BANK17  BANK18  BANK19  BANK20  BANK21  BANK22  BANK23  BANK24  BANK25  BANK26  BANK27  BANK28  BANK29  BANK30  BANK3
      +1  BANK32  BANK33  BANK34  BANK35  BANK36
  3035 ;;      Params:         4       0       0       0       0       0       0       0       0       0       0       0       
      +0       0       0       0       0       0       0       0       0       0       0       0       0       0       0       
      +0       0       0       0       0       0
  3036 ;;      Locals:         3       0       0       0       0       0       0       0       0       0       0       0       
      +0       0       0       0       0       0       0       0       0       0       0       0       0       0       0       
      +0       0       0       0       0       0
  3037 ;;      Temps:          0       0       0       0       0       0       0       0       0       0       0       0       
      +0       0       0       0       0       0       0       0       0       0       0       0       0       0       0       
      +0       0       0       0       0       0
  3038 ;;      Totals:         7       0       0       0       0       0       0       0       0       0       0       0       
      +0       0       0       0       0       0       0       0       0       0       0       0       0       0       0       
      +0       0       0       0       0       0
  3039 ;;Total ram usage:        7 bytes
  3040 ;; Hardware stack levels used: 1
  3041 ;; This function calls:
  3042 ;;		Nothing
  3043 ;; This function is called by:
  3044 ;;		_toString
  3045 ;; This function uses a non-reentrant model
  3046 ;;
  3047                           
  3048                           	psect	text10
  3049   003E04                     __ptext10:
  3050                           	callstack 0
  3051   003E04                     ___lwdiv:
  3052                           	callstack 124
  3053   003E04  0E00               	movlw	0
  3054   003E06  6E06               	movwf	(___lwdiv@quotient+1)^(0+1280),c
  3055   003E08  0E00               	movlw	0
  3056   003E0A  6E05               	movwf	___lwdiv@quotient^(0+1280),c
  3057   003E0C  5003               	movf	___lwdiv@divisor^(0+1280),w,c
  3058   003E0E  1004               	iorwf	(___lwdiv@divisor+1)^(0+1280),w,c
  3059   003E10  B4D8               	btfsc	status,2,c
  3060   003E12  EF0D  F01F         	goto	u1741
  3061   003E16  EF0F  F01F         	goto	u1740
  3062   003E1A                     u1741:
  3063   003E1A  EF37  F01F         	goto	l610
  3064   003E1E                     u1740:
  3065   003E1E  0E01               	movlw	1
  3066   003E20  6E07               	movwf	___lwdiv@counter^(0+1280),c
  3067   003E22  EF17  F01F         	goto	l2030
  3068   003E26                     l2028:
  3069   003E26  90D8               	bcf	status,0,c
  3070   003E28  3603               	rlcf	___lwdiv@divisor^(0+1280),f,c
  3071   003E2A  3604               	rlcf	(___lwdiv@divisor+1)^(0+1280),f,c
  3072   003E2C  2A07               	incf	___lwdiv@counter^(0+1280),f,c
  3073   003E2E                     l2030:
  3074   003E2E  AE04               	btfss	(___lwdiv@divisor+1)^(0+1280),7,c
  3075   003E30  EF1C  F01F         	goto	u1751
  3076   003E34  EF1E  F01F         	goto	u1750
  3077   003E38                     u1751:
  3078   003E38  EF13  F01F         	goto	l2028
  3079   003E3C                     u1750:
  3080   003E3C                     l2032:
  3081   003E3C  90D8               	bcf	status,0,c
  3082   003E3E  3605               	rlcf	___lwdiv@quotient^(0+1280),f,c
  3083   003E40  3606               	rlcf	(___lwdiv@quotient+1)^(0+1280),f,c
  3084   003E42  5003               	movf	___lwdiv@divisor^(0+1280),w,c
  3085   003E44  5C01               	subwf	___lwdiv@dividend^(0+1280),w,c
  3086   003E46  5004               	movf	(___lwdiv@divisor+1)^(0+1280),w,c
  3087   003E48  5802               	subwfb	(___lwdiv@dividend+1)^(0+1280),w,c
  3088   003E4A  A0D8               	btfss	status,0,c
  3089   003E4C  EF2A  F01F         	goto	u1761
  3090   003E50  EF2C  F01F         	goto	u1760
  3091   003E54                     u1761:
  3092   003E54  EF31  F01F         	goto	l2040
  3093   003E58                     u1760:
  3094   003E58  5003               	movf	___lwdiv@divisor^(0+1280),w,c
  3095   003E5A  5E01               	subwf	___lwdiv@dividend^(0+1280),f,c
  3096   003E5C  5004               	movf	(___lwdiv@divisor+1)^(0+1280),w,c
  3097   003E5E  5A02               	subwfb	(___lwdiv@dividend+1)^(0+1280),f,c
  3098   003E60  8005               	bsf	___lwdiv@quotient^(0+1280),0,c
  3099   003E62                     l2040:
  3100   003E62  90D8               	bcf	status,0,c
  3101   003E64  3204               	rrcf	(___lwdiv@divisor+1)^(0+1280),f,c
  3102   003E66  3203               	rrcf	___lwdiv@divisor^(0+1280),f,c
  3103   003E68  2E07               	decfsz	___lwdiv@counter^(0+1280),f,c
  3104   003E6A  EF1E  F01F         	goto	l2032
  3105   003E6E                     l610:
  3106   003E6E  C505  F501         	movff	___lwdiv@quotient,?___lwdiv
  3107   003E72  C506  F502         	movff	___lwdiv@quotient+1,?___lwdiv+1
  3108   003E76  0012               	return		;funcret
  3109   003E78                     __end_of___lwdiv:
  3110                           	callstack 0
  3111                           
  3112 ;; *************** function ___fltol *****************
  3113 ;; Defined at:
  3114 ;;		line 43 in file "C:\Program Files\Microchip\xc8\v2.40\pic\sources\c99\common\fltol.c"
  3115 ;; Parameters:    Size  Location     Type
  3116 ;;  f1              4    0[COMRAM] unsigned int 
  3117 ;; Auto vars:     Size  Location     Type
  3118 ;;  exp1            1    9[COMRAM] unsigned char 
  3119 ;;  sign1           1    8[COMRAM] unsigned char 
  3120 ;; Return value:  Size  Location     Type
  3121 ;;                  4    0[COMRAM] long 
  3122 ;; Registers used:
  3123 ;;		wreg, status,2, status,0
  3124 ;; Tracked objects:
  3125 ;;		On entry : 0/0
  3126 ;;		On exit  : 0/0
  3127 ;;		Unchanged: 0/0
  3128 ;; Data sizes:     COMRAM   BANK5   BANK6   BANK7   BANK8   BANK9  BANK10  BANK11  BANK12  BANK13  BANK14  BANK15  BANK1
      +6  BANK17  BANK18  BANK19  BANK20  BANK21  BANK22  BANK23  BANK24  BANK25  BANK26  BANK27  BANK28  BANK29  BANK30  BANK3
      +1  BANK32  BANK33  BANK34  BANK35  BANK36
  3129 ;;      Params:         4       0       0       0       0       0       0       0       0       0       0       0       
      +0       0       0       0       0       0       0       0       0       0       0       0       0       0       0       
      +0       0       0       0       0       0
  3130 ;;      Locals:         2       0       0       0       0       0       0       0       0       0       0       0       
      +0       0       0       0       0       0       0       0       0       0       0       0       0       0       0       
      +0       0       0       0       0       0
  3131 ;;      Temps:          4       0       0       0       0       0       0       0       0       0       0       0       
      +0       0       0       0       0       0       0       0       0       0       0       0       0       0       0       
      +0       0       0       0       0       0
  3132 ;;      Totals:        10       0       0       0       0       0       0       0       0       0       0       0       
      +0       0       0       0       0       0       0       0       0       0       0       0       0       0       0       
      +0       0       0       0       0       0
  3133 ;;Total ram usage:       10 bytes
  3134 ;; Hardware stack levels used: 1
  3135 ;; This function calls:
  3136 ;;		Nothing
  3137 ;; This function is called by:
  3138 ;;		_LCDprintf
  3139 ;; This function uses a non-reentrant model
  3140 ;;
  3141                           
  3142                           	psect	text11
  3143   0037CE                     __ptext11:
  3144                           	callstack 0
  3145   0037CE                     ___fltol:
  3146                           	callstack 125
  3147   0037CE  3403               	rlcf	(___fltol@f1+2)^(0+1280),w,c
  3148   0037D0  3404               	rlcf	(___fltol@f1+3)^(0+1280),w,c
  3149   0037D2  6E0A               	movwf	___fltol@exp1^(0+1280),c
  3150   0037D4  500A               	movf	___fltol@exp1^(0+1280),w,c
  3151   0037D6  A4D8               	btfss	status,2,c
  3152   0037D8  EFF0  F01B         	goto	u2371
  3153   0037DC  EFF2  F01B         	goto	u2370
  3154   0037E0                     u2371:
  3155   0037E0  EFFC  F01B         	goto	l2494
  3156   0037E4                     u2370:
  3157   0037E4                     l2490:
  3158   0037E4  0E00               	movlw	0
  3159   0037E6  6E01               	movwf	?___fltol^(0+1280),c
  3160   0037E8  0E00               	movlw	0
  3161   0037EA  6E02               	movwf	(?___fltol+1)^(0+1280),c
  3162   0037EC  0E00               	movlw	0
  3163   0037EE  6E03               	movwf	(?___fltol+2)^(0+1280),c
  3164   0037F0  0E00               	movlw	0
  3165   0037F2  6E04               	movwf	(?___fltol+3)^(0+1280),c
  3166   0037F4  EF69  F01C         	goto	l416
  3167   0037F8                     l2494:
  3168   0037F8  C501  F505         	movff	___fltol@f1,??___fltol
  3169   0037FC  C502  F506         	movff	___fltol@f1+1,??___fltol+1
  3170   003800  C503  F507         	movff	___fltol@f1+2,??___fltol+2
  3171   003804  C504  F508         	movff	___fltol@f1+3,??___fltol+3
  3172   003808  0E20               	movlw	32
  3173   00380A  EF0C  F01C         	goto	u2380
  3174   00380E                     u2385:
  3175   00380E  90D8               	bcf	status,0,c
  3176   003810  3208               	rrcf	(??___fltol+3)^(0+1280),f,c
  3177   003812  3207               	rrcf	(??___fltol+2)^(0+1280),f,c
  3178   003814  3206               	rrcf	(??___fltol+1)^(0+1280),f,c
  3179   003816  3205               	rrcf	??___fltol^(0+1280),f,c
  3180   003818                     u2380:
  3181   003818  2EE8               	decfsz	wreg,f,c
  3182   00381A  EF07  F01C         	goto	u2385
  3183   00381E  5005               	movf	??___fltol^(0+1280),w,c
  3184   003820  6E09               	movwf	___fltol@sign1^(0+1280),c
  3185   003822  8E03               	bsf	(___fltol@f1+2)^(0+1280),7,c
  3186   003824  0EFF               	movlw	255
  3187   003826  1601               	andwf	___fltol@f1^(0+1280),f,c
  3188   003828  0EFF               	movlw	255
  3189   00382A  1602               	andwf	(___fltol@f1+1)^(0+1280),f,c
  3190   00382C  0EFF               	movlw	255
  3191   00382E  1603               	andwf	(___fltol@f1+2)^(0+1280),f,c
  3192   003830  0E00               	movlw	0
  3193   003832  1604               	andwf	(___fltol@f1+3)^(0+1280),f,c
  3194   003834  0E96               	movlw	150
  3195   003836  5E0A               	subwf	___fltol@exp1^(0+1280),f,c
  3196   003838  BE0A               	btfsc	___fltol@exp1^(0+1280),7,c
  3197   00383A  EF23  F01C         	goto	u2390
  3198   00383E  EF21  F01C         	goto	u2391
  3199   003842                     u2391:
  3200   003842  EF39  F01C         	goto	l2514
  3201   003846                     u2390:
  3202   003846  500A               	movf	___fltol@exp1^(0+1280),w,c
  3203   003848  0A80               	xorlw	128
  3204   00384A  0F97               	addlw	151
  3205   00384C  B0D8               	btfsc	status,0,c
  3206   00384E  EF2B  F01C         	goto	u2401
  3207   003852  EF2D  F01C         	goto	u2400
  3208   003856                     u2401:
  3209   003856  EF2F  F01C         	goto	l2510
  3210   00385A                     u2400:
  3211   00385A  EFF2  F01B         	goto	l2490
  3212   00385E                     l2510:
  3213   00385E  90D8               	bcf	status,0,c
  3214   003860  3204               	rrcf	(___fltol@f1+3)^(0+1280),f,c
  3215   003862  3203               	rrcf	(___fltol@f1+2)^(0+1280),f,c
  3216   003864  3202               	rrcf	(___fltol@f1+1)^(0+1280),f,c
  3217   003866  3201               	rrcf	___fltol@f1^(0+1280),f,c
  3218   003868  3E0A               	incfsz	___fltol@exp1^(0+1280),f,c
  3219   00386A  EF2F  F01C         	goto	l2510
  3220   00386E  EF51  F01C         	goto	l2524
  3221   003872                     l2514:
  3222   003872  0E1F               	movlw	31
  3223   003874  640A               	cpfsgt	___fltol@exp1^(0+1280),c
  3224   003876  EF3F  F01C         	goto	u2411
  3225   00387A  EF41  F01C         	goto	u2410
  3226   00387E                     u2411:
  3227   00387E  EF49  F01C         	goto	l2522
  3228   003882                     u2410:
  3229   003882  EFF2  F01B         	goto	l2490
  3230   003886                     l2520:
  3231   003886  90D8               	bcf	status,0,c
  3232   003888  3601               	rlcf	___fltol@f1^(0+1280),f,c
  3233   00388A  3602               	rlcf	(___fltol@f1+1)^(0+1280),f,c
  3234   00388C  3603               	rlcf	(___fltol@f1+2)^(0+1280),f,c
  3235   00388E  3604               	rlcf	(___fltol@f1+3)^(0+1280),f,c
  3236   003890  060A               	decf	___fltol@exp1^(0+1280),f,c
  3237   003892                     l2522:
  3238   003892  500A               	movf	___fltol@exp1^(0+1280),w,c
  3239   003894  A4D8               	btfss	status,2,c
  3240   003896  EF4F  F01C         	goto	u2421
  3241   00389A  EF51  F01C         	goto	u2420
  3242   00389E                     u2421:
  3243   00389E  EF43  F01C         	goto	l2520
  3244   0038A2                     u2420:
  3245   0038A2                     l2524:
  3246   0038A2  5009               	movf	___fltol@sign1^(0+1280),w,c
  3247   0038A4  B4D8               	btfsc	status,2,c
  3248   0038A6  EF57  F01C         	goto	u2431
  3249   0038AA  EF59  F01C         	goto	u2430
  3250   0038AE                     u2431:
  3251   0038AE  EF61  F01C         	goto	l2528
  3252   0038B2                     u2430:
  3253   0038B2  1E04               	comf	(___fltol@f1+3)^(0+1280),f,c
  3254   0038B4  1E03               	comf	(___fltol@f1+2)^(0+1280),f,c
  3255   0038B6  1E02               	comf	(___fltol@f1+1)^(0+1280),f,c
  3256   0038B8  6C01               	negf	___fltol@f1^(0+1280),c
  3257   0038BA  0E00               	movlw	0
  3258   0038BC  2202               	addwfc	(___fltol@f1+1)^(0+1280),f,c
  3259   0038BE  2203               	addwfc	(___fltol@f1+2)^(0+1280),f,c
  3260   0038C0  2204               	addwfc	(___fltol@f1+3)^(0+1280),f,c
  3261   0038C2                     l2528:
  3262   0038C2  C501  F501         	movff	___fltol@f1,?___fltol
  3263   0038C6  C502  F502         	movff	___fltol@f1+1,?___fltol+1
  3264   0038CA  C503  F503         	movff	___fltol@f1+2,?___fltol+2
  3265   0038CE  C504  F504         	movff	___fltol@f1+3,?___fltol+3
  3266   0038D2                     l416:
  3267   0038D2  0012               	return		;funcret
  3268   0038D4                     __end_of___fltol:
  3269                           	callstack 0
  3270                           
  3271 ;; *************** function ___flmul *****************
  3272 ;; Defined at:
  3273 ;;		line 8 in file "C:\Program Files\Microchip\xc8\v2.40\pic\sources\c99\common\sprcmul.c"
  3274 ;; Parameters:    Size  Location     Type
  3275 ;;  b               4   63[COMRAM] long 
  3276 ;;  a               4   67[COMRAM] long 
  3277 ;; Auto vars:     Size  Location     Type
  3278 ;;  prod            4   82[COMRAM] struct .
  3279 ;;  grs             4   76[COMRAM] unsigned long 
  3280 ;;  temp            2   86[COMRAM] struct .
  3281 ;;  bexp            1   81[COMRAM] unsigned char 
  3282 ;;  aexp            1   80[COMRAM] unsigned char 
  3283 ;;  sign            1   75[COMRAM] unsigned char 
  3284 ;; Return value:  Size  Location     Type
  3285 ;;                  4   63[COMRAM] unsigned char 
  3286 ;; Registers used:
  3287 ;;		wreg, status,2, status,0, prodl, prodh
  3288 ;; Tracked objects:
  3289 ;;		On entry : 0/0
  3290 ;;		On exit  : 0/0
  3291 ;;		Unchanged: 0/0
  3292 ;; Data sizes:     COMRAM   BANK5   BANK6   BANK7   BANK8   BANK9  BANK10  BANK11  BANK12  BANK13  BANK14  BANK15  BANK1
      +6  BANK17  BANK18  BANK19  BANK20  BANK21  BANK22  BANK23  BANK24  BANK25  BANK26  BANK27  BANK28  BANK29  BANK30  BANK3
      +1  BANK32  BANK33  BANK34  BANK35  BANK36
  3293 ;;      Params:         8       0       0       0       0       0       0       0       0       0       0       0       
      +0       0       0       0       0       0       0       0       0       0       0       0       0       0       0       
      +0       0       0       0       0       0
  3294 ;;      Locals:        13       0       0       0       0       0       0       0       0       0       0       0       
      +0       0       0       0       0       0       0       0       0       0       0       0       0       0       0       
      +0       0       0       0       0       0
  3295 ;;      Temps:          4       0       0       0       0       0       0       0       0       0       0       0       
      +0       0       0       0       0       0       0       0       0       0       0       0       0       0       0       
      +0       0       0       0       0       0
  3296 ;;      Totals:        25       0       0       0       0       0       0       0       0       0       0       0       
      +0       0       0       0       0       0       0       0       0       0       0       0       0       0       0       
      +0       0       0       0       0       0
  3297 ;;Total ram usage:       25 bytes
  3298 ;; Hardware stack levels used: 1
  3299 ;; This function calls:
  3300 ;;		Nothing
  3301 ;; This function is called by:
  3302 ;;		_LCDprintf
  3303 ;;		_analogMap
  3304 ;; This function uses a non-reentrant model
  3305 ;;
  3306                           
  3307                           	psect	text12
  3308   002AD8                     __ptext12:
  3309                           	callstack 0
  3310   002AD8                     ___flmul:
  3311                           	callstack 125
  3312   002AD8  5043               	movf	(___flmul@b+3)^(0+1280),w,c
  3313   002ADA  0B80               	andlw	128
  3314   002ADC  6E4C               	movwf	___flmul@sign^(0+1280),c
  3315   002ADE  5043               	movf	(___flmul@b+3)^(0+1280),w,c
  3316   002AE0  2443               	addwf	(___flmul@b+3)^(0+1280),w,c
  3317   002AE2  6E52               	movwf	___flmul@bexp^(0+1280),c
  3318   002AE4  AE42               	btfss	(___flmul@b+2)^(0+1280),7,c
  3319   002AE6  EF77  F015         	goto	u2061
  3320   002AEA  EF79  F015         	goto	u2060
  3321   002AEE                     u2061:
  3322   002AEE  EF7A  F015         	goto	l2278
  3323   002AF2                     u2060:
  3324   002AF2  8052               	bsf	___flmul@bexp^(0+1280),0,c
  3325   002AF4                     l2278:
  3326   002AF4  5052               	movf	___flmul@bexp^(0+1280),w,c
  3327   002AF6  B4D8               	btfsc	status,2,c
  3328   002AF8  EF80  F015         	goto	u2071
  3329   002AFC  EF82  F015         	goto	u2070
  3330   002B00                     u2071:
  3331   002B00  EF95  F015         	goto	l2286
  3332   002B04                     u2070:
  3333   002B04  2852               	incf	___flmul@bexp^(0+1280),w,c
  3334   002B06  A4D8               	btfss	status,2,c
  3335   002B08  EF88  F015         	goto	u2081
  3336   002B0C  EF8A  F015         	goto	u2080
  3337   002B10                     u2081:
  3338   002B10  EF92  F015         	goto	l2284
  3339   002B14                     u2080:
  3340   002B14  0E00               	movlw	0
  3341   002B16  6E40               	movwf	___flmul@b^(0+1280),c
  3342   002B18  0E00               	movlw	0
  3343   002B1A  6E41               	movwf	(___flmul@b+1)^(0+1280),c
  3344   002B1C  0E00               	movlw	0
  3345   002B1E  6E42               	movwf	(___flmul@b+2)^(0+1280),c
  3346   002B20  0E00               	movlw	0
  3347   002B22  6E43               	movwf	(___flmul@b+3)^(0+1280),c
  3348   002B24                     l2284:
  3349   002B24  8E42               	bsf	(___flmul@b+2)^(0+1280),7,c
  3350   002B26  EF9D  F015         	goto	l2288
  3351   002B2A                     l2286:
  3352   002B2A  0E00               	movlw	0
  3353   002B2C  6E40               	movwf	___flmul@b^(0+1280),c
  3354   002B2E  0E00               	movlw	0
  3355   002B30  6E41               	movwf	(___flmul@b+1)^(0+1280),c
  3356   002B32  0E00               	movlw	0
  3357   002B34  6E42               	movwf	(___flmul@b+2)^(0+1280),c
  3358   002B36  0E00               	movlw	0
  3359   002B38  6E43               	movwf	(___flmul@b+3)^(0+1280),c
  3360   002B3A                     l2288:
  3361   002B3A  5047               	movf	(___flmul@a+3)^(0+1280),w,c
  3362   002B3C  0B80               	andlw	128
  3363   002B3E  1A4C               	xorwf	___flmul@sign^(0+1280),f,c
  3364   002B40  5047               	movf	(___flmul@a+3)^(0+1280),w,c
  3365   002B42  2447               	addwf	(___flmul@a+3)^(0+1280),w,c
  3366   002B44  6E51               	movwf	___flmul@aexp^(0+1280),c
  3367   002B46  AE46               	btfss	(___flmul@a+2)^(0+1280),7,c
  3368   002B48  EFA8  F015         	goto	u2091
  3369   002B4C  EFAA  F015         	goto	u2090
  3370   002B50                     u2091:
  3371   002B50  EFAB  F015         	goto	l2296
  3372   002B54                     u2090:
  3373   002B54  8051               	bsf	___flmul@aexp^(0+1280),0,c
  3374   002B56                     l2296:
  3375   002B56  5051               	movf	___flmul@aexp^(0+1280),w,c
  3376   002B58  B4D8               	btfsc	status,2,c
  3377   002B5A  EFB1  F015         	goto	u2101
  3378   002B5E  EFB3  F015         	goto	u2100
  3379   002B62                     u2101:
  3380   002B62  EFC6  F015         	goto	l2304
  3381   002B66                     u2100:
  3382   002B66  2851               	incf	___flmul@aexp^(0+1280),w,c
  3383   002B68  A4D8               	btfss	status,2,c
  3384   002B6A  EFB9  F015         	goto	u2111
  3385   002B6E  EFBB  F015         	goto	u2110
  3386   002B72                     u2111:
  3387   002B72  EFC3  F015         	goto	l2302
  3388   002B76                     u2110:
  3389   002B76  0E00               	movlw	0
  3390   002B78  6E44               	movwf	___flmul@a^(0+1280),c
  3391   002B7A  0E00               	movlw	0
  3392   002B7C  6E45               	movwf	(___flmul@a+1)^(0+1280),c
  3393   002B7E  0E00               	movlw	0
  3394   002B80  6E46               	movwf	(___flmul@a+2)^(0+1280),c
  3395   002B82  0E00               	movlw	0
  3396   002B84  6E47               	movwf	(___flmul@a+3)^(0+1280),c
  3397   002B86                     l2302:
  3398   002B86  8E46               	bsf	(___flmul@a+2)^(0+1280),7,c
  3399   002B88  EFCE  F015         	goto	l733
  3400   002B8C                     l2304:
  3401   002B8C  0E00               	movlw	0
  3402   002B8E  6E44               	movwf	___flmul@a^(0+1280),c
  3403   002B90  0E00               	movlw	0
  3404   002B92  6E45               	movwf	(___flmul@a+1)^(0+1280),c
  3405   002B94  0E00               	movlw	0
  3406   002B96  6E46               	movwf	(___flmul@a+2)^(0+1280),c
  3407   002B98  0E00               	movlw	0
  3408   002B9A  6E47               	movwf	(___flmul@a+3)^(0+1280),c
  3409   002B9C                     l733:
  3410   002B9C  5051               	movf	___flmul@aexp^(0+1280),w,c
  3411   002B9E  B4D8               	btfsc	status,2,c
  3412   002BA0  EFD4  F015         	goto	u2121
  3413   002BA4  EFD6  F015         	goto	u2120
  3414   002BA8                     u2121:
  3415   002BA8  EFDE  F015         	goto	l2308
  3416   002BAC                     u2120:
  3417   002BAC  5052               	movf	___flmul@bexp^(0+1280),w,c
  3418   002BAE  A4D8               	btfss	status,2,c
  3419   002BB0  EFDC  F015         	goto	u2131
  3420   002BB4  EFDE  F015         	goto	u2130
  3421   002BB8                     u2131:
  3422   002BB8  EFE8  F015         	goto	l2312
  3423   002BBC                     u2130:
  3424   002BBC                     l2308:
  3425   002BBC  0E00               	movlw	0
  3426   002BBE  6E40               	movwf	?___flmul^(0+1280),c
  3427   002BC0  0E00               	movlw	0
  3428   002BC2  6E41               	movwf	(?___flmul+1)^(0+1280),c
  3429   002BC4  0E00               	movlw	0
  3430   002BC6  6E42               	movwf	(?___flmul+2)^(0+1280),c
  3431   002BC8  0E00               	movlw	0
  3432   002BCA  6E43               	movwf	(?___flmul+3)^(0+1280),c
  3433   002BCC  EF80  F017         	goto	l737
  3434   002BD0                     l2312:
  3435   002BD0  5046               	movf	(___flmul@a+2)^(0+1280),w,c
  3436   002BD2  0240               	mulwf	___flmul@b^(0+1280),c
  3437   002BD4  C4F3 F557          	movff	prodl,___flmul@temp
  3438   002BD8  C4F4 F558          	movff	prodh,___flmul@temp+1
  3439   002BDC  5057               	movf	___flmul@temp^(0+1280),w,c
  3440   002BDE  6E4D               	movwf	___flmul@grs^(0+1280),c
  3441   002BE0  6A4E               	clrf	(___flmul@grs+1)^(0+1280),c
  3442   002BE2  6A4F               	clrf	(___flmul@grs+2)^(0+1280),c
  3443   002BE4  6A50               	clrf	(___flmul@grs+3)^(0+1280),c
  3444   002BE6  5058               	movf	(___flmul@temp+1)^(0+1280),w,c
  3445   002BE8  6E53               	movwf	___flmul@prod^(0+1280),c
  3446   002BEA  6A54               	clrf	(___flmul@prod+1)^(0+1280),c
  3447   002BEC  6A55               	clrf	(___flmul@prod+2)^(0+1280),c
  3448   002BEE  6A56               	clrf	(___flmul@prod+3)^(0+1280),c
  3449   002BF0  5045               	movf	(___flmul@a+1)^(0+1280),w,c
  3450   002BF2  0241               	mulwf	(___flmul@b+1)^(0+1280),c
  3451   002BF4  C4F3 F557          	movff	prodl,___flmul@temp
  3452   002BF8  C4F4 F558          	movff	prodh,___flmul@temp+1
  3453   002BFC  5057               	movf	___flmul@temp^(0+1280),w,c
  3454   002BFE  264D               	addwf	___flmul@grs^(0+1280),f,c
  3455   002C00  0E00               	movlw	0
  3456   002C02  224E               	addwfc	(___flmul@grs+1)^(0+1280),f,c
  3457   002C04  224F               	addwfc	(___flmul@grs+2)^(0+1280),f,c
  3458   002C06  2250               	addwfc	(___flmul@grs+3)^(0+1280),f,c
  3459   002C08  5058               	movf	(___flmul@temp+1)^(0+1280),w,c
  3460   002C0A  2653               	addwf	___flmul@prod^(0+1280),f,c
  3461   002C0C  0E00               	movlw	0
  3462   002C0E  2254               	addwfc	(___flmul@prod+1)^(0+1280),f,c
  3463   002C10  2255               	addwfc	(___flmul@prod+2)^(0+1280),f,c
  3464   002C12  2256               	addwfc	(___flmul@prod+3)^(0+1280),f,c
  3465   002C14  5044               	movf	___flmul@a^(0+1280),w,c
  3466   002C16  0242               	mulwf	(___flmul@b+2)^(0+1280),c
  3467   002C18  C4F3 F557          	movff	prodl,___flmul@temp
  3468   002C1C  C4F4 F558          	movff	prodh,___flmul@temp+1
  3469   002C20  5057               	movf	___flmul@temp^(0+1280),w,c
  3470   002C22  264D               	addwf	___flmul@grs^(0+1280),f,c
  3471   002C24  0E00               	movlw	0
  3472   002C26  224E               	addwfc	(___flmul@grs+1)^(0+1280),f,c
  3473   002C28  224F               	addwfc	(___flmul@grs+2)^(0+1280),f,c
  3474   002C2A  2250               	addwfc	(___flmul@grs+3)^(0+1280),f,c
  3475   002C2C  5058               	movf	(___flmul@temp+1)^(0+1280),w,c
  3476   002C2E  2653               	addwf	___flmul@prod^(0+1280),f,c
  3477   002C30  0E00               	movlw	0
  3478   002C32  2254               	addwfc	(___flmul@prod+1)^(0+1280),f,c
  3479   002C34  2255               	addwfc	(___flmul@prod+2)^(0+1280),f,c
  3480   002C36  2256               	addwfc	(___flmul@prod+3)^(0+1280),f,c
  3481   002C38  C54F  F550         	movff	___flmul@grs+2,___flmul@grs+3
  3482   002C3C  C54E  F54F         	movff	___flmul@grs+1,___flmul@grs+2
  3483   002C40  C54D  F54E         	movff	___flmul@grs,___flmul@grs+1
  3484   002C44  6A4D               	clrf	___flmul@grs^(0+1280),c
  3485   002C46  5044               	movf	___flmul@a^(0+1280),w,c
  3486   002C48  0241               	mulwf	(___flmul@b+1)^(0+1280),c
  3487   002C4A  C4F3 F557          	movff	prodl,___flmul@temp
  3488   002C4E  C4F4 F558          	movff	prodh,___flmul@temp+1
  3489   002C52  5057               	movf	___flmul@temp^(0+1280),w,c
  3490   002C54  264D               	addwf	___flmul@grs^(0+1280),f,c
  3491   002C56  5058               	movf	(___flmul@temp+1)^(0+1280),w,c
  3492   002C58  224E               	addwfc	(___flmul@grs+1)^(0+1280),f,c
  3493   002C5A  0E00               	movlw	0
  3494   002C5C  224F               	addwfc	(___flmul@grs+2)^(0+1280),f,c
  3495   002C5E  0E00               	movlw	0
  3496   002C60  2250               	addwfc	(___flmul@grs+3)^(0+1280),f,c
  3497   002C62  5045               	movf	(___flmul@a+1)^(0+1280),w,c
  3498   002C64  0240               	mulwf	___flmul@b^(0+1280),c
  3499   002C66  C4F3 F557          	movff	prodl,___flmul@temp
  3500   002C6A  C4F4 F558          	movff	prodh,___flmul@temp+1
  3501   002C6E  5057               	movf	___flmul@temp^(0+1280),w,c
  3502   002C70  264D               	addwf	___flmul@grs^(0+1280),f,c
  3503   002C72  5058               	movf	(___flmul@temp+1)^(0+1280),w,c
  3504   002C74  224E               	addwfc	(___flmul@grs+1)^(0+1280),f,c
  3505   002C76  0E00               	movlw	0
  3506   002C78  224F               	addwfc	(___flmul@grs+2)^(0+1280),f,c
  3507   002C7A  0E00               	movlw	0
  3508   002C7C  2250               	addwfc	(___flmul@grs+3)^(0+1280),f,c
  3509   002C7E  C54F  F550         	movff	___flmul@grs+2,___flmul@grs+3
  3510   002C82  C54E  F54F         	movff	___flmul@grs+1,___flmul@grs+2
  3511   002C86  C54D  F54E         	movff	___flmul@grs,___flmul@grs+1
  3512   002C8A  6A4D               	clrf	___flmul@grs^(0+1280),c
  3513   002C8C  5044               	movf	___flmul@a^(0+1280),w,c
  3514   002C8E  0240               	mulwf	___flmul@b^(0+1280),c
  3515   002C90  C4F3 F557          	movff	prodl,___flmul@temp
  3516   002C94  C4F4 F558          	movff	prodh,___flmul@temp+1
  3517   002C98  5057               	movf	___flmul@temp^(0+1280),w,c
  3518   002C9A  264D               	addwf	___flmul@grs^(0+1280),f,c
  3519   002C9C  5058               	movf	(___flmul@temp+1)^(0+1280),w,c
  3520   002C9E  224E               	addwfc	(___flmul@grs+1)^(0+1280),f,c
  3521   002CA0  0E00               	movlw	0
  3522   002CA2  224F               	addwfc	(___flmul@grs+2)^(0+1280),f,c
  3523   002CA4  0E00               	movlw	0
  3524   002CA6  2250               	addwfc	(___flmul@grs+3)^(0+1280),f,c
  3525   002CA8  5046               	movf	(___flmul@a+2)^(0+1280),w,c
  3526   002CAA  0241               	mulwf	(___flmul@b+1)^(0+1280),c
  3527   002CAC  C4F3 F557          	movff	prodl,___flmul@temp
  3528   002CB0  C4F4 F558          	movff	prodh,___flmul@temp+1
  3529   002CB4  5057               	movf	___flmul@temp^(0+1280),w,c
  3530   002CB6  2653               	addwf	___flmul@prod^(0+1280),f,c
  3531   002CB8  5058               	movf	(___flmul@temp+1)^(0+1280),w,c
  3532   002CBA  2254               	addwfc	(___flmul@prod+1)^(0+1280),f,c
  3533   002CBC  0E00               	movlw	0
  3534   002CBE  2255               	addwfc	(___flmul@prod+2)^(0+1280),f,c
  3535   002CC0  0E00               	movlw	0
  3536   002CC2  2256               	addwfc	(___flmul@prod+3)^(0+1280),f,c
  3537   002CC4  5045               	movf	(___flmul@a+1)^(0+1280),w,c
  3538   002CC6  0242               	mulwf	(___flmul@b+2)^(0+1280),c
  3539   002CC8  C4F3 F557          	movff	prodl,___flmul@temp
  3540   002CCC  C4F4 F558          	movff	prodh,___flmul@temp+1
  3541   002CD0  5057               	movf	___flmul@temp^(0+1280),w,c
  3542   002CD2  2653               	addwf	___flmul@prod^(0+1280),f,c
  3543   002CD4  5058               	movf	(___flmul@temp+1)^(0+1280),w,c
  3544   002CD6  2254               	addwfc	(___flmul@prod+1)^(0+1280),f,c
  3545   002CD8  0E00               	movlw	0
  3546   002CDA  2255               	addwfc	(___flmul@prod+2)^(0+1280),f,c
  3547   002CDC  0E00               	movlw	0
  3548   002CDE  2256               	addwfc	(___flmul@prod+3)^(0+1280),f,c
  3549   002CE0  5046               	movf	(___flmul@a+2)^(0+1280),w,c
  3550   002CE2  0242               	mulwf	(___flmul@b+2)^(0+1280),c
  3551   002CE4  C4F3 F557          	movff	prodl,___flmul@temp
  3552   002CE8  C4F4 F558          	movff	prodh,___flmul@temp+1
  3553   002CEC  5057               	movf	___flmul@temp^(0+1280),w,c
  3554   002CEE  6E48               	movwf	??___flmul^(0+1280),c
  3555   002CF0  5058               	movf	(___flmul@temp+1)^(0+1280),w,c
  3556   002CF2  6E49               	movwf	(??___flmul+1)^(0+1280),c
  3557   002CF4  6A4A               	clrf	(??___flmul+2)^(0+1280),c
  3558   002CF6  6A4B               	clrf	(??___flmul+3)^(0+1280),c
  3559   002CF8  C54A  F54B         	movff	??___flmul+2,??___flmul+3
  3560   002CFC  C549  F54A         	movff	??___flmul+1,??___flmul+2
  3561   002D00  C548  F549         	movff	??___flmul,??___flmul+1
  3562   002D04  6A48               	clrf	??___flmul^(0+1280),c
  3563   002D06  5048               	movf	??___flmul^(0+1280),w,c
  3564   002D08  2653               	addwf	___flmul@prod^(0+1280),f,c
  3565   002D0A  5049               	movf	(??___flmul+1)^(0+1280),w,c
  3566   002D0C  2254               	addwfc	(___flmul@prod+1)^(0+1280),f,c
  3567   002D0E  504A               	movf	(??___flmul+2)^(0+1280),w,c
  3568   002D10  2255               	addwfc	(___flmul@prod+2)^(0+1280),f,c
  3569   002D12  504B               	movf	(??___flmul+3)^(0+1280),w,c
  3570   002D14  2256               	addwfc	(___flmul@prod+3)^(0+1280),f,c
  3571   002D16  C54D  F548         	movff	___flmul@grs,??___flmul
  3572   002D1A  C54E  F549         	movff	___flmul@grs+1,??___flmul+1
  3573   002D1E  C54F  F54A         	movff	___flmul@grs+2,??___flmul+2
  3574   002D22  C550  F54B         	movff	___flmul@grs+3,??___flmul+3
  3575   002D26  0E19               	movlw	25
  3576   002D28  EF9B  F016         	goto	u2140
  3577   002D2C                     u2145:
  3578   002D2C  90D8               	bcf	status,0,c
  3579   002D2E  324B               	rrcf	(??___flmul+3)^(0+1280),f,c
  3580   002D30  324A               	rrcf	(??___flmul+2)^(0+1280),f,c
  3581   002D32  3249               	rrcf	(??___flmul+1)^(0+1280),f,c
  3582   002D34  3248               	rrcf	??___flmul^(0+1280),f,c
  3583   002D36                     u2140:
  3584   002D36  2EE8               	decfsz	wreg,f,c
  3585   002D38  EF96  F016         	goto	u2145
  3586   002D3C  5048               	movf	??___flmul^(0+1280),w,c
  3587   002D3E  2653               	addwf	___flmul@prod^(0+1280),f,c
  3588   002D40  5049               	movf	(??___flmul+1)^(0+1280),w,c
  3589   002D42  2254               	addwfc	(___flmul@prod+1)^(0+1280),f,c
  3590   002D44  504A               	movf	(??___flmul+2)^(0+1280),w,c
  3591   002D46  2255               	addwfc	(___flmul@prod+2)^(0+1280),f,c
  3592   002D48  504B               	movf	(??___flmul+3)^(0+1280),w,c
  3593   002D4A  2256               	addwfc	(___flmul@prod+3)^(0+1280),f,c
  3594   002D4C  C54F  F550         	movff	___flmul@grs+2,___flmul@grs+3
  3595   002D50  C54E  F54F         	movff	___flmul@grs+1,___flmul@grs+2
  3596   002D54  C54D  F54E         	movff	___flmul@grs,___flmul@grs+1
  3597   002D58  6A4D               	clrf	___flmul@grs^(0+1280),c
  3598   002D5A  5051               	movf	___flmul@aexp^(0+1280),w,c
  3599   002D5C  C552  F548         	movff	___flmul@bexp,??___flmul
  3600   002D60  6A49               	clrf	(??___flmul+1)^(0+1280),c
  3601   002D62  2648               	addwf	??___flmul^(0+1280),f,c
  3602   002D64  0E00               	movlw	0
  3603   002D66  2249               	addwfc	(??___flmul+1)^(0+1280),f,c
  3604   002D68  0E82               	movlw	130
  3605   002D6A  2448               	addwf	??___flmul^(0+1280),w,c
  3606   002D6C  6E57               	movwf	___flmul@temp^(0+1280),c
  3607   002D6E  0EFF               	movlw	255
  3608   002D70  2049               	addwfc	(??___flmul+1)^(0+1280),w,c
  3609   002D72  6E58               	movwf	(___flmul@temp+1)^(0+1280),c
  3610   002D74  EFD1  F016         	goto	l2360
  3611   002D78                     l2354:
  3612   002D78  90D8               	bcf	status,0,c
  3613   002D7A  3653               	rlcf	___flmul@prod^(0+1280),f,c
  3614   002D7C  3654               	rlcf	(___flmul@prod+1)^(0+1280),f,c
  3615   002D7E  3655               	rlcf	(___flmul@prod+2)^(0+1280),f,c
  3616   002D80  3656               	rlcf	(___flmul@prod+3)^(0+1280),f,c
  3617   002D82  AE50               	btfss	(___flmul@grs+3)^(0+1280),7,c
  3618   002D84  EFC6  F016         	goto	u2151
  3619   002D88  EFC8  F016         	goto	u2150
  3620   002D8C                     u2151:
  3621   002D8C  EFC9  F016         	goto	l740
  3622   002D90                     u2150:
  3623   002D90  8053               	bsf	___flmul@prod^(0+1280),0,c
  3624   002D92                     l740:
  3625   002D92  90D8               	bcf	status,0,c
  3626   002D94  364D               	rlcf	___flmul@grs^(0+1280),f,c
  3627   002D96  364E               	rlcf	(___flmul@grs+1)^(0+1280),f,c
  3628   002D98  364F               	rlcf	(___flmul@grs+2)^(0+1280),f,c
  3629   002D9A  3650               	rlcf	(___flmul@grs+3)^(0+1280),f,c
  3630   002D9C  0657               	decf	___flmul@temp^(0+1280),f,c
  3631   002D9E  A0D8               	btfss	status,0,c
  3632   002DA0  0658               	decf	(___flmul@temp+1)^(0+1280),f,c
  3633   002DA2                     l2360:
  3634   002DA2  AE55               	btfss	(___flmul@prod+2)^(0+1280),7,c
  3635   002DA4  EFD6  F016         	goto	u2161
  3636   002DA8  EFD8  F016         	goto	u2160
  3637   002DAC                     u2161:
  3638   002DAC  EFBC  F016         	goto	l2354
  3639   002DB0                     u2160:
  3640   002DB0  0E00               	movlw	0
  3641   002DB2  6E51               	movwf	___flmul@aexp^(0+1280),c
  3642   002DB4  AE50               	btfss	(___flmul@grs+3)^(0+1280),7,c
  3643   002DB6  EFDF  F016         	goto	u2171
  3644   002DBA  EFE1  F016         	goto	u2170
  3645   002DBE                     u2171:
  3646   002DBE  EF05  F017         	goto	l742
  3647   002DC2                     u2170:
  3648   002DC2  0EFF               	movlw	255
  3649   002DC4  144D               	andwf	___flmul@grs^(0+1280),w,c
  3650   002DC6  6E48               	movwf	??___flmul^(0+1280),c
  3651   002DC8  0EFF               	movlw	255
  3652   002DCA  144E               	andwf	(___flmul@grs+1)^(0+1280),w,c
  3653   002DCC  6E49               	movwf	(??___flmul+1)^(0+1280),c
  3654   002DCE  0EFF               	movlw	255
  3655   002DD0  144F               	andwf	(___flmul@grs+2)^(0+1280),w,c
  3656   002DD2  6E4A               	movwf	(??___flmul+2)^(0+1280),c
  3657   002DD4  0E7F               	movlw	127
  3658   002DD6  1450               	andwf	(___flmul@grs+3)^(0+1280),w,c
  3659   002DD8  6E4B               	movwf	(??___flmul+3)^(0+1280),c
  3660   002DDA  5048               	movf	??___flmul^(0+1280),w,c
  3661   002DDC  1049               	iorwf	(??___flmul+1)^(0+1280),w,c
  3662   002DDE  104A               	iorwf	(??___flmul+2)^(0+1280),w,c
  3663   002DE0  104B               	iorwf	(??___flmul+3)^(0+1280),w,c
  3664   002DE2  B4D8               	btfsc	status,2,c
  3665   002DE4  EFF6  F016         	goto	u2181
  3666   002DE8  EFF8  F016         	goto	u2180
  3667   002DEC                     u2181:
  3668   002DEC  EFFC  F016         	goto	l743
  3669   002DF0                     u2180:
  3670   002DF0                     l2368:
  3671   002DF0  0E01               	movlw	1
  3672   002DF2  6E51               	movwf	___flmul@aexp^(0+1280),c
  3673   002DF4  EF05  F017         	goto	l742
  3674   002DF8                     l743:
  3675   002DF8  A053               	btfss	___flmul@prod^(0+1280),0,c
  3676   002DFA  EF01  F017         	goto	u2191
  3677   002DFE  EF03  F017         	goto	u2190
  3678   002E02                     u2191:
  3679   002E02  EF05  F017         	goto	l742
  3680   002E06                     u2190:
  3681   002E06  EFF8  F016         	goto	l2368
  3682   002E0A                     l742:
  3683   002E0A  5051               	movf	___flmul@aexp^(0+1280),w,c
  3684   002E0C  B4D8               	btfsc	status,2,c
  3685   002E0E  EF0B  F017         	goto	u2201
  3686   002E12  EF0D  F017         	goto	u2200
  3687   002E16                     u2201:
  3688   002E16  EF31  F017         	goto	l2380
  3689   002E1A                     u2200:
  3690   002E1A  0E01               	movlw	1
  3691   002E1C  2653               	addwf	___flmul@prod^(0+1280),f,c
  3692   002E1E  0E00               	movlw	0
  3693   002E20  2254               	addwfc	(___flmul@prod+1)^(0+1280),f,c
  3694   002E22  2255               	addwfc	(___flmul@prod+2)^(0+1280),f,c
  3695   002E24  2256               	addwfc	(___flmul@prod+3)^(0+1280),f,c
  3696   002E26  A056               	btfss	(___flmul@prod+3)^(0+1280),0,c
  3697   002E28  EF18  F017         	goto	u2211
  3698   002E2C  EF1A  F017         	goto	u2210
  3699   002E30                     u2211:
  3700   002E30  EF31  F017         	goto	l2380
  3701   002E34                     u2210:
  3702   002E34  C553  F548         	movff	___flmul@prod,??___flmul
  3703   002E38  C554  F549         	movff	___flmul@prod+1,??___flmul+1
  3704   002E3C  C555  F54A         	movff	___flmul@prod+2,??___flmul+2
  3705   002E40  C556  F54B         	movff	___flmul@prod+3,??___flmul+3
  3706   002E44  344B               	rlcf	(??___flmul+3)^(0+1280),w,c
  3707   002E46  324B               	rrcf	(??___flmul+3)^(0+1280),f,c
  3708   002E48  324A               	rrcf	(??___flmul+2)^(0+1280),f,c
  3709   002E4A  3249               	rrcf	(??___flmul+1)^(0+1280),f,c
  3710   002E4C  3248               	rrcf	??___flmul^(0+1280),f,c
  3711   002E4E  C548  F553         	movff	??___flmul,___flmul@prod
  3712   002E52  C549  F554         	movff	??___flmul+1,___flmul@prod+1
  3713   002E56  C54A  F555         	movff	??___flmul+2,___flmul@prod+2
  3714   002E5A  C54B  F556         	movff	??___flmul+3,___flmul@prod+3
  3715   002E5E  4A57               	infsnz	___flmul@temp^(0+1280),f,c
  3716   002E60  2A58               	incf	(___flmul@temp+1)^(0+1280),f,c
  3717   002E62                     l2380:
  3718   002E62  BE58               	btfsc	(___flmul@temp+1)^(0+1280),7,c
  3719   002E64  EF3C  F017         	goto	u2221
  3720   002E68  5058               	movf	(___flmul@temp+1)^(0+1280),w,c
  3721   002E6A  E108               	bnz	u2220
  3722   002E6C  2857               	incf	___flmul@temp^(0+1280),w,c
  3723   002E6E  A0D8               	btfss	status,0,c
  3724   002E70  EF3C  F017         	goto	u2221
  3725   002E74  EF3E  F017         	goto	u2220
  3726   002E78                     u2221:
  3727   002E78  EF48  F017         	goto	l2384
  3728   002E7C                     u2220:
  3729   002E7C  0E00               	movlw	0
  3730   002E7E  6E53               	movwf	___flmul@prod^(0+1280),c
  3731   002E80  0E00               	movlw	0
  3732   002E82  6E54               	movwf	(___flmul@prod+1)^(0+1280),c
  3733   002E84  0E80               	movlw	128
  3734   002E86  6E55               	movwf	(___flmul@prod+2)^(0+1280),c
  3735   002E88  0E7F               	movlw	127
  3736   002E8A  6E56               	movwf	(___flmul@prod+3)^(0+1280),c
  3737   002E8C  EF76  F017         	goto	l2396
  3738   002E90                     l2384:
  3739   002E90  BE58               	btfsc	(___flmul@temp+1)^(0+1280),7,c
  3740   002E92  EF55  F017         	goto	u2230
  3741   002E96  5058               	movf	(___flmul@temp+1)^(0+1280),w,c
  3742   002E98  E106               	bnz	u2231
  3743   002E9A  0457               	decf	___flmul@temp^(0+1280),w,c
  3744   002E9C  B0D8               	btfsc	status,0,c
  3745   002E9E  EF53  F017         	goto	u2231
  3746   002EA2  EF55  F017         	goto	u2230
  3747   002EA6                     u2231:
  3748   002EA6  EF61  F017         	goto	l750
  3749   002EAA                     u2230:
  3750   002EAA  0E00               	movlw	0
  3751   002EAC  6E53               	movwf	___flmul@prod^(0+1280),c
  3752   002EAE  0E00               	movlw	0
  3753   002EB0  6E54               	movwf	(___flmul@prod+1)^(0+1280),c
  3754   002EB2  0E00               	movlw	0
  3755   002EB4  6E55               	movwf	(___flmul@prod+2)^(0+1280),c
  3756   002EB6  0E00               	movlw	0
  3757   002EB8  6E56               	movwf	(___flmul@prod+3)^(0+1280),c
  3758   002EBA  0E00               	movlw	0
  3759   002EBC  6E4C               	movwf	___flmul@sign^(0+1280),c
  3760   002EBE  EF76  F017         	goto	l2396
  3761   002EC2                     l750:
  3762   002EC2  C557  F552         	movff	___flmul@temp,___flmul@bexp
  3763   002EC6  0EFF               	movlw	255
  3764   002EC8  1653               	andwf	___flmul@prod^(0+1280),f,c
  3765   002ECA  0EFF               	movlw	255
  3766   002ECC  1654               	andwf	(___flmul@prod+1)^(0+1280),f,c
  3767   002ECE  0E7F               	movlw	127
  3768   002ED0  1655               	andwf	(___flmul@prod+2)^(0+1280),f,c
  3769   002ED2  0E00               	movlw	0
  3770   002ED4  1656               	andwf	(___flmul@prod+3)^(0+1280),f,c
  3771   002ED6  A052               	btfss	___flmul@bexp^(0+1280),0,c
  3772   002ED8  EF70  F017         	goto	u2241
  3773   002EDC  EF72  F017         	goto	u2240
  3774   002EE0                     u2241:
  3775   002EE0  EF73  F017         	goto	l2394
  3776   002EE4                     u2240:
  3777   002EE4  8E55               	bsf	(___flmul@prod+2)^(0+1280),7,c
  3778   002EE6                     l2394:
  3779   002EE6  90D8               	bcf	status,0,c
  3780   002EE8  3052               	rrcf	___flmul@bexp^(0+1280),w,c
  3781   002EEA  6E56               	movwf	(___flmul@prod+3)^(0+1280),c
  3782   002EEC                     l2396:
  3783   002EEC  504C               	movf	___flmul@sign^(0+1280),w,c
  3784   002EEE  1256               	iorwf	(___flmul@prod+3)^(0+1280),f,c
  3785   002EF0  C553  F540         	movff	___flmul@prod,?___flmul
  3786   002EF4  C554  F541         	movff	___flmul@prod+1,?___flmul+1
  3787   002EF8  C555  F542         	movff	___flmul@prod+2,?___flmul+2
  3788   002EFC  C556  F543         	movff	___flmul@prod+3,?___flmul+3
  3789   002F00                     l737:
  3790   002F00  0012               	return		;funcret
  3791   002F02                     __end_of___flmul:
  3792                           	callstack 0
  3793                           
  3794 ;; *************** function ___awmod *****************
  3795 ;; Defined at:
  3796 ;;		line 7 in file "C:\Program Files\Microchip\xc8\v2.40\pic\sources\c99\common\awmod.c"
  3797 ;; Parameters:    Size  Location     Type
  3798 ;;  dividend        2    0[COMRAM] int 
  3799 ;;  divisor         2    2[COMRAM] int 
  3800 ;; Auto vars:     Size  Location     Type
  3801 ;;  sign            1    5[COMRAM] unsigned char 
  3802 ;;  counter         1    4[COMRAM] unsigned char 
  3803 ;; Return value:  Size  Location     Type
  3804 ;;                  2    0[COMRAM] int 
  3805 ;; Registers used:
  3806 ;;		wreg, status,2, status,0
  3807 ;; Tracked objects:
  3808 ;;		On entry : 0/0
  3809 ;;		On exit  : 0/0
  3810 ;;		Unchanged: 0/0
  3811 ;; Data sizes:     COMRAM   BANK5   BANK6   BANK7   BANK8   BANK9  BANK10  BANK11  BANK12  BANK13  BANK14  BANK15  BANK1
      +6  BANK17  BANK18  BANK19  BANK20  BANK21  BANK22  BANK23  BANK24  BANK25  BANK26  BANK27  BANK28  BANK29  BANK30  BANK3
      +1  BANK32  BANK33  BANK34  BANK35  BANK36
  3812 ;;      Params:         4       0       0       0       0       0       0       0       0       0       0       0       
      +0       0       0       0       0       0       0       0       0       0       0       0       0       0       0       
      +0       0       0       0       0       0
  3813 ;;      Locals:         2       0       0       0       0       0       0       0       0       0       0       0       
      +0       0       0       0       0       0       0       0       0       0       0       0       0       0       0       
      +0       0       0       0       0       0
  3814 ;;      Temps:          0       0       0       0       0       0       0       0       0       0       0       0       
      +0       0       0       0       0       0       0       0       0       0       0       0       0       0       0       
      +0       0       0       0       0       0
  3815 ;;      Totals:         6       0       0       0       0       0       0       0       0       0       0       0       
      +0       0       0       0       0       0       0       0       0       0       0       0       0       0       0       
      +0       0       0       0       0       0
  3816 ;;Total ram usage:        6 bytes
  3817 ;; Hardware stack levels used: 1
  3818 ;; This function calls:
  3819 ;;		Nothing
  3820 ;; This function is called by:
  3821 ;;		_LCDprintf
  3822 ;; This function uses a non-reentrant model
  3823 ;;
  3824                           
  3825                           	psect	text13
  3826   003C68                     __ptext13:
  3827                           	callstack 0
  3828   003C68                     ___awmod:
  3829                           	callstack 125
  3830   003C68  0E00               	movlw	0
  3831   003C6A  6E06               	movwf	___awmod@sign^(0+1280),c
  3832   003C6C  BE02               	btfsc	(___awmod@dividend+1)^(0+1280),7,c
  3833   003C6E  EF3D  F01E         	goto	u2310
  3834   003C72  EF3B  F01E         	goto	u2311
  3835   003C76                     u2311:
  3836   003C76  EF43  F01E         	goto	l2460
  3837   003C7A                     u2310:
  3838   003C7A  6C01               	negf	___awmod@dividend^(0+1280),c
  3839   003C7C  1E02               	comf	(___awmod@dividend+1)^(0+1280),f,c
  3840   003C7E  B0D8               	btfsc	status,0,c
  3841   003C80  2A02               	incf	(___awmod@dividend+1)^(0+1280),f,c
  3842   003C82  0E01               	movlw	1
  3843   003C84  6E06               	movwf	___awmod@sign^(0+1280),c
  3844   003C86                     l2460:
  3845   003C86  BE04               	btfsc	(___awmod@divisor+1)^(0+1280),7,c
  3846   003C88  EF4A  F01E         	goto	u2320
  3847   003C8C  EF48  F01E         	goto	u2321
  3848   003C90                     u2321:
  3849   003C90  EF4E  F01E         	goto	l2464
  3850   003C94                     u2320:
  3851   003C94  6C03               	negf	___awmod@divisor^(0+1280),c
  3852   003C96  1E04               	comf	(___awmod@divisor+1)^(0+1280),f,c
  3853   003C98  B0D8               	btfsc	status,0,c
  3854   003C9A  2A04               	incf	(___awmod@divisor+1)^(0+1280),f,c
  3855   003C9C                     l2464:
  3856   003C9C  5003               	movf	___awmod@divisor^(0+1280),w,c
  3857   003C9E  1004               	iorwf	(___awmod@divisor+1)^(0+1280),w,c
  3858   003CA0  B4D8               	btfsc	status,2,c
  3859   003CA2  EF55  F01E         	goto	u2331
  3860   003CA6  EF57  F01E         	goto	u2330
  3861   003CAA                     u2331:
  3862   003CAA  EF7B  F01E         	goto	l2480
  3863   003CAE                     u2330:
  3864   003CAE  0E01               	movlw	1
  3865   003CB0  6E05               	movwf	___awmod@counter^(0+1280),c
  3866   003CB2  EF5F  F01E         	goto	l2470
  3867   003CB6                     l2468:
  3868   003CB6  90D8               	bcf	status,0,c
  3869   003CB8  3603               	rlcf	___awmod@divisor^(0+1280),f,c
  3870   003CBA  3604               	rlcf	(___awmod@divisor+1)^(0+1280),f,c
  3871   003CBC  2A05               	incf	___awmod@counter^(0+1280),f,c
  3872   003CBE                     l2470:
  3873   003CBE  AE04               	btfss	(___awmod@divisor+1)^(0+1280),7,c
  3874   003CC0  EF64  F01E         	goto	u2341
  3875   003CC4  EF66  F01E         	goto	u2340
  3876   003CC8                     u2341:
  3877   003CC8  EF5B  F01E         	goto	l2468
  3878   003CCC                     u2340:
  3879   003CCC                     l2472:
  3880   003CCC  5003               	movf	___awmod@divisor^(0+1280),w,c
  3881   003CCE  5C01               	subwf	___awmod@dividend^(0+1280),w,c
  3882   003CD0  5004               	movf	(___awmod@divisor+1)^(0+1280),w,c
  3883   003CD2  5802               	subwfb	(___awmod@dividend+1)^(0+1280),w,c
  3884   003CD4  A0D8               	btfss	status,0,c
  3885   003CD6  EF6F  F01E         	goto	u2351
  3886   003CDA  EF71  F01E         	goto	u2350
  3887   003CDE                     u2351:
  3888   003CDE  EF75  F01E         	goto	l2476
  3889   003CE2                     u2350:
  3890   003CE2  5003               	movf	___awmod@divisor^(0+1280),w,c
  3891   003CE4  5E01               	subwf	___awmod@dividend^(0+1280),f,c
  3892   003CE6  5004               	movf	(___awmod@divisor+1)^(0+1280),w,c
  3893   003CE8  5A02               	subwfb	(___awmod@dividend+1)^(0+1280),f,c
  3894   003CEA                     l2476:
  3895   003CEA  90D8               	bcf	status,0,c
  3896   003CEC  3204               	rrcf	(___awmod@divisor+1)^(0+1280),f,c
  3897   003CEE  3203               	rrcf	___awmod@divisor^(0+1280),f,c
  3898   003CF0  2E05               	decfsz	___awmod@counter^(0+1280),f,c
  3899   003CF2  EF66  F01E         	goto	l2472
  3900   003CF6                     l2480:
  3901   003CF6  5006               	movf	___awmod@sign^(0+1280),w,c
  3902   003CF8  B4D8               	btfsc	status,2,c
  3903   003CFA  EF81  F01E         	goto	u2361
  3904   003CFE  EF83  F01E         	goto	u2360
  3905   003D02                     u2361:
  3906   003D02  EF87  F01E         	goto	l2484
  3907   003D06                     u2360:
  3908   003D06  6C01               	negf	___awmod@dividend^(0+1280),c
  3909   003D08  1E02               	comf	(___awmod@dividend+1)^(0+1280),f,c
  3910   003D0A  B0D8               	btfsc	status,0,c
  3911   003D0C  2A02               	incf	(___awmod@dividend+1)^(0+1280),f,c
  3912   003D0E                     l2484:
  3913   003D0E  C501  F501         	movff	___awmod@dividend,?___awmod
  3914   003D12  C502  F502         	movff	___awmod@dividend+1,?___awmod+1
  3915   003D16  0012               	return		;funcret
  3916   003D18                     __end_of___awmod:
  3917                           	callstack 0
  3918                           
  3919 ;; *************** function ___awdiv *****************
  3920 ;; Defined at:
  3921 ;;		line 7 in file "C:\Program Files\Microchip\xc8\v2.40\pic\sources\c99\common\awdiv.c"
  3922 ;; Parameters:    Size  Location     Type
  3923 ;;  dividend        2    0[COMRAM] int 
  3924 ;;  divisor         2    2[COMRAM] int 
  3925 ;; Auto vars:     Size  Location     Type
  3926 ;;  quotient        2    6[COMRAM] int 
  3927 ;;  sign            1    5[COMRAM] unsigned char 
  3928 ;;  counter         1    4[COMRAM] unsigned char 
  3929 ;; Return value:  Size  Location     Type
  3930 ;;                  2    0[COMRAM] int 
  3931 ;; Registers used:
  3932 ;;		wreg, status,2, status,0
  3933 ;; Tracked objects:
  3934 ;;		On entry : 0/0
  3935 ;;		On exit  : 0/0
  3936 ;;		Unchanged: 0/0
  3937 ;; Data sizes:     COMRAM   BANK5   BANK6   BANK7   BANK8   BANK9  BANK10  BANK11  BANK12  BANK13  BANK14  BANK15  BANK1
      +6  BANK17  BANK18  BANK19  BANK20  BANK21  BANK22  BANK23  BANK24  BANK25  BANK26  BANK27  BANK28  BANK29  BANK30  BANK3
      +1  BANK32  BANK33  BANK34  BANK35  BANK36
  3938 ;;      Params:         4       0       0       0       0       0       0       0       0       0       0       0       
      +0       0       0       0       0       0       0       0       0       0       0       0       0       0       0       
      +0       0       0       0       0       0
  3939 ;;      Locals:         4       0       0       0       0       0       0       0       0       0       0       0       
      +0       0       0       0       0       0       0       0       0       0       0       0       0       0       0       
      +0       0       0       0       0       0
  3940 ;;      Temps:          0       0       0       0       0       0       0       0       0       0       0       0       
      +0       0       0       0       0       0       0       0       0       0       0       0       0       0       0       
      +0       0       0       0       0       0
  3941 ;;      Totals:         8       0       0       0       0       0       0       0       0       0       0       0       
      +0       0       0       0       0       0       0       0       0       0       0       0       0       0       0       
      +0       0       0       0       0       0
  3942 ;;Total ram usage:        8 bytes
  3943 ;; Hardware stack levels used: 1
  3944 ;; This function calls:
  3945 ;;		Nothing
  3946 ;; This function is called by:
  3947 ;;		_LCDprintf
  3948 ;; This function uses a non-reentrant model
  3949 ;;
  3950                           
  3951                           	psect	text14
  3952   003BA4                     __ptext14:
  3953                           	callstack 0
  3954   003BA4                     ___awdiv:
  3955                           	callstack 125
  3956   003BA4  0E00               	movlw	0
  3957   003BA6  6E06               	movwf	___awdiv@sign^(0+1280),c
  3958   003BA8  BE04               	btfsc	(___awdiv@divisor+1)^(0+1280),7,c
  3959   003BAA  EFDB  F01D         	goto	u2250
  3960   003BAE  EFD9  F01D         	goto	u2251
  3961   003BB2                     u2251:
  3962   003BB2  EFE1  F01D         	goto	l2416
  3963   003BB6                     u2250:
  3964   003BB6  6C03               	negf	___awdiv@divisor^(0+1280),c
  3965   003BB8  1E04               	comf	(___awdiv@divisor+1)^(0+1280),f,c
  3966   003BBA  B0D8               	btfsc	status,0,c
  3967   003BBC  2A04               	incf	(___awdiv@divisor+1)^(0+1280),f,c
  3968   003BBE  0E01               	movlw	1
  3969   003BC0  6E06               	movwf	___awdiv@sign^(0+1280),c
  3970   003BC2                     l2416:
  3971   003BC2  BE02               	btfsc	(___awdiv@dividend+1)^(0+1280),7,c
  3972   003BC4  EFE8  F01D         	goto	u2260
  3973   003BC8  EFE6  F01D         	goto	u2261
  3974   003BCC                     u2261:
  3975   003BCC  EFEE  F01D         	goto	l2422
  3976   003BD0                     u2260:
  3977   003BD0  6C01               	negf	___awdiv@dividend^(0+1280),c
  3978   003BD2  1E02               	comf	(___awdiv@dividend+1)^(0+1280),f,c
  3979   003BD4  B0D8               	btfsc	status,0,c
  3980   003BD6  2A02               	incf	(___awdiv@dividend+1)^(0+1280),f,c
  3981   003BD8  0E01               	movlw	1
  3982   003BDA  1A06               	xorwf	___awdiv@sign^(0+1280),f,c
  3983   003BDC                     l2422:
  3984   003BDC  0E00               	movlw	0
  3985   003BDE  6E08               	movwf	(___awdiv@quotient+1)^(0+1280),c
  3986   003BE0  0E00               	movlw	0
  3987   003BE2  6E07               	movwf	___awdiv@quotient^(0+1280),c
  3988   003BE4  5003               	movf	___awdiv@divisor^(0+1280),w,c
  3989   003BE6  1004               	iorwf	(___awdiv@divisor+1)^(0+1280),w,c
  3990   003BE8  B4D8               	btfsc	status,2,c
  3991   003BEA  EFF9  F01D         	goto	u2271
  3992   003BEE  EFFB  F01D         	goto	u2270
  3993   003BF2                     u2271:
  3994   003BF2  EF23  F01E         	goto	l2444
  3995   003BF6                     u2270:
  3996   003BF6  0E01               	movlw	1
  3997   003BF8  6E05               	movwf	___awdiv@counter^(0+1280),c
  3998   003BFA  EF03  F01E         	goto	l2430
  3999   003BFE                     l2428:
  4000   003BFE  90D8               	bcf	status,0,c
  4001   003C00  3603               	rlcf	___awdiv@divisor^(0+1280),f,c
  4002   003C02  3604               	rlcf	(___awdiv@divisor+1)^(0+1280),f,c
  4003   003C04  2A05               	incf	___awdiv@counter^(0+1280),f,c
  4004   003C06                     l2430:
  4005   003C06  AE04               	btfss	(___awdiv@divisor+1)^(0+1280),7,c
  4006   003C08  EF08  F01E         	goto	u2281
  4007   003C0C  EF0A  F01E         	goto	u2280
  4008   003C10                     u2281:
  4009   003C10  EFFF  F01D         	goto	l2428
  4010   003C14                     u2280:
  4011   003C14                     l2432:
  4012   003C14  90D8               	bcf	status,0,c
  4013   003C16  3607               	rlcf	___awdiv@quotient^(0+1280),f,c
  4014   003C18  3608               	rlcf	(___awdiv@quotient+1)^(0+1280),f,c
  4015   003C1A  5003               	movf	___awdiv@divisor^(0+1280),w,c
  4016   003C1C  5C01               	subwf	___awdiv@dividend^(0+1280),w,c
  4017   003C1E  5004               	movf	(___awdiv@divisor+1)^(0+1280),w,c
  4018   003C20  5802               	subwfb	(___awdiv@dividend+1)^(0+1280),w,c
  4019   003C22  A0D8               	btfss	status,0,c
  4020   003C24  EF16  F01E         	goto	u2291
  4021   003C28  EF18  F01E         	goto	u2290
  4022   003C2C                     u2291:
  4023   003C2C  EF1D  F01E         	goto	l2440
  4024   003C30                     u2290:
  4025   003C30  5003               	movf	___awdiv@divisor^(0+1280),w,c
  4026   003C32  5E01               	subwf	___awdiv@dividend^(0+1280),f,c
  4027   003C34  5004               	movf	(___awdiv@divisor+1)^(0+1280),w,c
  4028   003C36  5A02               	subwfb	(___awdiv@dividend+1)^(0+1280),f,c
  4029   003C38  8007               	bsf	___awdiv@quotient^(0+1280),0,c
  4030   003C3A                     l2440:
  4031   003C3A  90D8               	bcf	status,0,c
  4032   003C3C  3204               	rrcf	(___awdiv@divisor+1)^(0+1280),f,c
  4033   003C3E  3203               	rrcf	___awdiv@divisor^(0+1280),f,c
  4034   003C40  2E05               	decfsz	___awdiv@counter^(0+1280),f,c
  4035   003C42  EF0A  F01E         	goto	l2432
  4036   003C46                     l2444:
  4037   003C46  5006               	movf	___awdiv@sign^(0+1280),w,c
  4038   003C48  B4D8               	btfsc	status,2,c
  4039   003C4A  EF29  F01E         	goto	u2301
  4040   003C4E  EF2B  F01E         	goto	u2300
  4041   003C52                     u2301:
  4042   003C52  EF2F  F01E         	goto	l2448
  4043   003C56                     u2300:
  4044   003C56  6C07               	negf	___awdiv@quotient^(0+1280),c
  4045   003C58  1E08               	comf	(___awdiv@quotient+1)^(0+1280),f,c
  4046   003C5A  B0D8               	btfsc	status,0,c
  4047   003C5C  2A08               	incf	(___awdiv@quotient+1)^(0+1280),f,c
  4048   003C5E                     l2448:
  4049   003C5E  C507  F501         	movff	___awdiv@quotient,?___awdiv
  4050   003C62  C508  F502         	movff	___awdiv@quotient+1,?___awdiv+1
  4051   003C66  0012               	return		;funcret
  4052   003C68                     __end_of___awdiv:
  4053                           	callstack 0
  4054                           
  4055 ;; *************** function _LCDprints *****************
  4056 ;; Defined at:
  4057 ;;		line 86 in file "C:/Users/a_hui/OneDrive - Camosun College/term2/ecet165_embedded_mc/labs/ecet165-labs/lab6/lcd18f.c
      +"
  4058 ;; Parameters:    Size  Location     Type
  4059 ;;  c               2   17[COMRAM] PTR unsigned char 
  4060 ;;		 -> LCDprintf@f_string(20), ?_LCDprintf(1), toString@string(6), 
  4061 ;; Auto vars:     Size  Location     Type
  4062 ;;		None
  4063 ;; Return value:  Size  Location     Type
  4064 ;;                  1    wreg      void 
  4065 ;; Registers used:
  4066 ;;		wreg, fsr2l, fsr2h, status,2, status,0, cstack
  4067 ;; Tracked objects:
  4068 ;;		On entry : 0/0
  4069 ;;		On exit  : 0/0
  4070 ;;		Unchanged: 0/0
  4071 ;; Data sizes:     COMRAM   BANK5   BANK6   BANK7   BANK8   BANK9  BANK10  BANK11  BANK12  BANK13  BANK14  BANK15  BANK1
      +6  BANK17  BANK18  BANK19  BANK20  BANK21  BANK22  BANK23  BANK24  BANK25  BANK26  BANK27  BANK28  BANK29  BANK30  BANK3
      +1  BANK32  BANK33  BANK34  BANK35  BANK36
  4072 ;;      Params:         2       0       0       0       0       0       0       0       0       0       0       0       
      +0       0       0       0       0       0       0       0       0       0       0       0       0       0       0       
      +0       0       0       0       0       0
  4073 ;;      Locals:         0       0       0       0       0       0       0       0       0       0       0       0       
      +0       0       0       0       0       0       0       0       0       0       0       0       0       0       0       
      +0       0       0       0       0       0
  4074 ;;      Temps:          0       0       0       0       0       0       0       0       0       0       0       0       
      +0       0       0       0       0       0       0       0       0       0       0       0       0       0       0       
      +0       0       0       0       0       0
  4075 ;;      Totals:         2       0       0       0       0       0       0       0       0       0       0       0       
      +0       0       0       0       0       0       0       0       0       0       0       0       0       0       0       
      +0       0       0       0       0       0
  4076 ;;Total ram usage:        2 bytes
  4077 ;; Hardware stack levels used: 1
  4078 ;; Hardware stack levels required when called: 1
  4079 ;; This function calls:
  4080 ;;		_LCDprintc
  4081 ;; This function is called by:
  4082 ;;		_LCDprintf
  4083 ;; This function uses a non-reentrant model
  4084 ;;
  4085                           
  4086                           	psect	text15
  4087   003F50                     __ptext15:
  4088                           	callstack 0
  4089   003F50                     _LCDprints:
  4090                           	callstack 124
  4091   003F50                     
  4092                           ;C:/Users/a_hui/OneDrive - Camosun College/term2/ecet165_embedded_mc/labs/ecet165-labs/l
      +                          ab6/lcd18f.c: 88:     ANSELD = 0x0; TRISD = 0x0; WPUD = 0xFF; LATDbits.LATD7 = 1; _delay
      +                          ((unsigned long)((1)*(64000000/4000000.0)));
  4093   003F50  0E00               	movlw	0
  4094   003F52  0104               	movlb	4	; () banked
  4095   003F54  6F18               	movwf	24,b	;volatile
  4096   003F56  0E00               	movlw	0
  4097   003F58  6EC9               	movwf	201,c	;volatile
  4098   003F5A                     
  4099                           ; BSR set to: 4
  4100   003F5A  6919               	setf	25,b	;volatile
  4101   003F5C                     
  4102                           ; BSR set to: 4
  4103   003F5C  8EC1               	bsf	193,7,c	;volatile
  4104   003F5E                     
  4105                           ; BSR set to: 4
  4106   003F5E  0E05               	movlw	5
  4107   003F60                     u2707:
  4108   003F60  2EE8               	decfsz	wreg,f,c
  4109   003F62  D7FE               	bra	u2707
  4110   003F64  F000               	nop	
  4111   003F66                     
  4112                           ;C:/Users/a_hui/OneDrive - Camosun College/term2/ecet165_embedded_mc/labs/ecet165-labs/l
      +                          ab6/lcd18f.c: 91:     LATDbits.LATD4 = 1;
  4113   003F66  88C1               	bsf	193,4,c	;volatile
  4114   003F68                     
  4115                           ;C:/Users/a_hui/OneDrive - Camosun College/term2/ecet165_embedded_mc/labs/ecet165-labs/l
      +                          ab6/lcd18f.c: 92:     LATDbits.LATD5 = 0;
  4116   003F68  9AC1               	bcf	193,5,c	;volatile
  4117   003F6A                     
  4118                           ;C:/Users/a_hui/OneDrive - Camosun College/term2/ecet165_embedded_mc/labs/ecet165-labs/l
      +                          ab6/lcd18f.c: 94:     _delay((unsigned long)((1)*(64000000/4000000.0)));
  4119   003F6A  0E05               	movlw	5
  4120   003F6C                     u2717:
  4121   003F6C  2EE8               	decfsz	wreg,f,c
  4122   003F6E  D7FE               	bra	u2717
  4123   003F70  F000               	nop	
  4124                           
  4125                           ;C:/Users/a_hui/OneDrive - Camosun College/term2/ecet165_embedded_mc/labs/ecet165-labs/l
      +                          ab6/lcd18f.c: 98:     while(*c != 0x0){
  4126   003F72  EFC4  F01F         	goto	l2112
  4127   003F76                     l2108:
  4128                           
  4129                           ;C:/Users/a_hui/OneDrive - Camosun College/term2/ecet165_embedded_mc/labs/ecet165-labs/l
      +                          ab6/lcd18f.c: 100:         LCDprintc(*c++);
  4130   003F76  C512  F4D9         	movff	LCDprints@c,fsr2l
  4131   003F7A  C513  F4DA         	movff	LCDprints@c+1,fsr2h
  4132   003F7E  50DF               	movf	indf2,w,c
  4133   003F80  EC8C  F01E         	call	_LCDprintc
  4134   003F84  4A12               	infsnz	LCDprints@c^(0+1280),f,c
  4135   003F86  2A13               	incf	(LCDprints@c+1)^(0+1280),f,c
  4136   003F88                     l2112:
  4137                           
  4138                           ;C:/Users/a_hui/OneDrive - Camosun College/term2/ecet165_embedded_mc/labs/ecet165-labs/l
      +                          ab6/lcd18f.c: 98:     while(*c != 0x0){
  4139   003F88  C512  F4D9         	movff	LCDprints@c,fsr2l
  4140   003F8C  C513  F4DA         	movff	LCDprints@c+1,fsr2h
  4141   003F90  50DF               	movf	indf2,w,c
  4142   003F92  A4D8               	btfss	status,2,c
  4143   003F94  EFCE  F01F         	goto	u1801
  4144   003F98  EFD0  F01F         	goto	u1800
  4145   003F9C                     u1801:
  4146   003F9C  EFBB  F01F         	goto	l2108
  4147   003FA0                     u1800:
  4148   003FA0  0012               	return		;funcret
  4149   003FA2                     __end_of_LCDprints:
  4150                           	callstack 0
  4151                           
  4152 ;; *************** function _LCDprintc *****************
  4153 ;; Defined at:
  4154 ;;		line 71 in file "C:/Users/a_hui/OneDrive - Camosun College/term2/ecet165_embedded_mc/labs/ecet165-labs/lab6/lcd18f.c
      +"
  4155 ;; Parameters:    Size  Location     Type
  4156 ;;  c               1    wreg     unsigned char 
  4157 ;; Auto vars:     Size  Location     Type
  4158 ;;  c               1    1[COMRAM] unsigned char 
  4159 ;; Return value:  Size  Location     Type
  4160 ;;                  1    wreg      void 
  4161 ;; Registers used:
  4162 ;;		wreg, status,2, status,0
  4163 ;; Tracked objects:
  4164 ;;		On entry : 0/0
  4165 ;;		On exit  : 0/0
  4166 ;;		Unchanged: 0/0
  4167 ;; Data sizes:     COMRAM   BANK5   BANK6   BANK7   BANK8   BANK9  BANK10  BANK11  BANK12  BANK13  BANK14  BANK15  BANK1
      +6  BANK17  BANK18  BANK19  BANK20  BANK21  BANK22  BANK23  BANK24  BANK25  BANK26  BANK27  BANK28  BANK29  BANK30  BANK3
      +1  BANK32  BANK33  BANK34  BANK35  BANK36
  4168 ;;      Params:         0       0       0       0       0       0       0       0       0       0       0       0       
      +0       0       0       0       0       0       0       0       0       0       0       0       0       0       0       
      +0       0       0       0       0       0
  4169 ;;      Locals:         1       0       0       0       0       0       0       0       0       0       0       0       
      +0       0       0       0       0       0       0       0       0       0       0       0       0       0       0       
      +0       0       0       0       0       0
  4170 ;;      Temps:          1       0       0       0       0       0       0       0       0       0       0       0       
      +0       0       0       0       0       0       0       0       0       0       0       0       0       0       0       
      +0       0       0       0       0       0
  4171 ;;      Totals:         2       0       0       0       0       0       0       0       0       0       0       0       
      +0       0       0       0       0       0       0       0       0       0       0       0       0       0       0       
      +0       0       0       0       0       0
  4172 ;;Total ram usage:        2 bytes
  4173 ;; Hardware stack levels used: 1
  4174 ;; This function calls:
  4175 ;;		Nothing
  4176 ;; This function is called by:
  4177 ;;		_LCDprints
  4178 ;;		_LCDprintf
  4179 ;;		_LCDreturn
  4180 ;; This function uses a non-reentrant model
  4181 ;;
  4182                           
  4183                           	psect	text16
  4184   003D18                     __ptext16:
  4185                           	callstack 0
  4186   003D18                     _LCDprintc:
  4187                           	callstack 124
  4188                           
  4189                           ;incstack = 0
  4190                           ;LCDprintc@c stored from wreg
  4191   003D18  6E02               	movwf	LCDprintc@c^(0+1280),c
  4192   003D1A                     
  4193                           ;C:/Users/a_hui/OneDrive - Camosun College/term2/ecet165_embedded_mc/labs/ecet165-labs/l
      +                          ab6/lcd18f.c: 72:     ANSELD = 0x0; TRISD = 0x0; WPUD = 0xFF; LATDbits.LATD7 = 1; _delay
      +                          ((unsigned long)((1)*(64000000/4000000.0)));
  4194   003D1A  0E00               	movlw	0
  4195   003D1C  0104               	movlb	4	; () banked
  4196   003D1E  6F18               	movwf	24,b	;volatile
  4197   003D20  0E00               	movlw	0
  4198   003D22  6EC9               	movwf	201,c	;volatile
  4199   003D24                     
  4200                           ; BSR set to: 4
  4201   003D24  6919               	setf	25,b	;volatile
  4202   003D26                     
  4203                           ; BSR set to: 4
  4204   003D26  8EC1               	bsf	193,7,c	;volatile
  4205   003D28                     
  4206                           ; BSR set to: 4
  4207   003D28  0E05               	movlw	5
  4208   003D2A                     u2727:
  4209   003D2A  2EE8               	decfsz	wreg,f,c
  4210   003D2C  D7FE               	bra	u2727
  4211   003D2E  F000               	nop	
  4212   003D30                     
  4213                           ;C:/Users/a_hui/OneDrive - Camosun College/term2/ecet165_embedded_mc/labs/ecet165-labs/l
      +                          ab6/lcd18f.c: 73:     LATDbits.LATD4 = 1;
  4214   003D30  88C1               	bsf	193,4,c	;volatile
  4215   003D32                     
  4216                           ;C:/Users/a_hui/OneDrive - Camosun College/term2/ecet165_embedded_mc/labs/ecet165-labs/l
      +                          ab6/lcd18f.c: 74:     LATDbits.LATD5 = 0;
  4217   003D32  9AC1               	bcf	193,5,c	;volatile
  4218   003D34                     
  4219                           ;C:/Users/a_hui/OneDrive - Camosun College/term2/ecet165_embedded_mc/labs/ecet165-labs/l
      +                          ab6/lcd18f.c: 77:     LATD = (LATD & 0xF0)|(c>>4);
  4220   003D34  C502  F501         	movff	LCDprintc@c,??_LCDprintc
  4221   003D38  3A01               	swapf	??_LCDprintc^(0+1280),f,c
  4222   003D3A  0E0F               	movlw	15
  4223   003D3C  1601               	andwf	??_LCDprintc^(0+1280),f,c
  4224   003D3E  50C1               	movf	193,w,c	;volatile
  4225   003D40  0BF0               	andlw	240
  4226   003D42  1001               	iorwf	??_LCDprintc^(0+1280),w,c
  4227   003D44  6EC1               	movwf	193,c	;volatile
  4228   003D46                     
  4229                           ;C:/Users/a_hui/OneDrive - Camosun College/term2/ecet165_embedded_mc/labs/ecet165-labs/l
      +                          ab6/lcd18f.c: 78:     _delay((unsigned long)((1)*(64000000/4000000.0)));
  4230   003D46  0E05               	movlw	5
  4231   003D48                     u2737:
  4232   003D48  2EE8               	decfsz	wreg,f,c
  4233   003D4A  D7FE               	bra	u2737
  4234   003D4C  F000               	nop	
  4235   003D4E                     
  4236                           ;C:/Users/a_hui/OneDrive - Camosun College/term2/ecet165_embedded_mc/labs/ecet165-labs/l
      +                          ab6/lcd18f.c: 79:     LATDbits.LATD6 = 1; _delay((unsigned long)((1)*(64000000/4000000.0
      +                          ))); LATDbits.LATD6 = 0;
  4237   003D4E  8CC1               	bsf	193,6,c	;volatile
  4238   003D50  0E05               	movlw	5
  4239   003D52                     u2747:
  4240   003D52  2EE8               	decfsz	wreg,f,c
  4241   003D54  D7FE               	bra	u2747
  4242   003D56  F000               	nop	
  4243   003D58  9CC1               	bcf	193,6,c	;volatile
  4244   003D5A                     
  4245                           ;C:/Users/a_hui/OneDrive - Camosun College/term2/ecet165_embedded_mc/labs/ecet165-labs/l
      +                          ab6/lcd18f.c: 80:     LATD = (LATD & 0xF0)|(c & 0x0F);
  4246   003D5A  C502  F501         	movff	LCDprintc@c,??_LCDprintc
  4247   003D5E  0E0F               	movlw	15
  4248   003D60  1601               	andwf	??_LCDprintc^(0+1280),f,c
  4249   003D62  50C1               	movf	193,w,c	;volatile
  4250   003D64  0BF0               	andlw	240
  4251   003D66  1001               	iorwf	??_LCDprintc^(0+1280),w,c
  4252   003D68  6EC1               	movwf	193,c	;volatile
  4253   003D6A                     
  4254                           ;C:/Users/a_hui/OneDrive - Camosun College/term2/ecet165_embedded_mc/labs/ecet165-labs/l
      +                          ab6/lcd18f.c: 81:     _delay((unsigned long)((1)*(64000000/4000000.0)));
  4255   003D6A  0E05               	movlw	5
  4256   003D6C                     u2757:
  4257   003D6C  2EE8               	decfsz	wreg,f,c
  4258   003D6E  D7FE               	bra	u2757
  4259   003D70  F000               	nop	
  4260   003D72                     
  4261                           ;C:/Users/a_hui/OneDrive - Camosun College/term2/ecet165_embedded_mc/labs/ecet165-labs/l
      +                          ab6/lcd18f.c: 82:     LATDbits.LATD6 = 1; _delay((unsigned long)((1)*(64000000/4000000.0
      +                          ))); LATDbits.LATD6 = 0;
  4262   003D72  8CC1               	bsf	193,6,c	;volatile
  4263   003D74  0E05               	movlw	5
  4264   003D76                     u2767:
  4265   003D76  2EE8               	decfsz	wreg,f,c
  4266   003D78  D7FE               	bra	u2767
  4267   003D7A  F000               	nop	
  4268   003D7C  9CC1               	bcf	193,6,c	;volatile
  4269   003D7E                     
  4270                           ;C:/Users/a_hui/OneDrive - Camosun College/term2/ecet165_embedded_mc/labs/ecet165-labs/l
      +                          ab6/lcd18f.c: 83:     _delay((unsigned long)((5)*(64000000/4000.0)));
  4271   003D7E  0E68               	movlw	104
  4272   003D80  6E01               	movwf	??_LCDprintc^(0+1280),c
  4273   003D82  0EE4               	movlw	228
  4274   003D84                     u2777:
  4275   003D84  2EE8               	decfsz	wreg,f,c
  4276   003D86  D7FE               	bra	u2777
  4277   003D88  2E01               	decfsz	??_LCDprintc^(0+1280),f,c
  4278   003D8A  D7FC               	bra	u2777
  4279   003D8C  D000               	nop2	
  4280   003D8E  0012               	return		;funcret
  4281   003D90                     __end_of_LCDprintc:
  4282                           	callstack 0
  4283                           
  4284 ;; *************** function _LCDinit *****************
  4285 ;; Defined at:
  4286 ;;		line 34 in file "C:/Users/a_hui/OneDrive - Camosun College/term2/ecet165_embedded_mc/labs/ecet165-labs/lab6/lcd18f.c
      +"
  4287 ;; Parameters:    Size  Location     Type
  4288 ;;		None
  4289 ;; Auto vars:     Size  Location     Type
  4290 ;;		None
  4291 ;; Return value:  Size  Location     Type
  4292 ;;                  1    wreg      void 
  4293 ;; Registers used:
  4294 ;;		wreg, status,2, status,0, cstack
  4295 ;; Tracked objects:
  4296 ;;		On entry : 0/0
  4297 ;;		On exit  : 0/0
  4298 ;;		Unchanged: 0/0
  4299 ;; Data sizes:     COMRAM   BANK5   BANK6   BANK7   BANK8   BANK9  BANK10  BANK11  BANK12  BANK13  BANK14  BANK15  BANK1
      +6  BANK17  BANK18  BANK19  BANK20  BANK21  BANK22  BANK23  BANK24  BANK25  BANK26  BANK27  BANK28  BANK29  BANK30  BANK3
      +1  BANK32  BANK33  BANK34  BANK35  BANK36
  4300 ;;      Params:         0       0       0       0       0       0       0       0       0       0       0       0       
      +0       0       0       0       0       0       0       0       0       0       0       0       0       0       0       
      +0       0       0       0       0       0
  4301 ;;      Locals:         0       0       0       0       0       0       0       0       0       0       0       0       
      +0       0       0       0       0       0       0       0       0       0       0       0       0       0       0       
      +0       0       0       0       0       0
  4302 ;;      Temps:          2       0       0       0       0       0       0       0       0       0       0       0       
      +0       0       0       0       0       0       0       0       0       0       0       0       0       0       0       
      +0       0       0       0       0       0
  4303 ;;      Totals:         2       0       0       0       0       0       0       0       0       0       0       0       
      +0       0       0       0       0       0       0       0       0       0       0       0       0       0       0       
      +0       0       0       0       0       0
  4304 ;;Total ram usage:        2 bytes
  4305 ;; Hardware stack levels used: 1
  4306 ;; Hardware stack levels required when called: 1
  4307 ;; This function calls:
  4308 ;;		_LCDinstruct
  4309 ;; This function is called by:
  4310 ;;		_main
  4311 ;; This function uses a non-reentrant model
  4312 ;;
  4313                           
  4314                           	psect	text17
  4315   003ABA                     __ptext17:
  4316                           	callstack 0
  4317   003ABA                     _LCDinit:
  4318                           	callstack 125
  4319   003ABA                     
  4320                           ;C:/Users/a_hui/OneDrive - Camosun College/term2/ecet165_embedded_mc/labs/ecet165-labs/l
      +                          ab6/lcd18f.c: 35:     _delay((unsigned long)((50)*(64000000/4000.0)));
  4321   003ABA  0E05               	movlw	5
  4322   003ABC  6E04               	movwf	(??_LCDinit+1)^(0+1280),c
  4323   003ABE  0E0F               	movlw	15
  4324   003AC0  6E03               	movwf	??_LCDinit^(0+1280),c
  4325   003AC2  0EF1               	movlw	241
  4326   003AC4                     u2787:
  4327   003AC4  2EE8               	decfsz	wreg,f,c
  4328   003AC6  D7FE               	bra	u2787
  4329   003AC8  2E03               	decfsz	??_LCDinit^(0+1280),f,c
  4330   003ACA  D7FC               	bra	u2787
  4331   003ACC  2E04               	decfsz	(??_LCDinit+1)^(0+1280),f,c
  4332   003ACE  D7FA               	bra	u2787
  4333   003AD0  F000               	nop	
  4334   003AD2                     
  4335                           ;C:/Users/a_hui/OneDrive - Camosun College/term2/ecet165_embedded_mc/labs/ecet165-labs/l
      +                          ab6/lcd18f.c: 37:     ANSELD = 0x0; TRISD = 0x0; WPUD = 0xFF; LATDbits.LATD7 = 1; _delay
      +                          ((unsigned long)((1)*(64000000/4000000.0)));
  4336   003AD2  0E00               	movlw	0
  4337   003AD4  0104               	movlb	4	; () banked
  4338   003AD6  6F18               	movwf	24,b	;volatile
  4339   003AD8                     
  4340                           ; BSR set to: 4
  4341   003AD8  0E00               	movlw	0
  4342   003ADA  6EC9               	movwf	201,c	;volatile
  4343   003ADC                     
  4344                           ; BSR set to: 4
  4345   003ADC  6919               	setf	25,b	;volatile
  4346   003ADE                     
  4347                           ; BSR set to: 4
  4348   003ADE  8EC1               	bsf	193,7,c	;volatile
  4349   003AE0  0E05               	movlw	5
  4350   003AE2                     u2797:
  4351   003AE2  2EE8               	decfsz	wreg,f,c
  4352   003AE4  D7FE               	bra	u2797
  4353   003AE6  F000               	nop	
  4354   003AE8                     
  4355                           ;C:/Users/a_hui/OneDrive - Camosun College/term2/ecet165_embedded_mc/labs/ecet165-labs/l
      +                          ab6/lcd18f.c: 39:     LATDbits.LATD4 = 0;
  4356   003AE8  98C1               	bcf	193,4,c	;volatile
  4357   003AEA                     
  4358                           ;C:/Users/a_hui/OneDrive - Camosun College/term2/ecet165_embedded_mc/labs/ecet165-labs/l
      +                          ab6/lcd18f.c: 40:     LATDbits.LATD5 = 0;
  4359   003AEA  9AC1               	bcf	193,5,c	;volatile
  4360                           
  4361                           ;C:/Users/a_hui/OneDrive - Camosun College/term2/ecet165_embedded_mc/labs/ecet165-labs/l
      +                          ab6/lcd18f.c: 42:     _delay((unsigned long)((1)*(64000000/4000000.0)));
  4362   003AEC  0E05               	movlw	5
  4363   003AEE                     u2807:
  4364   003AEE  2EE8               	decfsz	wreg,f,c
  4365   003AF0  D7FE               	bra	u2807
  4366   003AF2  F000               	nop	
  4367   003AF4                     
  4368                           ;C:/Users/a_hui/OneDrive - Camosun College/term2/ecet165_embedded_mc/labs/ecet165-labs/l
      +                          ab6/lcd18f.c: 45:     LATD = (LATD & 0xF0) | 0x03;
  4369   003AF4  50C1               	movf	193,w,c	;volatile
  4370   003AF6  0BF0               	andlw	240
  4371   003AF8  0903               	iorlw	3
  4372   003AFA  6EC1               	movwf	193,c	;volatile
  4373   003AFC                     
  4374                           ;C:/Users/a_hui/OneDrive - Camosun College/term2/ecet165_embedded_mc/labs/ecet165-labs/l
      +                          ab6/lcd18f.c: 46:     LATDbits.LATD6 = 1; _delay((unsigned long)((1)*(64000000/4000000.0
      +                          ))); LATDbits.LATD6 = 0;
  4375   003AFC  8CC1               	bsf	193,6,c	;volatile
  4376   003AFE  0E05               	movlw	5
  4377   003B00                     u2817:
  4378   003B00  2EE8               	decfsz	wreg,f,c
  4379   003B02  D7FE               	bra	u2817
  4380   003B04  F000               	nop	
  4381   003B06  9CC1               	bcf	193,6,c	;volatile
  4382   003B08                     
  4383                           ;C:/Users/a_hui/OneDrive - Camosun College/term2/ecet165_embedded_mc/labs/ecet165-labs/l
      +                          ab6/lcd18f.c: 47:     _delay((unsigned long)((5)*(64000000/4000.0)));
  4384   003B08  0E68               	movlw	104
  4385   003B0A  6E03               	movwf	??_LCDinit^(0+1280),c
  4386   003B0C  0EE4               	movlw	228
  4387   003B0E                     u2827:
  4388   003B0E  2EE8               	decfsz	wreg,f,c
  4389   003B10  D7FE               	bra	u2827
  4390   003B12  2E03               	decfsz	??_LCDinit^(0+1280),f,c
  4391   003B14  D7FC               	bra	u2827
  4392   003B16  D000               	nop2	
  4393   003B18                     
  4394                           ;C:/Users/a_hui/OneDrive - Camosun College/term2/ecet165_embedded_mc/labs/ecet165-labs/l
      +                          ab6/lcd18f.c: 49:     LATD = (LATD & 0xF0) | 0x03;
  4395   003B18  50C1               	movf	193,w,c	;volatile
  4396   003B1A  0BF0               	andlw	240
  4397   003B1C  0903               	iorlw	3
  4398   003B1E  6EC1               	movwf	193,c	;volatile
  4399   003B20                     
  4400                           ;C:/Users/a_hui/OneDrive - Camosun College/term2/ecet165_embedded_mc/labs/ecet165-labs/l
      +                          ab6/lcd18f.c: 50:     LATDbits.LATD6 = 1; _delay((unsigned long)((1)*(64000000/4000000.0
      +                          ))); LATDbits.LATD6 = 0;
  4401   003B20  8CC1               	bsf	193,6,c	;volatile
  4402   003B22  0E05               	movlw	5
  4403   003B24                     u2837:
  4404   003B24  2EE8               	decfsz	wreg,f,c
  4405   003B26  D7FE               	bra	u2837
  4406   003B28  F000               	nop	
  4407   003B2A  9CC1               	bcf	193,6,c	;volatile
  4408                           
  4409                           ;C:/Users/a_hui/OneDrive - Camosun College/term2/ecet165_embedded_mc/labs/ecet165-labs/l
      +                          ab6/lcd18f.c: 51:     _delay((unsigned long)((5)*(64000000/4000.0)));
  4410   003B2C  0E68               	movlw	104
  4411   003B2E  6E03               	movwf	??_LCDinit^(0+1280),c
  4412   003B30  0EE4               	movlw	228
  4413   003B32                     u2847:
  4414   003B32  2EE8               	decfsz	wreg,f,c
  4415   003B34  D7FE               	bra	u2847
  4416   003B36  2E03               	decfsz	??_LCDinit^(0+1280),f,c
  4417   003B38  D7FC               	bra	u2847
  4418   003B3A  D000               	nop2	
  4419   003B3C                     
  4420                           ;C:/Users/a_hui/OneDrive - Camosun College/term2/ecet165_embedded_mc/labs/ecet165-labs/l
      +                          ab6/lcd18f.c: 53:     LATD = (LATD & 0xF0) | 0x03;
  4421   003B3C  50C1               	movf	193,w,c	;volatile
  4422   003B3E  0BF0               	andlw	240
  4423   003B40  0903               	iorlw	3
  4424   003B42  6EC1               	movwf	193,c	;volatile
  4425   003B44                     
  4426                           ;C:/Users/a_hui/OneDrive - Camosun College/term2/ecet165_embedded_mc/labs/ecet165-labs/l
      +                          ab6/lcd18f.c: 54:     LATDbits.LATD6 = 1; _delay((unsigned long)((1)*(64000000/4000000.0
      +                          ))); LATDbits.LATD6 = 0;
  4427   003B44  8CC1               	bsf	193,6,c	;volatile
  4428   003B46  0E05               	movlw	5
  4429   003B48                     u2857:
  4430   003B48  2EE8               	decfsz	wreg,f,c
  4431   003B4A  D7FE               	bra	u2857
  4432   003B4C  F000               	nop	
  4433   003B4E  9CC1               	bcf	193,6,c	;volatile
  4434   003B50                     
  4435                           ;C:/Users/a_hui/OneDrive - Camosun College/term2/ecet165_embedded_mc/labs/ecet165-labs/l
      +                          ab6/lcd18f.c: 55:     _delay((unsigned long)((5)*(64000000/4000.0)));
  4436   003B50  0E68               	movlw	104
  4437   003B52  6E03               	movwf	??_LCDinit^(0+1280),c
  4438   003B54  0EE4               	movlw	228
  4439   003B56                     u2867:
  4440   003B56  2EE8               	decfsz	wreg,f,c
  4441   003B58  D7FE               	bra	u2867
  4442   003B5A  2E03               	decfsz	??_LCDinit^(0+1280),f,c
  4443   003B5C  D7FC               	bra	u2867
  4444   003B5E  D000               	nop2	
  4445   003B60                     
  4446                           ;C:/Users/a_hui/OneDrive - Camosun College/term2/ecet165_embedded_mc/labs/ecet165-labs/l
      +                          ab6/lcd18f.c: 58:     LATD = (LATD & 0xF0) | 0x02;
  4447   003B60  50C1               	movf	193,w,c	;volatile
  4448   003B62  0BF0               	andlw	240
  4449   003B64  0902               	iorlw	2
  4450   003B66  6EC1               	movwf	193,c	;volatile
  4451   003B68                     
  4452                           ;C:/Users/a_hui/OneDrive - Camosun College/term2/ecet165_embedded_mc/labs/ecet165-labs/l
      +                          ab6/lcd18f.c: 59:     LATDbits.LATD6 = 1; _delay((unsigned long)((1)*(64000000/4000000.0
      +                          ))); LATDbits.LATD6 = 0;
  4453   003B68  8CC1               	bsf	193,6,c	;volatile
  4454   003B6A  0E05               	movlw	5
  4455   003B6C                     u2877:
  4456   003B6C  2EE8               	decfsz	wreg,f,c
  4457   003B6E  D7FE               	bra	u2877
  4458   003B70  F000               	nop	
  4459   003B72  9CC1               	bcf	193,6,c	;volatile
  4460                           
  4461                           ;C:/Users/a_hui/OneDrive - Camosun College/term2/ecet165_embedded_mc/labs/ecet165-labs/l
      +                          ab6/lcd18f.c: 60:     _delay((unsigned long)((5)*(64000000/4000.0)));
  4462   003B74  0E68               	movlw	104
  4463   003B76  6E03               	movwf	??_LCDinit^(0+1280),c
  4464   003B78  0EE4               	movlw	228
  4465   003B7A                     u2887:
  4466   003B7A  2EE8               	decfsz	wreg,f,c
  4467   003B7C  D7FE               	bra	u2887
  4468   003B7E  2E03               	decfsz	??_LCDinit^(0+1280),f,c
  4469   003B80  D7FC               	bra	u2887
  4470   003B82  D000               	nop2	
  4471   003B84                     
  4472                           ;C:/Users/a_hui/OneDrive - Camosun College/term2/ecet165_embedded_mc/labs/ecet165-labs/l
      +                          ab6/lcd18f.c: 63:     LCDinstruct(0x28);
  4473   003B84  0E28               	movlw	40
  4474   003B86  EC3C  F01F         	call	_LCDinstruct
  4475   003B8A                     
  4476                           ;C:/Users/a_hui/OneDrive - Camosun College/term2/ecet165_embedded_mc/labs/ecet165-labs/l
      +                          ab6/lcd18f.c: 64:     LCDinstruct(0x08);
  4477   003B8A  0E08               	movlw	8
  4478   003B8C  EC3C  F01F         	call	_LCDinstruct
  4479   003B90                     
  4480                           ;C:/Users/a_hui/OneDrive - Camosun College/term2/ecet165_embedded_mc/labs/ecet165-labs/l
      +                          ab6/lcd18f.c: 65:     LCDinstruct(0x0F);
  4481   003B90  0E0F               	movlw	15
  4482   003B92  EC3C  F01F         	call	_LCDinstruct
  4483   003B96                     
  4484                           ;C:/Users/a_hui/OneDrive - Camosun College/term2/ecet165_embedded_mc/labs/ecet165-labs/l
      +                          ab6/lcd18f.c: 66:     LCDinstruct(0x01);
  4485   003B96  0E01               	movlw	1
  4486   003B98  EC3C  F01F         	call	_LCDinstruct
  4487   003B9C                     
  4488                           ;C:/Users/a_hui/OneDrive - Camosun College/term2/ecet165_embedded_mc/labs/ecet165-labs/l
      +                          ab6/lcd18f.c: 67:     LCDinstruct(0x06);
  4489   003B9C  0E06               	movlw	6
  4490   003B9E  EC3C  F01F         	call	_LCDinstruct
  4491   003BA2  0012               	return		;funcret
  4492   003BA4                     __end_of_LCDinit:
  4493                           	callstack 0
  4494                           
  4495 ;; *************** function _LCDgoto *****************
  4496 ;; Defined at:
  4497 ;;		line 107 in file "C:/Users/a_hui/OneDrive - Camosun College/term2/ecet165_embedded_mc/labs/ecet165-labs/lab6/lcd18f.
      +c"
  4498 ;; Parameters:    Size  Location     Type
  4499 ;;  pos             1    wreg     unsigned char 
  4500 ;; Auto vars:     Size  Location     Type
  4501 ;;  pos             1    2[COMRAM] unsigned char 
  4502 ;; Return value:  Size  Location     Type
  4503 ;;                  1    wreg      void 
  4504 ;; Registers used:
  4505 ;;		wreg, status,2, status,0, cstack
  4506 ;; Tracked objects:
  4507 ;;		On entry : 0/0
  4508 ;;		On exit  : 0/0
  4509 ;;		Unchanged: 0/0
  4510 ;; Data sizes:     COMRAM   BANK5   BANK6   BANK7   BANK8   BANK9  BANK10  BANK11  BANK12  BANK13  BANK14  BANK15  BANK1
      +6  BANK17  BANK18  BANK19  BANK20  BANK21  BANK22  BANK23  BANK24  BANK25  BANK26  BANK27  BANK28  BANK29  BANK30  BANK3
      +1  BANK32  BANK33  BANK34  BANK35  BANK36
  4511 ;;      Params:         0       0       0       0       0       0       0       0       0       0       0       0       
      +0       0       0       0       0       0       0       0       0       0       0       0       0       0       0       
      +0       0       0       0       0       0
  4512 ;;      Locals:         1       0       0       0       0       0       0       0       0       0       0       0       
      +0       0       0       0       0       0       0       0       0       0       0       0       0       0       0       
      +0       0       0       0       0       0
  4513 ;;      Temps:          0       0       0       0       0       0       0       0       0       0       0       0       
      +0       0       0       0       0       0       0       0       0       0       0       0       0       0       0       
      +0       0       0       0       0       0
  4514 ;;      Totals:         1       0       0       0       0       0       0       0       0       0       0       0       
      +0       0       0       0       0       0       0       0       0       0       0       0       0       0       0       
      +0       0       0       0       0       0
  4515 ;;Total ram usage:        1 bytes
  4516 ;; Hardware stack levels used: 1
  4517 ;; Hardware stack levels required when called: 1
  4518 ;; This function calls:
  4519 ;;		_LCDinstruct
  4520 ;; This function is called by:
  4521 ;;		_main
  4522 ;;		_LCDreturn
  4523 ;; This function uses a non-reentrant model
  4524 ;;
  4525                           
  4526                           	psect	text18
  4527   004048                     __ptext18:
  4528                           	callstack 0
  4529   004048                     _LCDgoto:
  4530                           	callstack 125
  4531                           
  4532                           ;incstack = 0
  4533                           ;LCDgoto@pos stored from wreg
  4534   004048  6E03               	movwf	LCDgoto@pos^(0+1280),c
  4535   00404A                     
  4536                           ;C:/Users/a_hui/OneDrive - Camosun College/term2/ecet165_embedded_mc/labs/ecet165-labs/l
      +                          ab6/lcd18f.c: 108:     LCDinstruct(0x80+pos);
  4537   00404A  5003               	movf	LCDgoto@pos^(0+1280),w,c
  4538   00404C  0F80               	addlw	128
  4539   00404E  EC3C  F01F         	call	_LCDinstruct
  4540   004052  0012               	return		;funcret
  4541   004054                     __end_of_LCDgoto:
  4542                           	callstack 0
  4543                           
  4544 ;; *************** function _LCDinstruct *****************
  4545 ;; Defined at:
  4546 ;;		line 15 in file "C:/Users/a_hui/OneDrive - Camosun College/term2/ecet165_embedded_mc/labs/ecet165-labs/lab6/lcd18f.c
      +"
  4547 ;; Parameters:    Size  Location     Type
  4548 ;;  instr           1    wreg     unsigned char 
  4549 ;; Auto vars:     Size  Location     Type
  4550 ;;  instr           1    1[COMRAM] unsigned char 
  4551 ;; Return value:  Size  Location     Type
  4552 ;;                  1    wreg      void 
  4553 ;; Registers used:
  4554 ;;		wreg, status,2, status,0
  4555 ;; Tracked objects:
  4556 ;;		On entry : 0/0
  4557 ;;		On exit  : 0/0
  4558 ;;		Unchanged: 0/0
  4559 ;; Data sizes:     COMRAM   BANK5   BANK6   BANK7   BANK8   BANK9  BANK10  BANK11  BANK12  BANK13  BANK14  BANK15  BANK1
      +6  BANK17  BANK18  BANK19  BANK20  BANK21  BANK22  BANK23  BANK24  BANK25  BANK26  BANK27  BANK28  BANK29  BANK30  BANK3
      +1  BANK32  BANK33  BANK34  BANK35  BANK36
  4560 ;;      Params:         0       0       0       0       0       0       0       0       0       0       0       0       
      +0       0       0       0       0       0       0       0       0       0       0       0       0       0       0       
      +0       0       0       0       0       0
  4561 ;;      Locals:         1       0       0       0       0       0       0       0       0       0       0       0       
      +0       0       0       0       0       0       0       0       0       0       0       0       0       0       0       
      +0       0       0       0       0       0
  4562 ;;      Temps:          1       0       0       0       0       0       0       0       0       0       0       0       
      +0       0       0       0       0       0       0       0       0       0       0       0       0       0       0       
      +0       0       0       0       0       0
  4563 ;;      Totals:         2       0       0       0       0       0       0       0       0       0       0       0       
      +0       0       0       0       0       0       0       0       0       0       0       0       0       0       0       
      +0       0       0       0       0       0
  4564 ;;Total ram usage:        2 bytes
  4565 ;; Hardware stack levels used: 1
  4566 ;; This function calls:
  4567 ;;		Nothing
  4568 ;; This function is called by:
  4569 ;;		_LCDinit
  4570 ;;		_LCDgoto
  4571 ;;		_main
  4572 ;; This function uses a non-reentrant model
  4573 ;;
  4574                           
  4575                           	psect	text19
  4576   003E78                     __ptext19:
  4577                           	callstack 0
  4578   003E78                     _LCDinstruct:
  4579                           	callstack 126
  4580                           
  4581                           ;incstack = 0
  4582                           ;LCDinstruct@instr stored from wreg
  4583   003E78  6E02               	movwf	LCDinstruct@instr^(0+1280),c
  4584   003E7A                     
  4585                           ;C:/Users/a_hui/OneDrive - Camosun College/term2/ecet165_embedded_mc/labs/ecet165-labs/l
      +                          ab6/lcd18f.c: 17:     ANSELD = 0x0; TRISD = 0x0; WPUD = 0xFF; LATDbits.LATD7 = 1; _delay
      +                          ((unsigned long)((1)*(64000000/4000000.0)));
  4586   003E7A  0E00               	movlw	0
  4587   003E7C  0104               	movlb	4	; () banked
  4588   003E7E  6F18               	movwf	24,b	;volatile
  4589   003E80  0E00               	movlw	0
  4590   003E82  6EC9               	movwf	201,c	;volatile
  4591   003E84                     
  4592                           ; BSR set to: 4
  4593   003E84  6919               	setf	25,b	;volatile
  4594   003E86                     
  4595                           ; BSR set to: 4
  4596   003E86  8EC1               	bsf	193,7,c	;volatile
  4597   003E88                     
  4598                           ; BSR set to: 4
  4599   003E88  0E05               	movlw	5
  4600   003E8A                     u2897:
  4601   003E8A  2EE8               	decfsz	wreg,f,c
  4602   003E8C  D7FE               	bra	u2897
  4603   003E8E  F000               	nop	
  4604   003E90                     
  4605                           ;C:/Users/a_hui/OneDrive - Camosun College/term2/ecet165_embedded_mc/labs/ecet165-labs/l
      +                          ab6/lcd18f.c: 20:     LATDbits.LATD5 = 0;
  4606   003E90  9AC1               	bcf	193,5,c	;volatile
  4607   003E92                     
  4608                           ;C:/Users/a_hui/OneDrive - Camosun College/term2/ecet165_embedded_mc/labs/ecet165-labs/l
      +                          ab6/lcd18f.c: 21:     LATDbits.LATD4 = 0;
  4609   003E92  98C1               	bcf	193,4,c	;volatile
  4610   003E94                     
  4611                           ;C:/Users/a_hui/OneDrive - Camosun College/term2/ecet165_embedded_mc/labs/ecet165-labs/l
      +                          ab6/lcd18f.c: 24:     LATD = (LATD & 0xF0)| (instr >> 4 & 0x0F);
  4612   003E94  C502  F501         	movff	LCDinstruct@instr,??_LCDinstruct
  4613   003E98  3A01               	swapf	??_LCDinstruct^(0+1280),f,c
  4614   003E9A  0E0F               	movlw	15
  4615   003E9C  1601               	andwf	??_LCDinstruct^(0+1280),f,c
  4616   003E9E  0E0F               	movlw	15
  4617   003EA0  1601               	andwf	??_LCDinstruct^(0+1280),f,c
  4618   003EA2  50C1               	movf	193,w,c	;volatile
  4619   003EA4  0BF0               	andlw	240
  4620   003EA6  1001               	iorwf	??_LCDinstruct^(0+1280),w,c
  4621   003EA8  6EC1               	movwf	193,c	;volatile
  4622   003EAA                     
  4623                           ;C:/Users/a_hui/OneDrive - Camosun College/term2/ecet165_embedded_mc/labs/ecet165-labs/l
      +                          ab6/lcd18f.c: 25:     LATDbits.LATD6 = 1; _delay((unsigned long)((1)*(64000000/4000000.0
      +                          ))); LATDbits.LATD6 = 0;
  4624   003EAA  8CC1               	bsf	193,6,c	;volatile
  4625   003EAC  0E05               	movlw	5
  4626   003EAE                     u2907:
  4627   003EAE  2EE8               	decfsz	wreg,f,c
  4628   003EB0  D7FE               	bra	u2907
  4629   003EB2  F000               	nop	
  4630   003EB4  9CC1               	bcf	193,6,c	;volatile
  4631   003EB6                     
  4632                           ;C:/Users/a_hui/OneDrive - Camosun College/term2/ecet165_embedded_mc/labs/ecet165-labs/l
      +                          ab6/lcd18f.c: 26:     _delay((unsigned long)((1)*(64000000/4000000.0)));
  4633   003EB6  0E05               	movlw	5
  4634   003EB8                     u2917:
  4635   003EB8  2EE8               	decfsz	wreg,f,c
  4636   003EBA  D7FE               	bra	u2917
  4637   003EBC  F000               	nop	
  4638   003EBE                     
  4639                           ;C:/Users/a_hui/OneDrive - Camosun College/term2/ecet165_embedded_mc/labs/ecet165-labs/l
      +                          ab6/lcd18f.c: 27:     LATD = (LATD & 0xF0)|(instr & 0x0F);
  4640   003EBE  C502  F501         	movff	LCDinstruct@instr,??_LCDinstruct
  4641   003EC2  0E0F               	movlw	15
  4642   003EC4  1601               	andwf	??_LCDinstruct^(0+1280),f,c
  4643   003EC6  50C1               	movf	193,w,c	;volatile
  4644   003EC8  0BF0               	andlw	240
  4645   003ECA  1001               	iorwf	??_LCDinstruct^(0+1280),w,c
  4646   003ECC  6EC1               	movwf	193,c	;volatile
  4647   003ECE                     
  4648                           ;C:/Users/a_hui/OneDrive - Camosun College/term2/ecet165_embedded_mc/labs/ecet165-labs/l
      +                          ab6/lcd18f.c: 28:     LATDbits.LATD6 = 1; _delay((unsigned long)((1)*(64000000/4000000.0
      +                          ))); LATDbits.LATD6 = 0;
  4649   003ECE  8CC1               	bsf	193,6,c	;volatile
  4650   003ED0  0E05               	movlw	5
  4651   003ED2                     u2927:
  4652   003ED2  2EE8               	decfsz	wreg,f,c
  4653   003ED4  D7FE               	bra	u2927
  4654   003ED6  F000               	nop	
  4655   003ED8  9CC1               	bcf	193,6,c	;volatile
  4656   003EDA                     
  4657                           ;C:/Users/a_hui/OneDrive - Camosun College/term2/ecet165_embedded_mc/labs/ecet165-labs/l
      +                          ab6/lcd18f.c: 29:     _delay((unsigned long)((5)*(64000000/4000.0)));
  4658   003EDA  0E68               	movlw	104
  4659   003EDC  6E01               	movwf	??_LCDinstruct^(0+1280),c
  4660   003EDE  0EE4               	movlw	228
  4661   003EE0                     u2937:
  4662   003EE0  2EE8               	decfsz	wreg,f,c
  4663   003EE2  D7FE               	bra	u2937
  4664   003EE4  2E01               	decfsz	??_LCDinstruct^(0+1280),f,c
  4665   003EE6  D7FC               	bra	u2937
  4666   003EE8  D000               	nop2	
  4667   003EEA  0012               	return		;funcret
  4668   003EEC                     __end_of_LCDinstruct:
  4669                           	callstack 0
  4670                           
  4671                           	psect	rparam
  4672   000000                     
  4673                           	psect	idloc
  4674                           
  4675                           ;Config register IDLOC0 @ 0x200000
  4676                           ;	unspecified, using default values
  4677   200000                     	org	2097152
  4678   200000  FFFF               	dw	65535
  4679                           
  4680                           ;Config register IDLOC1 @ 0x200002
  4681                           ;	unspecified, using default values
  4682   200002                     	org	2097154
  4683   200002  FFFF               	dw	65535
  4684                           
  4685                           ;Config register IDLOC2 @ 0x200004
  4686                           ;	unspecified, using default values
  4687   200004                     	org	2097156
  4688   200004  FFFF               	dw	65535
  4689                           
  4690                           ;Config register IDLOC3 @ 0x200006
  4691                           ;	unspecified, using default values
  4692   200006                     	org	2097158
  4693   200006  FFFF               	dw	65535
  4694                           
  4695                           ;Config register IDLOC4 @ 0x200008
  4696                           ;	unspecified, using default values
  4697   200008                     	org	2097160
  4698   200008  FFFF               	dw	65535
  4699                           
  4700                           ;Config register IDLOC5 @ 0x20000A
  4701                           ;	unspecified, using default values
  4702   20000A                     	org	2097162
  4703   20000A  FFFF               	dw	65535
  4704                           
  4705                           ;Config register IDLOC6 @ 0x20000C
  4706                           ;	unspecified, using default values
  4707   20000C                     	org	2097164
  4708   20000C  FFFF               	dw	65535
  4709                           
  4710                           ;Config register IDLOC7 @ 0x20000E
  4711                           ;	unspecified, using default values
  4712   20000E                     	org	2097166
  4713   20000E  FFFF               	dw	65535
  4714                           
  4715                           ;Config register IDLOC8 @ 0x200010
  4716                           ;	unspecified, using default values
  4717   200010                     	org	2097168
  4718   200010  FFFF               	dw	65535
  4719                           
  4720                           ;Config register IDLOC9 @ 0x200012
  4721                           ;	unspecified, using default values
  4722   200012                     	org	2097170
  4723   200012  FFFF               	dw	65535
  4724                           
  4725                           ;Config register IDLOC10 @ 0x200014
  4726                           ;	unspecified, using default values
  4727   200014                     	org	2097172
  4728   200014  FFFF               	dw	65535
  4729                           
  4730                           ;Config register IDLOC11 @ 0x200016
  4731                           ;	unspecified, using default values
  4732   200016                     	org	2097174
  4733   200016  FFFF               	dw	65535
  4734                           
  4735                           ;Config register IDLOC12 @ 0x200018
  4736                           ;	unspecified, using default values
  4737   200018                     	org	2097176
  4738   200018  FFFF               	dw	65535
  4739                           
  4740                           ;Config register IDLOC13 @ 0x20001A
  4741                           ;	unspecified, using default values
  4742   20001A                     	org	2097178
  4743   20001A  FFFF               	dw	65535
  4744                           
  4745                           ;Config register IDLOC14 @ 0x20001C
  4746                           ;	unspecified, using default values
  4747   20001C                     	org	2097180
  4748   20001C  FFFF               	dw	65535
  4749                           
  4750                           ;Config register IDLOC15 @ 0x20001E
  4751                           ;	unspecified, using default values
  4752   20001E                     	org	2097182
  4753   20001E  FFFF               	dw	65535
  4754                           
  4755                           ;Config register IDLOC16 @ 0x200020
  4756                           ;	unspecified, using default values
  4757   200020                     	org	2097184
  4758   200020  FFFF               	dw	65535
  4759                           
  4760                           ;Config register IDLOC17 @ 0x200022
  4761                           ;	unspecified, using default values
  4762   200022                     	org	2097186
  4763   200022  FFFF               	dw	65535
  4764                           
  4765                           ;Config register IDLOC18 @ 0x200024
  4766                           ;	unspecified, using default values
  4767   200024                     	org	2097188
  4768   200024  FFFF               	dw	65535
  4769                           
  4770                           ;Config register IDLOC19 @ 0x200026
  4771                           ;	unspecified, using default values
  4772   200026                     	org	2097190
  4773   200026  FFFF               	dw	65535
  4774                           
  4775                           ;Config register IDLOC20 @ 0x200028
  4776                           ;	unspecified, using default values
  4777   200028                     	org	2097192
  4778   200028  FFFF               	dw	65535
  4779                           
  4780                           ;Config register IDLOC21 @ 0x20002A
  4781                           ;	unspecified, using default values
  4782   20002A                     	org	2097194
  4783   20002A  FFFF               	dw	65535
  4784                           
  4785                           ;Config register IDLOC22 @ 0x20002C
  4786                           ;	unspecified, using default values
  4787   20002C                     	org	2097196
  4788   20002C  FFFF               	dw	65535
  4789                           
  4790                           ;Config register IDLOC23 @ 0x20002E
  4791                           ;	unspecified, using default values
  4792   20002E                     	org	2097198
  4793   20002E  FFFF               	dw	65535
  4794                           
  4795                           ;Config register IDLOC24 @ 0x200030
  4796                           ;	unspecified, using default values
  4797   200030                     	org	2097200
  4798   200030  FFFF               	dw	65535
  4799                           
  4800                           ;Config register IDLOC25 @ 0x200032
  4801                           ;	unspecified, using default values
  4802   200032                     	org	2097202
  4803   200032  FFFF               	dw	65535
  4804                           
  4805                           ;Config register IDLOC26 @ 0x200034
  4806                           ;	unspecified, using default values
  4807   200034                     	org	2097204
  4808   200034  FFFF               	dw	65535
  4809                           
  4810                           ;Config register IDLOC27 @ 0x200036
  4811                           ;	unspecified, using default values
  4812   200036                     	org	2097206
  4813   200036  FFFF               	dw	65535
  4814                           
  4815                           ;Config register IDLOC28 @ 0x200038
  4816                           ;	unspecified, using default values
  4817   200038                     	org	2097208
  4818   200038  FFFF               	dw	65535
  4819                           
  4820                           ;Config register IDLOC29 @ 0x20003A
  4821                           ;	unspecified, using default values
  4822   20003A                     	org	2097210
  4823   20003A  FFFF               	dw	65535
  4824                           
  4825                           ;Config register IDLOC30 @ 0x20003C
  4826                           ;	unspecified, using default values
  4827   20003C                     	org	2097212
  4828   20003C  FFFF               	dw	65535
  4829                           
  4830                           ;Config register IDLOC31 @ 0x20003E
  4831                           ;	unspecified, using default values
  4832   20003E                     	org	2097214
  4833   20003E  FFFF               	dw	65535
  4834                           
  4835                           	psect	config
  4836                           
  4837                           ;Config register CONFIG1 @ 0x300000
  4838                           ;	unspecified, using default values
  4839                           ;	External Oscillator Selection
  4840                           ;	FEXTOSC = 0x7, unprogrammed default
  4841                           ;	Reset Oscillator Selection
  4842                           ;	RSTOSC = 0x7, unprogrammed default
  4843   300000                     	org	3145728
  4844   300000  FF                 	db	255
  4845                           
  4846                           ;Config register CONFIG2 @ 0x300001
  4847                           ;	unspecified, using default values
  4848                           ;	Clock out Enable bit
  4849                           ;	CLKOUTEN = 0x1, unprogrammed default
  4850                           ;	PRLOCKED One-Way Set Enable bit
  4851                           ;	PR1WAY = 0x1, unprogrammed default
  4852                           ;	Clock Switch Enable bit
  4853                           ;	CSWEN = 0x1, unprogrammed default
  4854                           ;	Fail-Safe Clock Monitor Enable bit
  4855                           ;	FCMEN = 0x1, unprogrammed default
  4856   300001                     	org	3145729
  4857   300001  FF                 	db	255
  4858                           
  4859                           ;Config register CONFIG3 @ 0x300002
  4860                           ;	unspecified, using default values
  4861                           ;	MCLR Enable bit
  4862                           ;	MCLRE = 0x1, unprogrammed default
  4863                           ;	Power-up timer selection bits
  4864                           ;	PWRTS = 0x3, unprogrammed default
  4865                           ;	Multi-vector enable bit
  4866                           ;	MVECEN = 0x1, unprogrammed default
  4867                           ;	IVTLOCK bit One-way set enable bit
  4868                           ;	IVT1WAY = 0x1, unprogrammed default
  4869                           ;	Low Power BOR Enable bit
  4870                           ;	LPBOREN = 0x1, unprogrammed default
  4871                           ;	Brown-out Reset Enable bits
  4872                           ;	BOREN = 0x3, unprogrammed default
  4873   300002                     	org	3145730
  4874   300002  FF                 	db	255
  4875                           
  4876                           ;Config register CONFIG4 @ 0x300003
  4877                           ;	unspecified, using default values
  4878                           ;	Brown-out Reset Voltage Selection bits
  4879                           ;	BORV = 0x3, unprogrammed default
  4880                           ;	ZCD Disable bit
  4881                           ;	ZCD = 0x1, unprogrammed default
  4882                           ;	PPSLOCK bit One-Way Set Enable bit
  4883                           ;	PPS1WAY = 0x1, unprogrammed default
  4884                           ;	Stack Full/Underflow Reset Enable bit
  4885                           ;	STVREN = 0x1, unprogrammed default
  4886                           ;	Low Voltage Programming Enable bit
  4887                           ;	LVP = 0x1, unprogrammed default
  4888                           ;	Extended Instruction Set Enable bit
  4889                           ;	XINST = 0x1, unprogrammed default
  4890   300003                     	org	3145731
  4891   300003  FF                 	db	255
  4892                           
  4893                           ;Config register CONFIG5 @ 0x300004
  4894                           ;	unspecified, using default values
  4895                           ;	WDT Period selection bits
  4896                           ;	WDTCPS = 0x1F, unprogrammed default
  4897                           ;	WDT operating mode
  4898                           ;	WDTE = 0x3, unprogrammed default
  4899   300004                     	org	3145732
  4900   300004  FF                 	db	255
  4901                           
  4902                           ;Config register CONFIG6 @ 0x300005
  4903                           ;	unspecified, using default values
  4904                           ;	WDT Window Select bits
  4905                           ;	WDTCWS = 0x7, unprogrammed default
  4906                           ;	WDT input clock selector
  4907                           ;	WDTCCS = 0x7, unprogrammed default
  4908   300005                     	org	3145733
  4909   300005  FF                 	db	255
  4910                           
  4911                           ;Config register CONFIG7 @ 0x300006
  4912                           ;	unspecified, using default values
  4913                           ;	Boot Block Size selection bits
  4914                           ;	BBSIZE = 0x7, unprogrammed default
  4915                           ;	Boot Block enable bit
  4916                           ;	BBEN = 0x1, unprogrammed default
  4917                           ;	Storage Area Flash enable bit
  4918                           ;	SAFEN = 0x1, unprogrammed default
  4919                           ;	Background Debugger
  4920                           ;	DEBUG = 0x1, unprogrammed default
  4921   300006                     	org	3145734
  4922   300006  FF                 	db	255
  4923                           
  4924                           ;Config register CONFIG8 @ 0x300007
  4925                           ;	unspecified, using default values
  4926                           ;	Boot Block Write Protection bit
  4927                           ;	WRTB = 0x1, unprogrammed default
  4928                           ;	Configuration Register Write Protection bit
  4929                           ;	WRTC = 0x1, unprogrammed default
  4930                           ;	Data EEPROM Write Protection bit
  4931                           ;	WRTD = 0x1, unprogrammed default
  4932                           ;	SAF Write protection bit
  4933                           ;	WRTSAF = 0x1, unprogrammed default
  4934                           ;	Application Block write protection bit
  4935                           ;	WRTAPP = 0x1, unprogrammed default
  4936   300007                     	org	3145735
  4937   300007  FF                 	db	255
  4938                           
  4939                           ;Config register CONFIG10 @ 0x300009
  4940                           ;	unspecified, using default values
  4941                           ;	PFM and Data EEPROM Code Protection bit
  4942                           ;	CP = 0x1, unprogrammed default
  4943   300009                     	org	3145737
  4944   300009  FF                 	db	255
  4945                           tosu	equ	0x4FF
  4946                           tosh	equ	0x4FE
  4947                           tosl	equ	0x4FD
  4948                           stkptr	equ	0x4FC
  4949                           pclatu	equ	0x4FB
  4950                           pclath	equ	0x4FA
  4951                           pcl	equ	0x4F9
  4952                           tblptru	equ	0x4F8
  4953                           tblptrh	equ	0x4F7
  4954                           tblptrl	equ	0x4F6
  4955                           tablat	equ	0x4F5
  4956                           prodh	equ	0x4F4
  4957                           prodl	equ	0x4F3
  4958                           indf0	equ	0x4EF
  4959                           postinc0	equ	0x4EE
  4960                           postdec0	equ	0x4ED
  4961                           preinc0	equ	0x4EC
  4962                           plusw0	equ	0x4EB
  4963                           fsr0h	equ	0x4EA
  4964                           fsr0l	equ	0x4E9
  4965                           wreg	equ	0x4E8
  4966                           indf1	equ	0x4E7
  4967                           postinc1	equ	0x4E6
  4968                           postdec1	equ	0x4E5
  4969                           preinc1	equ	0x4E4
  4970                           plusw1	equ	0x4E3
  4971                           fsr1h	equ	0x4E2
  4972                           fsr1l	equ	0x4E1
  4973                           bsr	equ	0x4E0
  4974                           indf2	equ	0x4DF
  4975                           postinc2	equ	0x4DE
  4976                           postdec2	equ	0x4DD
  4977                           preinc2	equ	0x4DC
  4978                           plusw2	equ	0x4DB
  4979                           fsr2h	equ	0x4DA
  4980                           fsr2l	equ	0x4D9
  4981                           status	equ	0x4D8

Data Sizes:
    Strings     21
    Constant    0
    Data        0
    BSS         26
    Persistent  0
    Stack       0

Auto Spaces:
    Space          Size  Autos    Used
    COMRAM           95     94      94
    BANK5           160     43      69
    BANK6           256      0       0
    BANK7           256      0       0
    BANK8           256      0       0
    BANK9           256      0       0
    BANK10          256      0       0
    BANK11          256      0       0
    BANK12          256      0       0
    BANK13          256      0       0
    BANK14          256      0       0
    BANK15          256      0       0
    BANK16          256      0       0
    BANK17          256      0       0
    BANK18          256      0       0
    BANK19          256      0       0
    BANK20          256      0       0
    BANK21          256      0       0
    BANK22          256      0       0
    BANK23          256      0       0
    BANK24          256      0       0
    BANK25          256      0       0
    BANK26          256      0       0
    BANK27          256      0       0
    BANK28          256      0       0
    BANK29          256      0       0
    BANK30          256      0       0
    BANK31          256      0       0
    BANK32          256      0       0
    BANK33          256      0       0
    BANK34          256      0       0
    BANK35          256      0       0
    BANK36          256      0       0

Pointer List with Targets:

    LCDprintf@shell	PTR unsigned char  size(2) Largest target is 14
		 -> STR_2(CODE[7]), STR_1(CODE[14]), 

    LCDprintf@args	PTR void [1] size(2) Largest target is 1
		 -> ?_LCDprintf(COMRAM[1]), 

    sp__toString	PTR unsigned char  size(2) Largest target is 6
		 -> toString@string(COMRAM[6]), 

    LCDprints@c	PTR unsigned char  size(2) Largest target is 20
		 -> LCDprintf@f_string(BANK5[20]), ?_LCDprintf(COMRAM[1]), toString@string(COMRAM[6]), 


Critical Paths under _main in COMRAM

    _main->_LCDprintf
    _analogMap->___flmul
    ___flsub->___fladd
    ___fladd->___fldiv
    ___fldiv->___xxtofl
    _LCDprintf->___flmul
    _toString->___lwdiv
    ___flmul->___flsub
    _LCDprints->_toString
    _LCDinit->_LCDinstruct
    _LCDgoto->_LCDinstruct

Critical Paths under _main in BANK5

    _main->_LCDprintf

Critical Paths under _main in BANK6

    None.

Critical Paths under _main in BANK7

    None.

Critical Paths under _main in BANK8

    None.

Critical Paths under _main in BANK9

    None.

Critical Paths under _main in BANK10

    None.

Critical Paths under _main in BANK11

    None.

Critical Paths under _main in BANK12

    None.

Critical Paths under _main in BANK13

    None.

Critical Paths under _main in BANK14

    None.

Critical Paths under _main in BANK15

    None.

Critical Paths under _main in BANK16

    None.

Critical Paths under _main in BANK17

    None.

Critical Paths under _main in BANK18

    None.

Critical Paths under _main in BANK19

    None.

Critical Paths under _main in BANK20

    None.

Critical Paths under _main in BANK21

    None.

Critical Paths under _main in BANK22

    None.

Critical Paths under _main in BANK23

    None.

Critical Paths under _main in BANK24

    None.

Critical Paths under _main in BANK25

    None.

Critical Paths under _main in BANK26

    None.

Critical Paths under _main in BANK27

    None.

Critical Paths under _main in BANK28

    None.

Critical Paths under _main in BANK29

    None.

Critical Paths under _main in BANK30

    None.

Critical Paths under _main in BANK31

    None.

Critical Paths under _main in BANK32

    None.

Critical Paths under _main in BANK33

    None.

Critical Paths under _main in BANK34

    None.

Critical Paths under _main in BANK35

    None.

Critical Paths under _main in BANK36

    None.

Call Graph Tables:

 ---------------------------------------------------------------------------------
 (Depth) Function   	        Calls       Base Space   Used Autos Params    Refs
 ---------------------------------------------------------------------------------
 (0) _main                                                 6     6      0   15145
                                             37 BANK5      6     6      0
                            _LCDgoto
                            _LCDinit
                        _LCDinstruct
                          _LCDprintf
                          _analogMap
                         _analogRead
 ---------------------------------------------------------------------------------
 (1) _analogRead                                          11     2      9     252
                                              0 COMRAM    11     2      9
 ---------------------------------------------------------------------------------
 (1) _analogMap                                           22     8     14    9477
                                             88 COMRAM     4     4      0
                                              0 BANK5     18     4     14
                            ___fladd
                            ___fldiv
                            ___flmul
                            ___flsub
                           ___xxtofl
                         _analogRead (ARG)
 ---------------------------------------------------------------------------------
 (2) ___xxtofl                                            14    10      4     474
                                              0 COMRAM    14    10      4
 ---------------------------------------------------------------------------------
 (2) ___flsub                                              8     0      8    2737
                                             55 COMRAM     8     0      8
                            ___fladd
 ---------------------------------------------------------------------------------
 (3) ___fladd                                             16     8      8    2414
                                             39 COMRAM    16     8      8
                            ___fldiv (ARG)
                           ___xxtofl (ARG)
 ---------------------------------------------------------------------------------
 (2) ___fldiv                                             25    17      8    1399
                                             14 COMRAM    25    17      8
                           ___xxtofl (ARG)
 ---------------------------------------------------------------------------------
 (1) _LCDprintf                                           43    37      6    5239
                                             88 COMRAM     6     0      6
                                              0 BANK5     37    37      0
                          _LCDprintc
                          _LCDprints
                            ___awdiv
                            ___awmod
                            ___flmul
                            ___fltol
                           _toString
 ---------------------------------------------------------------------------------
 (2) _toString                                            10     7      3     961
                                              7 COMRAM    10     7      3
                            ___lwdiv
                            ___lwmod
 ---------------------------------------------------------------------------------
 (3) ___lwmod                                              5     1      4     311
                                              0 COMRAM     5     1      4
 ---------------------------------------------------------------------------------
 (3) ___lwdiv                                              7     3      4     314
                                              0 COMRAM     7     3      4
 ---------------------------------------------------------------------------------
 (2) ___fltol                                             10     6      4     305
                                              0 COMRAM    10     6      4
 ---------------------------------------------------------------------------------
 (2) ___flmul                                             25    17      8    1896
                                             63 COMRAM    25    17      8
                            ___fladd (ARG)
                            ___fldiv (ARG)
                            ___flsub (ARG)
                           ___xxtofl (ARG)
 ---------------------------------------------------------------------------------
 (2) ___awmod                                              6     2      4     448
                                              0 COMRAM     6     2      4
 ---------------------------------------------------------------------------------
 (2) ___awdiv                                              8     4      4     452
                                              0 COMRAM     8     4      4
 ---------------------------------------------------------------------------------
 (2) _LCDprints                                            2     0      2     317
                                             17 COMRAM     2     0      2
                          _LCDprintc
                           _toString (ARG)
 ---------------------------------------------------------------------------------
 (3) _LCDprintc                                            2     2      0      44
                                              0 COMRAM     2     2      0
 ---------------------------------------------------------------------------------
 (1) _LCDinit                                              2     2      0      44
                                              2 COMRAM     2     2      0
                        _LCDinstruct
 ---------------------------------------------------------------------------------
 (1) _LCDgoto                                              1     1      0      66
                                              2 COMRAM     1     1      0
                        _LCDinstruct
 ---------------------------------------------------------------------------------
 (1) _LCDinstruct                                          2     2      0      44
                                              0 COMRAM     2     2      0
 ---------------------------------------------------------------------------------
 Estimated maximum stack depth 3
 ---------------------------------------------------------------------------------

 Call Graph Graphs:

 _main (ROOT)
   _LCDgoto
     _LCDinstruct
   _LCDinit
     _LCDinstruct
   _LCDinstruct
   _LCDprintf
     _LCDprintc
     _LCDprints
       _LCDprintc
       _toString (ARG)
         ___lwdiv
         ___lwmod
     ___awdiv
     ___awmod
     ___flmul
       ___fladd (ARG)
         ___fldiv (ARG)
           ___xxtofl (ARG)
         ___xxtofl (ARG)
       ___fldiv (ARG)
       ___flsub (ARG)
         ___fladd
       ___xxtofl (ARG)
     ___fltol
     _toString
   _analogMap
     ___fladd
     ___fldiv
     ___flmul
     ___flsub
     ___xxtofl
     _analogRead (ARG)
   _analogRead

 Address spaces:
Name               Size   Autos  Total    Cost      Usage
BIGRAM            1FFF      0       0      69        0.0%
EEDATA             400      0       0       0        0.0%
BITBIGSFRlll       3EA      0       0      77        0.0%
BITBIGSFR_1        100      0       0      68        0.0%
BITBANK36          100      0       0      66        0.0%
BANK36             100      0       0      67        0.0%
BITBANK35          100      0       0      64        0.0%
BANK35             100      0       0      65        0.0%
BITBANK34          100      0       0      62        0.0%
BANK34             100      0       0      63        0.0%
BITBANK33          100      0       0      60        0.0%
BANK33             100      0       0      61        0.0%
BITBANK32          100      0       0      58        0.0%
BANK32             100      0       0      59        0.0%
BITBANK31          100      0       0      56        0.0%
BANK31             100      0       0      57        0.0%
BITBANK30          100      0       0      54        0.0%
BANK30             100      0       0      55        0.0%
BITBANK29          100      0       0      52        0.0%
BANK29             100      0       0      53        0.0%
BITBANK28          100      0       0      50        0.0%
BANK28             100      0       0      51        0.0%
BITBANK27          100      0       0      48        0.0%
BANK27             100      0       0      49        0.0%
BITBANK26          100      0       0      46        0.0%
BANK26             100      0       0      47        0.0%
BITBANK25          100      0       0      44        0.0%
BANK25             100      0       0      45        0.0%
BITBANK24          100      0       0      42        0.0%
BANK24             100      0       0      43        0.0%
BITBANK23          100      0       0      40        0.0%
BANK23             100      0       0      41        0.0%
BITBANK22          100      0       0      38        0.0%
BANK22             100      0       0      39        0.0%
BITBANK21          100      0       0      36        0.0%
BANK21             100      0       0      37        0.0%
BITBANK20          100      0       0      34        0.0%
BANK20             100      0       0      35        0.0%
BITBANK19          100      0       0      32        0.0%
BANK19             100      0       0      33        0.0%
BITBANK18          100      0       0      30        0.0%
BANK18             100      0       0      31        0.0%
BITBANK17          100      0       0      28        0.0%
BANK17             100      0       0      29        0.0%
BITBANK16          100      0       0      26        0.0%
BANK16             100      0       0      27        0.0%
BITBANK15          100      0       0      24        0.0%
BANK15             100      0       0      25        0.0%
BITBANK14          100      0       0      22        0.0%
BANK14             100      0       0      23        0.0%
BITBANK13          100      0       0      20        0.0%
BANK13             100      0       0      21        0.0%
BITBANK12          100      0       0      18        0.0%
BANK12             100      0       0      19        0.0%
BITBANK11          100      0       0      16        0.0%
BANK11             100      0       0      17        0.0%
BITBANK10          100      0       0      14        0.0%
BANK10             100      0       0      15        0.0%
BITBANK9           100      0       0      12        0.0%
BANK9              100      0       0      13        0.0%
BITBANK8           100      0       0      10        0.0%
BANK8              100      0       0      11        0.0%
BITBANK7           100      0       0       8        0.0%
BANK7              100      0       0       9        0.0%
BITBANK6           100      0       0       6        0.0%
BANK6              100      0       0       7        0.0%
BITBIGSFRhll        A7      0       0      73        0.0%
BITBANK5            A0      0       0       4        0.0%
BANK5               A0     2B      45       5       43.1%
BITCOMRAM           5F      0       0       0        0.0%
COMRAM              5F     5E      5E       1       98.9%
BITBIGSFRhh         36      0       0      70        0.0%
BITBIGSFRlhh        17      0       0      74        0.0%
BITBIGSFRlhl         C      0       0      75        0.0%
BITBIGSFRllh         6      0       0      76        0.0%
BITBIGSFRhlhl        4      0       0      72        0.0%
BITBIGSFRhlhh        2      0       0      71        0.0%
BIGSFR_1             0      0       0     200        0.0%
BIGSFR               0      0       0     200        0.0%
BITSFR_6             0      0       0     200        0.0%
SFR_6                0      0       0     200        0.0%
BITSFR_5             0      0       0     200        0.0%
SFR_5                0      0       0     200        0.0%
BITSFR_4             0      0       0     200        0.0%
SFR_4                0      0       0     200        0.0%
BITSFR_3             0      0       0     200        0.0%
SFR_3                0      0       0     200        0.0%
BITSFR_2             0      0       0     200        0.0%
SFR_2                0      0       0     200        0.0%
BITSFR_1             0      0       0     200        0.0%
SFR_1                0      0       0     200        0.0%
BITSFR               0      0       0     200        0.0%
SFR                  0      0       0     200        0.0%
STACK                0      0       0       2        0.0%
NULL                 0      0       0       0        0.0%
ABS                  0      0      A3      78        0.0%
DATA                 0      0      A3       3        0.0%
CODE                 0      0       0       0        0.0%


Microchip Technology PIC18 Macro Assembler V2.40 build 20220703182018 
Symbol Table                                                                                   Mon Apr 03 17:00:06 2023

             ___fldiv@aexp 0527               ___fldiv@bexp 0526               ___fldiv@sign 051F  
                       l22 3BA2                         l31 3FA0                         l25 3D8E  
                       l34 4052                         l19 3EEA                         l47 3E02  
                       l73 3618                         l90 3AB8                         l84 3FC6  
                       l87 3FE6               ___awdiv@sign 0506                        l113 38D8  
                      l350 3C66                        l416 38D2                        l610 3E6E  
                      l363 3D16                        l620 3F46                        l701 329A  
                      l703 30FA                        l712 3140                        l617 3E76  
                      l714 31B8                        l706 30BE                        l627 3F4E  
                      l715 31A6                        l740 2D92                        l733 2B9C  
                      l750 2EC2                        l742 2E0A                        l743 2DF8  
                      l647 2806                        l664 2920                        l656 2AD6  
                      l648 27F4                        l737 2F00                        l673 29F0  
                      l649 27BA                        l674 29DE                        l781 3708  
                      l774 3670                        l689 402C                        l777 37CC  
                      l788 3764               ___awmod@sign 0506                        wreg 0004E8  
             ___flmul@aexp 0551               ___flmul@bexp 0552               ___flmul@sign 054C  
             ___flmul@temp 0557               ___flmul@prod 0553               ___fltol@exp1 050A  
                     l2000 2A66                       l2010 2AAE                       l2002 2A76  
                     l2100 3F5E                       l2012 2AB0                       l2004 2A96  
                     l2110 3F84                       l2102 3F66                       l2030 3E2E  
                     l2022 3E04                       l2014 2AB6                       l2006 2A9A  
                     l2112 3F88                       l2104 3F68                       l2040 3E62  
                     l2032 3E3C                       l2024 3E0C                       l2200 3082  
                     l2016 2AC4                       l2008 2AA8                       l2106 3F6A  
                     l2042 3E68                       l2034 3E42                       l2026 3E1E  
                     l2050 3F0E                       l2130 3DFA                       l2122 3DB2  
                     l2114 3D90                       l2210 30C8                       l2202 308A  
                     l2018 2AC6                       l2060 3E7A                       l2108 3F76  
                     l2300 2B76                       l2036 3E58                       l2028 3E26  
                     l2052 3F1C                       l2044 3EEC                       l2124 3DD8  
                     l2116 3D9C                       l2220 3120                       l2212 30E6  
                     l2204 309A                       l2140 2F1E                       l2070 3E92  
                     l2062 3E84                       l2302 2B86                       l2038 3E60  
                     l2054 3F32                       l2046 3EFE                       l2126 3DF4  
                     l2118 3DA0                       l2230 315E                       l2222 3126  
                     l2214 30E8                       l2206 30AE                       l2142 2F2E  
                     l2150 2F58                       l2134 2F02                       l2080 3EB6  
                     l2072 3E94                       l2064 3E86                       l2320 2C08  
                     l2312 2BD0                       l2304 2B8C                       l2056 3F3A  
                     l2048 3F06                       l2240 31C8                       l2232 3162  
                     l2224 3130                       l2216 30F8                       l2208 30BC  
                     l2160 2F84                       l2152 2F68                       l2144 2F3E  
                     l2136 2F0E                       l2090 3EDA                       l2082 3EBE  
                     l2074 3EAA                       l2066 3E88                       l2410 3BA8  
                     l2330 2C52                       l2322 2C20                       l2314 2BDC  
                     l2306 2BAC                       l2058 3F40                       l2250 322A  
                     l2242 31D4                       l2234 3170                       l2226 313E  
                     l2218 310A                       l2162 2F94                       l2170 2FBE  
                     l2154 2F6E                       l2146 2F4E                       l2138 2F1C  
                     l2402 3FE8                       l2084 3ECE                       l2076 3EAC  
                     l2068 3E90                       l2420 3BD8                       l2412 3BB6  
                     l2340 2CA8                       l2332 2C62                       l2324 2C2C  
                     l2316 2BE6                       l2308 2BBC                       l2500 3834  
                     l2260 3288                       l2252 3240                       l2244 31E2  
                     l2236 319E                       l2228 3150                       l2180 3000  
                     l2172 2FCE                       l2164 2FA4                       l2156 2F74  
                     l2148 2F50                       l2404 3FF8                       l2086 3ED0  
                     l2078 3EB4                       l2094 3F50                       l2430 3C06  
                     l2422 3BDC                       l2414 3BBE                       l2350 2D4C  
                     l2342 2CC4                       l2334 2C6E                       l2326 2C38  
                     l2318 2BFC                       l2510 385E                       l2502 3838  
                     l2262 328E                       l2254 325A                       l2246 320C  
                     l2174 2FE4                       l2166 2FB4                       l2158 2F82  
                     l2088 3ED8                       l2600 3B08                       l1800 3D4E  
                     l2096 3F5A                       l2440 3C3A                       l2432 3C14  
                     l2424 3BE4                       l2416 3BC2                       l2408 3BA4  
                     l2360 2DA2                       l2352 2D5A                       l2344 2CD0  
                     l2336 2C7E                       l2328 2C46                       l2280 2B04  
                     l2272 2AD8                       l2520 3886                       l2512 3868  
                     l2504 3846                       l2264 3290                       l2256 3276  
                     l2248 3210                       l2192 3038                       l2176 2FF4  
                     l2184 3014                       l2168 2FB6                       l2610 3B44  
                     l2602 3B18                       l1810 3D72                       l1802 3D50  
                     l2098 3F5C                       l2442 3C40                       l2434 3C1A  
                     l2426 3BF6                       l2418 3BD0                       l2362 2DB0  
                     l2354 2D78                       l2346 2CEC                       l2338 2C98  
                     l2290 2B40                       l2282 2B14                       l2274 2AE4  
                     l2522 3892                       l2514 3872                       l2258 327A  
                     l2194 3052                       l2186 3024                       l2178 2FFC  
                     l2620 3B68                       l2612 3B46                       l2604 3B20  
                     l1812 3D74                       l1804 3D58                       l2436 3C30  
                     l2428 3BFE                       l2444 3C46                       l2460 3C86  
                     l2452 3C68                       l2372 2E1A                       l2380 2E62  
                     l2364 2DB4                       l2356 2D82                       l2348 2D16  
                     l2292 2B46                       l2284 2B24                       l2276 2AF2  
                     l2524 38A2                       l2700 35C2                       l2196 3062  
                     l2188 3024                       l1900 275C                       l1820 2618  
                     l2540 3696                       l2532 361C                       l2630 3B96  
                     l2622 3B72                       l2614 3B4E                       l2606 3B2A  
                     l1814 3D7C                       l1806 3D5A                       l2446 3C56  
                     l2438 3C38                       l2470 3CBE                       l2462 3C94  
                     l2454 3C6C                       l2390 2ED6                       l2382 2E7C  
                     l2374 2E26                       l2366 2DC2                       l2358 2D90  
                     l2294 2B54                       l2286 2B2A                       l2278 2AF4  
                     l2526 38B2                       l2702 35D0                       l2710 35FC  
                     l2198 3072                       l1910 27D4                       l1902 2786  
                     l1830 2654                       l1822 2624                       l2550 36F0  
                     l2534 362C                       l2632 3B9C                       l2624 3B84  
                     l2616 3B50                       l2608 3B3C                       l1816 3D7E  
                     l1808 3D6A                       l2448 3C5E                       l2472 3CCC  
                     l2480 3CF6                       l2464 3C9C                       l2456 3C7A  
                     l2392 2EE4                       l2384 2E90                       l2376 2E34  
                     l2368 2DF0                       l2296 2B56                       l2288 2B3A  
                     l2528 38C2                       l2704 35DC                       l2640 329C  
                     l1920 2814                       l1912 27D8                       l1904 27A2  
                     l1840 2684                       l1832 2664                       l1824 2632  
                     l2560 3754                       l2552 36F2                       l2544 36AA  
                     l2536 363A                       l2720 3FC4                       l2712 3FA2  
                     l2626 3B8A                       l2618 3B60                       l2482 3D06  
                     l2474 3CE2                       l2466 3CAE                       l2458 3C82  
                     l2394 2EE6                       l2386 2EAA                       l2378 2E5E  
                     l2298 2B66                       l2490 37E4                       l2706 35E8  
                     l2650 3308                       l2642 32AA                       l1930 2856  
                     l1922 2824                       l1914 27E6                       l1906 27B2  
                     l1850 26AE                       l1842 2696                       l1834 2666  
                     l1826 2634                       l2570 37AC                       l2562 3772  
                     l2554 36FE                       l2546 36B2                       l2538 3680  
                     l2722 3FD4                       l2714 3FAC                       l2636 404A  
                     l2628 3B90                       l2580 3AD2                       l2484 3D0E  
                     l2476 3CEA                       l2468 3CB6                       l2388 2EC6  
                     l2396 2EEC                       l2660 3396                       l2652 331C  
                     l2644 32C6                       l1940 2884                       l1932 2864  
                     l1916 27E8                       l1908 27C8                       l1852 26BE  
                     l1860 26E8                       l1844 2698                       l1828 2644  
                     l1836 266E                       l2572 37BA                       l2564 3774  
                     l2556 373A                       l2548 36BE                       l2716 3FAE  
                     l2590 3AEA                       l2582 3AD8                       l1790 3D28  
                     l2478 3CF0                       l2398 2EF0                       l2494 37F8  
                     l2662 33A0                       l2654 3326                       l2646 32D6  
                     l1950 28F0                       l1942 288E                       l1934 2870  
                     l1926 2838                       l1918 27F2                       l1870 2720  
                     l1862 26F8                       l1854 26CE                       l1846 269E  
                     l1838 267E                       l2574 37BC                       l2566 3778  
                     l2558 3746                       l2726 39C8                       l2718 3FC2  
                     l2592 3AF4                       l2584 3ADC                       l1792 3D30  
                     l1784 3D1A                       l2496 3822                       l2488 37CE  
                     l2680 344C                       l2672 33F0                       l2664 33AC  
                     l2656 3332                       l2648 32DE                       l1952 2900  
                     l1936 2874                       l1928 2848                       l1944 2894  
                     l1880 2734                       l1872 2724                       l1864 270A  
                     l1856 26DE                       l1848 26AC                       l2568 379C  
                     l2728 3A84                       l2594 3AFC                       l2586 3ADE  
                     l2578 3ABA                       l1794 3D32                       l1786 3D24  
                     l2498 3824                       l2690 3520                       l2682 3480  
                     l2674 3418                       l2666 33D4                       l2658 335A  
                     l1970 2982                       l1962 295A                       l1946 28BA  
                     l1954 2910                       l1938 2882                       l1890 2748  
                     l1882 2738                       l1874 2728                       l1866 2718  
                     l1858 26E0                       l2770 3984                       l2596 3AFE  
                     l2588 3AE8                       l1796 3D34                       l1788 3D26  
                     l2692 3568                       l2684 3484                       l2676 3424  
                     l2668 33E2                       l1972 298A                       l1964 2964  
                     l1956 2936                       l1948 28EE                       l1980 29AE  
                     l1892 274C                       l1884 273C                       l1876 272C  
                     l1868 271C                       l2772 398A                       l2764 38D4  
                     l2598 3B06                       l1798 3D46                       l2694 357C  
                     l2686 34C6                       l2678 3444                       l1990 2A00  
                     l1982 29B2                       l1974 298E                       l1966 2972  
                     l1958 2946                       l1894 2750                       l1886 2740  
                     l1878 2730                       l2774 39A6                       l2766 38DE  
                     l2696 35A2                       l2688 34E2                       l1992 2A0C  
                     l1984 29C0                       l1976 299E                       l1968 2974  
                     l1896 2754                       l1888 2744                       l2768 3978  
          __end_of_LCDinit 3BA4                       l2698 35BE                       l1994 2A1A  
                     l1986 29D6                       l1978 29A0                       l1898 2758  
                     l1996 2A54            __end_of_LCDgoto 4054                       l1998 2A56  
                     STR_1 2601                       STR_2 260F                       u2000 31B4  
                     u2001 31B0                       u2010 31C8                       u2011 31C4  
                     u2100 2B66                       u2020 31E2                       u2101 2B62  
                     u2021 31DE                       u2110 2B76                       u2030 322A  
                     u2111 2B72                       u2031 3226                       u2200 2E1A  
                     u2120 2BAC                       u2040 325A                       u1400 26BE  
                     u2201 2E16                       u2121 2BA8                       u2041 3256  
                     u1401 26BA                       u2210 2E34                       u2130 2BBC  
                     u2050 3288                       u1410 26CE                       u2211 2E30  
                     u2131 2BB8                       u2051 3284                       u1411 26CA  
                     u2300 3C56                       u2220 2E7C                       u2140 2D36  
                     u2060 2AF2                       u1500 2814                       u1420 270A  
                     u2301 3C52                       u2221 2E78                       u2061 2AEE  
                     u1501 2810                       u1421 2706                       u2310 3C7A  
                     u2230 2EAA                       u2150 2D90                       u2070 2B04  
                     u1510 2824                       u1430 2718                       u1350 2632  
                     u2311 3C76                       u2231 2EA6                       u2151 2D8C  
                     u2071 2B00                       u1511 2820                       u1431 2714  
                     u1351 262E                       u2320 3C94                       u2240 2EE4  
                     u2160 2DB0                       u2080 2B14                       u2400 385A  
                     u1600 2982                       u1520 2856                       u1440 2786  
                     u1360 2644                       _LATD 0004C1                       u2321 3C90  
                     u2241 2EE0                       u2161 2DAC                       u2145 2D2C  
                     u2081 2B10                       u2401 3856                       u1601 297E  
                     u1521 2852                       u1441 2782                       u1361 2640  
                     u2250 3BB6                       u2330 3CAE                       u2170 2DC2  
                     u2090 2B54                       u2410 3882                       u1610 299E  
                     u1530 2864                       u1450 279E                       u1370 2654  
                     u2251 3BB2                       u2331 3CAA                       u2171 2DBE  
                     u2091 2B50                       u2411 387E                       u1611 299A  
                     u1531 2860                       u1451 2798                       u1371 2650  
                     u2260 3BD0                       u2340 3CCC                       u2180 2DF0  
                     u2420 38A2                       u1700 2A76                       u1620 29AE  
                     u1540 2882                       u1460 27A0                       u1380 2696  
                     u2500 3764                       u2261 3BCC                       u2341 3CC8  
                     u2181 2DEC                       u2421 389E                       u1701 2A72  
                     u1621 29AA                       u1541 287E                       u1381 2692  
                     u2501 3760                       u2270 3BF6                       u2350 3CE2  
                     u2190 2E06                       u2430 38B2                       u1710 2A96  
                     u1630 29C0                       u1550 28BA                       u1470 27C8  
                     u1390 26AC                       u2510 3772                       u2271 3BF2  
                     u2351 3CDE                       u2191 2E02                       u2431 38AE  
                     u1711 2A92                       u1631 29BC                       u1551 28B6  
                     u1471 27C4                       u1391 26A8                       u2511 376E  
                     u1800 3FA0                       u2280 3C14                       u2360 3D06  
                     u2600 34C6                       u1720 2AA8                       u1640 29D6  
                     u1560 2900                       u1480 27E6                       u2520 37AC  
                     u2440 362C                       u1801 3F9C                       u2281 3C10  
                     u2361 3D02                       u2601 34C2                       u1721 2AA4  
                     u1641 29D2                       u1561 28FC                       u1481 27E2  
                     u2521 37A8                       u2441 3628                       u2290 3C30  
                     u2370 37E4                       u2610 3568                       u1730 2AC4  
                     u1650 29EC                       u1570 2936                       u1490 2806  
                     u2530 37BA                       u2450 363A                       u2291 3C2C  
                     u2371 37E0                       u1811 3D96                       u2611 3564  
                     u1731 2AC0                       u1651 29E8                       u1571 2932  
                     u1491 2802                       u2531 37B6                       u2451 3636  
                     u2380 3818                       u1740 3E1E                       u1820 3DAE  
                     u2620 35D0                       u2540 32C6                       u1900 3024  
                     u1660 2A00                       u1580 2946                       u2460 3696  
                     u1741 3E1A                       u1821 3DAA                       u2621 35CC  
                     u2541 32C2                       u1901 3020                       u1661 29FC  
                     u1581 2942                       u2461 3692                       u2390 3846  
                     u1750 3E3C                       u2630 3618                       u2550 3308  
                     u1910 309A                       u1830 2F1C                       u1670 2A1A  
                     u1590 2972                       u2470 36EC                       u2391 3842  
                     u1751 3E38                       u2631 3614                       u2551 3304  
                     u1911 3096                       u1831 2F18                       u1671 2A16  
                     u1591 296E                       u2471 36E8                       u1760 3E58  
                     u2560 335A                       u1920 30BC                       u1840 2F2E  
                     u1680 2A54                       u2480 3736                       u2640 3FD4  
                     u2385 380E                       u1761 3E54                       u2561 3356  
                     u1921 30B8                       u1841 2F2A                       u1681 2A50  
                     u2481 3732                       u2641 3FD0                       u1770 3EFE  
                     u2570 33D4                       u1930 30E6                       u1850 2F3E  
                     u1690 2A66                       u2490 3754                       u2707 3F60  
                     u1771 3EFA                       u2571 33D0                       u1931 30E2  
                     u1851 2F3A                       u1691 2A62                       u2491 3750  
                     u1780 3F1C                       u2580 3418                       u1940 310A  
                     u1860 2F82                       u2717 3F6C                       u1781 3F18  
                     u2581 3414                       u1941 3106                       u1861 2F7E  
                     u1790 3F32                       u1950 3120                       u1870 2F94  
                     u2670 38F4                       u2807 3AEE                       u2727 3D2A  
                     u1791 3F2E                       u2591 341E                       u1951 311C  
                     u1871 2F90                       u2671 38EA                       u1960 313E  
                     u1880 2FA4                       u2680 3914                       u2817 3B00  
                     u2737 3D48                       u1961 313A                       u1881 2FA0  
                     u2681 390C                       u1970 315E                       u1890 2FE4  
                     u2907 3EAE                       u2827 3B0E                       u2747 3D52  
                     u1971 315A                       u1891 2FE0                       u1980 3170  
                     u2917 3EB8                       u2837 3B24                       u2757 3D6C  
                     u1981 316C                       u1990 319E                       u2678 38F8  
                     u2927 3ED2                       u2847 3B32                       u2767 3D76  
                     u1991 319A                       u2688 3918                       u2937 3EE0  
                     u2857 3B48                       u2777 3D84                       u2697 39B2  
                     u2867 3B56                       u2787 3AC4                       u2877 3B6C  
                     u2797 3AE2                       u2887 3B7A                       u2897 3E8A  
                     _WPUD 000419                       _main 38D4                       fsr2h 0004DA  
                     indf2 0004DF                       fsr2l 0004D9                       prodh 0004F4  
                     prodl 0004F3                       start FFFC            ___fldiv@new_exp 0520  
             ___param_bank 000000               ?_LCDinstruct 0501              ___fltol@sign1 0509  
          __end_of___fladd 2AD8                      ?_main 0501                      _ADPCH 0003EC  
          __end_of___fldiv 329C            __end_of___awdiv 3C68            __end_of___awmod 3D18  
          __end_of___flmul 2F02            __end_of___flsub 402E            __end_of___fltol 38D4  
          ___awdiv@divisor 0503            __end_of___lwdiv 3E78            __end_of___lwmod 3F50  
          ___awdiv@counter 0505                      _TRISD 0004C9           LCDprintf@f_input 057C  
                    tablat 0004F5                      status 0004D8           LCDprintf@indexer 0582  
          __initialization 402E               __end_of_main 39C8                     ??_main 0585  
            __activetblptr 000001        analogMap@analog_max 0562        analogMap@analog_min 0564  
                ??_LCDinit 0503                  ??_LCDgoto 0503                     _ADRESH 0003EB  
                   _ADRESL 0003EA           ___awdiv@dividend 0501                     _ANSELD 000418  
        __end_of_LCDprintc 3D90          __end_of_LCDprintf 361A          __end_of_LCDprints 3FA2  
         __end_of___xxtofl 37CE                  ??___fladd 0530                  ??___fldiv 0517  
                ??___awdiv 0505                  ??___awmod 0505                  ??___flmul 0548  
                ??___flsub 0540                  ??___fltol 0505                  ??___lwdiv 0505  
                ??___lwmod 0505                     clear_0 4034           ___awdiv@quotient 0507  
          ___awmod@divisor 0503                     isa$std 000001            ___awmod@counter 0505  
         __end_of_toString 3E04               __mediumconst 0000          LCDprintf@f_string 0567  
                   tblptrh 0004F7                     tblptrl 0004F6                     tblptru 0004F8  
             ___xxtofl@arg 050B               ___xxtofl@exp 050A               ___xxtofl@val 0501  
               __accesstop 0560    __end_of__initialization 403A              ___rparam_used 000001  
               ___fltol@f1 0501             __pcstackCOMRAM 0501                 __pbssBANK5 058B  
      analogMap@sensor_max 0566        analogMap@sensor_min 056A                 _analogRead 3FA2  
                ?___xxtofl 0501                    _LCDinit 3ABA                    _LCDgoto 4048  
        __end_of_analogMap 3ABA                    __Hparam 0000                    __Lparam 0000  
                ?_toString 0508                    ___fladd 2618                    ___fldiv 2F02  
analogRead@pin_designation 0509                    ___awdiv 3BA4                    ___awmod 3C68  
                  ___flmul 2AD8                    ___flsub 3FE8                    ___fltol 37CE  
                  ___lwdiv 3E04                    ___lwmod 3EEC               __psmallconst 2600  
                  __pcinit 402E                    __ramtop 2600                    __ptext0 38D4  
                  __ptext1 3FA2                    __ptext2 39C8                    __ptext3 361A  
                  __ptext4 3FE8                    __ptext5 2618                    __ptext6 2F02  
                  __ptext7 329C                    __ptext8 3D90                    __ptext9 3EEC  
               ??___xxtofl 0505           ___awmod@dividend 0501       end_of_initialization 403A  
         LCDinstruct@instr 0502                ?_analogRead 0501                  _LCDprintc 3D18  
                _LCDprintf 329C                  _LCDprints 3F50                 ??_toString 050B  
                  postdec2 0004DD                    postinc0 0004EE                    postinc2 0004DE  
       analogRead@pin_tris 0505                ___fladd@grs 0537              ___xxtofl@sign 0509  
                _TRISAbits 0004C6                ___fldiv@grs 0522                ___fldiv@rem 051B  
          LCDprintf@F16825 058B                ___flmul@grs 054D                 ?_LCDprintc 0501  
               ?_LCDprintf 0559                 ?_LCDprints 0512        start_initialization 402E  
  analogMap@analog_reading 0560              _analogMap$890 056E                 LCDgoto@pos 0503  
               LCDprintc@c 0502                 LCDprintf@i 057B                 LCDprints@c 0512  
            ??_LCDinstruct 0501                  ___fladd@a 052C                  ___fladd@b 0528  
                ___fldiv@a 0513                  ___fldiv@b 050F                  ___flmul@a 0544  
                ___flmul@b 0540                   ?_LCDinit 0501                   ?_LCDgoto 0501  
                ___flsub@a 053C                  ___flsub@b 0538             toString@F16815 059F  
            __pcstackBANK5 0560                ??_LCDprintc 0501                ??_LCDprintf 0560  
              ??_LCDprints 0514                  _analogMap 39C8           ___lwdiv@dividend 0501  
                 ?___fladd 0528                   ?___fldiv 050F                   ?___awdiv 0501  
                 ?___awmod 0501                   ?___flmul 0540                   ?___flsub 0538  
                 ?___fltol 0501                   ?___lwdiv 0501                   ?___lwmod 0501  
           toString@length 050A             toString@number 0508             toString@string 050B  
              __smallconst 2600        __end_of_LCDinstruct 3EEC           ___lwdiv@quotient 0505  
                 _LATDbits 0004C1               ??_analogRead 050A                 ?_analogMap 0560  
               _ADCON0bits 0003F3         __end_of_analogRead 3FE8             LCDprintf@f_int 0580  
           LCDprintf@shell 0559                   __Hrparam 0000                   __Lrparam 0000  
             __Lsmallconst 2600                _LCDinstruct 3E78                 _ANSELAbits 000400  
                 ___xxtofl 361A            ___lwdiv@divisor 0503            ___lwdiv@counter 0507  
                 __ptext10 3E04                   __ptext11 37CE                   __ptext12 2AD8  
                 __ptext13 3C68                   __ptext14 3BA4                   __ptext15 3F50  
                 __ptext16 3D18                   __ptext17 3ABA                   __ptext18 4048  
                 __ptext19 3E78                ??_analogMap 0559                  toString@i 0511  
                 _toString 3D90                   isa$xinst 000000              LCDprintf@args 0583  
          main@pot_voltage 0587           ___lwmod@dividend 0501        analogRead@pin_ansel 0501  
          ___lwmod@divisor 0503            ___lwmod@counter 0505              ___fladd@signs 0534  
             ___fladd@aexp 0535               ___fladd@bexp 0536  
